

Microchip MPLAB XC8 Assembler V2.31 build 20201012212115 
                                                                                               Sun Aug 08 21:15:06 2021

Microchip MPLAB XC8 C Compiler v2.31 (Free license) build 20201012212115 Og1 
     1                           	processor	16F887
     2                           	pagewidth 120
     3                           	opt	flic
     4                           	psect	cinit,global,class=CODE,merge=1,delta=2
     5                           	psect	bssCOMMON,global,class=COMMON,space=1,delta=1,noexec
     6                           	psect	cstackCOMMON,global,class=COMMON,space=1,delta=1,noexec
     7                           	psect	cstackBANK0,global,class=BANK0,space=1,delta=1,noexec
     8                           	psect	maintext,global,class=CODE,split=1,delta=2
     9                           	psect	text1,local,class=CODE,merge=1,delta=2
    10                           	psect	text2,local,class=CODE,merge=1,delta=2
    11                           	psect	text3,local,class=CODE,merge=1,delta=2
    12                           	psect	text4,local,class=CODE,merge=1,delta=2
    13                           	psect	text5,local,class=CODE,merge=1,delta=2
    14                           	psect	text6,local,class=CODE,merge=1,delta=2
    15                           	psect	text7,local,class=CODE,merge=1,delta=2
    16                           	psect	intentry,global,class=CODE,delta=2
    17                           	psect	config,global,abs,ovrld,class=CONFIG,space=4,delta=2,noexec
    18                           	dabs	1,0x7E,2
    19  0000                     
    20                           ; Version 2.20
    21                           ; Generated 12/02/2020 GMT
    22                           ; 
    23                           ; Copyright © 2020, Microchip Technology Inc. and its subsidiaries ("Microchip")
    24                           ; All rights reserved.
    25                           ; 
    26                           ; This software is developed by Microchip Technology Inc. and its subsidiaries ("Microch
      +                          ip").
    27                           ; 
    28                           ; Redistribution and use in source and binary forms, with or without modification, are
    29                           ; permitted provided that the following conditions are met:
    30                           ; 
    31                           ;     1. Redistributions of source code must retain the above copyright notice, this lis
      +                          t of
    32                           ;        conditions and the following disclaimer.
    33                           ; 
    34                           ;     2. Redistributions in binary form must reproduce the above copyright notice, this 
      +                          list
    35                           ;        of conditions and the following disclaimer in the documentation and/or other
    36                           ;        materials provided with the distribution.
    37                           ; 
    38                           ;     3. Microchip's name may not be used to endorse or promote products derived from th
      +                          is
    39                           ;        software without specific prior written permission.
    40                           ; 
    41                           ; THIS SOFTWARE IS PROVIDED BY MICROCHIP "AS IS" AND ANY EXPRESS OR IMPLIED WARRANTIES,
    42                           ; INCLUDING, BUT NOT LIMITED TO, THE IMPLIED WARRANTIES OF MERCHANTABILITY AND FITNESS F
      +                          OR
    43                           ; PURPOSE ARE DISCLAIMED.  IN NO EVENT SHALL MICROCHIP BE LIABLE FOR ANY DIRECT, INDIREC
      +                          T,
    44                           ; INCIDENTAL, SPECIAL, EXEMPLARY, OR CONSEQUENTIAL DAMAGES (INCLUDING BUT NOT LIMITED TO
    45                           ; PROCUREMENT OF SUBSTITUTE GOODS OR SERVICES; LOSS OF USE, DATA OR PROFITS; OR BUSINESS
    46                           ; INTERRUPTION) HOWSOEVER CAUSED AND ON ANY THEORY OF LIABILITY, WHETHER IN CONTRACT, ST
      +                          RICT
    47                           ; LIABILITY, OR TORT (INCLUDING NEGLIGENCE OR OTHERWISE) ARISING IN ANY WAY OUT OF THE U
      +                          SE OF
    48                           ; THIS SOFTWARE, EVEN IF ADVISED OF THE POSSIBILITY OF SUCH DAMAGE.
    49                           ; 
    50                           ; 
    51                           ; Code-generator required, PIC16F887 Definitions
    52                           ; 
    53                           ; SFR Addresses
    54  0000                     	;# 
    55  0001                     	;# 
    56  0002                     	;# 
    57  0003                     	;# 
    58  0004                     	;# 
    59  0005                     	;# 
    60  0006                     	;# 
    61  0007                     	;# 
    62  0008                     	;# 
    63  0009                     	;# 
    64  000A                     	;# 
    65  000B                     	;# 
    66  000C                     	;# 
    67  000D                     	;# 
    68  000E                     	;# 
    69  000E                     	;# 
    70  000F                     	;# 
    71  0010                     	;# 
    72  0011                     	;# 
    73  0012                     	;# 
    74  0013                     	;# 
    75  0014                     	;# 
    76  0015                     	;# 
    77  0015                     	;# 
    78  0016                     	;# 
    79  0017                     	;# 
    80  0018                     	;# 
    81  0019                     	;# 
    82  001A                     	;# 
    83  001B                     	;# 
    84  001B                     	;# 
    85  001C                     	;# 
    86  001D                     	;# 
    87  001E                     	;# 
    88  001F                     	;# 
    89  0081                     	;# 
    90  0085                     	;# 
    91  0086                     	;# 
    92  0087                     	;# 
    93  0088                     	;# 
    94  0089                     	;# 
    95  008C                     	;# 
    96  008D                     	;# 
    97  008E                     	;# 
    98  008F                     	;# 
    99  0090                     	;# 
   100  0091                     	;# 
   101  0092                     	;# 
   102  0093                     	;# 
   103  0093                     	;# 
   104  0093                     	;# 
   105  0094                     	;# 
   106  0095                     	;# 
   107  0096                     	;# 
   108  0097                     	;# 
   109  0098                     	;# 
   110  0099                     	;# 
   111  009A                     	;# 
   112  009B                     	;# 
   113  009C                     	;# 
   114  009D                     	;# 
   115  009E                     	;# 
   116  009F                     	;# 
   117  0105                     	;# 
   118  0107                     	;# 
   119  0108                     	;# 
   120  0109                     	;# 
   121  010C                     	;# 
   122  010C                     	;# 
   123  010D                     	;# 
   124  010E                     	;# 
   125  010F                     	;# 
   126  0185                     	;# 
   127  0187                     	;# 
   128  0188                     	;# 
   129  0189                     	;# 
   130  018C                     	;# 
   131  018D                     	;# 
   132  0000                     	;# 
   133  0001                     	;# 
   134  0002                     	;# 
   135  0003                     	;# 
   136  0004                     	;# 
   137  0005                     	;# 
   138  0006                     	;# 
   139  0007                     	;# 
   140  0008                     	;# 
   141  0009                     	;# 
   142  000A                     	;# 
   143  000B                     	;# 
   144  000C                     	;# 
   145  000D                     	;# 
   146  000E                     	;# 
   147  000E                     	;# 
   148  000F                     	;# 
   149  0010                     	;# 
   150  0011                     	;# 
   151  0012                     	;# 
   152  0013                     	;# 
   153  0014                     	;# 
   154  0015                     	;# 
   155  0015                     	;# 
   156  0016                     	;# 
   157  0017                     	;# 
   158  0018                     	;# 
   159  0019                     	;# 
   160  001A                     	;# 
   161  001B                     	;# 
   162  001B                     	;# 
   163  001C                     	;# 
   164  001D                     	;# 
   165  001E                     	;# 
   166  001F                     	;# 
   167  0081                     	;# 
   168  0085                     	;# 
   169  0086                     	;# 
   170  0087                     	;# 
   171  0088                     	;# 
   172  0089                     	;# 
   173  008C                     	;# 
   174  008D                     	;# 
   175  008E                     	;# 
   176  008F                     	;# 
   177  0090                     	;# 
   178  0091                     	;# 
   179  0092                     	;# 
   180  0093                     	;# 
   181  0093                     	;# 
   182  0093                     	;# 
   183  0094                     	;# 
   184  0095                     	;# 
   185  0096                     	;# 
   186  0097                     	;# 
   187  0098                     	;# 
   188  0099                     	;# 
   189  009A                     	;# 
   190  009B                     	;# 
   191  009C                     	;# 
   192  009D                     	;# 
   193  009E                     	;# 
   194  009F                     	;# 
   195  0105                     	;# 
   196  0107                     	;# 
   197  0108                     	;# 
   198  0109                     	;# 
   199  010C                     	;# 
   200  010C                     	;# 
   201  010D                     	;# 
   202  010E                     	;# 
   203  010F                     	;# 
   204  0185                     	;# 
   205  0187                     	;# 
   206  0188                     	;# 
   207  0189                     	;# 
   208  018C                     	;# 
   209  018D                     	;# 
   210  0000                     	;# 
   211  0001                     	;# 
   212  0002                     	;# 
   213  0003                     	;# 
   214  0004                     	;# 
   215  0005                     	;# 
   216  0006                     	;# 
   217  0007                     	;# 
   218  0008                     	;# 
   219  0009                     	;# 
   220  000A                     	;# 
   221  000B                     	;# 
   222  000C                     	;# 
   223  000D                     	;# 
   224  000E                     	;# 
   225  000E                     	;# 
   226  000F                     	;# 
   227  0010                     	;# 
   228  0011                     	;# 
   229  0012                     	;# 
   230  0013                     	;# 
   231  0014                     	;# 
   232  0015                     	;# 
   233  0015                     	;# 
   234  0016                     	;# 
   235  0017                     	;# 
   236  0018                     	;# 
   237  0019                     	;# 
   238  001A                     	;# 
   239  001B                     	;# 
   240  001B                     	;# 
   241  001C                     	;# 
   242  001D                     	;# 
   243  001E                     	;# 
   244  001F                     	;# 
   245  0081                     	;# 
   246  0085                     	;# 
   247  0086                     	;# 
   248  0087                     	;# 
   249  0088                     	;# 
   250  0089                     	;# 
   251  008C                     	;# 
   252  008D                     	;# 
   253  008E                     	;# 
   254  008F                     	;# 
   255  0090                     	;# 
   256  0091                     	;# 
   257  0092                     	;# 
   258  0093                     	;# 
   259  0093                     	;# 
   260  0093                     	;# 
   261  0094                     	;# 
   262  0095                     	;# 
   263  0096                     	;# 
   264  0097                     	;# 
   265  0098                     	;# 
   266  0099                     	;# 
   267  009A                     	;# 
   268  009B                     	;# 
   269  009C                     	;# 
   270  009D                     	;# 
   271  009E                     	;# 
   272  009F                     	;# 
   273  0105                     	;# 
   274  0107                     	;# 
   275  0108                     	;# 
   276  0109                     	;# 
   277  010C                     	;# 
   278  010C                     	;# 
   279  010D                     	;# 
   280  010E                     	;# 
   281  010F                     	;# 
   282  0185                     	;# 
   283  0187                     	;# 
   284  0188                     	;# 
   285  0189                     	;# 
   286  018C                     	;# 
   287  018D                     	;# 
   288  0000                     	;# 
   289  0001                     	;# 
   290  0002                     	;# 
   291  0003                     	;# 
   292  0004                     	;# 
   293  0005                     	;# 
   294  0006                     	;# 
   295  0007                     	;# 
   296  0008                     	;# 
   297  0009                     	;# 
   298  000A                     	;# 
   299  000B                     	;# 
   300  000C                     	;# 
   301  000D                     	;# 
   302  000E                     	;# 
   303  000E                     	;# 
   304  000F                     	;# 
   305  0010                     	;# 
   306  0011                     	;# 
   307  0012                     	;# 
   308  0013                     	;# 
   309  0014                     	;# 
   310  0015                     	;# 
   311  0015                     	;# 
   312  0016                     	;# 
   313  0017                     	;# 
   314  0018                     	;# 
   315  0019                     	;# 
   316  001A                     	;# 
   317  001B                     	;# 
   318  001B                     	;# 
   319  001C                     	;# 
   320  001D                     	;# 
   321  001E                     	;# 
   322  001F                     	;# 
   323  0081                     	;# 
   324  0085                     	;# 
   325  0086                     	;# 
   326  0087                     	;# 
   327  0088                     	;# 
   328  0089                     	;# 
   329  008C                     	;# 
   330  008D                     	;# 
   331  008E                     	;# 
   332  008F                     	;# 
   333  0090                     	;# 
   334  0091                     	;# 
   335  0092                     	;# 
   336  0093                     	;# 
   337  0093                     	;# 
   338  0093                     	;# 
   339  0094                     	;# 
   340  0095                     	;# 
   341  0096                     	;# 
   342  0097                     	;# 
   343  0098                     	;# 
   344  0099                     	;# 
   345  009A                     	;# 
   346  009B                     	;# 
   347  009C                     	;# 
   348  009D                     	;# 
   349  009E                     	;# 
   350  009F                     	;# 
   351  0105                     	;# 
   352  0107                     	;# 
   353  0108                     	;# 
   354  0109                     	;# 
   355  010C                     	;# 
   356  010C                     	;# 
   357  010D                     	;# 
   358  010E                     	;# 
   359  010F                     	;# 
   360  0185                     	;# 
   361  0187                     	;# 
   362  0188                     	;# 
   363  0189                     	;# 
   364  018C                     	;# 
   365  018D                     	;# 
   366  0005                     _PORTA	set	5
   367  0006                     _PORTB	set	6
   368  001E                     _ADRESH	set	30
   369  0014                     _SSPCONbits	set	20
   370  0013                     _SSPBUF	set	19
   371  0014                     _SSPCON	set	20
   372  000C                     _PIR1bits	set	12
   373  000B                     _INTCONbits	set	11
   374  001F                     _ADCON0bits	set	31
   375  0063                     _SSPIF	set	99
   376  005E                     _PEIE	set	94
   377  005F                     _GIE	set	95
   378  0086                     _TRISB	set	134
   379  0085                     _TRISA	set	133
   380  0094                     _SSPSTATbits	set	148
   381  008F                     _OSCCONbits	set	143
   382  0091                     _SSPCON2bits	set	145
   383  0087                     _TRISCbits	set	135
   384  0094                     _SSPSTAT	set	148
   385  0093                     _SSPADD	set	147
   386  0091                     _SSPCON2	set	145
   387  009F                     _ADCON1bits	set	159
   388  008C                     _PIE1bits	set	140
   389  04A0                     _BF	set	1184
   390  0463                     _SSPIE	set	1123
   391  043C                     _TRISC4	set	1084
   392  043B                     _TRISC3	set	1083
   393  0189                     _ANSELH	set	393
   394  0188                     _ANSEL	set	392
   395  0189                     _ANSELHbits	set	393
   396  0188                     _ANSELbits	set	392
   397                           
   398                           	psect	cinit
   399  000F                     start_initialization:	
   400                           ; #config settings
   401                           
   402  000F                     __initialization:
   403                           
   404                           ; Clear objects allocated to COMMON
   405  000F  01F8               	clrf	__pbssCOMMON& (0+127)
   406  0010  01F9               	clrf	(__pbssCOMMON+1)& (0+127)
   407  0011  01FA               	clrf	(__pbssCOMMON+2)& (0+127)
   408  0012                     end_of_initialization:	
   409                           ;End of C runtime variable initialization code
   410                           
   411  0012                     __end_of__initialization:
   412  0012  0183               	clrf	3
   413  0013  120A  118A  2A68   	ljmp	_main	;jump to C main() function
   414                           
   415                           	psect	bssCOMMON
   416  0078                     __pbssCOMMON:
   417  0078                     _lectura:
   418  0078                     	ds	1
   419  0079                     _z:
   420  0079                     	ds	1
   421  007A                     _var_adc:
   422  007A                     	ds	1
   423                           
   424                           	psect	cstackCOMMON
   425  0070                     __pcstackCOMMON:
   426  0070                     ?_setup:
   427  0070                     ?_start_ch:	
   428                           ; 1 bytes @ 0x0
   429                           
   430  0070                     ?_Select_ch:	
   431                           ; 1 bytes @ 0x0
   432                           
   433  0070                     ?_I2C_Slave_Init:	
   434                           ; 1 bytes @ 0x0
   435                           
   436  0070                     ?_conf_osc:	
   437                           ; 1 bytes @ 0x0
   438                           
   439  0070                     ?_isr:	
   440                           ; 1 bytes @ 0x0
   441                           
   442  0070                     ??_isr:	
   443                           ; 1 bytes @ 0x0
   444                           
   445  0070                     ?_main:	
   446                           ; 1 bytes @ 0x0
   447                           
   448                           
   449                           ; 1 bytes @ 0x0
   450  0070                     	ds	3
   451  0073                     ?_start_adc:
   452  0073                     ??_start_ch:	
   453                           ; 1 bytes @ 0x3
   454                           
   455  0073                     ??_Select_ch:	
   456                           ; 1 bytes @ 0x3
   457                           
   458  0073                     ??_I2C_Slave_Init:	
   459                           ; 1 bytes @ 0x3
   460                           
   461  0073                     ??_conf_osc:	
   462                           ; 1 bytes @ 0x3
   463                           
   464  0073                     start_adc@isr:	
   465                           ; 1 bytes @ 0x3
   466                           
   467  0073                     I2C_Slave_Init@address:	
   468                           ; 1 bytes @ 0x3
   469                           
   470                           
   471                           ; 1 bytes @ 0x3
   472  0073                     	ds	1
   473  0074                     start_adc@Vref:
   474                           
   475                           ; 1 bytes @ 0x4
   476  0074                     	ds	1
   477  0075                     start_adc@justRL:
   478  0075                     start_ch@channel:	
   479                           ; 1 bytes @ 0x5
   480                           
   481  0075                     Select_ch@channel:	
   482                           ; 1 bytes @ 0x5
   483                           
   484  0075                     conf_osc@frec:	
   485                           ; 1 bytes @ 0x5
   486                           
   487                           
   488                           ; 1 bytes @ 0x5
   489  0075                     	ds	1
   490  0076                     ??_setup:
   491  0076                     ??_start_adc:	
   492                           ; 1 bytes @ 0x6
   493                           
   494                           
   495                           ; 1 bytes @ 0x6
   496  0076                     	ds	2
   497                           
   498                           	psect	cstackBANK0
   499  0020                     __pcstackBANK0:
   500  0020                     start_adc@frec:
   501                           
   502                           ; 1 bytes @ 0x0
   503  0020                     	ds	1
   504  0021                     ??_main:
   505                           
   506                           ; 1 bytes @ 0x1
   507  0021                     	ds	1
   508                           
   509                           	psect	maintext
   510  0268                     __pmaintext:	
   511 ;;
   512 ;;Main: autosize = 0, tempsize = 1, incstack = 0, save=0
   513 ;;
   514 ;; *************** function _main *****************
   515 ;; Defined at:
   516 ;;		line 85 in file "Lab04_slave.c"
   517 ;; Parameters:    Size  Location     Type
   518 ;;		None
   519 ;; Auto vars:     Size  Location     Type
   520 ;;		None
   521 ;; Return value:  Size  Location     Type
   522 ;;                  1    wreg      void 
   523 ;; Registers used:
   524 ;;		wreg, fsr0l, fsr0h, status,2, status,0, pclath, cstack
   525 ;; Tracked objects:
   526 ;;		On entry : B00/0
   527 ;;		On exit  : 0/0
   528 ;;		Unchanged: 0/0
   529 ;; Data sizes:     COMMON   BANK0   BANK1   BANK3   BANK2
   530 ;;      Params:         0       0       0       0       0
   531 ;;      Locals:         0       0       0       0       0
   532 ;;      Temps:          0       1       0       0       0
   533 ;;      Totals:         0       1       0       0       0
   534 ;;Total ram usage:        1 bytes
   535 ;; Hardware stack levels required when called:    3
   536 ;; This function calls:
   537 ;;		_Select_ch
   538 ;;		_setup
   539 ;;		_start_adc
   540 ;;		_start_ch
   541 ;; This function is called by:
   542 ;;		Startup code after reset
   543 ;; This function uses a non-reentrant model
   544 ;;
   545                           
   546                           
   547                           ;psect for function _main
   548  0268                     _main:
   549  0268                     l1385:	
   550                           ;incstack = 0
   551                           ; Regs used in _main: [wreg-fsr0h+status,2+status,0+pclath+cstack]
   552                           
   553                           
   554                           ;Lab04_slave.c: 86:      setup();
   555  0268  120A  118A  229D  120A  118A  	fcall	_setup
   556                           
   557                           ;Lab04_slave.c: 87:      start_adc(3, 1, 0, 0);
   558  026D  01F3               	clrf	start_adc@isr
   559  026E  0AF3               	incf	start_adc@isr,f
   560  026F  01F4               	clrf	start_adc@Vref
   561  0270  01F5               	clrf	start_adc@justRL
   562  0271  3003               	movlw	3
   563  0272  120A  118A  21A9  120A  118A  	fcall	_start_adc
   564                           
   565                           ;Lab04_slave.c: 89:      start_ch(0);
   566  0277  3000               	movlw	0
   567  0278  120A  118A  213A  120A  118A  	fcall	_start_ch
   568                           
   569                           ;Lab04_slave.c: 90:      Select_ch(0);
   570  027D  3000               	movlw	0
   571  027E  120A  118A  2016  120A  118A  	fcall	_Select_ch
   572  0283                     l1387:
   573                           
   574                           ;Lab04_slave.c: 93:          if (ADCON0bits.GO == 0){
   575  0283  1283               	bcf	3,5	;RP0=0, select bank0
   576  0284  1303               	bcf	3,6	;RP1=0, select bank0
   577  0285  189F               	btfsc	31,1	;volatile
   578  0286  2A88               	goto	u321
   579  0287  2A89               	goto	u320
   580  0288                     u321:
   581  0288  2A83               	goto	l1387
   582  0289                     u320:
   583  0289                     l1389:
   584                           
   585                           ;Lab04_slave.c: 94:              Select_ch(0);
   586  0289  3000               	movlw	0
   587  028A  120A  118A  2016  120A  118A  	fcall	_Select_ch
   588  028F                     l1391:
   589                           
   590                           ;Lab04_slave.c: 95:              _delay((unsigned long)((200)*(8000000/4000000.0)));
   591  028F  3084               	movlw	132
   592  0290  1283               	bcf	3,5	;RP0=0, select bank0
   593  0291  1303               	bcf	3,6	;RP1=0, select bank0
   594  0292  00A1               	movwf	??_main
   595  0293                     u337:
   596  0293  0BA1               	decfsz	??_main,f
   597  0294  2A93               	goto	u337
   598  0295  0000               	nop
   599  0296                     l1393:
   600                           
   601                           ;Lab04_slave.c: 96:              ADCON0bits.GO = 1;
   602  0296  1283               	bcf	3,5	;RP0=0, select bank0
   603  0297  1303               	bcf	3,6	;RP1=0, select bank0
   604  0298  149F               	bsf	31,1	;volatile
   605  0299  2A83               	goto	l1387
   606  029A  120A  118A  280C   	ljmp	start
   607  029D                     __end_of_main:
   608                           
   609                           	psect	text1
   610  013A                     __ptext1:	
   611 ;; *************** function _start_ch *****************
   612 ;; Defined at:
   613 ;;		line 126 in file "ADC.c"
   614 ;; Parameters:    Size  Location     Type
   615 ;;  channel         1    wreg     unsigned char 
   616 ;; Auto vars:     Size  Location     Type
   617 ;;  channel         1    5[COMMON] unsigned char 
   618 ;; Return value:  Size  Location     Type
   619 ;;                  1    wreg      void 
   620 ;; Registers used:
   621 ;;		wreg, fsr0l, fsr0h, status,2, status,0
   622 ;; Tracked objects:
   623 ;;		On entry : 0/0
   624 ;;		On exit  : 0/0
   625 ;;		Unchanged: 0/0
   626 ;; Data sizes:     COMMON   BANK0   BANK1   BANK3   BANK2
   627 ;;      Params:         0       0       0       0       0
   628 ;;      Locals:         1       0       0       0       0
   629 ;;      Temps:          2       0       0       0       0
   630 ;;      Totals:         3       0       0       0       0
   631 ;;Total ram usage:        3 bytes
   632 ;; Hardware stack levels used:    1
   633 ;; Hardware stack levels required when called:    1
   634 ;; This function calls:
   635 ;;		Nothing
   636 ;; This function is called by:
   637 ;;		_main
   638 ;; This function uses a non-reentrant model
   639 ;;
   640                           
   641                           
   642                           ;psect for function _start_ch
   643  013A                     _start_ch:
   644                           
   645                           ;incstack = 0
   646                           ; Regs used in _start_ch: [wreg-fsr0h+status,2+status,0]
   647                           ;start_ch@channel stored from wreg
   648  013A  00F5               	movwf	start_ch@channel
   649  013B                     l907:
   650                           
   651                           ;ADC.c: 127:     switch (channel) {
   652  013B  2974               	goto	l911
   653  013C                     l64:	
   654                           ;ADC.c: 128:         case 0:
   655                           
   656                           
   657                           ;ADC.c: 129:             ANSELbits.ANS0 = 1;
   658  013C  1683               	bsf	3,5	;RP0=1, select bank3
   659  013D  1703               	bsf	3,6	;RP1=1, select bank3
   660  013E  1408               	bsf	8,0	;volatile
   661                           
   662                           ;ADC.c: 130:             break;
   663  013F  29A8               	goto	l79
   664  0140                     l66:	
   665                           ;ADC.c: 131:         case 1:
   666                           
   667                           
   668                           ;ADC.c: 132:             ANSELbits.ANS1 = 1;
   669  0140  1683               	bsf	3,5	;RP0=1, select bank3
   670  0141  1703               	bsf	3,6	;RP1=1, select bank3
   671  0142  1488               	bsf	8,1	;volatile
   672                           
   673                           ;ADC.c: 133:             break;
   674  0143  29A8               	goto	l79
   675  0144                     l67:	
   676                           ;ADC.c: 134:         case 2:
   677                           
   678                           
   679                           ;ADC.c: 135:             ANSELbits.ANS2 = 1;
   680  0144  1683               	bsf	3,5	;RP0=1, select bank3
   681  0145  1703               	bsf	3,6	;RP1=1, select bank3
   682  0146  1508               	bsf	8,2	;volatile
   683                           
   684                           ;ADC.c: 136:             break;
   685  0147  29A8               	goto	l79
   686  0148                     l68:	
   687                           ;ADC.c: 137:         case 3:
   688                           
   689                           
   690                           ;ADC.c: 138:             ANSELbits.ANS3 = 1;
   691  0148  1683               	bsf	3,5	;RP0=1, select bank3
   692  0149  1703               	bsf	3,6	;RP1=1, select bank3
   693  014A  1588               	bsf	8,3	;volatile
   694                           
   695                           ;ADC.c: 139:             break;
   696  014B  29A8               	goto	l79
   697  014C                     l69:	
   698                           ;ADC.c: 140:         case 4:
   699                           
   700                           
   701                           ;ADC.c: 141:             ANSELbits.ANS4 = 1;
   702  014C  1683               	bsf	3,5	;RP0=1, select bank3
   703  014D  1703               	bsf	3,6	;RP1=1, select bank3
   704  014E  1608               	bsf	8,4	;volatile
   705                           
   706                           ;ADC.c: 142:             break;
   707  014F  29A8               	goto	l79
   708  0150                     l70:	
   709                           ;ADC.c: 143:         case 5:
   710                           
   711                           
   712                           ;ADC.c: 144:             ANSELbits.ANS5 = 1;
   713  0150  1683               	bsf	3,5	;RP0=1, select bank3
   714  0151  1703               	bsf	3,6	;RP1=1, select bank3
   715  0152  1688               	bsf	8,5	;volatile
   716                           
   717                           ;ADC.c: 145:             break;
   718  0153  29A8               	goto	l79
   719  0154                     l71:	
   720                           ;ADC.c: 146:         case 6:
   721                           
   722                           
   723                           ;ADC.c: 147:             ANSELbits.ANS6 = 1;
   724  0154  1683               	bsf	3,5	;RP0=1, select bank3
   725  0155  1703               	bsf	3,6	;RP1=1, select bank3
   726  0156  1708               	bsf	8,6	;volatile
   727                           
   728                           ;ADC.c: 148:             break;
   729  0157  29A8               	goto	l79
   730  0158                     l72:	
   731                           ;ADC.c: 149:         case 7:
   732                           
   733                           
   734                           ;ADC.c: 150:             ANSELbits.ANS7 = 1;
   735  0158  1683               	bsf	3,5	;RP0=1, select bank3
   736  0159  1703               	bsf	3,6	;RP1=1, select bank3
   737  015A  1788               	bsf	8,7	;volatile
   738                           
   739                           ;ADC.c: 151:             break;
   740  015B  29A8               	goto	l79
   741  015C                     l73:	
   742                           ;ADC.c: 152:         case 8:
   743                           
   744                           
   745                           ;ADC.c: 153:             ANSELHbits.ANS8 = 1;
   746  015C  1683               	bsf	3,5	;RP0=1, select bank3
   747  015D  1703               	bsf	3,6	;RP1=1, select bank3
   748  015E  1409               	bsf	9,0	;volatile
   749                           
   750                           ;ADC.c: 154:             break;
   751  015F  29A8               	goto	l79
   752  0160                     l74:	
   753                           ;ADC.c: 155:         case 9:
   754                           
   755                           
   756                           ;ADC.c: 156:             ANSELHbits.ANS9 = 1;
   757  0160  1683               	bsf	3,5	;RP0=1, select bank3
   758  0161  1703               	bsf	3,6	;RP1=1, select bank3
   759  0162  1489               	bsf	9,1	;volatile
   760                           
   761                           ;ADC.c: 157:             break;
   762  0163  29A8               	goto	l79
   763  0164                     l75:	
   764                           ;ADC.c: 158:         case 10:
   765                           
   766                           
   767                           ;ADC.c: 159:             ANSELHbits.ANS10 = 1;
   768  0164  1683               	bsf	3,5	;RP0=1, select bank3
   769  0165  1703               	bsf	3,6	;RP1=1, select bank3
   770  0166  1509               	bsf	9,2	;volatile
   771                           
   772                           ;ADC.c: 160:             break;
   773  0167  29A8               	goto	l79
   774  0168                     l76:	
   775                           ;ADC.c: 161:         case 11:
   776                           
   777                           
   778                           ;ADC.c: 162:             ANSELHbits.ANS11 = 1;
   779  0168  1683               	bsf	3,5	;RP0=1, select bank3
   780  0169  1703               	bsf	3,6	;RP1=1, select bank3
   781  016A  1589               	bsf	9,3	;volatile
   782                           
   783                           ;ADC.c: 163:             break;
   784  016B  29A8               	goto	l79
   785  016C                     l77:	
   786                           ;ADC.c: 164:         case 12:
   787                           
   788                           
   789                           ;ADC.c: 165:             ANSELHbits.ANS12 = 1;
   790  016C  1683               	bsf	3,5	;RP0=1, select bank3
   791  016D  1703               	bsf	3,6	;RP1=1, select bank3
   792  016E  1609               	bsf	9,4	;volatile
   793                           
   794                           ;ADC.c: 166:             break;
   795  016F  29A8               	goto	l79
   796  0170                     l78:	
   797                           ;ADC.c: 167:         case 13:
   798                           
   799                           
   800                           ;ADC.c: 168:             ANSELHbits.ANS13 = 1;
   801  0170  1683               	bsf	3,5	;RP0=1, select bank3
   802  0171  1703               	bsf	3,6	;RP1=1, select bank3
   803  0172  1689               	bsf	9,5	;volatile
   804                           
   805                           ;ADC.c: 169:             break;
   806  0173  29A8               	goto	l79
   807  0174                     l911:
   808  0174  0875               	movf	start_ch@channel,w
   809  0175  00F3               	movwf	??_start_ch
   810  0176  01F4               	clrf	??_start_ch+1
   811                           
   812                           ; Switch on 2 bytes has been partitioned into a top level switch of size 1, and 1 sub-sw
      +                          itches
   813                           ; Switch size 1, requested type "simple"
   814                           ; Number of cases is 1, Range of values is 0 to 0
   815                           ; switch strategies available:
   816                           ; Name         Instructions Cycles
   817                           ; simple_byte            4     3 (average)
   818                           ; direct_byte           11     8 (fixed)
   819                           ; jumptable            260     6 (fixed)
   820                           ;	Chosen strategy is simple_byte
   821  0177  0874               	movf	??_start_ch+1,w
   822  0178  3A00               	xorlw	0	; case 0
   823  0179  1903               	skipnz
   824  017A  297C               	goto	l1495
   825  017B  29A8               	goto	l79
   826  017C                     l1495:
   827                           
   828                           ; Switch size 1, requested type "simple"
   829                           ; Number of cases is 14, Range of values is 0 to 13
   830                           ; switch strategies available:
   831                           ; Name         Instructions Cycles
   832                           ; simple_byte           43    22 (average)
   833                           ; direct_byte           50     8 (fixed)
   834                           ; jumptable            260     6 (fixed)
   835                           ;	Chosen strategy is simple_byte
   836  017C  0873               	movf	??_start_ch,w
   837  017D  3A00               	xorlw	0	; case 0
   838  017E  1903               	skipnz
   839  017F  293C               	goto	l64
   840  0180  3A01               	xorlw	1	; case 1
   841  0181  1903               	skipnz
   842  0182  2940               	goto	l66
   843  0183  3A03               	xorlw	3	; case 2
   844  0184  1903               	skipnz
   845  0185  2944               	goto	l67
   846  0186  3A01               	xorlw	1	; case 3
   847  0187  1903               	skipnz
   848  0188  2948               	goto	l68
   849  0189  3A07               	xorlw	7	; case 4
   850  018A  1903               	skipnz
   851  018B  294C               	goto	l69
   852  018C  3A01               	xorlw	1	; case 5
   853  018D  1903               	skipnz
   854  018E  2950               	goto	l70
   855  018F  3A03               	xorlw	3	; case 6
   856  0190  1903               	skipnz
   857  0191  2954               	goto	l71
   858  0192  3A01               	xorlw	1	; case 7
   859  0193  1903               	skipnz
   860  0194  2958               	goto	l72
   861  0195  3A0F               	xorlw	15	; case 8
   862  0196  1903               	skipnz
   863  0197  295C               	goto	l73
   864  0198  3A01               	xorlw	1	; case 9
   865  0199  1903               	skipnz
   866  019A  2960               	goto	l74
   867  019B  3A03               	xorlw	3	; case 10
   868  019C  1903               	skipnz
   869  019D  2964               	goto	l75
   870  019E  3A01               	xorlw	1	; case 11
   871  019F  1903               	skipnz
   872  01A0  2968               	goto	l76
   873  01A1  3A07               	xorlw	7	; case 12
   874  01A2  1903               	skipnz
   875  01A3  296C               	goto	l77
   876  01A4  3A01               	xorlw	1	; case 13
   877  01A5  1903               	skipnz
   878  01A6  2970               	goto	l78
   879  01A7  29A8               	goto	l79
   880  01A8                     l79:
   881  01A8  0008               	return
   882  01A9                     __end_of_start_ch:
   883                           
   884                           	psect	text2
   885  01A9                     __ptext2:	
   886 ;; *************** function _start_adc *****************
   887 ;; Defined at:
   888 ;;		line 73 in file "ADC.c"
   889 ;; Parameters:    Size  Location     Type
   890 ;;  frec            1    wreg     unsigned char 
   891 ;;  isr             1    3[COMMON] unsigned char 
   892 ;;  Vref            1    4[COMMON] unsigned char 
   893 ;;  justRL          1    5[COMMON] unsigned char 
   894 ;; Auto vars:     Size  Location     Type
   895 ;;  frec            1    0[BANK0 ] unsigned char 
   896 ;; Return value:  Size  Location     Type
   897 ;;                  1    wreg      void 
   898 ;; Registers used:
   899 ;;		wreg, fsr0l, fsr0h, status,2, status,0
   900 ;; Tracked objects:
   901 ;;		On entry : 0/0
   902 ;;		On exit  : 0/0
   903 ;;		Unchanged: 0/0
   904 ;; Data sizes:     COMMON   BANK0   BANK1   BANK3   BANK2
   905 ;;      Params:         3       0       0       0       0
   906 ;;      Locals:         0       1       0       0       0
   907 ;;      Temps:          2       0       0       0       0
   908 ;;      Totals:         5       1       0       0       0
   909 ;;Total ram usage:        6 bytes
   910 ;; Hardware stack levels used:    1
   911 ;; Hardware stack levels required when called:    1
   912 ;; This function calls:
   913 ;;		Nothing
   914 ;; This function is called by:
   915 ;;		_main
   916 ;; This function uses a non-reentrant model
   917 ;;
   918                           
   919                           
   920                           ;psect for function _start_adc
   921  01A9                     _start_adc:
   922                           
   923                           ;incstack = 0
   924                           ; Regs used in _start_adc: [wreg-fsr0h+status,2+status,0]
   925                           ;start_adc@frec stored from wreg
   926  01A9  1283               	bcf	3,5	;RP0=0, select bank0
   927  01AA  1303               	bcf	3,6	;RP1=0, select bank0
   928  01AB  00A0               	movwf	start_adc@frec
   929  01AC                     l1357:
   930                           
   931                           ;ADC.c: 74:     ADCON0bits.ADON = 1;
   932  01AC  141F               	bsf	31,0	;volatile
   933  01AD                     l1359:
   934                           
   935                           ;ADC.c: 75:     _delay((unsigned long)((200)*(8000000/4000000.0)));
   936  01AD  3085               	movlw	133
   937  01AE  00F6               	movwf	??_start_adc
   938  01AF                     u347:
   939  01AF  0BF6               	decfsz	??_start_adc,f
   940  01B0  29AF               	goto	u347
   941                           
   942                           ;ADC.c: 76:     switch (frec) {
   943  01B1  29BE               	goto	l1363
   944  01B2                     l46:	
   945                           ;ADC.c: 77:         case 1:
   946                           
   947                           
   948                           ;ADC.c: 78:             ADCON0bits.ADCS0 = 0;
   949  01B2  131F               	bcf	31,6	;volatile
   950                           
   951                           ;ADC.c: 79:             ADCON0bits.ADCS1 = 0;
   952  01B3  139F               	bcf	31,7	;volatile
   953                           
   954                           ;ADC.c: 80:             break;
   955  01B4  29D6               	goto	l1365
   956  01B5                     l48:	
   957                           ;ADC.c: 81:         case 2:
   958                           
   959                           
   960                           ;ADC.c: 82:             ADCON0bits.ADCS0 = 1;
   961  01B5  171F               	bsf	31,6	;volatile
   962                           
   963                           ;ADC.c: 83:             ADCON0bits.ADCS1 = 0;
   964  01B6  139F               	bcf	31,7	;volatile
   965                           
   966                           ;ADC.c: 84:             break;
   967  01B7  29D6               	goto	l1365
   968  01B8                     l49:	
   969                           ;ADC.c: 85:         case 3:
   970                           
   971                           
   972                           ;ADC.c: 86:             ADCON0bits.ADCS0 = 0;
   973  01B8  131F               	bcf	31,6	;volatile
   974                           
   975                           ;ADC.c: 87:             ADCON0bits.ADCS1 = 1;
   976  01B9  179F               	bsf	31,7	;volatile
   977                           
   978                           ;ADC.c: 88:             break;
   979  01BA  29D6               	goto	l1365
   980  01BB                     l50:	
   981                           ;ADC.c: 89:         case 4:
   982                           
   983                           
   984                           ;ADC.c: 90:             ADCON0bits.ADCS0 = 1;
   985  01BB  171F               	bsf	31,6	;volatile
   986                           
   987                           ;ADC.c: 91:             ADCON0bits.ADCS1 = 1;
   988  01BC  179F               	bsf	31,7	;volatile
   989                           
   990                           ;ADC.c: 92:             break;
   991  01BD  29D6               	goto	l1365
   992  01BE                     l1363:
   993  01BE  1283               	bcf	3,5	;RP0=0, select bank0
   994  01BF  1303               	bcf	3,6	;RP1=0, select bank0
   995  01C0  0820               	movf	start_adc@frec,w
   996  01C1  00F6               	movwf	??_start_adc
   997  01C2  01F7               	clrf	??_start_adc+1
   998                           
   999                           ; Switch on 2 bytes has been partitioned into a top level switch of size 1, and 1 sub-sw
      +                          itches
  1000                           ; Switch size 1, requested type "simple"
  1001                           ; Number of cases is 1, Range of values is 0 to 0
  1002                           ; switch strategies available:
  1003                           ; Name         Instructions Cycles
  1004                           ; simple_byte            4     3 (average)
  1005                           ; direct_byte           11     8 (fixed)
  1006                           ; jumptable            260     6 (fixed)
  1007                           ;	Chosen strategy is simple_byte
  1008  01C3  0877               	movf	??_start_adc+1,w
  1009  01C4  3A00               	xorlw	0	; case 0
  1010  01C5  1903               	skipnz
  1011  01C6  29C8               	goto	l1497
  1012  01C7  29D6               	goto	l1365
  1013  01C8                     l1497:
  1014                           
  1015                           ; Switch size 1, requested type "simple"
  1016                           ; Number of cases is 4, Range of values is 1 to 4
  1017                           ; switch strategies available:
  1018                           ; Name         Instructions Cycles
  1019                           ; simple_byte           13     7 (average)
  1020                           ; direct_byte           23    11 (fixed)
  1021                           ; jumptable            263     9 (fixed)
  1022                           ;	Chosen strategy is simple_byte
  1023  01C8  0876               	movf	??_start_adc,w
  1024  01C9  3A01               	xorlw	1	; case 1
  1025  01CA  1903               	skipnz
  1026  01CB  29B2               	goto	l46
  1027  01CC  3A03               	xorlw	3	; case 2
  1028  01CD  1903               	skipnz
  1029  01CE  29B5               	goto	l48
  1030  01CF  3A01               	xorlw	1	; case 3
  1031  01D0  1903               	skipnz
  1032  01D1  29B8               	goto	l49
  1033  01D2  3A07               	xorlw	7	; case 4
  1034  01D3  1903               	skipnz
  1035  01D4  29BB               	goto	l50
  1036  01D5  29D6               	goto	l1365
  1037  01D6                     l1365:
  1038                           
  1039                           ;ADC.c: 94:     if (isr == 1) {
  1040  01D6  0373               	decf	start_adc@isr,w
  1041  01D7  1D03               	btfss	3,2
  1042  01D8  29DA               	goto	u301
  1043  01D9  29DB               	goto	u300
  1044  01DA                     u301:
  1045  01DA  29E3               	goto	l1369
  1046  01DB                     u300:
  1047  01DB                     l1367:
  1048                           
  1049                           ;ADC.c: 95:         INTCONbits.GIE = 1;
  1050  01DB  178B               	bsf	11,7	;volatile
  1051                           
  1052                           ;ADC.c: 96:         INTCONbits.PEIE = 1;
  1053  01DC  170B               	bsf	11,6	;volatile
  1054                           
  1055                           ;ADC.c: 97:         PIE1bits.ADIE = 1;
  1056  01DD  1683               	bsf	3,5	;RP0=1, select bank1
  1057  01DE  1303               	bcf	3,6	;RP1=0, select bank1
  1058  01DF  170C               	bsf	12,6	;volatile
  1059                           
  1060                           ;ADC.c: 98:         PIR1bits.ADIF = 0;
  1061  01E0  1283               	bcf	3,5	;RP0=0, select bank0
  1062  01E1  1303               	bcf	3,6	;RP1=0, select bank0
  1063  01E2  130C               	bcf	12,6	;volatile
  1064  01E3                     l1369:
  1065                           
  1066                           ;ADC.c: 100:     if (justRL == 0) {
  1067  01E3  0875               	movf	start_adc@justRL,w
  1068  01E4  1D03               	btfss	3,2
  1069  01E5  29E7               	goto	u311
  1070  01E6  29E8               	goto	u310
  1071  01E7                     u311:
  1072  01E7  29EC               	goto	l52
  1073  01E8                     u310:
  1074  01E8                     l1371:
  1075                           
  1076                           ;ADC.c: 101:         ADCON1bits.ADFM = 0;
  1077  01E8  1683               	bsf	3,5	;RP0=1, select bank1
  1078  01E9  1303               	bcf	3,6	;RP1=0, select bank1
  1079  01EA  139F               	bcf	31,7	;volatile
  1080                           
  1081                           ;ADC.c: 102:     } else {
  1082  01EB  29FC               	goto	l1375
  1083  01EC                     l52:
  1084                           
  1085                           ;ADC.c: 103:         ADCON1bits.ADFM = 1;
  1086  01EC  1683               	bsf	3,5	;RP0=1, select bank1
  1087  01ED  1303               	bcf	3,6	;RP1=0, select bank1
  1088  01EE  179F               	bsf	31,7	;volatile
  1089  01EF  29FC               	goto	l1375
  1090  01F0                     l55:	
  1091                           ;ADC.c: 106:         case 0:
  1092                           
  1093                           
  1094                           ;ADC.c: 107:             ADCON1bits.VCFG0 = 0;
  1095  01F0  121F               	bcf	31,4	;volatile
  1096                           
  1097                           ;ADC.c: 108:             ADCON1bits.VCFG1 = 0;
  1098  01F1  129F               	bcf	31,5	;volatile
  1099                           
  1100                           ;ADC.c: 109:             break;
  1101  01F2  2A12               	goto	l60
  1102  01F3                     l57:	
  1103                           ;ADC.c: 110:         case 1:
  1104                           
  1105                           
  1106                           ;ADC.c: 111:             ADCON1bits.VCFG0 = 1;
  1107  01F3  161F               	bsf	31,4	;volatile
  1108                           
  1109                           ;ADC.c: 112:             ADCON1bits.VCFG1 = 0;
  1110  01F4  129F               	bcf	31,5	;volatile
  1111                           
  1112                           ;ADC.c: 113:             break;
  1113  01F5  2A12               	goto	l60
  1114  01F6                     l58:	
  1115                           ;ADC.c: 114:         case 2:
  1116                           
  1117                           
  1118                           ;ADC.c: 115:             ADCON1bits.VCFG0 = 0;
  1119  01F6  121F               	bcf	31,4	;volatile
  1120                           
  1121                           ;ADC.c: 116:             ADCON1bits.VCFG1 = 1;
  1122  01F7  169F               	bsf	31,5	;volatile
  1123                           
  1124                           ;ADC.c: 117:             break;
  1125  01F8  2A12               	goto	l60
  1126  01F9                     l59:	
  1127                           ;ADC.c: 118:         case 3:
  1128                           
  1129                           
  1130                           ;ADC.c: 119:             ADCON1bits.VCFG0 = 1;
  1131  01F9  161F               	bsf	31,4	;volatile
  1132                           
  1133                           ;ADC.c: 120:             ADCON1bits.VCFG1 = 1;
  1134  01FA  169F               	bsf	31,5	;volatile
  1135                           
  1136                           ;ADC.c: 121:             break;
  1137  01FB  2A12               	goto	l60
  1138  01FC                     l1375:
  1139  01FC  0874               	movf	start_adc@Vref,w
  1140  01FD  00F6               	movwf	??_start_adc
  1141  01FE  01F7               	clrf	??_start_adc+1
  1142                           
  1143                           ; Switch on 2 bytes has been partitioned into a top level switch of size 1, and 1 sub-sw
      +                          itches
  1144                           ; Switch size 1, requested type "simple"
  1145                           ; Number of cases is 1, Range of values is 0 to 0
  1146                           ; switch strategies available:
  1147                           ; Name         Instructions Cycles
  1148                           ; simple_byte            4     3 (average)
  1149                           ; direct_byte           11     8 (fixed)
  1150                           ; jumptable            260     6 (fixed)
  1151                           ;	Chosen strategy is simple_byte
  1152  01FF  0877               	movf	??_start_adc+1,w
  1153  0200  3A00               	xorlw	0	; case 0
  1154  0201  1903               	skipnz
  1155  0202  2A04               	goto	l1499
  1156  0203  2A12               	goto	l60
  1157  0204                     l1499:
  1158                           
  1159                           ; Switch size 1, requested type "simple"
  1160                           ; Number of cases is 4, Range of values is 0 to 3
  1161                           ; switch strategies available:
  1162                           ; Name         Instructions Cycles
  1163                           ; simple_byte           13     7 (average)
  1164                           ; direct_byte           20     8 (fixed)
  1165                           ; jumptable            260     6 (fixed)
  1166                           ;	Chosen strategy is simple_byte
  1167  0204  0876               	movf	??_start_adc,w
  1168  0205  3A00               	xorlw	0	; case 0
  1169  0206  1903               	skipnz
  1170  0207  29F0               	goto	l55
  1171  0208  3A01               	xorlw	1	; case 1
  1172  0209  1903               	skipnz
  1173  020A  29F3               	goto	l57
  1174  020B  3A03               	xorlw	3	; case 2
  1175  020C  1903               	skipnz
  1176  020D  29F6               	goto	l58
  1177  020E  3A01               	xorlw	1	; case 3
  1178  020F  1903               	skipnz
  1179  0210  29F9               	goto	l59
  1180  0211  2A12               	goto	l60
  1181  0212                     l60:
  1182  0212  0008               	return
  1183  0213                     __end_of_start_adc:
  1184                           
  1185                           	psect	text3
  1186  029D                     __ptext3:	
  1187 ;; *************** function _setup *****************
  1188 ;; Defined at:
  1189 ;;		line 102 in file "Lab04_slave.c"
  1190 ;; Parameters:    Size  Location     Type
  1191 ;;		None
  1192 ;; Auto vars:     Size  Location     Type
  1193 ;;		None
  1194 ;; Return value:  Size  Location     Type
  1195 ;;                  1    wreg      void 
  1196 ;; Registers used:
  1197 ;;		wreg, fsr0l, fsr0h, status,2, status,0, pclath, cstack
  1198 ;; Tracked objects:
  1199 ;;		On entry : 0/0
  1200 ;;		On exit  : 0/0
  1201 ;;		Unchanged: 0/0
  1202 ;; Data sizes:     COMMON   BANK0   BANK1   BANK3   BANK2
  1203 ;;      Params:         0       0       0       0       0
  1204 ;;      Locals:         0       0       0       0       0
  1205 ;;      Temps:          0       0       0       0       0
  1206 ;;      Totals:         0       0       0       0       0
  1207 ;;Total ram usage:        0 bytes
  1208 ;; Hardware stack levels used:    1
  1209 ;; Hardware stack levels required when called:    2
  1210 ;; This function calls:
  1211 ;;		_I2C_Slave_Init
  1212 ;;		_conf_osc
  1213 ;; This function is called by:
  1214 ;;		_main
  1215 ;; This function uses a non-reentrant model
  1216 ;;
  1217                           
  1218                           
  1219                           ;psect for function _setup
  1220  029D                     _setup:
  1221  029D                     l935:	
  1222                           ;incstack = 0
  1223                           ; Regs used in _setup: [wreg-fsr0h+status,2+status,0+pclath+cstack]
  1224                           
  1225                           
  1226                           ;Lab04_slave.c: 103:      ANSEL = 0X01;
  1227  029D  3001               	movlw	1
  1228  029E  1683               	bsf	3,5	;RP0=1, select bank3
  1229  029F  1703               	bsf	3,6	;RP1=1, select bank3
  1230  02A0  0088               	movwf	8	;volatile
  1231  02A1                     l937:
  1232                           
  1233                           ;Lab04_slave.c: 104:      ANSELH = 0X00;
  1234  02A1  0189               	clrf	9	;volatile
  1235  02A2                     l939:
  1236                           
  1237                           ;Lab04_slave.c: 106:      TRISA = 0X01;
  1238  02A2  3001               	movlw	1
  1239  02A3  1683               	bsf	3,5	;RP0=1, select bank1
  1240  02A4  1303               	bcf	3,6	;RP1=0, select bank1
  1241  02A5  0085               	movwf	5	;volatile
  1242                           
  1243                           ;Lab04_slave.c: 107:      TRISB = 0;
  1244  02A6  0186               	clrf	6	;volatile
  1245                           
  1246                           ;Lab04_slave.c: 109:      PORTA = 0X00;
  1247  02A7  1283               	bcf	3,5	;RP0=0, select bank0
  1248  02A8  1303               	bcf	3,6	;RP1=0, select bank0
  1249  02A9  0185               	clrf	5	;volatile
  1250                           
  1251                           ;Lab04_slave.c: 110:      PORTB = 0;
  1252  02AA  0186               	clrf	6	;volatile
  1253  02AB                     l941:
  1254                           
  1255                           ;Lab04_slave.c: 112:      conf_osc(7);
  1256  02AB  3007               	movlw	7
  1257  02AC  120A  118A  2213  120A  118A  	fcall	_conf_osc
  1258  02B1                     l943:
  1259                           
  1260                           ;Lab04_slave.c: 114:      I2C_Slave_Init(0x10);
  1261  02B1  3010               	movlw	16
  1262  02B2  120A  118A  22B8  120A  118A  	fcall	_I2C_Slave_Init
  1263  02B7                     l247:
  1264  02B7  0008               	return
  1265  02B8                     __end_of_setup:
  1266                           
  1267                           	psect	text4
  1268  0213                     __ptext4:	
  1269 ;; *************** function _conf_osc *****************
  1270 ;; Defined at:
  1271 ;;		line 107 in file "I2C.c"
  1272 ;; Parameters:    Size  Location     Type
  1273 ;;  frec            1    wreg     unsigned char 
  1274 ;; Auto vars:     Size  Location     Type
  1275 ;;  frec            1    5[COMMON] unsigned char 
  1276 ;; Return value:  Size  Location     Type
  1277 ;;                  1    wreg      void 
  1278 ;; Registers used:
  1279 ;;		wreg, fsr0l, fsr0h, status,2, status,0
  1280 ;; Tracked objects:
  1281 ;;		On entry : 0/0
  1282 ;;		On exit  : 0/0
  1283 ;;		Unchanged: 0/0
  1284 ;; Data sizes:     COMMON   BANK0   BANK1   BANK3   BANK2
  1285 ;;      Params:         0       0       0       0       0
  1286 ;;      Locals:         1       0       0       0       0
  1287 ;;      Temps:          2       0       0       0       0
  1288 ;;      Totals:         3       0       0       0       0
  1289 ;;Total ram usage:        3 bytes
  1290 ;; Hardware stack levels used:    1
  1291 ;; Hardware stack levels required when called:    1
  1292 ;; This function calls:
  1293 ;;		Nothing
  1294 ;; This function is called by:
  1295 ;;		_setup
  1296 ;; This function uses a non-reentrant model
  1297 ;;
  1298                           
  1299                           
  1300                           ;psect for function _conf_osc
  1301  0213                     _conf_osc:
  1302                           
  1303                           ;incstack = 0
  1304                           ; Regs used in _conf_osc: [wreg-fsr0h+status,2+status,0]
  1305                           ;conf_osc@frec stored from wreg
  1306  0213  00F5               	movwf	conf_osc@frec
  1307  0214                     l853:
  1308                           
  1309                           ;I2C.c: 108:     switch(frec){
  1310  0214  2A47               	goto	l873
  1311  0215                     l855:
  1312                           
  1313                           ;I2C.c: 110:             OSCCONbits.IRCF = 000;
  1314  0215  308F               	movlw	-113
  1315  0216  1683               	bsf	3,5	;RP0=1, select bank1
  1316  0217  1303               	bcf	3,6	;RP1=0, select bank1
  1317  0218  058F               	andwf	15,f	;volatile
  1318                           
  1319                           ;I2C.c: 111:             break;
  1320  0219  2A66               	goto	l162
  1321  021A                     l857:
  1322                           
  1323                           ;I2C.c: 113:             OSCCONbits.IRCF = 001;
  1324  021A  1683               	bsf	3,5	;RP0=1, select bank1
  1325  021B  1303               	bcf	3,6	;RP1=0, select bank1
  1326  021C  080F               	movf	15,w	;volatile
  1327  021D  398F               	andlw	-113
  1328  021E  3810               	iorlw	16
  1329  021F  008F               	movwf	15	;volatile
  1330                           
  1331                           ;I2C.c: 114:             break;
  1332  0220  2A66               	goto	l162
  1333  0221                     l859:
  1334                           
  1335                           ;I2C.c: 116:             OSCCONbits.IRCF = 010;
  1336  0221  308F               	movlw	-113
  1337  0222  1683               	bsf	3,5	;RP0=1, select bank1
  1338  0223  1303               	bcf	3,6	;RP1=0, select bank1
  1339  0224  058F               	andwf	15,f	;volatile
  1340                           
  1341                           ;I2C.c: 117:             break;
  1342  0225  2A66               	goto	l162
  1343  0226                     l861:
  1344                           
  1345                           ;I2C.c: 119:             OSCCONbits.IRCF = 011;
  1346  0226  1683               	bsf	3,5	;RP0=1, select bank1
  1347  0227  1303               	bcf	3,6	;RP1=0, select bank1
  1348  0228  080F               	movf	15,w	;volatile
  1349  0229  398F               	andlw	-113
  1350  022A  3810               	iorlw	16
  1351  022B  008F               	movwf	15	;volatile
  1352                           
  1353                           ;I2C.c: 120:             break;
  1354  022C  2A66               	goto	l162
  1355  022D                     l863:
  1356                           
  1357                           ;I2C.c: 122:             OSCCONbits.IRCF = 100;
  1358  022D  1683               	bsf	3,5	;RP0=1, select bank1
  1359  022E  1303               	bcf	3,6	;RP1=0, select bank1
  1360  022F  080F               	movf	15,w	;volatile
  1361  0230  398F               	andlw	-113
  1362  0231  3840               	iorlw	64
  1363  0232  008F               	movwf	15	;volatile
  1364                           
  1365                           ;I2C.c: 123:             break;
  1366  0233  2A66               	goto	l162
  1367  0234                     l865:
  1368                           
  1369                           ;I2C.c: 125:             OSCCONbits.IRCF = 101;
  1370  0234  1683               	bsf	3,5	;RP0=1, select bank1
  1371  0235  1303               	bcf	3,6	;RP1=0, select bank1
  1372  0236  080F               	movf	15,w	;volatile
  1373  0237  398F               	andlw	-113
  1374  0238  3850               	iorlw	80
  1375  0239  008F               	movwf	15	;volatile
  1376                           
  1377                           ;I2C.c: 126:             break;
  1378  023A  2A66               	goto	l162
  1379  023B                     l867:
  1380                           
  1381                           ;I2C.c: 128:             OSCCONbits.IRCF = 111;
  1382  023B  3070               	movlw	112
  1383  023C  1683               	bsf	3,5	;RP0=1, select bank1
  1384  023D  1303               	bcf	3,6	;RP1=0, select bank1
  1385  023E  048F               	iorwf	15,f	;volatile
  1386                           
  1387                           ;I2C.c: 129:             break;
  1388  023F  2A66               	goto	l162
  1389  0240                     l869:
  1390                           
  1391                           ;I2C.c: 131:             OSCCONbits.IRCF = 110;
  1392  0240  1683               	bsf	3,5	;RP0=1, select bank1
  1393  0241  1303               	bcf	3,6	;RP1=0, select bank1
  1394  0242  080F               	movf	15,w	;volatile
  1395  0243  398F               	andlw	-113
  1396  0244  3860               	iorlw	96
  1397  0245  008F               	movwf	15	;volatile
  1398                           
  1399                           ;I2C.c: 132:             break;
  1400  0246  2A66               	goto	l162
  1401  0247                     l873:
  1402  0247  0875               	movf	conf_osc@frec,w
  1403  0248  00F3               	movwf	??_conf_osc
  1404  0249  01F4               	clrf	??_conf_osc+1
  1405                           
  1406                           ; Switch on 2 bytes has been partitioned into a top level switch of size 1, and 1 sub-sw
      +                          itches
  1407                           ; Switch size 1, requested type "simple"
  1408                           ; Number of cases is 1, Range of values is 0 to 0
  1409                           ; switch strategies available:
  1410                           ; Name         Instructions Cycles
  1411                           ; simple_byte            4     3 (average)
  1412                           ; direct_byte           11     8 (fixed)
  1413                           ; jumptable            260     6 (fixed)
  1414                           ;	Chosen strategy is simple_byte
  1415  024A  0874               	movf	??_conf_osc+1,w
  1416  024B  3A00               	xorlw	0	; case 0
  1417  024C  1903               	skipnz
  1418  024D  2A4F               	goto	l1501
  1419  024E  2A40               	goto	l869
  1420  024F                     l1501:
  1421                           
  1422                           ; Switch size 1, requested type "simple"
  1423                           ; Number of cases is 7, Range of values is 0 to 7
  1424                           ; switch strategies available:
  1425                           ; Name         Instructions Cycles
  1426                           ; simple_byte           22    12 (average)
  1427                           ; direct_byte           32     8 (fixed)
  1428                           ; jumptable            260     6 (fixed)
  1429                           ;	Chosen strategy is simple_byte
  1430  024F  0873               	movf	??_conf_osc,w
  1431  0250  3A00               	xorlw	0	; case 0
  1432  0251  1903               	skipnz
  1433  0252  2A15               	goto	l855
  1434  0253  3A01               	xorlw	1	; case 1
  1435  0254  1903               	skipnz
  1436  0255  2A1A               	goto	l857
  1437  0256  3A03               	xorlw	3	; case 2
  1438  0257  1903               	skipnz
  1439  0258  2A21               	goto	l859
  1440  0259  3A01               	xorlw	1	; case 3
  1441  025A  1903               	skipnz
  1442  025B  2A26               	goto	l861
  1443  025C  3A07               	xorlw	7	; case 4
  1444  025D  1903               	skipnz
  1445  025E  2A2D               	goto	l863
  1446  025F  3A01               	xorlw	1	; case 5
  1447  0260  1903               	skipnz
  1448  0261  2A34               	goto	l865
  1449  0262  3A02               	xorlw	2	; case 7
  1450  0263  1903               	skipnz
  1451  0264  2A3B               	goto	l867
  1452  0265  2A40               	goto	l869
  1453  0266                     l162:
  1454                           
  1455                           ;I2C.c: 134:     OSCCONbits.SCS = 1;
  1456  0266  140F               	bsf	15,0	;volatile
  1457  0267                     l170:
  1458  0267  0008               	return
  1459  0268                     __end_of_conf_osc:
  1460                           
  1461                           	psect	text5
  1462  02B8                     __ptext5:	
  1463 ;; *************** function _I2C_Slave_Init *****************
  1464 ;; Defined at:
  1465 ;;		line 93 in file "I2C.c"
  1466 ;; Parameters:    Size  Location     Type
  1467 ;;  address         1    wreg     unsigned char 
  1468 ;; Auto vars:     Size  Location     Type
  1469 ;;  address         1    3[COMMON] unsigned char 
  1470 ;; Return value:  Size  Location     Type
  1471 ;;                  1    wreg      void 
  1472 ;; Registers used:
  1473 ;;		wreg
  1474 ;; Tracked objects:
  1475 ;;		On entry : 0/0
  1476 ;;		On exit  : 0/0
  1477 ;;		Unchanged: 0/0
  1478 ;; Data sizes:     COMMON   BANK0   BANK1   BANK3   BANK2
  1479 ;;      Params:         0       0       0       0       0
  1480 ;;      Locals:         1       0       0       0       0
  1481 ;;      Temps:          0       0       0       0       0
  1482 ;;      Totals:         1       0       0       0       0
  1483 ;;Total ram usage:        1 bytes
  1484 ;; Hardware stack levels used:    1
  1485 ;; Hardware stack levels required when called:    1
  1486 ;; This function calls:
  1487 ;;		Nothing
  1488 ;; This function is called by:
  1489 ;;		_setup
  1490 ;; This function uses a non-reentrant model
  1491 ;;
  1492                           
  1493                           
  1494                           ;psect for function _I2C_Slave_Init
  1495  02B8                     _I2C_Slave_Init:
  1496                           
  1497                           ;incstack = 0
  1498                           ; Regs used in _I2C_Slave_Init: [wreg]
  1499                           ;I2C_Slave_Init@address stored from wreg
  1500  02B8  00F3               	movwf	I2C_Slave_Init@address
  1501  02B9                     l839:
  1502                           
  1503                           ;I2C.c: 93: void I2C_Slave_Init(uint8_t address);I2C.c: 94: {;I2C.c: 95:     SSPADD = ad
      +                          dress;
  1504  02B9  0873               	movf	I2C_Slave_Init@address,w
  1505  02BA  1683               	bsf	3,5	;RP0=1, select bank1
  1506  02BB  1303               	bcf	3,6	;RP1=0, select bank1
  1507  02BC  0093               	movwf	19	;volatile
  1508                           
  1509                           ;I2C.c: 96:     SSPCON = 0x36;
  1510  02BD  3036               	movlw	54
  1511  02BE  1283               	bcf	3,5	;RP0=0, select bank0
  1512  02BF  1303               	bcf	3,6	;RP1=0, select bank0
  1513  02C0  0094               	movwf	20	;volatile
  1514                           
  1515                           ;I2C.c: 97:     SSPSTAT = 0x80;
  1516  02C1  3080               	movlw	128
  1517  02C2  1683               	bsf	3,5	;RP0=1, select bank1
  1518  02C3  1303               	bcf	3,6	;RP1=0, select bank1
  1519  02C4  0094               	movwf	20	;volatile
  1520                           
  1521                           ;I2C.c: 98:     SSPCON2 = 0x01;
  1522  02C5  3001               	movlw	1
  1523  02C6  0091               	movwf	17	;volatile
  1524  02C7                     l841:
  1525                           
  1526                           ;I2C.c: 99:     TRISC3 = 1;
  1527  02C7  1587               	bsf	7,3	;volatile
  1528  02C8                     l843:
  1529                           
  1530                           ;I2C.c: 100:     TRISC4 = 1;
  1531  02C8  1607               	bsf	7,4	;volatile
  1532  02C9                     l845:
  1533                           
  1534                           ;I2C.c: 101:     GIE = 1;
  1535  02C9  178B               	bsf	11,7	;volatile
  1536  02CA                     l847:
  1537                           
  1538                           ;I2C.c: 102:     PEIE = 1;
  1539  02CA  170B               	bsf	11,6	;volatile
  1540  02CB                     l849:
  1541                           
  1542                           ;I2C.c: 103:     SSPIF = 0;
  1543  02CB  1283               	bcf	3,5	;RP0=0, select bank0
  1544  02CC  1303               	bcf	3,6	;RP1=0, select bank0
  1545  02CD  118C               	bcf	12,3	;volatile
  1546  02CE                     l851:
  1547                           
  1548                           ;I2C.c: 104:     SSPIE = 1;
  1549  02CE  1683               	bsf	3,5	;RP0=1, select bank1
  1550  02CF  1303               	bcf	3,6	;RP1=0, select bank1
  1551  02D0  158C               	bsf	12,3	;volatile
  1552  02D1                     l157:
  1553  02D1  0008               	return
  1554  02D2                     __end_of_I2C_Slave_Init:
  1555                           
  1556                           	psect	text6
  1557  0016                     __ptext6:	
  1558 ;; *************** function _Select_ch *****************
  1559 ;; Defined at:
  1560 ;;		line 175 in file "ADC.c"
  1561 ;; Parameters:    Size  Location     Type
  1562 ;;  channel         1    wreg     unsigned char 
  1563 ;; Auto vars:     Size  Location     Type
  1564 ;;  channel         1    5[COMMON] unsigned char 
  1565 ;; Return value:  Size  Location     Type
  1566 ;;                  1    wreg      void 
  1567 ;; Registers used:
  1568 ;;		wreg, fsr0l, fsr0h, status,2, status,0
  1569 ;; Tracked objects:
  1570 ;;		On entry : 0/0
  1571 ;;		On exit  : 0/0
  1572 ;;		Unchanged: 0/0
  1573 ;; Data sizes:     COMMON   BANK0   BANK1   BANK3   BANK2
  1574 ;;      Params:         0       0       0       0       0
  1575 ;;      Locals:         1       0       0       0       0
  1576 ;;      Temps:          2       0       0       0       0
  1577 ;;      Totals:         3       0       0       0       0
  1578 ;;Total ram usage:        3 bytes
  1579 ;; Hardware stack levels used:    1
  1580 ;; Hardware stack levels required when called:    1
  1581 ;; This function calls:
  1582 ;;		Nothing
  1583 ;; This function is called by:
  1584 ;;		_main
  1585 ;; This function uses a non-reentrant model
  1586 ;;
  1587                           
  1588                           
  1589                           ;psect for function _Select_ch
  1590  0016                     _Select_ch:
  1591                           
  1592                           ;incstack = 0
  1593                           ; Regs used in _Select_ch: [wreg-fsr0h+status,2+status,0]
  1594                           ;Select_ch@channel stored from wreg
  1595  0016  00F5               	movwf	Select_ch@channel
  1596  0017                     l917:
  1597                           
  1598                           ;ADC.c: 176:     switch (channel) {
  1599  0017  2888               	goto	l921
  1600  0018                     l83:	
  1601                           ;ADC.c: 177:         case 0:
  1602                           
  1603                           
  1604                           ;ADC.c: 178:             ADCON0bits.CHS0 = 0;
  1605  0018  1283               	bcf	3,5	;RP0=0, select bank0
  1606  0019  1303               	bcf	3,6	;RP1=0, select bank0
  1607  001A  111F               	bcf	31,2	;volatile
  1608                           
  1609                           ;ADC.c: 179:             ADCON0bits.CHS1 = 0;
  1610  001B  119F               	bcf	31,3	;volatile
  1611                           
  1612                           ;ADC.c: 180:             ADCON0bits.CHS2 = 0;
  1613  001C  121F               	bcf	31,4	;volatile
  1614                           
  1615                           ;ADC.c: 181:             ADCON0bits.CHS3 = 0;
  1616  001D  129F               	bcf	31,5	;volatile
  1617                           
  1618                           ;ADC.c: 182:             break;
  1619  001E  28C2               	goto	l923
  1620  001F                     l85:	
  1621                           ;ADC.c: 183:         case 1:
  1622                           
  1623                           
  1624                           ;ADC.c: 184:             ADCON0bits.CHS0 = 1;
  1625  001F  1283               	bcf	3,5	;RP0=0, select bank0
  1626  0020  1303               	bcf	3,6	;RP1=0, select bank0
  1627  0021  151F               	bsf	31,2	;volatile
  1628                           
  1629                           ;ADC.c: 185:             ADCON0bits.CHS1 = 0;
  1630  0022  119F               	bcf	31,3	;volatile
  1631                           
  1632                           ;ADC.c: 186:             ADCON0bits.CHS2 = 0;
  1633  0023  121F               	bcf	31,4	;volatile
  1634                           
  1635                           ;ADC.c: 187:             ADCON0bits.CHS3 = 0;
  1636  0024  129F               	bcf	31,5	;volatile
  1637                           
  1638                           ;ADC.c: 188:             break;
  1639  0025  28C2               	goto	l923
  1640  0026                     l86:	
  1641                           ;ADC.c: 189:         case 2:
  1642                           
  1643                           
  1644                           ;ADC.c: 190:             ADCON0bits.CHS0 = 0;
  1645  0026  1283               	bcf	3,5	;RP0=0, select bank0
  1646  0027  1303               	bcf	3,6	;RP1=0, select bank0
  1647  0028  111F               	bcf	31,2	;volatile
  1648                           
  1649                           ;ADC.c: 191:             ADCON0bits.CHS1 = 1;
  1650  0029  159F               	bsf	31,3	;volatile
  1651                           
  1652                           ;ADC.c: 192:             ADCON0bits.CHS2 = 0;
  1653  002A  121F               	bcf	31,4	;volatile
  1654                           
  1655                           ;ADC.c: 193:             ADCON0bits.CHS3 = 0;
  1656  002B  129F               	bcf	31,5	;volatile
  1657                           
  1658                           ;ADC.c: 194:             break;
  1659  002C  28C2               	goto	l923
  1660  002D                     l87:	
  1661                           ;ADC.c: 195:         case 3:
  1662                           
  1663                           
  1664                           ;ADC.c: 196:             ADCON0bits.CHS0 = 1;
  1665  002D  1283               	bcf	3,5	;RP0=0, select bank0
  1666  002E  1303               	bcf	3,6	;RP1=0, select bank0
  1667  002F  151F               	bsf	31,2	;volatile
  1668                           
  1669                           ;ADC.c: 197:             ADCON0bits.CHS1 = 1;
  1670  0030  159F               	bsf	31,3	;volatile
  1671                           
  1672                           ;ADC.c: 198:             ADCON0bits.CHS2 = 0;
  1673  0031  121F               	bcf	31,4	;volatile
  1674                           
  1675                           ;ADC.c: 199:             ADCON0bits.CHS3 = 0;
  1676  0032  129F               	bcf	31,5	;volatile
  1677                           
  1678                           ;ADC.c: 200:             break;
  1679  0033  28C2               	goto	l923
  1680  0034                     l88:	
  1681                           ;ADC.c: 201:         case 4:
  1682                           
  1683                           
  1684                           ;ADC.c: 202:             ADCON0bits.CHS0 = 0;
  1685  0034  1283               	bcf	3,5	;RP0=0, select bank0
  1686  0035  1303               	bcf	3,6	;RP1=0, select bank0
  1687  0036  111F               	bcf	31,2	;volatile
  1688                           
  1689                           ;ADC.c: 203:             ADCON0bits.CHS1 = 0;
  1690  0037  119F               	bcf	31,3	;volatile
  1691                           
  1692                           ;ADC.c: 204:             ADCON0bits.CHS2 = 1;
  1693  0038  161F               	bsf	31,4	;volatile
  1694                           
  1695                           ;ADC.c: 205:             ADCON0bits.CHS3 = 0;
  1696  0039  129F               	bcf	31,5	;volatile
  1697                           
  1698                           ;ADC.c: 206:             break;
  1699  003A  28C2               	goto	l923
  1700  003B                     l89:	
  1701                           ;ADC.c: 207:         case 5:
  1702                           
  1703                           
  1704                           ;ADC.c: 208:             ADCON0bits.CHS0 = 1;
  1705  003B  1283               	bcf	3,5	;RP0=0, select bank0
  1706  003C  1303               	bcf	3,6	;RP1=0, select bank0
  1707  003D  151F               	bsf	31,2	;volatile
  1708                           
  1709                           ;ADC.c: 209:             ADCON0bits.CHS1 = 0;
  1710  003E  119F               	bcf	31,3	;volatile
  1711                           
  1712                           ;ADC.c: 210:             ADCON0bits.CHS2 = 1;
  1713  003F  161F               	bsf	31,4	;volatile
  1714                           
  1715                           ;ADC.c: 211:             ADCON0bits.CHS3 = 0;
  1716  0040  129F               	bcf	31,5	;volatile
  1717                           
  1718                           ;ADC.c: 212:             break;
  1719  0041  28C2               	goto	l923
  1720  0042                     l90:	
  1721                           ;ADC.c: 213:         case 6:
  1722                           
  1723                           
  1724                           ;ADC.c: 214:             ADCON0bits.CHS0 = 0;
  1725  0042  1283               	bcf	3,5	;RP0=0, select bank0
  1726  0043  1303               	bcf	3,6	;RP1=0, select bank0
  1727  0044  111F               	bcf	31,2	;volatile
  1728                           
  1729                           ;ADC.c: 215:             ADCON0bits.CHS1 = 1;
  1730  0045  159F               	bsf	31,3	;volatile
  1731                           
  1732                           ;ADC.c: 216:             ADCON0bits.CHS2 = 1;
  1733  0046  161F               	bsf	31,4	;volatile
  1734                           
  1735                           ;ADC.c: 217:             ADCON0bits.CHS3 = 0;
  1736  0047  129F               	bcf	31,5	;volatile
  1737                           
  1738                           ;ADC.c: 218:             break;
  1739  0048  28C2               	goto	l923
  1740  0049                     l91:	
  1741                           ;ADC.c: 219:         case 7:
  1742                           
  1743                           
  1744                           ;ADC.c: 220:             ADCON0bits.CHS0 = 1;
  1745  0049  1283               	bcf	3,5	;RP0=0, select bank0
  1746  004A  1303               	bcf	3,6	;RP1=0, select bank0
  1747  004B  151F               	bsf	31,2	;volatile
  1748                           
  1749                           ;ADC.c: 221:             ADCON0bits.CHS1 = 1;
  1750  004C  159F               	bsf	31,3	;volatile
  1751                           
  1752                           ;ADC.c: 222:             ADCON0bits.CHS2 = 1;
  1753  004D  161F               	bsf	31,4	;volatile
  1754                           
  1755                           ;ADC.c: 223:             ADCON0bits.CHS3 = 0;
  1756  004E  129F               	bcf	31,5	;volatile
  1757                           
  1758                           ;ADC.c: 224:             break;
  1759  004F  28C2               	goto	l923
  1760  0050                     l92:	
  1761                           ;ADC.c: 225:         case 8:
  1762                           
  1763                           
  1764                           ;ADC.c: 226:             ADCON0bits.CHS0 = 0;
  1765  0050  1283               	bcf	3,5	;RP0=0, select bank0
  1766  0051  1303               	bcf	3,6	;RP1=0, select bank0
  1767  0052  111F               	bcf	31,2	;volatile
  1768                           
  1769                           ;ADC.c: 227:             ADCON0bits.CHS1 = 0;
  1770  0053  119F               	bcf	31,3	;volatile
  1771                           
  1772                           ;ADC.c: 228:             ADCON0bits.CHS2 = 0;
  1773  0054  121F               	bcf	31,4	;volatile
  1774                           
  1775                           ;ADC.c: 229:             ADCON0bits.CHS3 = 1;
  1776  0055  169F               	bsf	31,5	;volatile
  1777                           
  1778                           ;ADC.c: 230:             break;
  1779  0056  28C2               	goto	l923
  1780  0057                     l93:	
  1781                           ;ADC.c: 231:         case 9:
  1782                           
  1783                           
  1784                           ;ADC.c: 232:             ADCON0bits.CHS0 = 1;
  1785  0057  1283               	bcf	3,5	;RP0=0, select bank0
  1786  0058  1303               	bcf	3,6	;RP1=0, select bank0
  1787  0059  151F               	bsf	31,2	;volatile
  1788                           
  1789                           ;ADC.c: 233:             ADCON0bits.CHS1 = 0;
  1790  005A  119F               	bcf	31,3	;volatile
  1791                           
  1792                           ;ADC.c: 234:             ADCON0bits.CHS2 = 0;
  1793  005B  121F               	bcf	31,4	;volatile
  1794                           
  1795                           ;ADC.c: 235:             ADCON0bits.CHS3 = 1;
  1796  005C  169F               	bsf	31,5	;volatile
  1797                           
  1798                           ;ADC.c: 236:             break;
  1799  005D  28C2               	goto	l923
  1800  005E                     l94:	
  1801                           ;ADC.c: 237:         case 10:
  1802                           
  1803                           
  1804                           ;ADC.c: 238:             ADCON0bits.CHS0 = 0;
  1805  005E  1283               	bcf	3,5	;RP0=0, select bank0
  1806  005F  1303               	bcf	3,6	;RP1=0, select bank0
  1807  0060  111F               	bcf	31,2	;volatile
  1808                           
  1809                           ;ADC.c: 239:             ADCON0bits.CHS1 = 1;
  1810  0061  159F               	bsf	31,3	;volatile
  1811                           
  1812                           ;ADC.c: 240:             ADCON0bits.CHS2 = 0;
  1813  0062  121F               	bcf	31,4	;volatile
  1814                           
  1815                           ;ADC.c: 241:             ADCON0bits.CHS3 = 1;
  1816  0063  169F               	bsf	31,5	;volatile
  1817                           
  1818                           ;ADC.c: 242:             break;
  1819  0064  28C2               	goto	l923
  1820  0065                     l95:	
  1821                           ;ADC.c: 243:         case 11:
  1822                           
  1823                           
  1824                           ;ADC.c: 244:             ADCON0bits.CHS0 = 1;
  1825  0065  1283               	bcf	3,5	;RP0=0, select bank0
  1826  0066  1303               	bcf	3,6	;RP1=0, select bank0
  1827  0067  151F               	bsf	31,2	;volatile
  1828                           
  1829                           ;ADC.c: 245:             ADCON0bits.CHS1 = 1;
  1830  0068  159F               	bsf	31,3	;volatile
  1831                           
  1832                           ;ADC.c: 246:             ADCON0bits.CHS2 = 0;
  1833  0069  121F               	bcf	31,4	;volatile
  1834                           
  1835                           ;ADC.c: 247:             ADCON0bits.CHS3 = 1;
  1836  006A  169F               	bsf	31,5	;volatile
  1837                           
  1838                           ;ADC.c: 248:             break;
  1839  006B  28C2               	goto	l923
  1840  006C                     l96:	
  1841                           ;ADC.c: 249:         case 12:
  1842                           
  1843                           
  1844                           ;ADC.c: 250:             ADCON0bits.CHS0 = 0;
  1845  006C  1283               	bcf	3,5	;RP0=0, select bank0
  1846  006D  1303               	bcf	3,6	;RP1=0, select bank0
  1847  006E  111F               	bcf	31,2	;volatile
  1848                           
  1849                           ;ADC.c: 251:             ADCON0bits.CHS1 = 0;
  1850  006F  119F               	bcf	31,3	;volatile
  1851                           
  1852                           ;ADC.c: 252:             ADCON0bits.CHS2 = 1;
  1853  0070  161F               	bsf	31,4	;volatile
  1854                           
  1855                           ;ADC.c: 253:             ADCON0bits.CHS3 = 1;
  1856  0071  169F               	bsf	31,5	;volatile
  1857                           
  1858                           ;ADC.c: 254:             break;
  1859  0072  28C2               	goto	l923
  1860  0073                     l97:	
  1861                           ;ADC.c: 255:         case 13:
  1862                           
  1863                           
  1864                           ;ADC.c: 256:             ADCON0bits.CHS0 = 1;
  1865  0073  1283               	bcf	3,5	;RP0=0, select bank0
  1866  0074  1303               	bcf	3,6	;RP1=0, select bank0
  1867  0075  151F               	bsf	31,2	;volatile
  1868                           
  1869                           ;ADC.c: 257:             ADCON0bits.CHS1 = 0;
  1870  0076  119F               	bcf	31,3	;volatile
  1871                           
  1872                           ;ADC.c: 258:             ADCON0bits.CHS2 = 1;
  1873  0077  161F               	bsf	31,4	;volatile
  1874                           
  1875                           ;ADC.c: 259:             ADCON0bits.CHS3 = 1;
  1876  0078  169F               	bsf	31,5	;volatile
  1877                           
  1878                           ;ADC.c: 260:             break;
  1879  0079  28C2               	goto	l923
  1880  007A                     l98:	
  1881                           ;ADC.c: 261:         case 14:
  1882                           
  1883                           
  1884                           ;ADC.c: 262:             ADCON0bits.CHS0 = 0;
  1885  007A  1283               	bcf	3,5	;RP0=0, select bank0
  1886  007B  1303               	bcf	3,6	;RP1=0, select bank0
  1887  007C  111F               	bcf	31,2	;volatile
  1888                           
  1889                           ;ADC.c: 263:             ADCON0bits.CHS1 = 1;
  1890  007D  159F               	bsf	31,3	;volatile
  1891                           
  1892                           ;ADC.c: 264:             ADCON0bits.CHS2 = 1;
  1893  007E  161F               	bsf	31,4	;volatile
  1894                           
  1895                           ;ADC.c: 265:             ADCON0bits.CHS3 = 1;
  1896  007F  169F               	bsf	31,5	;volatile
  1897                           
  1898                           ;ADC.c: 266:             break;
  1899  0080  28C2               	goto	l923
  1900  0081                     l99:	
  1901                           ;ADC.c: 267:         case 15:
  1902                           
  1903                           
  1904                           ;ADC.c: 268:             ADCON0bits.CHS0 = 1;
  1905  0081  1283               	bcf	3,5	;RP0=0, select bank0
  1906  0082  1303               	bcf	3,6	;RP1=0, select bank0
  1907  0083  151F               	bsf	31,2	;volatile
  1908                           
  1909                           ;ADC.c: 269:             ADCON0bits.CHS1 = 1;
  1910  0084  159F               	bsf	31,3	;volatile
  1911                           
  1912                           ;ADC.c: 270:             ADCON0bits.CHS2 = 1;
  1913  0085  161F               	bsf	31,4	;volatile
  1914                           
  1915                           ;ADC.c: 271:             ADCON0bits.CHS3 = 1;
  1916  0086  169F               	bsf	31,5	;volatile
  1917                           
  1918                           ;ADC.c: 272:             break;
  1919  0087  28C2               	goto	l923
  1920  0088                     l921:
  1921  0088  0875               	movf	Select_ch@channel,w
  1922  0089  00F3               	movwf	??_Select_ch
  1923  008A  01F4               	clrf	??_Select_ch+1
  1924                           
  1925                           ; Switch on 2 bytes has been partitioned into a top level switch of size 1, and 1 sub-sw
      +                          itches
  1926                           ; Switch size 1, requested type "simple"
  1927                           ; Number of cases is 1, Range of values is 0 to 0
  1928                           ; switch strategies available:
  1929                           ; Name         Instructions Cycles
  1930                           ; simple_byte            4     3 (average)
  1931                           ; direct_byte           11     8 (fixed)
  1932                           ; jumptable            260     6 (fixed)
  1933                           ;	Chosen strategy is simple_byte
  1934  008B  0874               	movf	??_Select_ch+1,w
  1935  008C  3A00               	xorlw	0	; case 0
  1936  008D  1903               	skipnz
  1937  008E  2890               	goto	l1503
  1938  008F  28C2               	goto	l923
  1939  0090                     l1503:
  1940                           
  1941                           ; Switch size 1, requested type "simple"
  1942                           ; Number of cases is 16, Range of values is 0 to 15
  1943                           ; switch strategies available:
  1944                           ; Name         Instructions Cycles
  1945                           ; simple_byte           49    25 (average)
  1946                           ; direct_byte           56     8 (fixed)
  1947                           ; jumptable            260     6 (fixed)
  1948                           ;	Chosen strategy is simple_byte
  1949  0090  0873               	movf	??_Select_ch,w
  1950  0091  3A00               	xorlw	0	; case 0
  1951  0092  1903               	skipnz
  1952  0093  2818               	goto	l83
  1953  0094  3A01               	xorlw	1	; case 1
  1954  0095  1903               	skipnz
  1955  0096  281F               	goto	l85
  1956  0097  3A03               	xorlw	3	; case 2
  1957  0098  1903               	skipnz
  1958  0099  2826               	goto	l86
  1959  009A  3A01               	xorlw	1	; case 3
  1960  009B  1903               	skipnz
  1961  009C  282D               	goto	l87
  1962  009D  3A07               	xorlw	7	; case 4
  1963  009E  1903               	skipnz
  1964  009F  2834               	goto	l88
  1965  00A0  3A01               	xorlw	1	; case 5
  1966  00A1  1903               	skipnz
  1967  00A2  283B               	goto	l89
  1968  00A3  3A03               	xorlw	3	; case 6
  1969  00A4  1903               	skipnz
  1970  00A5  2842               	goto	l90
  1971  00A6  3A01               	xorlw	1	; case 7
  1972  00A7  1903               	skipnz
  1973  00A8  2849               	goto	l91
  1974  00A9  3A0F               	xorlw	15	; case 8
  1975  00AA  1903               	skipnz
  1976  00AB  2850               	goto	l92
  1977  00AC  3A01               	xorlw	1	; case 9
  1978  00AD  1903               	skipnz
  1979  00AE  2857               	goto	l93
  1980  00AF  3A03               	xorlw	3	; case 10
  1981  00B0  1903               	skipnz
  1982  00B1  285E               	goto	l94
  1983  00B2  3A01               	xorlw	1	; case 11
  1984  00B3  1903               	skipnz
  1985  00B4  2865               	goto	l95
  1986  00B5  3A07               	xorlw	7	; case 12
  1987  00B6  1903               	skipnz
  1988  00B7  286C               	goto	l96
  1989  00B8  3A01               	xorlw	1	; case 13
  1990  00B9  1903               	skipnz
  1991  00BA  2873               	goto	l97
  1992  00BB  3A03               	xorlw	3	; case 14
  1993  00BC  1903               	skipnz
  1994  00BD  287A               	goto	l98
  1995  00BE  3A01               	xorlw	1	; case 15
  1996  00BF  1903               	skipnz
  1997  00C0  2881               	goto	l99
  1998  00C1  28C2               	goto	l923
  1999  00C2                     l923:
  2000                           
  2001                           ;ADC.c: 274:     _delay((unsigned long)((200)*(8000000/4000000.0)));
  2002  00C2  3085               	movlw	133
  2003  00C3  00F3               	movwf	??_Select_ch
  2004  00C4                     u357:
  2005  00C4  0BF3               	decfsz	??_Select_ch,f
  2006  00C5  28C4               	goto	u357
  2007  00C6                     l925:
  2008                           
  2009                           ;ADC.c: 275:     ADCON0bits.GO = 1;
  2010  00C6  1283               	bcf	3,5	;RP0=0, select bank0
  2011  00C7  1303               	bcf	3,6	;RP1=0, select bank0
  2012  00C8  149F               	bsf	31,1	;volatile
  2013  00C9                     l100:
  2014  00C9  0008               	return
  2015  00CA                     __end_of_Select_ch:
  2016                           
  2017                           	psect	text7
  2018  00CA                     __ptext7:	
  2019 ;; *************** function _isr *****************
  2020 ;; Defined at:
  2021 ;;		line 43 in file "Lab04_slave.c"
  2022 ;; Parameters:    Size  Location     Type
  2023 ;;		None
  2024 ;; Auto vars:     Size  Location     Type
  2025 ;;		None
  2026 ;; Return value:  Size  Location     Type
  2027 ;;                  1    wreg      void 
  2028 ;; Registers used:
  2029 ;;		wreg
  2030 ;; Tracked objects:
  2031 ;;		On entry : 0/0
  2032 ;;		On exit  : 0/0
  2033 ;;		Unchanged: 0/0
  2034 ;; Data sizes:     COMMON   BANK0   BANK1   BANK3   BANK2
  2035 ;;      Params:         0       0       0       0       0
  2036 ;;      Locals:         0       0       0       0       0
  2037 ;;      Temps:          3       0       0       0       0
  2038 ;;      Totals:         3       0       0       0       0
  2039 ;;Total ram usage:        3 bytes
  2040 ;; Hardware stack levels used:    1
  2041 ;; This function calls:
  2042 ;;		Nothing
  2043 ;; This function is called by:
  2044 ;;		Interrupt level 1
  2045 ;; This function uses a non-reentrant model
  2046 ;;
  2047                           
  2048                           
  2049                           ;psect for function _isr
  2050  00CA                     _isr:
  2051  00CA                     i1l1071:
  2052                           
  2053                           ;Lab04_slave.c: 45:    if(PIR1bits.SSPIF == 1){
  2054  00CA  1283               	bcf	3,5	;RP0=0, select bank0
  2055  00CB  1303               	bcf	3,6	;RP1=0, select bank0
  2056  00CC  1D8C               	btfss	12,3	;volatile
  2057  00CD  28CF               	goto	u16_21
  2058  00CE  28D0               	goto	u16_20
  2059  00CF                     u16_21:
  2060  00CF  2928               	goto	i1l221
  2061  00D0                     u16_20:
  2062  00D0                     i1l1073:
  2063                           
  2064                           ;Lab04_slave.c: 47:         SSPCONbits.CKP = 0;
  2065  00D0  1214               	bcf	20,4	;volatile
  2066                           
  2067                           ;Lab04_slave.c: 49:         if ((SSPCONbits.SSPOV) || (SSPCONbits.WCOL)){
  2068  00D1  1B14               	btfsc	20,6	;volatile
  2069  00D2  28D4               	goto	u17_21
  2070  00D3  28D5               	goto	u17_20
  2071  00D4                     u17_21:
  2072  00D4  28D9               	goto	i1l1077
  2073  00D5                     u17_20:
  2074  00D5                     i1l1075:
  2075  00D5  1F94               	btfss	20,7	;volatile
  2076  00D6  28D8               	goto	u18_21
  2077  00D7  28D9               	goto	u18_20
  2078  00D8                     u18_21:
  2079  00D8  28E0               	goto	i1l1085
  2080  00D9                     u18_20:
  2081  00D9                     i1l1077:
  2082                           
  2083                           ;Lab04_slave.c: 50:             z = SSPBUF;
  2084  00D9  0813               	movf	19,w	;volatile
  2085  00DA  00F0               	movwf	??_isr
  2086  00DB  0870               	movf	??_isr,w
  2087  00DC  00F9               	movwf	_z
  2088  00DD                     i1l1079:
  2089                           
  2090                           ;Lab04_slave.c: 51:             SSPCONbits.SSPOV = 0;
  2091  00DD  1314               	bcf	20,6	;volatile
  2092  00DE                     i1l1081:
  2093                           
  2094                           ;Lab04_slave.c: 52:             SSPCONbits.WCOL = 0;
  2095  00DE  1394               	bcf	20,7	;volatile
  2096  00DF                     i1l1083:
  2097                           
  2098                           ;Lab04_slave.c: 53:             SSPCONbits.CKP = 1;
  2099  00DF  1614               	bsf	20,4	;volatile
  2100  00E0                     i1l1085:
  2101                           
  2102                           ;Lab04_slave.c: 56:         if(!SSPSTATbits.D_nA && !SSPSTATbits.R_nW) {
  2103  00E0  1683               	bsf	3,5	;RP0=1, select bank1
  2104  00E1  1303               	bcf	3,6	;RP1=0, select bank1
  2105  00E2  1A94               	btfsc	20,5	;volatile
  2106  00E3  28E5               	goto	u19_21
  2107  00E4  28E6               	goto	u19_20
  2108  00E5                     u19_21:
  2109  00E5  2904               	goto	i1l225
  2110  00E6                     u19_20:
  2111  00E6                     i1l1087:
  2112  00E6  1914               	btfsc	20,2	;volatile
  2113  00E7  28E9               	goto	u20_21
  2114  00E8  28EA               	goto	u20_20
  2115  00E9                     u20_21:
  2116  00E9  2904               	goto	i1l225
  2117  00EA                     u20_20:
  2118  00EA                     i1l1089:
  2119                           
  2120                           ;Lab04_slave.c: 58:             z = SSPBUF;
  2121  00EA  1283               	bcf	3,5	;RP0=0, select bank0
  2122  00EB  1303               	bcf	3,6	;RP1=0, select bank0
  2123  00EC  0813               	movf	19,w	;volatile
  2124  00ED  00F0               	movwf	??_isr
  2125  00EE  0870               	movf	??_isr,w
  2126  00EF  00F9               	movwf	_z
  2127  00F0                     i1l1091:
  2128                           
  2129                           ;Lab04_slave.c: 60:             PIR1bits.SSPIF = 0;
  2130  00F0  118C               	bcf	12,3	;volatile
  2131  00F1                     i1l1093:
  2132                           
  2133                           ;Lab04_slave.c: 61:             SSPCONbits.CKP = 1;
  2134  00F1  1614               	bsf	20,4	;volatile
  2135  00F2                     i1l226:	
  2136                           ;Lab04_slave.c: 62:             while(!SSPSTATbits.BF);
  2137                           
  2138  00F2  1683               	bsf	3,5	;RP0=1, select bank1
  2139  00F3  1303               	bcf	3,6	;RP1=0, select bank1
  2140  00F4  1C14               	btfss	20,0	;volatile
  2141  00F5  28F7               	goto	u21_21
  2142  00F6  28F8               	goto	u21_20
  2143  00F7                     u21_21:
  2144  00F7  28F2               	goto	i1l226
  2145  00F8                     u21_20:
  2146  00F8                     i1l1095:
  2147                           
  2148                           ;Lab04_slave.c: 63:             lectura = SSPBUF;
  2149  00F8  1283               	bcf	3,5	;RP0=0, select bank0
  2150  00F9  1303               	bcf	3,6	;RP1=0, select bank0
  2151  00FA  0813               	movf	19,w	;volatile
  2152  00FB  00F0               	movwf	??_isr
  2153  00FC  0870               	movf	??_isr,w
  2154  00FD  00F8               	movwf	_lectura
  2155                           
  2156                           ;Lab04_slave.c: 64:             _delay((unsigned long)((250)*(8000000/4000000.0)));
  2157  00FE  30A6               	movlw	166
  2158  00FF  00F0               	movwf	??_isr
  2159  0100                     u36_27:
  2160  0100  0BF0               	decfsz	??_isr,f
  2161  0101  2900               	goto	u36_27
  2162  0102  0000               	nop
  2163                           
  2164                           ;Lab04_slave.c: 66:         }else if(!SSPSTATbits.D_nA && SSPSTATbits.R_nW){
  2165  0103  2925               	goto	i1l229
  2166  0104                     i1l225:
  2167  0104  1A94               	btfsc	20,5	;volatile
  2168  0105  2907               	goto	u22_21
  2169  0106  2908               	goto	u22_20
  2170  0107                     u22_21:
  2171  0107  2925               	goto	i1l229
  2172  0108                     u22_20:
  2173  0108                     i1l1097:
  2174  0108  1D14               	btfss	20,2	;volatile
  2175  0109  290B               	goto	u23_21
  2176  010A  290C               	goto	u23_20
  2177  010B                     u23_21:
  2178  010B  2925               	goto	i1l229
  2179  010C                     u23_20:
  2180  010C                     i1l1099:
  2181                           
  2182                           ;Lab04_slave.c: 67:             z = SSPBUF;
  2183  010C  1283               	bcf	3,5	;RP0=0, select bank0
  2184  010D  1303               	bcf	3,6	;RP1=0, select bank0
  2185  010E  0813               	movf	19,w	;volatile
  2186  010F  00F0               	movwf	??_isr
  2187  0110  0870               	movf	??_isr,w
  2188  0111  00F9               	movwf	_z
  2189  0112                     i1l1101:
  2190                           
  2191                           ;Lab04_slave.c: 68:             BF = 0;
  2192  0112  1683               	bsf	3,5	;RP0=1, select bank1
  2193  0113  1303               	bcf	3,6	;RP1=0, select bank1
  2194  0114  1014               	bcf	20,0	;volatile
  2195                           
  2196                           ;Lab04_slave.c: 69:             SSPBUF = var_adc;
  2197  0115  087A               	movf	_var_adc,w
  2198  0116  1283               	bcf	3,5	;RP0=0, select bank0
  2199  0117  1303               	bcf	3,6	;RP1=0, select bank0
  2200  0118  0093               	movwf	19	;volatile
  2201  0119                     i1l1103:
  2202                           
  2203                           ;Lab04_slave.c: 70:             SSPCONbits.CKP = 1;
  2204  0119  1614               	bsf	20,4	;volatile
  2205                           
  2206                           ;Lab04_slave.c: 71:             _delay((unsigned long)((250)*(8000000/4000000.0)));
  2207  011A  30A6               	movlw	166
  2208  011B  00F0               	movwf	??_isr
  2209  011C                     u37_27:
  2210  011C  0BF0               	decfsz	??_isr,f
  2211  011D  291C               	goto	u37_27
  2212  011E  0000               	nop
  2213  011F                     i1l231:	
  2214                           ;Lab04_slave.c: 72:             while(SSPSTATbits.BF);
  2215                           
  2216  011F  1683               	bsf	3,5	;RP0=1, select bank1
  2217  0120  1303               	bcf	3,6	;RP1=0, select bank1
  2218  0121  1814               	btfsc	20,0	;volatile
  2219  0122  2924               	goto	u24_21
  2220  0123  2925               	goto	u24_20
  2221  0124                     u24_21:
  2222  0124  291F               	goto	i1l231
  2223  0125                     u24_20:
  2224  0125                     i1l229:
  2225                           
  2226                           ;Lab04_slave.c: 75:         PIR1bits.SSPIF = 0;
  2227  0125  1283               	bcf	3,5	;RP0=0, select bank0
  2228  0126  1303               	bcf	3,6	;RP1=0, select bank0
  2229  0127  118C               	bcf	12,3	;volatile
  2230  0128                     i1l221:	
  2231                           ;Lab04_slave.c: 76:     }
  2232                           
  2233                           
  2234                           ;Lab04_slave.c: 78:    if (PIR1bits.ADIF == 1){
  2235  0128  1F0C               	btfss	12,6	;volatile
  2236  0129  292B               	goto	u25_21
  2237  012A  292C               	goto	u25_20
  2238  012B                     u25_21:
  2239  012B  2933               	goto	i1l235
  2240  012C                     u25_20:
  2241  012C                     i1l1105:
  2242                           
  2243                           ;Lab04_slave.c: 79:        var_adc = ADRESH;
  2244  012C  081E               	movf	30,w	;volatile
  2245  012D  00F0               	movwf	??_isr
  2246  012E  0870               	movf	??_isr,w
  2247  012F  00FA               	movwf	_var_adc
  2248                           
  2249                           ;Lab04_slave.c: 80:        PORTB = var_adc;
  2250  0130  087A               	movf	_var_adc,w
  2251  0131  0086               	movwf	6	;volatile
  2252  0132                     i1l1107:
  2253                           
  2254                           ;Lab04_slave.c: 81:        PIR1bits.ADIF = 0;
  2255  0132  130C               	bcf	12,6	;volatile
  2256  0133                     i1l235:
  2257  0133  0872               	movf	??_isr+2,w
  2258  0134  008A               	movwf	10
  2259  0135  0E71               	swapf	??_isr+1,w
  2260  0136  0083               	movwf	3
  2261  0137  0EFE               	swapf	btemp,f
  2262  0138  0E7E               	swapf	btemp,w
  2263  0139  0009               	retfie
  2264  013A                     __end_of_isr:
  2265  007E                     btemp	set	126	;btemp
  2266  007E                     wtemp0	set	126
  2267                           
  2268                           	psect	intentry
  2269  0004                     __pintentry:	
  2270                           ;incstack = 0
  2271                           ; Regs used in _isr: [wreg]
  2272                           
  2273  0004                     interrupt_function:
  2274  007E                     saved_w	set	btemp
  2275  0004  00FE               	movwf	btemp
  2276  0005  0E03               	swapf	3,w
  2277  0006  00F1               	movwf	??_isr+1
  2278  0007  080A               	movf	10,w
  2279  0008  00F2               	movwf	??_isr+2
  2280  0009  120A  118A  28CA   	ljmp	_isr
  2281                           
  2282                           	psect	config
  2283                           
  2284                           ;Config register CONFIG1 @ 0x2007
  2285                           ;	Oscillator Selection bits
  2286                           ;	FOSC = INTRC_NOCLKOUT, INTOSCIO oscillator: I/O function on RA6/OSC2/CLKOUT pin, I/O f
      +                          unction on RA7/OSC1/CLKIN
  2287                           ;	Watchdog Timer Enable bit
  2288                           ;	WDTE = OFF, WDT disabled and can be enabled by SWDTEN bit of the WDTCON register
  2289                           ;	Power-up Timer Enable bit
  2290                           ;	PWRTE = ON, PWRT enabled
  2291                           ;	RE3/MCLR pin function select bit
  2292                           ;	MCLRE = OFF, RE3/MCLR pin function is digital input, MCLR internally tied to VDD
  2293                           ;	Code Protection bit
  2294                           ;	CP = OFF, Program memory code protection is disabled
  2295                           ;	Data Code Protection bit
  2296                           ;	CPD = OFF, Data memory code protection is disabled
  2297                           ;	Brown Out Reset Selection bits
  2298                           ;	BOREN = OFF, BOR disabled
  2299                           ;	Internal External Switchover bit
  2300                           ;	IESO = OFF, Internal/External Switchover mode is disabled
  2301                           ;	Fail-Safe Clock Monitor Enabled bit
  2302                           ;	FCMEN = OFF, Fail-Safe Clock Monitor is disabled
  2303                           ;	Low Voltage Programming Enable bit
  2304                           ;	LVP = OFF, RB3 pin has digital I/O, HV on MCLR must be used for programming
  2305                           ;	In-Circuit Debugger Mode bit
  2306                           ;	DEBUG = 0x1, unprogrammed default
  2307  2007                     	org	8199
  2308  2007  20C4               	dw	8388
  2309                           
  2310                           ;Config register CONFIG2 @ 0x2008
  2311                           ;	Brown-out Reset Selection bit
  2312                           ;	BOR4V = BOR40V, Brown-out Reset set to 4.0V
  2313                           ;	Flash Program Memory Self Write Enable bits
  2314                           ;	WRT = OFF, Write protection off
  2315  2008                     	org	8200
  2316  2008  3FFF               	dw	16383

Data Sizes:
    Strings     0
    Constant    0
    Data        0
    BSS         3
    Persistent  0
    Stack       0

Auto Spaces:
    Space          Size  Autos    Used
    COMMON           14      8      11
    BANK0            80      2       2
    BANK1            80      0       0
    BANK3            96      0       0
    BANK2            96      0       0

Pointer List with Targets:

    None.

Critical Paths under _main in COMMON

    _main->_start_adc
    _setup->_conf_osc

Critical Paths under _isr in COMMON

    None.

Critical Paths under _main in BANK0

    _main->_start_adc

Critical Paths under _isr in BANK0

    None.

Critical Paths under _main in BANK1

    None.

Critical Paths under _isr in BANK1

    None.

Critical Paths under _main in BANK3

    None.

Critical Paths under _isr in BANK3

    None.

Critical Paths under _main in BANK2

    None.

Critical Paths under _isr in BANK2

    None.

Call Graph Tables:

 ---------------------------------------------------------------------------------
 (Depth) Function   	        Calls       Base Space   Used Autos Params    Refs
 ---------------------------------------------------------------------------------
 (0) _main                                                 1     1      0     454
                                              1 BANK0      1     1      0
                          _Select_ch
                              _setup
                          _start_adc
                           _start_ch
 ---------------------------------------------------------------------------------
 (1) _start_ch                                             3     3      0      15
                                              3 COMMON     3     3      0
 ---------------------------------------------------------------------------------
 (1) _start_adc                                            6     3      3     394
                                              3 COMMON     5     2      3
                                              0 BANK0      1     1      0
 ---------------------------------------------------------------------------------
 (1) _setup                                                0     0      0      30
                     _I2C_Slave_Init
                           _conf_osc
 ---------------------------------------------------------------------------------
 (2) _conf_osc                                             3     3      0      15
                                              3 COMMON     3     3      0
 ---------------------------------------------------------------------------------
 (2) _I2C_Slave_Init                                       1     1      0      15
                                              3 COMMON     1     1      0
 ---------------------------------------------------------------------------------
 (1) _Select_ch                                            3     3      0      15
                                              3 COMMON     3     3      0
 ---------------------------------------------------------------------------------
 Estimated maximum stack depth 2
 ---------------------------------------------------------------------------------
 (Depth) Function   	        Calls       Base Space   Used Autos Params    Refs
 ---------------------------------------------------------------------------------
 (3) _isr                                                  3     3      0       0
                                              0 COMMON     3     3      0
 ---------------------------------------------------------------------------------
 Estimated maximum stack depth 3
 ---------------------------------------------------------------------------------

 Call Graph Graphs:

 _main (ROOT)
   _Select_ch
   _setup
     _I2C_Slave_Init
     _conf_osc
   _start_adc
   _start_ch

 _isr (ROOT)

 Address spaces:
Name               Size   Autos  Total    Cost      Usage
BITCOMMON            E      0       0       0        0.0%
EEDATA             100      0       0       0        0.0%
NULL                 0      0       0       0        0.0%
CODE                 0      0       0       0        0.0%
COMMON               E      8       B       1       78.6%
BITSFR0              0      0       0       1        0.0%
SFR0                 0      0       0       1        0.0%
BITSFR1              0      0       0       2        0.0%
SFR1                 0      0       0       2        0.0%
STACK                0      0       0       2        0.0%
ABS                  0      0       D       3        0.0%
BITBANK0            50      0       0       4        0.0%
BITSFR3              0      0       0       4        0.0%
SFR3                 0      0       0       4        0.0%
BANK0               50      2       2       5        2.5%
BITSFR2              0      0       0       5        0.0%
SFR2                 0      0       0       5        0.0%
BITBANK1            50      0       0       6        0.0%
BANK1               50      0       0       7        0.0%
BITBANK3            60      0       0       8        0.0%
BANK3               60      0       0       9        0.0%
BITBANK2            60      0       0      10        0.0%
BANK2               60      0       0      11        0.0%
DATA                 0      0       D      12        0.0%


Microchip Technology PIC Macro Assembler V2.31 build 20201012212115 
Symbol Table                                                                                   Sun Aug 08 21:15:06 2021

                      _z 0079              _SSPSTATbits 0094                       _BF 04A0  
                     l50 01BB                       l60 0212                       l52 01EC  
                     l46 01B2                       l70 0150                       l55 01F0  
                     l71 0154                       l48 01B5                       l72 0158  
                     l64 013C                       l57 01F3                       l49 01B8  
                     l73 015C                       l90 0042                       l58 01F6  
                     l74 0160                       l66 0140                       l91 0049  
                     l83 0018                       l59 01F9                       l75 0164  
                     l67 0144                       l92 0050                       l76 0168  
                     l68 0148                       l93 0057                       l85 001F  
                     l77 016C                       l69 014C                       l94 005E  
                     l86 0026                       l78 0170                       l95 0065  
                     l87 002D                       l79 01A8                       l96 006C  
                     l88 0034                       l97 0073                       l89 003B  
                     l98 007A                       l99 0081                      l100 00C9  
                    l170 0267                      l162 0266                      l157 02D1  
                    l247 02B7                      l911 0174                      l921 0088  
                    l841 02C7                      l923 00C2                      l851 02CE  
                    l843 02C8                      l907 013B                      l925 00C6  
                    l917 0017                      l845 02C9                      l861 0226  
                    l853 0214                      l941 02AB                      l847 02CA  
                    l839 02B9                      l863 022D                      l855 0215  
                    l943 02B1                      l935 029D                      l849 02CB  
                    l865 0234                      l857 021A                      l873 0247  
                    l937 02A1                      l867 023B                      l859 0221  
                    l939 02A2                      l869 0240                      _GIE 005F  
                    u300 01DB                      u301 01DA                      u310 01E8  
                    u311 01E7                      u320 0289                      u321 0288  
                    u337 0293                      u347 01AF                      u357 00C4  
                    _isr 00CA             conf_osc@frec 0075                     l1501 024F  
                   l1503 0090                     l1371 01E8                     l1363 01BE  
                   l1365 01D6                     l1357 01AC                     l1375 01FC  
                   l1367 01DB                     l1359 01AD                     l1391 028F  
                   l1369 01E3                     l1393 0296                     l1385 0268  
                   l1387 0283                     l1389 0289                     l1495 017C  
                   l1497 01C8                     l1499 0204                     ?_isr 0070  
                   _PEIE 005E                     _main 0268                     btemp 007E  
                   start 000C                    ??_isr 0070                    ?_main 0070  
                  _ANSEL 0188                    i1l221 0128                    i1l231 011F  
                  i1l225 0104                    i1l226 00F2                    i1l235 0133  
                  i1l229 0125                    u20_20 00EA                    u20_21 00E9  
                  u21_20 00F8                    u21_21 00F7                    u22_20 0108  
                  u22_21 0107                    u23_20 010C                    u23_21 010B  
                  u24_20 0125                    u16_20 00D0                    u24_21 0124  
                  u16_21 00CF                    u25_20 012C                    u17_20 00D5  
                  u25_21 012B                    u17_21 00D4                    u18_20 00D9  
                  u18_21 00D8                    u19_20 00E6                    u19_21 00E5  
                  _PORTA 0005                    _PORTB 0006                    u36_27 0100  
                  u37_27 011C                    _TRISA 0085                    _TRISB 0086  
                  _SSPIE 0463                    _SSPIF 0063                    _setup 029D  
                  pclath 000A                    status 0003                    wtemp0 007E  
        __initialization 000F             __end_of_main 029D                   ??_main 0021  
                 _ADRESH 001E                   ?_setup 0070                   _ANSELH 0189  
                 i1l1101 0112                   i1l1103 0119                   i1l1105 012C  
                 i1l1107 0132                   i1l1071 00CA                   i1l1081 00DE  
                 i1l1073 00D0                   i1l1091 00F0                   i1l1083 00DF  
                 i1l1075 00D5                   i1l1093 00F1                   i1l1085 00E0  
                 i1l1077 00D9                   i1l1095 00F8                   i1l1087 00E6  
                 i1l1079 00DD                   i1l1097 0108                   i1l1089 00EA  
                 i1l1099 010C                   _SSPADD 0093                   _TRISC3 043B  
                 _TRISC4 043C                   _SSPCON 0014                   _SSPBUF 0013  
       __end_of_conf_osc 0268       __size_of_Select_ch 00B4             start_adc@isr 0073  
                 saved_w 007E         __end_of_start_ch 01A9  __end_of__initialization 0012  
         __pcstackCOMMON 0070  __size_of_I2C_Slave_Init 001A            __end_of_setup 02B8  
                ??_setup 0076    I2C_Slave_Init@address 0073        __end_of_Select_ch 00CA  
             __pmaintext 0268               __pintentry 0004                  _SSPCON2 0091  
     __size_of_start_adc 006A                ?_conf_osc 0070                  _SSPSTAT 0094  
              ?_start_ch 0070                _ANSELbits 0188                  __ptext1 013A  
                __ptext2 01A9                  __ptext3 029D                  __ptext4 0213  
                __ptext5 02B8                  __ptext6 0016                  __ptext7 00CA  
       Select_ch@channel 0075                  _lectura 0078             __size_of_isr 0070  
          start_adc@Vref 0074                  _var_adc 007A            start_adc@frec 0020  
             ??_conf_osc 0073     end_of_initialization 0012           _I2C_Slave_Init 02B8  
      __end_of_start_adc 0213               ??_start_ch 0073                _TRISCbits 0087  
 __end_of_I2C_Slave_Init 02D2      start_initialization 000F              __end_of_isr 013A  
              _Select_ch 0016          ?_I2C_Slave_Init 0070              __pbssCOMMON 0078  
              ___latbits 0002            __pcstackBANK0 0020        __size_of_conf_osc 0055  
             ?_Select_ch 0070        __size_of_start_ch 006F           __size_of_setup 001B  
      interrupt_function 0004                 _PIE1bits 008C          start_ch@channel 0075  
               _PIR1bits 000C          start_adc@justRL 0075               _ADCON0bits 001F  
             _ADCON1bits 009F                _start_adc 01A9              ??_Select_ch 0073  
             ?_start_adc 0073               _ANSELHbits 0189                 _conf_osc 0213  
       ??_I2C_Slave_Init 0073            __size_of_main 0035                 _start_ch 013A  
             _INTCONbits 000B                 intlevel1 0000               _OSCCONbits 008F  
            ??_start_adc 0076              _SSPCON2bits 0091               _SSPCONbits 0014  
