

Microchip MPLAB XC8 Assembler V2.31 build 20201012212115 
                                                                                               Wed Aug 04 12:28:37 2021

Microchip MPLAB XC8 C Compiler v2.31 (Free license) build 20201012212115 Og1 
     1                           	processor	16F887
     2                           	pagewidth 120
     3                           	opt	flic
     4                           	psect	idataBANK1,global,class=CODE,delta=2,noexec
     5                           	psect	strings,global,class=STRING,delta=2,noexec
     6                           	psect	cinit,global,class=CODE,merge=1,delta=2
     7                           	psect	bssBANK0,global,class=BANK0,space=1,delta=1,noexec
     8                           	psect	bssBANK1,global,class=BANK1,space=1,delta=1,noexec
     9                           	psect	dataBANK1,global,class=BANK1,space=1,delta=1,noexec
    10                           	psect	inittext,global,class=CODE,delta=2
    11                           	psect	clrtext,global,class=CODE,delta=2
    12                           	psect	cstackBANK1,global,class=BANK1,space=1,delta=1,noexec
    13                           	psect	cstackCOMMON,global,class=COMMON,space=1,delta=1,noexec
    14                           	psect	cstackBANK0,global,class=BANK0,space=1,delta=1,noexec
    15                           	psect	maintext,global,class=CODE,split=1,delta=2
    16                           	psect	text1,local,class=CODE,merge=1,delta=2
    17                           	psect	text2,local,class=CODE,merge=1,delta=2
    18                           	psect	text3,local,class=CODE,merge=1,delta=2
    19                           	psect	text4,local,class=CODE,merge=1,delta=2
    20                           	psect	text5,local,class=CODE,merge=1,delta=2
    21                           	psect	text6,local,class=CODE,merge=1,delta=2
    22                           	psect	text7,local,class=CODE,merge=1,delta=2
    23                           	psect	text8,local,class=CODE,merge=1,delta=2,group=3
    24                           	psect	text9,local,class=CODE,merge=1,delta=2
    25                           	psect	text10,local,class=CODE,merge=1,delta=2,group=3
    26                           	psect	text11,local,class=CODE,merge=1,delta=2,group=3
    27                           	psect	text12,local,class=CODE,merge=1,delta=2,group=1
    28                           	psect	text13,local,class=CODE,merge=1,delta=2
    29                           	psect	text14,local,class=CODE,merge=1,delta=2,group=2
    30                           	psect	text15,local,class=CODE,merge=1,delta=2,group=2
    31                           	psect	text16,local,class=CODE,merge=1,delta=2,group=3
    32                           	psect	text17,local,class=CODE,merge=1,delta=2,group=3
    33                           	psect	text18,local,class=CODE,merge=1,delta=2
    34                           	psect	text19,local,class=CODE,merge=1,delta=2,group=2
    35                           	psect	text20,local,class=CODE,merge=1,delta=2,group=2
    36                           	psect	text21,local,class=CODE,merge=1,delta=2,group=2
    37                           	psect	text22,local,class=CODE,merge=1,delta=2,group=2
    38                           	psect	text23,local,class=CODE,merge=1,delta=2,group=2
    39                           	psect	text24,local,class=CODE,merge=1,delta=2,group=2
    40                           	psect	text25,local,class=CODE,merge=1,delta=2,group=2
    41                           	psect	text26,local,class=CODE,merge=1,delta=2,group=2
    42                           	psect	text27,local,class=CODE,merge=1,delta=2,group=2
    43                           	psect	text28,local,class=CODE,merge=1,delta=2,group=2
    44                           	psect	functab,global,class=ENTRY,delta=2
    45                           	psect	config,global,abs,ovrld,class=CONFIG,space=4,delta=2,noexec
    46                           	dabs	1,0x7E,2
    47  0000                     
    48                           ; Version 2.20
    49                           ; Generated 12/02/2020 GMT
    50                           ; 
    51                           ; Copyright © 2020, Microchip Technology Inc. and its subsidiaries ("Microchip")
    52                           ; All rights reserved.
    53                           ; 
    54                           ; This software is developed by Microchip Technology Inc. and its subsidiaries ("Microch
      +                          ip").
    55                           ; 
    56                           ; Redistribution and use in source and binary forms, with or without modification, are
    57                           ; permitted provided that the following conditions are met:
    58                           ; 
    59                           ;     1. Redistributions of source code must retain the above copyright notice, this lis
      +                          t of
    60                           ;        conditions and the following disclaimer.
    61                           ; 
    62                           ;     2. Redistributions in binary form must reproduce the above copyright notice, this 
      +                          list
    63                           ;        of conditions and the following disclaimer in the documentation and/or other
    64                           ;        materials provided with the distribution.
    65                           ; 
    66                           ;     3. Microchip's name may not be used to endorse or promote products derived from th
      +                          is
    67                           ;        software without specific prior written permission.
    68                           ; 
    69                           ; THIS SOFTWARE IS PROVIDED BY MICROCHIP "AS IS" AND ANY EXPRESS OR IMPLIED WARRANTIES,
    70                           ; INCLUDING, BUT NOT LIMITED TO, THE IMPLIED WARRANTIES OF MERCHANTABILITY AND FITNESS F
      +                          OR
    71                           ; PURPOSE ARE DISCLAIMED.  IN NO EVENT SHALL MICROCHIP BE LIABLE FOR ANY DIRECT, INDIREC
      +                          T,
    72                           ; INCIDENTAL, SPECIAL, EXEMPLARY, OR CONSEQUENTIAL DAMAGES (INCLUDING BUT NOT LIMITED TO
    73                           ; PROCUREMENT OF SUBSTITUTE GOODS OR SERVICES; LOSS OF USE, DATA OR PROFITS; OR BUSINESS
    74                           ; INTERRUPTION) HOWSOEVER CAUSED AND ON ANY THEORY OF LIABILITY, WHETHER IN CONTRACT, ST
      +                          RICT
    75                           ; LIABILITY, OR TORT (INCLUDING NEGLIGENCE OR OTHERWISE) ARISING IN ANY WAY OUT OF THE U
      +                          SE OF
    76                           ; THIS SOFTWARE, EVEN IF ADVISED OF THE POSSIBILITY OF SUCH DAMAGE.
    77                           ; 
    78                           ; 
    79                           ; Code-generator required, PIC16F887 Definitions
    80                           ; 
    81                           ; SFR Addresses
    82  0000                     	;# 
    83  0001                     	;# 
    84  0002                     	;# 
    85  0003                     	;# 
    86  0004                     	;# 
    87  0005                     	;# 
    88  0006                     	;# 
    89  0007                     	;# 
    90  0008                     	;# 
    91  0009                     	;# 
    92  000A                     	;# 
    93  000B                     	;# 
    94  000C                     	;# 
    95  000D                     	;# 
    96  000E                     	;# 
    97  000E                     	;# 
    98  000F                     	;# 
    99  0010                     	;# 
   100  0011                     	;# 
   101  0012                     	;# 
   102  0013                     	;# 
   103  0014                     	;# 
   104  0015                     	;# 
   105  0015                     	;# 
   106  0016                     	;# 
   107  0017                     	;# 
   108  0018                     	;# 
   109  0019                     	;# 
   110  001A                     	;# 
   111  001B                     	;# 
   112  001B                     	;# 
   113  001C                     	;# 
   114  001D                     	;# 
   115  001E                     	;# 
   116  001F                     	;# 
   117  0081                     	;# 
   118  0085                     	;# 
   119  0086                     	;# 
   120  0087                     	;# 
   121  0088                     	;# 
   122  0089                     	;# 
   123  008C                     	;# 
   124  008D                     	;# 
   125  008E                     	;# 
   126  008F                     	;# 
   127  0090                     	;# 
   128  0091                     	;# 
   129  0092                     	;# 
   130  0093                     	;# 
   131  0093                     	;# 
   132  0093                     	;# 
   133  0094                     	;# 
   134  0095                     	;# 
   135  0096                     	;# 
   136  0097                     	;# 
   137  0098                     	;# 
   138  0099                     	;# 
   139  009A                     	;# 
   140  009B                     	;# 
   141  009C                     	;# 
   142  009D                     	;# 
   143  009E                     	;# 
   144  009F                     	;# 
   145  0105                     	;# 
   146  0107                     	;# 
   147  0108                     	;# 
   148  0109                     	;# 
   149  010C                     	;# 
   150  010C                     	;# 
   151  010D                     	;# 
   152  010E                     	;# 
   153  010F                     	;# 
   154  0185                     	;# 
   155  0187                     	;# 
   156  0188                     	;# 
   157  0189                     	;# 
   158  018C                     	;# 
   159  018D                     	;# 
   160  0000                     	;# 
   161  0001                     	;# 
   162  0002                     	;# 
   163  0003                     	;# 
   164  0004                     	;# 
   165  0005                     	;# 
   166  0006                     	;# 
   167  0007                     	;# 
   168  0008                     	;# 
   169  0009                     	;# 
   170  000A                     	;# 
   171  000B                     	;# 
   172  000C                     	;# 
   173  000D                     	;# 
   174  000E                     	;# 
   175  000E                     	;# 
   176  000F                     	;# 
   177  0010                     	;# 
   178  0011                     	;# 
   179  0012                     	;# 
   180  0013                     	;# 
   181  0014                     	;# 
   182  0015                     	;# 
   183  0015                     	;# 
   184  0016                     	;# 
   185  0017                     	;# 
   186  0018                     	;# 
   187  0019                     	;# 
   188  001A                     	;# 
   189  001B                     	;# 
   190  001B                     	;# 
   191  001C                     	;# 
   192  001D                     	;# 
   193  001E                     	;# 
   194  001F                     	;# 
   195  0081                     	;# 
   196  0085                     	;# 
   197  0086                     	;# 
   198  0087                     	;# 
   199  0088                     	;# 
   200  0089                     	;# 
   201  008C                     	;# 
   202  008D                     	;# 
   203  008E                     	;# 
   204  008F                     	;# 
   205  0090                     	;# 
   206  0091                     	;# 
   207  0092                     	;# 
   208  0093                     	;# 
   209  0093                     	;# 
   210  0093                     	;# 
   211  0094                     	;# 
   212  0095                     	;# 
   213  0096                     	;# 
   214  0097                     	;# 
   215  0098                     	;# 
   216  0099                     	;# 
   217  009A                     	;# 
   218  009B                     	;# 
   219  009C                     	;# 
   220  009D                     	;# 
   221  009E                     	;# 
   222  009F                     	;# 
   223  0105                     	;# 
   224  0107                     	;# 
   225  0108                     	;# 
   226  0109                     	;# 
   227  010C                     	;# 
   228  010C                     	;# 
   229  010D                     	;# 
   230  010E                     	;# 
   231  010F                     	;# 
   232  0185                     	;# 
   233  0187                     	;# 
   234  0188                     	;# 
   235  0189                     	;# 
   236  018C                     	;# 
   237  018D                     	;# 
   238  0000                     	;# 
   239  0001                     	;# 
   240  0002                     	;# 
   241  0003                     	;# 
   242  0004                     	;# 
   243  0005                     	;# 
   244  0006                     	;# 
   245  0007                     	;# 
   246  0008                     	;# 
   247  0009                     	;# 
   248  000A                     	;# 
   249  000B                     	;# 
   250  000C                     	;# 
   251  000D                     	;# 
   252  000E                     	;# 
   253  000E                     	;# 
   254  000F                     	;# 
   255  0010                     	;# 
   256  0011                     	;# 
   257  0012                     	;# 
   258  0013                     	;# 
   259  0014                     	;# 
   260  0015                     	;# 
   261  0015                     	;# 
   262  0016                     	;# 
   263  0017                     	;# 
   264  0018                     	;# 
   265  0019                     	;# 
   266  001A                     	;# 
   267  001B                     	;# 
   268  001B                     	;# 
   269  001C                     	;# 
   270  001D                     	;# 
   271  001E                     	;# 
   272  001F                     	;# 
   273  0081                     	;# 
   274  0085                     	;# 
   275  0086                     	;# 
   276  0087                     	;# 
   277  0088                     	;# 
   278  0089                     	;# 
   279  008C                     	;# 
   280  008D                     	;# 
   281  008E                     	;# 
   282  008F                     	;# 
   283  0090                     	;# 
   284  0091                     	;# 
   285  0092                     	;# 
   286  0093                     	;# 
   287  0093                     	;# 
   288  0093                     	;# 
   289  0094                     	;# 
   290  0095                     	;# 
   291  0096                     	;# 
   292  0097                     	;# 
   293  0098                     	;# 
   294  0099                     	;# 
   295  009A                     	;# 
   296  009B                     	;# 
   297  009C                     	;# 
   298  009D                     	;# 
   299  009E                     	;# 
   300  009F                     	;# 
   301  0105                     	;# 
   302  0107                     	;# 
   303  0108                     	;# 
   304  0109                     	;# 
   305  010C                     	;# 
   306  010C                     	;# 
   307  010D                     	;# 
   308  010E                     	;# 
   309  010F                     	;# 
   310  0185                     	;# 
   311  0187                     	;# 
   312  0188                     	;# 
   313  0189                     	;# 
   314  018C                     	;# 
   315  018D                     	;# 
   316  0000                     	;# 
   317  0001                     	;# 
   318  0002                     	;# 
   319  0003                     	;# 
   320  0004                     	;# 
   321  0005                     	;# 
   322  0006                     	;# 
   323  0007                     	;# 
   324  0008                     	;# 
   325  0009                     	;# 
   326  000A                     	;# 
   327  000B                     	;# 
   328  000C                     	;# 
   329  000D                     	;# 
   330  000E                     	;# 
   331  000E                     	;# 
   332  000F                     	;# 
   333  0010                     	;# 
   334  0011                     	;# 
   335  0012                     	;# 
   336  0013                     	;# 
   337  0014                     	;# 
   338  0015                     	;# 
   339  0015                     	;# 
   340  0016                     	;# 
   341  0017                     	;# 
   342  0018                     	;# 
   343  0019                     	;# 
   344  001A                     	;# 
   345  001B                     	;# 
   346  001B                     	;# 
   347  001C                     	;# 
   348  001D                     	;# 
   349  001E                     	;# 
   350  001F                     	;# 
   351  0081                     	;# 
   352  0085                     	;# 
   353  0086                     	;# 
   354  0087                     	;# 
   355  0088                     	;# 
   356  0089                     	;# 
   357  008C                     	;# 
   358  008D                     	;# 
   359  008E                     	;# 
   360  008F                     	;# 
   361  0090                     	;# 
   362  0091                     	;# 
   363  0092                     	;# 
   364  0093                     	;# 
   365  0093                     	;# 
   366  0093                     	;# 
   367  0094                     	;# 
   368  0095                     	;# 
   369  0096                     	;# 
   370  0097                     	;# 
   371  0098                     	;# 
   372  0099                     	;# 
   373  009A                     	;# 
   374  009B                     	;# 
   375  009C                     	;# 
   376  009D                     	;# 
   377  009E                     	;# 
   378  009F                     	;# 
   379  0105                     	;# 
   380  0107                     	;# 
   381  0108                     	;# 
   382  0109                     	;# 
   383  010C                     	;# 
   384  010C                     	;# 
   385  010D                     	;# 
   386  010E                     	;# 
   387  010F                     	;# 
   388  0185                     	;# 
   389  0187                     	;# 
   390  0188                     	;# 
   391  0189                     	;# 
   392  018C                     	;# 
   393  018D                     	;# 
   394  0000                     	;# 
   395  0001                     	;# 
   396  0002                     	;# 
   397  0003                     	;# 
   398  0004                     	;# 
   399  0005                     	;# 
   400  0006                     	;# 
   401  0007                     	;# 
   402  0008                     	;# 
   403  0009                     	;# 
   404  000A                     	;# 
   405  000B                     	;# 
   406  000C                     	;# 
   407  000D                     	;# 
   408  000E                     	;# 
   409  000E                     	;# 
   410  000F                     	;# 
   411  0010                     	;# 
   412  0011                     	;# 
   413  0012                     	;# 
   414  0013                     	;# 
   415  0014                     	;# 
   416  0015                     	;# 
   417  0015                     	;# 
   418  0016                     	;# 
   419  0017                     	;# 
   420  0018                     	;# 
   421  0019                     	;# 
   422  001A                     	;# 
   423  001B                     	;# 
   424  001B                     	;# 
   425  001C                     	;# 
   426  001D                     	;# 
   427  001E                     	;# 
   428  001F                     	;# 
   429  0081                     	;# 
   430  0085                     	;# 
   431  0086                     	;# 
   432  0087                     	;# 
   433  0088                     	;# 
   434  0089                     	;# 
   435  008C                     	;# 
   436  008D                     	;# 
   437  008E                     	;# 
   438  008F                     	;# 
   439  0090                     	;# 
   440  0091                     	;# 
   441  0092                     	;# 
   442  0093                     	;# 
   443  0093                     	;# 
   444  0093                     	;# 
   445  0094                     	;# 
   446  0095                     	;# 
   447  0096                     	;# 
   448  0097                     	;# 
   449  0098                     	;# 
   450  0099                     	;# 
   451  009A                     	;# 
   452  009B                     	;# 
   453  009C                     	;# 
   454  009D                     	;# 
   455  009E                     	;# 
   456  009F                     	;# 
   457  0105                     	;# 
   458  0107                     	;# 
   459  0108                     	;# 
   460  0109                     	;# 
   461  010C                     	;# 
   462  010C                     	;# 
   463  010D                     	;# 
   464  010E                     	;# 
   465  010F                     	;# 
   466  0185                     	;# 
   467  0187                     	;# 
   468  0188                     	;# 
   469  0189                     	;# 
   470  018C                     	;# 
   471  018D                     	;# 
   472                           
   473                           	psect	idataBANK1
   474  1284                     __pidataBANK1:
   475                           
   476                           ;initializer for _tabla
   477  1284  343F               	retlw	63
   478  1285  3406               	retlw	6
   479  1286  345B               	retlw	91
   480  1287  344F               	retlw	79
   481  1288  3466               	retlw	102
   482  1289  346D               	retlw	109
   483  128A  347D               	retlw	125
   484  128B  3407               	retlw	7
   485  128C  347F               	retlw	127
   486  128D  3467               	retlw	103
   487  128E  3477               	retlw	119
   488  128F  347C               	retlw	124
   489  1290  3439               	retlw	57
   490  1291  345E               	retlw	94
   491  1292  3479               	retlw	121
   492  1293  3471               	retlw	113
   493                           
   494                           	psect	strings
   495  1000                     __pstrings:
   496  1000                     stringtab:
   497  1000                     __stringtab:
   498                           
   499                           ;	String table - string pointers are 1 byte each
   500  1000  1BFF               	btfsc	btemp+1,7
   501  1001  280A               	ljmp	stringcode
   502  1002  1383               	bcf	3,7
   503  1003  187F               	btfsc	btemp+1,0
   504  1004  1783               	bsf	3,7
   505  1005  0800               	movf	0,w
   506  1006  0A84               	incf	4,f
   507  1007  1903               	skipnz
   508  1008  0AFF               	incf	btemp+1,f
   509  1009  0008               	return
   510  100A                     stringcode:
   511  100A                     stringdir:
   512  100A  3010               	movlw	high stringdir
   513  100B  008A               	movwf	10
   514  100C  0804               	movf	4,w
   515  100D  0A84               	incf	4,f
   516  100E  0782               	addwf	2,f
   517  100F                     __stringbase:
   518  100F  3400               	retlw	0
   519  1010                     __end_of__stringtab:
   520  1010                     _dpowers:
   521  1010  3401               	retlw	1
   522  1011  3400               	retlw	0
   523  1012  340A               	retlw	10
   524  1013  3400               	retlw	0
   525  1014  3464               	retlw	100
   526  1015  3400               	retlw	0
   527  1016  34E8               	retlw	232
   528  1017  3403               	retlw	3
   529  1018  3410               	retlw	16
   530  1019  3427               	retlw	39
   531  101A                     __end_of_dpowers:
   532  0013                     _SSPBUF	set	19
   533  0014                     _SSPCON	set	20
   534  001F                     _ADCON0bits	set	31
   535  000C                     _PIR1bits	set	12
   536  000B                     _INTCONbits	set	11
   537  0018                     _RCSTAbits	set	24
   538  0008                     _PORTD	set	8
   539  0019                     _TXREG	set	25
   540  001A                     _RCREG	set	26
   541  0006                     _PORTB	set	6
   542  0007                     _PORTCbits	set	7
   543  0064                     _TXIF	set	100
   544  0065                     _RCIF	set	101
   545  0094                     _SSPSTATbits	set	148
   546  0094                     _SSPSTAT	set	148
   547  009F                     _ADCON1bits	set	159
   548  008C                     _PIE1bits	set	140
   549  009A                     _SPBRGH	set	154
   550  0099                     _SPBRG	set	153
   551  0098                     _TXSTAbits	set	152
   552  0088                     _TRISD	set	136
   553  0086                     _TRISB	set	134
   554  0081                     _OPTION_REGbits	set	129
   555  008F                     _OSCCONbits	set	143
   556  043B                     _TRISC3	set	1083
   557  043D                     _TRISC5	set	1085
   558  0189                     _ANSELHbits	set	393
   559  0188                     _ANSELbits	set	392
   560  0187                     _BAUDCTLbits	set	391
   561  0189                     _ANSELH	set	393
   562  0188                     _ANSEL	set	392
   563  101A                     STR_5:
   564  101A  3449               	retlw	73	;'I'
   565  101B  346E               	retlw	110	;'n'
   566  101C  3467               	retlw	103	;'g'
   567  101D  3472               	retlw	114	;'r'
   568  101E  3465               	retlw	101	;'e'
   569  101F  3473               	retlw	115	;'s'
   570  1020  3461               	retlw	97	;'a'
   571  1021  3472               	retlw	114	;'r'
   572  1022  3420               	retlw	32	;' '
   573  1023  3443               	retlw	67	;'C'
   574  1024  3465               	retlw	101	;'e'
   575  1025  346E               	retlw	110	;'n'
   576  1026  3474               	retlw	116	;'t'
   577  1027  3465               	retlw	101	;'e'
   578  1028  346E               	retlw	110	;'n'
   579  1029  3461               	retlw	97	;'a'
   580  102A  343A               	retlw	58	;':'
   581  102B  3420               	retlw	32	;' '
   582  102C  3452               	retlw	82	;'R'
   583  102D  3461               	retlw	97	;'a'
   584  102E  346E               	retlw	110	;'n'
   585  102F  3467               	retlw	103	;'g'
   586  1030  346F               	retlw	111	;'o'
   587  1031  3428               	retlw	40	;'('
   588  1032  3430               	retlw	48	;'0'
   589  1033  342D               	retlw	45	;'-'
   590  1034  3432               	retlw	50	;'2'
   591  1035  3429               	retlw	41	;')'
   592  1036  340D               	retlw	13
   593  1037  3400               	retlw	0
   594  1038                     STR_8:
   595  1038  3445               	retlw	69	;'E'
   596  1039  346C               	retlw	108	;'l'
   597  103A  3420               	retlw	32	;' '
   598  103B  346E               	retlw	110	;'n'
   599  103C  3475               	retlw	117	;'u'
   600  103D  346D               	retlw	109	;'m'
   601  103E  3465               	retlw	101	;'e'
   602  103F  3472               	retlw	114	;'r'
   603  1040  346F               	retlw	111	;'o'
   604  1041  3420               	retlw	32	;' '
   605  1042  3465               	retlw	101	;'e'
   606  1043  346C               	retlw	108	;'l'
   607  1044  3465               	retlw	101	;'e'
   608  1045  3467               	retlw	103	;'g'
   609  1046  3469               	retlw	105	;'i'
   610  1047  3464               	retlw	100	;'d'
   611  1048  346F               	retlw	111	;'o'
   612  1049  3420               	retlw	32	;' '
   613  104A  3465               	retlw	101	;'e'
   614  104B  3473               	retlw	115	;'s'
   615  104C  343A               	retlw	58	;':'
   616  104D  3420               	retlw	32	;' '
   617  104E  3425               	retlw	37	;'%'
   618  104F  3464               	retlw	100	;'d'
   619  1050  3400               	retlw	0
   620  1051                     STR_7:
   621  1051  3449               	retlw	73	;'I'
   622  1052  346E               	retlw	110	;'n'
   623  1053  3467               	retlw	103	;'g'
   624  1054  3472               	retlw	114	;'r'
   625  1055  3465               	retlw	101	;'e'
   626  1056  3473               	retlw	115	;'s'
   627  1057  3461               	retlw	97	;'a'
   628  1058  3472               	retlw	114	;'r'
   629  1059  3420               	retlw	32	;' '
   630  105A  3455               	retlw	85	;'U'
   631  105B  346E               	retlw	110	;'n'
   632  105C  3469               	retlw	105	;'i'
   633  105D  3464               	retlw	100	;'d'
   634  105E  3461               	retlw	97	;'a'
   635  105F  3464               	retlw	100	;'d'
   636  1060  3465               	retlw	101	;'e'
   637  1061  3473               	retlw	115	;'s'
   638  1062  343A               	retlw	58	;':'
   639  1063  3420               	retlw	32	;' '
   640  1064  340D               	retlw	13
   641  1065  3400               	retlw	0
   642  1066                     STR_6:
   643  1066  3449               	retlw	73	;'I'
   644  1067  346E               	retlw	110	;'n'
   645  1068  3467               	retlw	103	;'g'
   646  1069  3472               	retlw	114	;'r'
   647  106A  3465               	retlw	101	;'e'
   648  106B  3473               	retlw	115	;'s'
   649  106C  3461               	retlw	97	;'a'
   650  106D  3472               	retlw	114	;'r'
   651  106E  3420               	retlw	32	;' '
   652  106F  3444               	retlw	68	;'D'
   653  1070  3465               	retlw	101	;'e'
   654  1071  3463               	retlw	99	;'c'
   655  1072  3465               	retlw	101	;'e'
   656  1073  346E               	retlw	110	;'n'
   657  1074  3461               	retlw	97	;'a'
   658  1075  3473               	retlw	115	;'s'
   659  1076  343A               	retlw	58	;':'
   660  1077  3420               	retlw	32	;' '
   661  1078  340D               	retlw	13
   662  1079  3400               	retlw	0
   663  107A                     STR_2:
   664  107A  340D               	retlw	13
   665  107B  342D               	retlw	45	;'-'
   666  107C  342D               	retlw	45	;'-'
   667  107D  342D               	retlw	45	;'-'
   668  107E  342D               	retlw	45	;'-'
   669  107F  342D               	retlw	45	;'-'
   670  1080  342D               	retlw	45	;'-'
   671  1081  342D               	retlw	45	;'-'
   672  1082  342D               	retlw	45	;'-'
   673  1083  342D               	retlw	45	;'-'
   674  1084  342D               	retlw	45	;'-'
   675  1085  342D               	retlw	45	;'-'
   676  1086  342D               	retlw	45	;'-'
   677  1087  342D               	retlw	45	;'-'
   678  1088  342D               	retlw	45	;'-'
   679  1089  342D               	retlw	45	;'-'
   680  108A  340D               	retlw	13
   681  108B  3400               	retlw	0
   682  108C                     STR_1:
   683  108C  340D               	retlw	13
   684  108D  3420               	retlw	32	;' '
   685  108E  3476               	retlw	118	;'v'
   686  108F  346F               	retlw	111	;'o'
   687  1090  346C               	retlw	108	;'l'
   688  1091  3474               	retlw	116	;'t'
   689  1092  3461               	retlw	97	;'a'
   690  1093  346A               	retlw	106	;'j'
   691  1094  3465               	retlw	101	;'e'
   692  1095  3420               	retlw	32	;' '
   693  1096  3431               	retlw	49	;'1'
   694  1097  343A               	retlw	58	;':'
   695  1098  3420               	retlw	32	;' '
   696  1099  340D               	retlw	13
   697  109A  3400               	retlw	0
   698  109B                     STR_3:
   699  109B  340D               	retlw	13
   700  109C  3420               	retlw	32	;' '
   701  109D  3476               	retlw	118	;'v'
   702  109E  346F               	retlw	111	;'o'
   703  109F  346C               	retlw	108	;'l'
   704  10A0  3474               	retlw	116	;'t'
   705  10A1  3461               	retlw	97	;'a'
   706  10A2  346A               	retlw	106	;'j'
   707  10A3  3465               	retlw	101	;'e'
   708  10A4  3420               	retlw	32	;' '
   709  10A5  3432               	retlw	50	;'2'
   710  10A6  343A               	retlw	58	;':'
   711  10A7  3420               	retlw	32	;' '
   712  10A8  340D               	retlw	13
   713  10A9  3400               	retlw	0
   714  107A                     
   715                           	psect	cinit
   716  07E4                     start_initialization:	
   717                           ; #config settings
   718                           
   719  07E4                     __initialization:
   720                           
   721                           ; Initialize objects allocated to BANK1
   722  07E4  1383               	bcf	3,7	;select IRP bank0
   723  07E5  30E5               	movlw	low (__pdataBANK1+16)
   724  07E6  00FD               	movwf	btemp+-1
   725  07E7  3012               	movlw	high __pidataBANK1
   726  07E8  00FE               	movwf	btemp
   727  07E9  3084               	movlw	low __pidataBANK1
   728  07EA  00FF               	movwf	btemp+1
   729  07EB  30D5               	movlw	low __pdataBANK1
   730  07EC  0084               	movwf	4
   731  07ED  160A  118A  22AA  120A  118A  	fcall	init_ram0
   732                           
   733                           ; Clear objects allocated to BANK1
   734  07F2  30A0               	movlw	low __pbssBANK1
   735  07F3  0084               	movwf	4
   736  07F4  30C2               	movlw	low (__pbssBANK1+34)
   737  07F5  160A  118A  226A  120A  118A  	fcall	clear_ram0
   738                           
   739                           ; Clear objects allocated to BANK0
   740  07FA  01EE               	clrf	__pbssBANK0& (0+127)
   741  07FB  01EF               	clrf	(__pbssBANK0+1)& (0+127)
   742  07FC                     end_of_initialization:	
   743                           ;End of C runtime variable initialization code
   744                           
   745  07FC                     __end_of__initialization:
   746  07FC  0183               	clrf	3
   747  07FD  120A  158A  29F9   	ljmp	_main	;jump to C main() function
   748                           
   749                           	psect	bssBANK0
   750  006E                     __pbssBANK0:
   751  006E                     _centena:
   752  006E                     	ds	1
   753  006F                     _pot1:
   754  006F                     	ds	1
   755                           
   756                           	psect	bssBANK1
   757  00A0                     __pbssBANK1:
   758  00A0                     _conv1:
   759  00A0                     	ds	4
   760  00A4                     _conv0:
   761  00A4                     	ds	4
   762  00A8                     _full:
   763  00A8                     	ds	2
   764  00AA                     _concatenado:
   765  00AA                     	ds	1
   766  00AB                     _decena:
   767  00AB                     	ds	1
   768  00AC                     _unidad:
   769  00AC                     	ds	1
   770  00AD                     _pot2:
   771  00AD                     	ds	1
   772  00AE                     _adc1:
   773  00AE                     	ds	10
   774  00B8                     _adc0:
   775  00B8                     	ds	10
   776                           
   777                           	psect	dataBANK1
   778  00D5                     __pdataBANK1:
   779  00D5                     _tabla:
   780  00D5                     	ds	16
   781                           
   782                           	psect	inittext
   783  12A6                     init_fetch0:	
   784                           ;	Called with low address in FSR and high address in W
   785                           
   786  12A6  087E               	movf	btemp,w
   787  12A7  008A               	movwf	10
   788  12A8  087F               	movf	btemp+1,w
   789  12A9  0082               	movwf	2
   790  12AA                     init_ram0:	
   791                           ;Called with:
   792                           ;	high address of idata address in btemp 
   793                           ;	low address of idata address in btemp+1 
   794                           ;	low address of data in FSR
   795                           ;	high address + 1 of data in btemp-1
   796                           
   797  12AA  160A  118A  22A6  160A  118A  	fcall	init_fetch0
   798  12AF  0080               	movwf	0
   799  12B0  0A84               	incf	4,f
   800  12B1  0804               	movf	4,w
   801  12B2  067D               	xorwf	btemp+-1,w
   802  12B3  1903               	btfsc	3,2
   803  12B4  3400               	retlw	0
   804  12B5  0AFF               	incf	btemp+1,f
   805  12B6  1903               	btfsc	3,2
   806  12B7  0AFE               	incf	btemp,f
   807  12B8  2AAA               	goto	init_ram0
   808                           
   809                           	psect	clrtext
   810  126A                     clear_ram0:	
   811                           ;	Called with FSR containing the base address, and
   812                           ;	W with the last address+1
   813                           
   814  126A  0064               	clrwdt	;clear the watchdog before getting into this loop
   815  126B                     clrloop0:
   816  126B  0180               	clrf	0	;clear RAM location pointed to by FSR
   817  126C  0A84               	incf	4,f	;increment pointer
   818  126D  0604               	xorwf	4,w	;XOR with final address
   819  126E  1903               	btfsc	3,2	;have we reached the end yet?
   820  126F  3400               	retlw	0	;all done for this memory range, return
   821  1270  0604               	xorwf	4,w	;XOR again to restore value
   822  1271  2A6B               	goto	clrloop0	;do the next byte
   823                           
   824                           	psect	cstackBANK1
   825  00C2                     __pcstackBANK1:
   826  00C2                     ADC_convert@temp:
   827                           
   828                           ; 2 bytes @ 0x0
   829  00C2                     	ds	2
   830  00C4                     ADC_convert@j:
   831                           
   832                           ; 2 bytes @ 0x2
   833  00C4                     	ds	2
   834  00C6                     ADC_convert@data:
   835                           
   836                           ; 1 bytes @ 0x4
   837  00C6                     	ds	1
   838  00C7                     ADC_convert@x:
   839                           
   840                           ; 4 bytes @ 0x5
   841  00C7                     	ds	4
   842  00CB                     ADC_convert@i:
   843                           
   844                           ; 2 bytes @ 0x9
   845  00CB                     	ds	2
   846  00CD                     ADC_convert@digits:
   847                           
   848                           ; 2 bytes @ 0xB
   849  00CD                     	ds	2
   850  00CF                     ADC_convert@mu:
   851                           
   852                           ; 2 bytes @ 0xD
   853  00CF                     	ds	2
   854  00D1                     ??_main:
   855                           
   856                           ; 1 bytes @ 0xF
   857  00D1                     	ds	4
   858                           
   859                           	psect	cstackCOMMON
   860  0070                     __pcstackCOMMON:
   861  0070                     ?_isdigit:
   862  0070                     ?___flge:	
   863                           ; 1 bit 
   864                           
   865  0070                     ?_setup:	
   866                           ; 1 bit 
   867                           
   868  0070                     ?_mensaje:	
   869                           ; 1 bytes @ 0x0
   870                           
   871  0070                     ?_spiWrite:	
   872                           ; 1 bytes @ 0x0
   873                           
   874  0070                     ??_spiWrite:	
   875                           ; 1 bytes @ 0x0
   876                           
   877  0070                     ?_spiRead:	
   878                           ; 1 bytes @ 0x0
   879                           
   880  0070                     ??_spiRead:	
   881                           ; 1 bytes @ 0x0
   882                           
   883  0070                     ?_strcat:	
   884                           ; 1 bytes @ 0x0
   885                           
   886  0070                     ?_spiInit:	
   887                           ; 1 bytes @ 0x0
   888                           
   889  0070                     ??_isdigit:	
   890                           ; 1 bytes @ 0x0
   891                           
   892  0070                     ?_conf_osc:	
   893                           ; 1 bytes @ 0x0
   894                           
   895  0070                     ??_conf_osc:	
   896                           ; 1 bytes @ 0x0
   897                           
   898  0070                     ?_main:	
   899                           ; 1 bytes @ 0x0
   900                           
   901  0070                     ?_putch:	
   902                           ; 1 bytes @ 0x0
   903                           
   904  0070                     ?_spiReceiveWait:	
   905                           ; 1 bytes @ 0x0
   906                           
   907  0070                     ??_spiReceiveWait:	
   908                           ; 1 bytes @ 0x0
   909                           
   910  0070                     ?__Umul8_16:	
   911                           ; 1 bytes @ 0x0
   912                           
   913  0070                     ?___awdiv:	
   914                           ; 2 bytes @ 0x0
   915                           
   916  0070                     ?___lwdiv:	
   917                           ; 2 bytes @ 0x0
   918                           
   919  0070                     ?___fltol:	
   920                           ; 2 bytes @ 0x0
   921                           
   922  0070                     ?___fladd:	
   923                           ; 4 bytes @ 0x0
   924                           
   925  0070                     putch@dato:	
   926                           ; 4 bytes @ 0x0
   927                           
   928  0070                     spiInit@sDataSample:	
   929                           ; 1 bytes @ 0x0
   930                           
   931  0070                     spiWrite@dat:	
   932                           ; 1 bytes @ 0x0
   933                           
   934  0070                     __Umul8_16@multiplicand:	
   935                           ; 1 bytes @ 0x0
   936                           
   937  0070                     _isdigit$1216:	
   938                           ; 1 bytes @ 0x0
   939                           
   940  0070                     strcat@from:	
   941                           ; 1 bytes @ 0x0
   942                           
   943  0070                     ___awdiv@divisor:	
   944                           ; 1 bytes @ 0x0
   945                           
   946  0070                     ___lwdiv@divisor:	
   947                           ; 2 bytes @ 0x0
   948                           
   949  0070                     ___flge@ff1:	
   950                           ; 2 bytes @ 0x0
   951                           
   952  0070                     ___fltol@f1:	
   953                           ; 4 bytes @ 0x0
   954                           
   955  0070                     ___fladd@b:	
   956                           ; 4 bytes @ 0x0
   957                           
   958                           
   959                           ; 4 bytes @ 0x0
   960  0070                     	ds	1
   961  0071                     ??_strcat:
   962  0071                     ??_putch:	
   963                           ; 1 bytes @ 0x1
   964                           
   965  0071                     spiInit@sClockIdle:	
   966                           ; 1 bytes @ 0x1
   967                           
   968  0071                     isdigit@c:	
   969                           ; 1 bytes @ 0x1
   970                           
   971                           
   972                           ; 1 bytes @ 0x1
   973  0071                     	ds	1
   974  0072                     ??__Umul8_16:
   975  0072                     conf_osc@frec:	
   976                           ; 1 bytes @ 0x2
   977                           
   978  0072                     spiInit@sTransmitEdge:	
   979                           ; 1 bytes @ 0x2
   980                           
   981  0072                     strcat@to:	
   982                           ; 1 bytes @ 0x2
   983                           
   984  0072                     ___awdiv@dividend:	
   985                           ; 1 bytes @ 0x2
   986                           
   987  0072                     ___lwdiv@dividend:	
   988                           ; 2 bytes @ 0x2
   989                           
   990                           
   991                           ; 2 bytes @ 0x2
   992  0072                     	ds	1
   993  0073                     ??_spiInit:
   994  0073                     spiInit@sType:	
   995                           ; 1 bytes @ 0x3
   996                           
   997  0073                     strcat@cp:	
   998                           ; 1 bytes @ 0x3
   999                           
  1000                           
  1001                           ; 1 bytes @ 0x3
  1002  0073                     	ds	1
  1003  0074                     ??_setup:
  1004  0074                     ??___awdiv:	
  1005                           ; 1 bytes @ 0x4
  1006                           
  1007  0074                     ??___fltol:	
  1008                           ; 1 bytes @ 0x4
  1009                           
  1010  0074                     ??___lwdiv:	
  1011                           ; 1 bytes @ 0x4
  1012                           
  1013  0074                     __Umul8_16@product:	
  1014                           ; 1 bytes @ 0x4
  1015                           
  1016  0074                     ___flge@ff2:	
  1017                           ; 2 bytes @ 0x4
  1018                           
  1019  0074                     ___fladd@a:	
  1020                           ; 4 bytes @ 0x4
  1021                           
  1022                           
  1023                           ; 4 bytes @ 0x4
  1024  0074                     	ds	1
  1025  0075                     ___awdiv@counter:
  1026  0075                     ___lwdiv@quotient:	
  1027                           ; 1 bytes @ 0x5
  1028                           
  1029                           
  1030                           ; 2 bytes @ 0x5
  1031  0075                     	ds	1
  1032  0076                     ___awdiv@sign:
  1033  0076                     __Umul8_16@word_mpld:	
  1034                           ; 1 bytes @ 0x6
  1035                           
  1036                           
  1037                           ; 2 bytes @ 0x6
  1038  0076                     	ds	1
  1039  0077                     ___lwdiv@counter:
  1040  0077                     ___awdiv@quotient:	
  1041                           ; 1 bytes @ 0x7
  1042                           
  1043                           
  1044                           ; 2 bytes @ 0x7
  1045  0077                     	ds	1
  1046  0078                     ??___flge:
  1047  0078                     ?___lwmod:	
  1048                           ; 1 bytes @ 0x8
  1049                           
  1050  0078                     ___fladd@signs:	
  1051                           ; 2 bytes @ 0x8
  1052                           
  1053  0078                     __Umul8_16@multiplier:	
  1054                           ; 1 bytes @ 0x8
  1055                           
  1056  0078                     ___lwmod@divisor:	
  1057                           ; 1 bytes @ 0x8
  1058                           
  1059                           
  1060                           ; 2 bytes @ 0x8
  1061  0078                     	ds	1
  1062  0079                     ___fltol@sign1:
  1063  0079                     ___fladd@aexp:	
  1064                           ; 1 bytes @ 0x9
  1065                           
  1066                           
  1067                           ; 1 bytes @ 0x9
  1068  0079                     	ds	1
  1069  007A                     ___fltol@exp1:
  1070  007A                     ___fladd@bexp:	
  1071                           ; 1 bytes @ 0xA
  1072                           
  1073  007A                     ___lwmod@dividend:	
  1074                           ; 1 bytes @ 0xA
  1075                           
  1076                           
  1077                           ; 2 bytes @ 0xA
  1078  007A                     	ds	1
  1079  007B                     ??___wmul:
  1080  007B                     ___fladd@grs:	
  1081                           ; 1 bytes @ 0xB
  1082                           
  1083  007B                     ___wmul@product:	
  1084                           ; 1 bytes @ 0xB
  1085                           
  1086                           
  1087                           ; 2 bytes @ 0xB
  1088  007B                     	ds	1
  1089  007C                     ??___lwmod:
  1090                           
  1091                           ; 1 bytes @ 0xC
  1092  007C                     	ds	1
  1093  007D                     ??___flsub:
  1094  007D                     ___lwmod@counter:	
  1095                           ; 1 bytes @ 0xD
  1096                           
  1097                           
  1098                           ; 1 bytes @ 0xD
  1099  007D                     	ds	1
  1100                           
  1101                           	psect	cstackBANK0
  1102  0020                     __pcstackBANK0:
  1103  0020                     ??___fladd:
  1104  0020                     ?__doprnt:	
  1105                           ; 1 bytes @ 0x0
  1106                           
  1107  0020                     ?___wmul:	
  1108                           ; 2 bytes @ 0x0
  1109                           
  1110  0020                     ___wmul@multiplier:	
  1111                           ; 2 bytes @ 0x0
  1112                           
  1113  0020                     __doprnt@f:	
  1114                           ; 2 bytes @ 0x0
  1115                           
  1116                           
  1117                           ; 2 bytes @ 0x0
  1118  0020                     	ds	2
  1119  0022                     __doprnt@ap:
  1120  0022                     ___wmul@multiplicand:	
  1121                           ; 1 bytes @ 0x2
  1122                           
  1123                           
  1124                           ; 2 bytes @ 0x2
  1125  0022                     	ds	1
  1126  0023                     ??__doprnt:
  1127                           
  1128                           ; 1 bytes @ 0x3
  1129  0023                     	ds	1
  1130  0024                     ?_atoi:
  1131  0024                     ?___xxtofl:	
  1132                           ; 2 bytes @ 0x4
  1133                           
  1134  0024                     ___xxtofl@val:	
  1135                           ; 4 bytes @ 0x4
  1136                           
  1137                           
  1138                           ; 4 bytes @ 0x4
  1139  0024                     	ds	2
  1140  0026                     ??_atoi:
  1141                           
  1142                           ; 1 bytes @ 0x6
  1143  0026                     	ds	1
  1144  0027                     __doprnt@flag:
  1145                           
  1146                           ; 1 bytes @ 0x7
  1147  0027                     	ds	1
  1148  0028                     ??___xxtofl:
  1149  0028                     atoi@sign:	
  1150                           ; 1 bytes @ 0x8
  1151                           
  1152  0028                     __doprnt@prec:	
  1153                           ; 1 bytes @ 0x8
  1154                           
  1155                           
  1156                           ; 1 bytes @ 0x8
  1157  0028                     	ds	1
  1158  0029                     atoi@a:
  1159  0029                     __doprnt@val:	
  1160                           ; 2 bytes @ 0x9
  1161                           
  1162                           
  1163                           ; 2 bytes @ 0x9
  1164  0029                     	ds	2
  1165  002B                     atoi@s:
  1166  002B                     __doprnt@c:	
  1167                           ; 1 bytes @ 0xB
  1168                           
  1169                           
  1170                           ; 1 bytes @ 0xB
  1171  002B                     	ds	1
  1172  002C                     ___xxtofl@sign:
  1173  002C                     __doprnt@pb:	
  1174                           ; 1 bytes @ 0xC
  1175                           
  1176                           
  1177                           ; 1 bytes @ 0xC
  1178  002C                     	ds	1
  1179  002D                     ?_printf:
  1180  002D                     ?_sprintf:	
  1181                           ; 2 bytes @ 0xD
  1182                           
  1183  002D                     ___xxtofl@exp:	
  1184                           ; 2 bytes @ 0xD
  1185                           
  1186  002D                     sprintf@f:	
  1187                           ; 1 bytes @ 0xD
  1188                           
  1189  002D                     printf@f:	
  1190                           ; 1 bytes @ 0xD
  1191                           
  1192                           
  1193                           ; 2 bytes @ 0xD
  1194  002D                     	ds	1
  1195  002E                     ___xxtofl@arg:
  1196                           
  1197                           ; 4 bytes @ 0xE
  1198  002E                     	ds	2
  1199  0030                     ??_sprintf:
  1200                           
  1201                           ; 1 bytes @ 0x10
  1202  0030                     	ds	1
  1203  0031                     ??_printf:
  1204  0031                     sprintf@ap:	
  1205                           ; 1 bytes @ 0x11
  1206                           
  1207                           
  1208                           ; 1 bytes @ 0x11
  1209  0031                     	ds	1
  1210  0032                     ?___flsub:
  1211  0032                     ?___fldiv:	
  1212                           ; 4 bytes @ 0x12
  1213                           
  1214  0032                     printf@ap:	
  1215                           ; 4 bytes @ 0x12
  1216                           
  1217  0032                     sprintf@wh:	
  1218                           ; 1 bytes @ 0x12
  1219                           
  1220  0032                     ___flsub@a:	
  1221                           ; 1 bytes @ 0x12
  1222                           
  1223  0032                     ___fldiv@a:	
  1224                           ; 4 bytes @ 0x12
  1225                           
  1226                           
  1227                           ; 4 bytes @ 0x12
  1228  0032                     	ds	1
  1229  0033                     printf@pb:
  1230  0033                     sprintf@pb:	
  1231                           ; 2 bytes @ 0x13
  1232                           
  1233                           
  1234                           ; 2 bytes @ 0x13
  1235  0033                     	ds	2
  1236  0035                     ?_concatenar:
  1237  0035                     concatenar@a:	
  1238                           ; 2 bytes @ 0x15
  1239                           
  1240                           
  1241                           ; 2 bytes @ 0x15
  1242  0035                     	ds	1
  1243  0036                     ___flsub@b:
  1244  0036                     ___fldiv@b:	
  1245                           ; 4 bytes @ 0x16
  1246                           
  1247                           
  1248                           ; 4 bytes @ 0x16
  1249  0036                     	ds	1
  1250  0037                     concatenar@b:
  1251                           
  1252                           ; 2 bytes @ 0x17
  1253  0037                     	ds	2
  1254  0039                     ??_concatenar:
  1255                           
  1256                           ; 1 bytes @ 0x19
  1257  0039                     	ds	1
  1258  003A                     ??___fldiv:
  1259  003A                     concatenar@s2:	
  1260                           ; 1 bytes @ 0x1A
  1261                           
  1262                           
  1263                           ; 20 bytes @ 0x1A
  1264  003A                     	ds	5
  1265  003F                     ___fldiv@rem:
  1266                           
  1267                           ; 4 bytes @ 0x1F
  1268  003F                     	ds	4
  1269  0043                     ___fldiv@sign:
  1270                           
  1271                           ; 1 bytes @ 0x23
  1272  0043                     	ds	1
  1273  0044                     ___fldiv@new_exp:
  1274                           
  1275                           ; 2 bytes @ 0x24
  1276  0044                     	ds	2
  1277  0046                     ___fldiv@grs:
  1278                           
  1279                           ; 4 bytes @ 0x26
  1280  0046                     	ds	4
  1281  004A                     ___fldiv@bexp:
  1282                           
  1283                           ; 1 bytes @ 0x2A
  1284  004A                     	ds	1
  1285  004B                     ___fldiv@aexp:
  1286                           
  1287                           ; 1 bytes @ 0x2B
  1288  004B                     	ds	1
  1289  004C                     ?___flmul:
  1290  004C                     ___flmul@b:	
  1291                           ; 4 bytes @ 0x2C
  1292                           
  1293                           
  1294                           ; 4 bytes @ 0x2C
  1295  004C                     	ds	2
  1296  004E                     concatenar@s1:
  1297                           
  1298                           ; 20 bytes @ 0x2E
  1299  004E                     	ds	2
  1300  0050                     ___flmul@a:
  1301                           
  1302                           ; 4 bytes @ 0x30
  1303  0050                     	ds	4
  1304  0054                     ??___flmul:
  1305                           
  1306                           ; 1 bytes @ 0x34
  1307  0054                     	ds	5
  1308  0059                     ___flmul@sign:
  1309                           
  1310                           ; 1 bytes @ 0x39
  1311  0059                     	ds	1
  1312  005A                     ___flmul@grs:
  1313                           
  1314                           ; 4 bytes @ 0x3A
  1315  005A                     	ds	4
  1316  005E                     ___flmul@aexp:
  1317                           
  1318                           ; 1 bytes @ 0x3E
  1319  005E                     	ds	1
  1320  005F                     ___flmul@bexp:
  1321                           
  1322                           ; 1 bytes @ 0x3F
  1323  005F                     	ds	1
  1324  0060                     ___flmul@prod:
  1325                           
  1326                           ; 4 bytes @ 0x40
  1327  0060                     	ds	2
  1328  0062                     concatenar@c:
  1329                           
  1330                           ; 2 bytes @ 0x42
  1331  0062                     	ds	2
  1332  0064                     ??_mensaje:
  1333  0064                     ___flmul@temp:	
  1334                           ; 1 bytes @ 0x44
  1335                           
  1336                           
  1337                           ; 2 bytes @ 0x44
  1338  0064                     	ds	2
  1339  0066                     ?_ADC_convert:
  1340  0066                     ADC_convert@a:	
  1341                           ; 1 bytes @ 0x46
  1342                           
  1343                           
  1344                           ; 4 bytes @ 0x46
  1345  0066                     	ds	4
  1346  006A                     ADC_convert@place:
  1347                           
  1348                           ; 2 bytes @ 0x4A
  1349  006A                     	ds	2
  1350  006C                     ??_ADC_convert:
  1351                           
  1352                           ; 1 bytes @ 0x4C
  1353  006C                     	ds	2
  1354                           
  1355                           	psect	maintext
  1356  09F9                     __pmaintext:	
  1357 ;;
  1358 ;;Main: autosize = 0, tempsize = 4, incstack = 0, save=0
  1359 ;;
  1360 ;; *************** function _main *****************
  1361 ;; Defined at:
  1362 ;;		line 56 in file "Lab03_master.c"
  1363 ;; Parameters:    Size  Location     Type
  1364 ;;		None
  1365 ;; Auto vars:     Size  Location     Type
  1366 ;;		None
  1367 ;; Return value:  Size  Location     Type
  1368 ;;                  1    wreg      void 
  1369 ;; Registers used:
  1370 ;;		wreg, fsr0l, fsr0h, status,2, status,0, btemp+1, pclath, cstack
  1371 ;; Tracked objects:
  1372 ;;		On entry : B00/0
  1373 ;;		On exit  : 0/0
  1374 ;;		Unchanged: 0/0
  1375 ;; Data sizes:     COMMON   BANK0   BANK1   BANK3   BANK2
  1376 ;;      Params:         0       0       0       0       0
  1377 ;;      Locals:         0       0       0       0       0
  1378 ;;      Temps:          0       0       4       0       0
  1379 ;;      Totals:         0       0       4       0       0
  1380 ;;Total ram usage:        4 bytes
  1381 ;; Hardware stack levels required when called:    5
  1382 ;; This function calls:
  1383 ;;		_ADC_convert
  1384 ;;		___fldiv
  1385 ;;		___flmul
  1386 ;;		___xxtofl
  1387 ;;		_mensaje
  1388 ;;		_setup
  1389 ;;		_spiRead
  1390 ;;		_spiWrite
  1391 ;; This function is called by:
  1392 ;;		Startup code after reset
  1393 ;; This function uses a non-reentrant model
  1394 ;;
  1395                           
  1396                           
  1397                           ;psect for function _main
  1398  09F9                     _main:
  1399  09F9                     l3448:	
  1400                           ;incstack = 0
  1401                           ; Regs used in _main: [wreg-fsr0h+status,2+status,0+btemp+1+pclath+cstack]
  1402                           
  1403                           
  1404                           ;Lab03_master.c: 57:     _delay((unsigned long)((300)*(8000000/4000.0)));
  1405  09F9  160A  118A  2391  120A  158A  	fcall	_setup
  1406  09FE                     l3450:
  1407                           
  1408                           ;Lab03_master.c: 60: 
  1409  09FE  160A  118A  269F  120A  158A  	fcall	_mensaje
  1410  0A03                     l3452:
  1411                           
  1412                           ;Lab03_master.c: 61:     _delay((unsigned long)((300)*(8000000/4000.0)));
  1413  0A03  1283               	bcf	3,5	;RP0=0, select bank0
  1414  0A04  1303               	bcf	3,6	;RP1=0, select bank0
  1415  0A05  1107               	bcf	7,2	;volatile
  1416  0A06                     l3454:
  1417                           
  1418                           ;Lab03_master.c: 62:     printf("\r voltaje 2: \r");
  1419  0A06  3003               	movlw	3
  1420  0A07  1683               	bsf	3,5	;RP0=1, select bank1
  1421  0A08  1303               	bcf	3,6	;RP1=0, select bank1
  1422  0A09  00D2               	movwf	(??_main^(0+128)+1)
  1423  0A0A  3097               	movlw	151
  1424  0A0B  00D1               	movwf	??_main^(0+128)
  1425  0A0C                     u4337:
  1426  0A0C  0BD1               	decfsz	??_main^(0+128),f
  1427  0A0D  2A0C               	goto	u4337
  1428  0A0E  0BD2               	decfsz	(??_main^(0+128)+1),f
  1429  0A0F  2A0C               	goto	u4337
  1430  0A10                     l3456:
  1431                           
  1432                           ;Lab03_master.c: 64:     printf(adc1);
  1433  0A10  3001               	movlw	1
  1434  0A11  160A  118A  225D  120A  158A  	fcall	_spiWrite
  1435  0A16                     l3458:
  1436                           
  1437                           ;Lab03_master.c: 65:     _delay((unsigned long)((300)*(8000000/4000.0)));
  1438  0A16  160A  118A  227B  120A  158A  	fcall	_spiRead
  1439  0A1B  1683               	bsf	3,5	;RP0=1, select bank1
  1440  0A1C  1303               	bcf	3,6	;RP1=0, select bank1
  1441  0A1D  00D1               	movwf	??_main^(0+128)
  1442  0A1E  0851               	movf	??_main^(0+128),w
  1443  0A1F  1283               	bcf	3,5	;RP0=0, select bank0
  1444  0A20  1303               	bcf	3,6	;RP1=0, select bank0
  1445  0A21  00EF               	movwf	_pot1	;volatile
  1446  0A22                     l3460:
  1447                           
  1448                           ;Lab03_master.c: 66:     printf("\r---------------\r");
  1449  0A22  3003               	movlw	3
  1450  0A23  1683               	bsf	3,5	;RP0=1, select bank1
  1451  0A24  1303               	bcf	3,6	;RP1=0, select bank1
  1452  0A25  00D2               	movwf	(??_main^(0+128)+1)
  1453  0A26  3097               	movlw	151
  1454  0A27  00D1               	movwf	??_main^(0+128)
  1455  0A28                     u4347:
  1456  0A28  0BD1               	decfsz	??_main^(0+128),f
  1457  0A29  2A28               	goto	u4347
  1458  0A2A  0BD2               	decfsz	(??_main^(0+128)+1),f
  1459  0A2B  2A28               	goto	u4347
  1460  0A2C                     l3462:
  1461                           
  1462                           ;Lab03_master.c: 67: 
  1463  0A2C  1283               	bcf	3,5	;RP0=0, select bank0
  1464  0A2D  1303               	bcf	3,6	;RP1=0, select bank0
  1465  0A2E  1507               	bsf	7,2	;volatile
  1466  0A2F                     l3464:
  1467                           
  1468                           ;Lab03_master.c: 69:       chistosito1:
  1469  0A2F  1107               	bcf	7,2	;volatile
  1470  0A30                     l3466:
  1471                           
  1472                           ;Lab03_master.c: 70:        while(RCIF == 0);
  1473  0A30  3003               	movlw	3
  1474  0A31  1683               	bsf	3,5	;RP0=1, select bank1
  1475  0A32  1303               	bcf	3,6	;RP1=0, select bank1
  1476  0A33  00D2               	movwf	(??_main^(0+128)+1)
  1477  0A34  3097               	movlw	151
  1478  0A35  00D1               	movwf	??_main^(0+128)
  1479  0A36                     u4357:
  1480  0A36  0BD1               	decfsz	??_main^(0+128),f
  1481  0A37  2A36               	goto	u4357
  1482  0A38  0BD2               	decfsz	(??_main^(0+128)+1),f
  1483  0A39  2A36               	goto	u4357
  1484  0A3A                     l3468:
  1485                           
  1486                           ;Lab03_master.c: 72: 
  1487  0A3A  3002               	movlw	2
  1488  0A3B  160A  118A  225D  120A  158A  	fcall	_spiWrite
  1489  0A40                     l3470:
  1490                           
  1491                           ;Lab03_master.c: 73:        while(RCREG > '2'){
  1492  0A40  160A  118A  227B  120A  158A  	fcall	_spiRead
  1493  0A45  1683               	bsf	3,5	;RP0=1, select bank1
  1494  0A46  1303               	bcf	3,6	;RP1=0, select bank1
  1495  0A47  00D1               	movwf	??_main^(0+128)
  1496  0A48  0851               	movf	??_main^(0+128),w
  1497  0A49  00AD               	movwf	_pot2^(0+128)	;volatile
  1498  0A4A                     l3472:
  1499                           
  1500                           ;Lab03_master.c: 75:            goto chistosito1;
  1501  0A4A  3003               	movlw	3
  1502  0A4B  1683               	bsf	3,5	;RP0=1, select bank1
  1503  0A4C  1303               	bcf	3,6	;RP1=0, select bank1
  1504  0A4D  00D2               	movwf	(??_main^(0+128)+1)
  1505  0A4E  3097               	movlw	151
  1506  0A4F  00D1               	movwf	??_main^(0+128)
  1507  0A50                     u4367:
  1508  0A50  0BD1               	decfsz	??_main^(0+128),f
  1509  0A51  2A50               	goto	u4367
  1510  0A52  0BD2               	decfsz	(??_main^(0+128)+1),f
  1511  0A53  2A50               	goto	u4367
  1512  0A54                     l3474:
  1513                           
  1514                           ;Lab03_master.c: 76:        }
  1515  0A54  1283               	bcf	3,5	;RP0=0, select bank0
  1516  0A55  1303               	bcf	3,6	;RP1=0, select bank0
  1517  0A56  1507               	bsf	7,2	;volatile
  1518  0A57                     l3476:
  1519                           
  1520                           ;Lab03_master.c: 78:     printf("Ingresar Decenas: \r");
  1521  0A57  3000               	movlw	0
  1522  0A58  1683               	bsf	3,5	;RP0=1, select bank1
  1523  0A59  1303               	bcf	3,6	;RP1=0, select bank1
  1524  0A5A  00A7               	movwf	(_conv0+3)^(0+128)
  1525  0A5B  3000               	movlw	0
  1526  0A5C  00A6               	movwf	(_conv0+2)^(0+128)
  1527  0A5D  3000               	movlw	0
  1528  0A5E  00A5               	movwf	(_conv0+1)^(0+128)
  1529  0A5F  3000               	movlw	0
  1530  0A60  00A4               	movwf	_conv0^(0+128)
  1531  0A61                     l3478:
  1532                           
  1533                           ;Lab03_master.c: 79:       chistosito2:
  1534  0A61  3000               	movlw	0
  1535  0A62  00A3               	movwf	(_conv1+3)^(0+128)
  1536  0A63  3000               	movlw	0
  1537  0A64  00A2               	movwf	(_conv1+2)^(0+128)
  1538  0A65  3000               	movlw	0
  1539  0A66  00A1               	movwf	(_conv1+1)^(0+128)
  1540  0A67  3000               	movlw	0
  1541  0A68  00A0               	movwf	_conv1^(0+128)
  1542  0A69                     l3480:
  1543                           
  1544                           ;Lab03_master.c: 81:          decena = RCREG -48;
  1545  0A69  3040               	movlw	64
  1546  0A6A  1283               	bcf	3,5	;RP0=0, select bank0
  1547  0A6B  1303               	bcf	3,6	;RP1=0, select bank0
  1548  0A6C  00CF               	movwf	___flmul@b+3
  1549  0A6D  30A0               	movlw	160
  1550  0A6E  00CE               	movwf	___flmul@b+2
  1551  0A6F  3000               	movlw	0
  1552  0A70  00CD               	movwf	___flmul@b+1
  1553  0A71  3000               	movlw	0
  1554  0A72  00CC               	movwf	___flmul@b
  1555  0A73  3043               	movlw	67
  1556  0A74  00B5               	movwf	___fldiv@a+3
  1557  0A75  307F               	movlw	127
  1558  0A76  00B4               	movwf	___fldiv@a+2
  1559  0A77  3000               	movlw	0
  1560  0A78  00B3               	movwf	___fldiv@a+1
  1561  0A79  3000               	movlw	0
  1562  0A7A  00B2               	movwf	___fldiv@a
  1563  0A7B  086F               	movf	_pot1,w	;volatile
  1564  0A7C  1683               	bsf	3,5	;RP0=1, select bank1
  1565  0A7D  1303               	bcf	3,6	;RP1=0, select bank1
  1566  0A7E  00D1               	movwf	??_main^(0+128)
  1567  0A7F  01D2               	clrf	(??_main^(0+128)+1)
  1568  0A80  01D3               	clrf	(??_main^(0+128)+2)
  1569  0A81  01D4               	clrf	(??_main^(0+128)+3)
  1570  0A82  0854               	movf	(??_main+3)^(0+128),w
  1571  0A83  1283               	bcf	3,5	;RP0=0, select bank0
  1572  0A84  1303               	bcf	3,6	;RP1=0, select bank0
  1573  0A85  00A7               	movwf	___xxtofl@val+3
  1574  0A86  1683               	bsf	3,5	;RP0=1, select bank1
  1575  0A87  1303               	bcf	3,6	;RP1=0, select bank1
  1576  0A88  0853               	movf	(??_main+2)^(0+128),w
  1577  0A89  1283               	bcf	3,5	;RP0=0, select bank0
  1578  0A8A  1303               	bcf	3,6	;RP1=0, select bank0
  1579  0A8B  00A6               	movwf	___xxtofl@val+2
  1580  0A8C  1683               	bsf	3,5	;RP0=1, select bank1
  1581  0A8D  1303               	bcf	3,6	;RP1=0, select bank1
  1582  0A8E  0852               	movf	(??_main+1)^(0+128),w
  1583  0A8F  1283               	bcf	3,5	;RP0=0, select bank0
  1584  0A90  1303               	bcf	3,6	;RP1=0, select bank0
  1585  0A91  00A5               	movwf	___xxtofl@val+1
  1586  0A92  1683               	bsf	3,5	;RP0=1, select bank1
  1587  0A93  1303               	bcf	3,6	;RP1=0, select bank1
  1588  0A94  0851               	movf	??_main^(0+128),w
  1589  0A95  1283               	bcf	3,5	;RP0=0, select bank0
  1590  0A96  1303               	bcf	3,6	;RP1=0, select bank0
  1591  0A97  00A4               	movwf	___xxtofl@val
  1592  0A98  3001               	movlw	1
  1593  0A99  160A  118A  25E3  120A  158A  	fcall	___xxtofl
  1594  0A9E  1283               	bcf	3,5	;RP0=0, select bank0
  1595  0A9F  1303               	bcf	3,6	;RP1=0, select bank0
  1596  0AA0  0827               	movf	?___xxtofl+3,w
  1597  0AA1  00B9               	movwf	___fldiv@b+3
  1598  0AA2  0826               	movf	?___xxtofl+2,w
  1599  0AA3  00B8               	movwf	___fldiv@b+2
  1600  0AA4  0825               	movf	?___xxtofl+1,w
  1601  0AA5  00B7               	movwf	___fldiv@b+1
  1602  0AA6  0824               	movf	?___xxtofl,w
  1603  0AA7  00B6               	movwf	___fldiv@b
  1604  0AA8  120A  158A  238B  120A  158A  	fcall	___fldiv
  1605  0AAD  1283               	bcf	3,5	;RP0=0, select bank0
  1606  0AAE  1303               	bcf	3,6	;RP1=0, select bank0
  1607  0AAF  0835               	movf	?___fldiv+3,w
  1608  0AB0  00D3               	movwf	___flmul@a+3
  1609  0AB1  0834               	movf	?___fldiv+2,w
  1610  0AB2  00D2               	movwf	___flmul@a+2
  1611  0AB3  0833               	movf	?___fldiv+1,w
  1612  0AB4  00D1               	movwf	___flmul@a+1
  1613  0AB5  0832               	movf	?___fldiv,w
  1614  0AB6  00D0               	movwf	___flmul@a
  1615  0AB7  120A  118A  208F  120A  158A  	fcall	___flmul
  1616  0ABC  1283               	bcf	3,5	;RP0=0, select bank0
  1617  0ABD  1303               	bcf	3,6	;RP1=0, select bank0
  1618  0ABE  084F               	movf	?___flmul+3,w
  1619  0ABF  1683               	bsf	3,5	;RP0=1, select bank1
  1620  0AC0  1303               	bcf	3,6	;RP1=0, select bank1
  1621  0AC1  00A7               	movwf	(_conv0+3)^(0+128)
  1622  0AC2  1283               	bcf	3,5	;RP0=0, select bank0
  1623  0AC3  1303               	bcf	3,6	;RP1=0, select bank0
  1624  0AC4  084E               	movf	?___flmul+2,w
  1625  0AC5  1683               	bsf	3,5	;RP0=1, select bank1
  1626  0AC6  1303               	bcf	3,6	;RP1=0, select bank1
  1627  0AC7  00A6               	movwf	(_conv0+2)^(0+128)
  1628  0AC8  1283               	bcf	3,5	;RP0=0, select bank0
  1629  0AC9  1303               	bcf	3,6	;RP1=0, select bank0
  1630  0ACA  084D               	movf	?___flmul+1,w
  1631  0ACB  1683               	bsf	3,5	;RP0=1, select bank1
  1632  0ACC  1303               	bcf	3,6	;RP1=0, select bank1
  1633  0ACD  00A5               	movwf	(_conv0+1)^(0+128)
  1634  0ACE  1283               	bcf	3,5	;RP0=0, select bank0
  1635  0ACF  1303               	bcf	3,6	;RP1=0, select bank0
  1636  0AD0  084C               	movf	?___flmul,w
  1637  0AD1  1683               	bsf	3,5	;RP0=1, select bank1
  1638  0AD2  1303               	bcf	3,6	;RP1=0, select bank1
  1639  0AD3  00A4               	movwf	_conv0^(0+128)
  1640  0AD4                     l3482:
  1641                           
  1642                           ;Lab03_master.c: 82: 
  1643  0AD4  3040               	movlw	64
  1644  0AD5  1283               	bcf	3,5	;RP0=0, select bank0
  1645  0AD6  1303               	bcf	3,6	;RP1=0, select bank0
  1646  0AD7  00CF               	movwf	___flmul@b+3
  1647  0AD8  30A0               	movlw	160
  1648  0AD9  00CE               	movwf	___flmul@b+2
  1649  0ADA  3000               	movlw	0
  1650  0ADB  00CD               	movwf	___flmul@b+1
  1651  0ADC  3000               	movlw	0
  1652  0ADD  00CC               	movwf	___flmul@b
  1653  0ADE  3043               	movlw	67
  1654  0ADF  00B5               	movwf	___fldiv@a+3
  1655  0AE0  307F               	movlw	127
  1656  0AE1  00B4               	movwf	___fldiv@a+2
  1657  0AE2  3000               	movlw	0
  1658  0AE3  00B3               	movwf	___fldiv@a+1
  1659  0AE4  3000               	movlw	0
  1660  0AE5  00B2               	movwf	___fldiv@a
  1661  0AE6  1683               	bsf	3,5	;RP0=1, select bank1
  1662  0AE7  1303               	bcf	3,6	;RP1=0, select bank1
  1663  0AE8  082D               	movf	_pot2^(0+128),w	;volatile
  1664  0AE9  00D1               	movwf	??_main^(0+128)
  1665  0AEA  01D2               	clrf	(??_main^(0+128)+1)
  1666  0AEB  01D3               	clrf	(??_main^(0+128)+2)
  1667  0AEC  01D4               	clrf	(??_main^(0+128)+3)
  1668  0AED  0854               	movf	(??_main+3)^(0+128),w
  1669  0AEE  1283               	bcf	3,5	;RP0=0, select bank0
  1670  0AEF  1303               	bcf	3,6	;RP1=0, select bank0
  1671  0AF0  00A7               	movwf	___xxtofl@val+3
  1672  0AF1  1683               	bsf	3,5	;RP0=1, select bank1
  1673  0AF2  1303               	bcf	3,6	;RP1=0, select bank1
  1674  0AF3  0853               	movf	(??_main+2)^(0+128),w
  1675  0AF4  1283               	bcf	3,5	;RP0=0, select bank0
  1676  0AF5  1303               	bcf	3,6	;RP1=0, select bank0
  1677  0AF6  00A6               	movwf	___xxtofl@val+2
  1678  0AF7  1683               	bsf	3,5	;RP0=1, select bank1
  1679  0AF8  1303               	bcf	3,6	;RP1=0, select bank1
  1680  0AF9  0852               	movf	(??_main+1)^(0+128),w
  1681  0AFA  1283               	bcf	3,5	;RP0=0, select bank0
  1682  0AFB  1303               	bcf	3,6	;RP1=0, select bank0
  1683  0AFC  00A5               	movwf	___xxtofl@val+1
  1684  0AFD  1683               	bsf	3,5	;RP0=1, select bank1
  1685  0AFE  1303               	bcf	3,6	;RP1=0, select bank1
  1686  0AFF  0851               	movf	??_main^(0+128),w
  1687  0B00  1283               	bcf	3,5	;RP0=0, select bank0
  1688  0B01  1303               	bcf	3,6	;RP1=0, select bank0
  1689  0B02  00A4               	movwf	___xxtofl@val
  1690  0B03  3001               	movlw	1
  1691  0B04  160A  118A  25E3  120A  158A  	fcall	___xxtofl
  1692  0B09  1283               	bcf	3,5	;RP0=0, select bank0
  1693  0B0A  1303               	bcf	3,6	;RP1=0, select bank0
  1694  0B0B  0827               	movf	?___xxtofl+3,w
  1695  0B0C  00B9               	movwf	___fldiv@b+3
  1696  0B0D  0826               	movf	?___xxtofl+2,w
  1697  0B0E  00B8               	movwf	___fldiv@b+2
  1698  0B0F  0825               	movf	?___xxtofl+1,w
  1699  0B10  00B7               	movwf	___fldiv@b+1
  1700  0B11  0824               	movf	?___xxtofl,w
  1701  0B12  00B6               	movwf	___fldiv@b
  1702  0B13  120A  158A  238B  120A  158A  	fcall	___fldiv
  1703  0B18  1283               	bcf	3,5	;RP0=0, select bank0
  1704  0B19  1303               	bcf	3,6	;RP1=0, select bank0
  1705  0B1A  0835               	movf	?___fldiv+3,w
  1706  0B1B  00D3               	movwf	___flmul@a+3
  1707  0B1C  0834               	movf	?___fldiv+2,w
  1708  0B1D  00D2               	movwf	___flmul@a+2
  1709  0B1E  0833               	movf	?___fldiv+1,w
  1710  0B1F  00D1               	movwf	___flmul@a+1
  1711  0B20  0832               	movf	?___fldiv,w
  1712  0B21  00D0               	movwf	___flmul@a
  1713  0B22  120A  118A  208F  120A  158A  	fcall	___flmul
  1714  0B27  1283               	bcf	3,5	;RP0=0, select bank0
  1715  0B28  1303               	bcf	3,6	;RP1=0, select bank0
  1716  0B29  084F               	movf	?___flmul+3,w
  1717  0B2A  1683               	bsf	3,5	;RP0=1, select bank1
  1718  0B2B  1303               	bcf	3,6	;RP1=0, select bank1
  1719  0B2C  00A3               	movwf	(_conv1+3)^(0+128)
  1720  0B2D  1283               	bcf	3,5	;RP0=0, select bank0
  1721  0B2E  1303               	bcf	3,6	;RP1=0, select bank0
  1722  0B2F  084E               	movf	?___flmul+2,w
  1723  0B30  1683               	bsf	3,5	;RP0=1, select bank1
  1724  0B31  1303               	bcf	3,6	;RP1=0, select bank1
  1725  0B32  00A2               	movwf	(_conv1+2)^(0+128)
  1726  0B33  1283               	bcf	3,5	;RP0=0, select bank0
  1727  0B34  1303               	bcf	3,6	;RP1=0, select bank0
  1728  0B35  084D               	movf	?___flmul+1,w
  1729  0B36  1683               	bsf	3,5	;RP0=1, select bank1
  1730  0B37  1303               	bcf	3,6	;RP1=0, select bank1
  1731  0B38  00A1               	movwf	(_conv1+1)^(0+128)
  1732  0B39  1283               	bcf	3,5	;RP0=0, select bank0
  1733  0B3A  1303               	bcf	3,6	;RP1=0, select bank0
  1734  0B3B  084C               	movf	?___flmul,w
  1735  0B3C  1683               	bsf	3,5	;RP0=1, select bank1
  1736  0B3D  1303               	bcf	3,6	;RP1=0, select bank1
  1737  0B3E  00A0               	movwf	_conv1^(0+128)
  1738  0B3F                     l3484:
  1739                           
  1740                           ;Lab03_master.c: 84:            while(RCREG > '5'){
  1741  0B3F  0827               	movf	(_conv0+3)^(0+128),w
  1742  0B40  1283               	bcf	3,5	;RP0=0, select bank0
  1743  0B41  1303               	bcf	3,6	;RP1=0, select bank0
  1744  0B42  00E9               	movwf	ADC_convert@a+3
  1745  0B43  1683               	bsf	3,5	;RP0=1, select bank1
  1746  0B44  1303               	bcf	3,6	;RP1=0, select bank1
  1747  0B45  0826               	movf	(_conv0+2)^(0+128),w
  1748  0B46  1283               	bcf	3,5	;RP0=0, select bank0
  1749  0B47  1303               	bcf	3,6	;RP1=0, select bank0
  1750  0B48  00E8               	movwf	ADC_convert@a+2
  1751  0B49  1683               	bsf	3,5	;RP0=1, select bank1
  1752  0B4A  1303               	bcf	3,6	;RP1=0, select bank1
  1753  0B4B  0825               	movf	(_conv0+1)^(0+128),w
  1754  0B4C  1283               	bcf	3,5	;RP0=0, select bank0
  1755  0B4D  1303               	bcf	3,6	;RP1=0, select bank0
  1756  0B4E  00E7               	movwf	ADC_convert@a+1
  1757  0B4F  1683               	bsf	3,5	;RP0=1, select bank1
  1758  0B50  1303               	bcf	3,6	;RP1=0, select bank1
  1759  0B51  0824               	movf	_conv0^(0+128),w
  1760  0B52  1283               	bcf	3,5	;RP0=0, select bank0
  1761  0B53  1303               	bcf	3,6	;RP1=0, select bank0
  1762  0B54  00E6               	movwf	ADC_convert@a
  1763  0B55  3002               	movlw	2
  1764  0B56  00EA               	movwf	ADC_convert@place
  1765  0B57  3000               	movlw	0
  1766  0B58  00EB               	movwf	ADC_convert@place+1
  1767  0B59  30B8               	movlw	(low (_adc0| 0))& (0+255)
  1768  0B5A  120A  118A  23F0  120A  158A  	fcall	_ADC_convert
  1769  0B5F                     l3486:
  1770                           
  1771                           ;Lab03_master.c: 85:                goto chistosito2;
  1772  0B5F  1683               	bsf	3,5	;RP0=1, select bank1
  1773  0B60  1303               	bcf	3,6	;RP1=0, select bank1
  1774  0B61  0823               	movf	(_conv1+3)^(0+128),w
  1775  0B62  1283               	bcf	3,5	;RP0=0, select bank0
  1776  0B63  1303               	bcf	3,6	;RP1=0, select bank0
  1777  0B64  00E9               	movwf	ADC_convert@a+3
  1778  0B65  1683               	bsf	3,5	;RP0=1, select bank1
  1779  0B66  1303               	bcf	3,6	;RP1=0, select bank1
  1780  0B67  0822               	movf	(_conv1+2)^(0+128),w
  1781  0B68  1283               	bcf	3,5	;RP0=0, select bank0
  1782  0B69  1303               	bcf	3,6	;RP1=0, select bank0
  1783  0B6A  00E8               	movwf	ADC_convert@a+2
  1784  0B6B  1683               	bsf	3,5	;RP0=1, select bank1
  1785  0B6C  1303               	bcf	3,6	;RP1=0, select bank1
  1786  0B6D  0821               	movf	(_conv1+1)^(0+128),w
  1787  0B6E  1283               	bcf	3,5	;RP0=0, select bank0
  1788  0B6F  1303               	bcf	3,6	;RP1=0, select bank0
  1789  0B70  00E7               	movwf	ADC_convert@a+1
  1790  0B71  1683               	bsf	3,5	;RP0=1, select bank1
  1791  0B72  1303               	bcf	3,6	;RP1=0, select bank1
  1792  0B73  0820               	movf	_conv1^(0+128),w
  1793  0B74  1283               	bcf	3,5	;RP0=0, select bank0
  1794  0B75  1303               	bcf	3,6	;RP1=0, select bank0
  1795  0B76  00E6               	movwf	ADC_convert@a
  1796  0B77  3002               	movlw	2
  1797  0B78  00EA               	movwf	ADC_convert@place
  1798  0B79  3000               	movlw	0
  1799  0B7A  00EB               	movwf	ADC_convert@place+1
  1800  0B7B  30AE               	movlw	(low (_adc1| 0))& (0+255)
  1801  0B7C  120A  118A  23F0  120A  158A  	fcall	_ADC_convert
  1802  0B81                     l3488:
  1803                           
  1804                           ;Lab03_master.c: 86:            }
  1805  0B81  1683               	bsf	3,5	;RP0=1, select bank1
  1806  0B82  1303               	bcf	3,6	;RP1=0, select bank1
  1807  0B83  0828               	movf	_full^(0+128),w
  1808  0B84  1283               	bcf	3,5	;RP0=0, select bank0
  1809  0B85  1303               	bcf	3,6	;RP1=0, select bank0
  1810  0B86  0086               	movwf	6	;volatile
  1811  0B87  29FE               	goto	l3450
  1812  0B88  120A  118A  2800   	ljmp	start
  1813  0B8B                     __end_of_main:
  1814                           
  1815                           	psect	text1
  1816  125D                     __ptext1:	
  1817 ;; *************** function _spiWrite *****************
  1818 ;; Defined at:
  1819 ;;		line 74 in file "SPI.c"
  1820 ;; Parameters:    Size  Location     Type
  1821 ;;  dat             1    wreg     unsigned char 
  1822 ;; Auto vars:     Size  Location     Type
  1823 ;;  dat             1    0[COMMON] unsigned char 
  1824 ;; Return value:  Size  Location     Type
  1825 ;;                  1    wreg      void 
  1826 ;; Registers used:
  1827 ;;		wreg
  1828 ;; Tracked objects:
  1829 ;;		On entry : 0/0
  1830 ;;		On exit  : 0/0
  1831 ;;		Unchanged: 0/0
  1832 ;; Data sizes:     COMMON   BANK0   BANK1   BANK3   BANK2
  1833 ;;      Params:         0       0       0       0       0
  1834 ;;      Locals:         1       0       0       0       0
  1835 ;;      Temps:          0       0       0       0       0
  1836 ;;      Totals:         1       0       0       0       0
  1837 ;;Total ram usage:        1 bytes
  1838 ;; Hardware stack levels used:    1
  1839 ;; This function calls:
  1840 ;;		Nothing
  1841 ;; This function is called by:
  1842 ;;		_main
  1843 ;; This function uses a non-reentrant model
  1844 ;;
  1845                           
  1846                           
  1847                           ;psect for function _spiWrite
  1848  125D                     _spiWrite:
  1849                           
  1850                           ;incstack = 0
  1851                           ; Regs used in _spiWrite: [wreg]
  1852                           ;spiWrite@dat stored from wreg
  1853  125D  00F0               	movwf	spiWrite@dat
  1854  125E                     l3338:
  1855                           
  1856                           ;SPI.c: 74: void spiWrite(char dat);SPI.c: 75: {;SPI.c: 76:     SSPBUF = dat;
  1857  125E  0870               	movf	spiWrite@dat,w
  1858  125F  1283               	bcf	3,5	;RP0=0, select bank0
  1859  1260  1303               	bcf	3,6	;RP1=0, select bank0
  1860  1261  0093               	movwf	19	;volatile
  1861  1262                     l303:
  1862  1262  0008               	return
  1863  1263                     __end_of_spiWrite:
  1864                           
  1865                           	psect	text2
  1866  127B                     __ptext2:	
  1867 ;; *************** function _spiRead *****************
  1868 ;; Defined at:
  1869 ;;		line 87 in file "SPI.c"
  1870 ;; Parameters:    Size  Location     Type
  1871 ;;		None
  1872 ;; Auto vars:     Size  Location     Type
  1873 ;;		None
  1874 ;; Return value:  Size  Location     Type
  1875 ;;                  1    wreg      unsigned char 
  1876 ;; Registers used:
  1877 ;;		wreg, status,2, status,0, pclath, cstack
  1878 ;; Tracked objects:
  1879 ;;		On entry : 0/0
  1880 ;;		On exit  : 0/0
  1881 ;;		Unchanged: 0/0
  1882 ;; Data sizes:     COMMON   BANK0   BANK1   BANK3   BANK2
  1883 ;;      Params:         0       0       0       0       0
  1884 ;;      Locals:         0       0       0       0       0
  1885 ;;      Temps:          0       0       0       0       0
  1886 ;;      Totals:         0       0       0       0       0
  1887 ;;Total ram usage:        0 bytes
  1888 ;; Hardware stack levels used:    1
  1889 ;; Hardware stack levels required when called:    1
  1890 ;; This function calls:
  1891 ;;		_spiReceiveWait
  1892 ;; This function is called by:
  1893 ;;		_main
  1894 ;; This function uses a non-reentrant model
  1895 ;;
  1896                           
  1897                           
  1898                           ;psect for function _spiRead
  1899  127B                     _spiRead:
  1900  127B                     l3340:	
  1901                           ;incstack = 0
  1902                           ; Regs used in _spiRead: [wreg+status,2+status,0+pclath+cstack]
  1903                           
  1904                           
  1905                           ;SPI.c: 89:     spiReceiveWait();
  1906  127B  160A  118A  2263  160A  118A  	fcall	_spiReceiveWait
  1907  1280                     l3342:
  1908                           
  1909                           ;SPI.c: 90:     return(SSPBUF);
  1910  1280  1283               	bcf	3,5	;RP0=0, select bank0
  1911  1281  1303               	bcf	3,6	;RP1=0, select bank0
  1912  1282  0813               	movf	19,w	;volatile
  1913  1283                     l311:
  1914  1283  0008               	return
  1915  1284                     __end_of_spiRead:
  1916                           
  1917                           	psect	text3
  1918  1263                     __ptext3:	
  1919 ;; *************** function _spiReceiveWait *****************
  1920 ;; Defined at:
  1921 ;;		line 69 in file "SPI.c"
  1922 ;; Parameters:    Size  Location     Type
  1923 ;;		None
  1924 ;; Auto vars:     Size  Location     Type
  1925 ;;		None
  1926 ;; Return value:  Size  Location     Type
  1927 ;;                  1    wreg      void 
  1928 ;; Registers used:
  1929 ;;		None
  1930 ;; Tracked objects:
  1931 ;;		On entry : 0/0
  1932 ;;		On exit  : 0/0
  1933 ;;		Unchanged: 0/0
  1934 ;; Data sizes:     COMMON   BANK0   BANK1   BANK3   BANK2
  1935 ;;      Params:         0       0       0       0       0
  1936 ;;      Locals:         0       0       0       0       0
  1937 ;;      Temps:          0       0       0       0       0
  1938 ;;      Totals:         0       0       0       0       0
  1939 ;;Total ram usage:        0 bytes
  1940 ;; Hardware stack levels used:    1
  1941 ;; This function calls:
  1942 ;;		Nothing
  1943 ;; This function is called by:
  1944 ;;		_spiRead
  1945 ;; This function uses a non-reentrant model
  1946 ;;
  1947                           
  1948                           
  1949                           ;psect for function _spiReceiveWait
  1950  1263                     _spiReceiveWait:
  1951  1263                     l2822:	
  1952                           ;incstack = 0
  1953                           ; Regs used in _spiReceiveWait: []
  1954                           
  1955  1263                     l297:	
  1956                           ;SPI.c: 71:     while ( !SSPSTATbits.BF );
  1957                           
  1958  1263  1683               	bsf	3,5	;RP0=1, select bank1
  1959  1264  1303               	bcf	3,6	;RP1=0, select bank1
  1960  1265  1C14               	btfss	20,0	;volatile
  1961  1266  2A68               	goto	u3071
  1962  1267  2A69               	goto	u3070
  1963  1268                     u3071:
  1964  1268  2A63               	goto	l297
  1965  1269                     u3070:
  1966  1269                     l300:
  1967  1269  0008               	return
  1968  126A                     __end_of_spiReceiveWait:
  1969                           
  1970                           	psect	text4
  1971  1391                     __ptext4:	
  1972 ;; *************** function _setup *****************
  1973 ;; Defined at:
  1974 ;;		line 168 in file "Lab03_master.c"
  1975 ;; Parameters:    Size  Location     Type
  1976 ;;		None
  1977 ;; Auto vars:     Size  Location     Type
  1978 ;;		None
  1979 ;; Return value:  Size  Location     Type
  1980 ;;                  1    wreg      void 
  1981 ;; Registers used:
  1982 ;;		wreg, fsr0l, fsr0h, status,2, status,0, pclath, cstack
  1983 ;; Tracked objects:
  1984 ;;		On entry : 0/0
  1985 ;;		On exit  : 0/0
  1986 ;;		Unchanged: 0/0
  1987 ;; Data sizes:     COMMON   BANK0   BANK1   BANK3   BANK2
  1988 ;;      Params:         0       0       0       0       0
  1989 ;;      Locals:         0       0       0       0       0
  1990 ;;      Temps:          0       0       0       0       0
  1991 ;;      Totals:         0       0       0       0       0
  1992 ;;Total ram usage:        0 bytes
  1993 ;; Hardware stack levels used:    1
  1994 ;; Hardware stack levels required when called:    1
  1995 ;; This function calls:
  1996 ;;		_conf_osc
  1997 ;;		_spiInit
  1998 ;; This function is called by:
  1999 ;;		_main
  2000 ;; This function uses a non-reentrant model
  2001 ;;
  2002                           
  2003                           
  2004                           ;psect for function _setup
  2005  1391                     _setup:
  2006  1391                     l3256:	
  2007                           ;incstack = 0
  2008                           ; Regs used in _setup: [wreg-fsr0h+status,2+status,0+pclath+cstack]
  2009                           
  2010                           
  2011                           ;Lab03_master.c: 169: 
  2012  1391  1683               	bsf	3,5	;RP0=1, select bank3
  2013  1392  1703               	bsf	3,6	;RP1=1, select bank3
  2014  1393  0188               	clrf	8	;volatile
  2015                           
  2016                           ;Lab03_master.c: 170:     PIR1bits.TXIF = 0;
  2017  1394  0189               	clrf	9	;volatile
  2018                           
  2019                           ;Lab03_master.c: 172: }
  2020  1395  1683               	bsf	3,5	;RP0=1, select bank1
  2021  1396  1303               	bcf	3,6	;RP1=0, select bank1
  2022  1397  0186               	clrf	6	;volatile
  2023  1398  0188               	clrf	8	;volatile
  2024  1399  1283               	bcf	3,5	;RP0=0, select bank0
  2025  139A  1303               	bcf	3,6	;RP1=0, select bank0
  2026  139B  0186               	clrf	6	;volatile
  2027  139C  0188               	clrf	8	;volatile
  2028  139D                     l3258:
  2029  139D  1507               	bsf	7,2	;volatile
  2030  139E                     l3260:
  2031  139E  01F0               	clrf	spiInit@sDataSample
  2032  139F  01F1               	clrf	spiInit@sClockIdle
  2033  13A0  01F2               	clrf	spiInit@sTransmitEdge
  2034  13A1  3020               	movlw	32
  2035  13A2  120A  158A  2002  160A  118A  	fcall	_spiInit
  2036  13A7                     l3262:
  2037  13A7  3007               	movlw	7
  2038  13A8  160A  118A  2485  160A  118A  	fcall	_conf_osc
  2039  13AD                     l3264:
  2040  13AD  1683               	bsf	3,5	;RP0=1, select bank1
  2041  13AE  1303               	bcf	3,6	;RP1=0, select bank1
  2042  13AF  1218               	bcf	24,4	;volatile
  2043  13B0                     l3266:
  2044  13B0  1518               	bsf	24,2	;volatile
  2045  13B1                     l3268:
  2046  13B1  1683               	bsf	3,5	;RP0=1, select bank3
  2047  13B2  1703               	bsf	3,6	;RP1=1, select bank3
  2048  13B3  1587               	bsf	7,3	;volatile
  2049  13B4                     l3270:
  2050  13B4  30CF               	movlw	207
  2051  13B5  1683               	bsf	3,5	;RP0=1, select bank1
  2052  13B6  1303               	bcf	3,6	;RP1=0, select bank1
  2053  13B7  0099               	movwf	25	;volatile
  2054  13B8                     l3272:
  2055  13B8  019A               	clrf	26	;volatile
  2056  13B9                     l3274:
  2057  13B9  1283               	bcf	3,5	;RP0=0, select bank0
  2058  13BA  1303               	bcf	3,6	;RP1=0, select bank0
  2059  13BB  1798               	bsf	24,7	;volatile
  2060  13BC                     l3276:
  2061  13BC  1318               	bcf	24,6	;volatile
  2062  13BD                     l3278:
  2063  13BD  1618               	bsf	24,4	;volatile
  2064  13BE                     l3280:
  2065  13BE  1683               	bsf	3,5	;RP0=1, select bank1
  2066  13BF  1303               	bcf	3,6	;RP1=0, select bank1
  2067  13C0  1698               	bsf	24,5	;volatile
  2068  13C1                     l3282:
  2069  13C1  178B               	bsf	11,7	;volatile
  2070  13C2                     l3284:
  2071  13C2  170B               	bsf	11,6	;volatile
  2072  13C3                     l3286:
  2073  13C3  168C               	bsf	12,5	;volatile
  2074  13C4                     l3288:
  2075  13C4  160C               	bsf	12,4	;volatile
  2076  13C5                     l3290:
  2077  13C5  1283               	bcf	3,5	;RP0=0, select bank0
  2078  13C6  1303               	bcf	3,6	;RP1=0, select bank0
  2079  13C7  120C               	bcf	12,4	;volatile
  2080  13C8                     l3292:
  2081  13C8  128C               	bcf	12,5	;volatile
  2082  13C9                     l164:
  2083  13C9  0008               	return
  2084  13CA                     __end_of_setup:
  2085                           
  2086                           	psect	text5
  2087  0802                     __ptext5:	
  2088 ;; *************** function _spiInit *****************
  2089 ;; Defined at:
  2090 ;;		line 52 in file "SPI.c"
  2091 ;; Parameters:    Size  Location     Type
  2092 ;;  sType           1    wreg     enum E1475
  2093 ;;  sDataSample     1    0[COMMON] enum E1483
  2094 ;;  sClockIdle      1    1[COMMON] enum E1487
  2095 ;;  sTransmitEdg    1    2[COMMON] enum E1491
  2096 ;; Auto vars:     Size  Location     Type
  2097 ;;  sType           1    3[COMMON] enum E1475
  2098 ;; Return value:  Size  Location     Type
  2099 ;;                  1    wreg      void 
  2100 ;; Registers used:
  2101 ;;		wreg, status,2, status,0
  2102 ;; Tracked objects:
  2103 ;;		On entry : 0/0
  2104 ;;		On exit  : 0/0
  2105 ;;		Unchanged: 0/0
  2106 ;; Data sizes:     COMMON   BANK0   BANK1   BANK3   BANK2
  2107 ;;      Params:         3       0       0       0       0
  2108 ;;      Locals:         1       0       0       0       0
  2109 ;;      Temps:          0       0       0       0       0
  2110 ;;      Totals:         4       0       0       0       0
  2111 ;;Total ram usage:        4 bytes
  2112 ;; Hardware stack levels used:    1
  2113 ;; This function calls:
  2114 ;;		Nothing
  2115 ;; This function is called by:
  2116 ;;		_setup
  2117 ;; This function uses a non-reentrant model
  2118 ;;
  2119                           
  2120                           
  2121                           ;psect for function _spiInit
  2122  0802                     _spiInit:
  2123                           
  2124                           ;incstack = 0
  2125                           ; Regs used in _spiInit: [wreg+status,2+status,0]
  2126                           ;spiInit@sType stored from wreg
  2127  0802  00F3               	movwf	spiInit@sType
  2128  0803                     l2812:
  2129                           
  2130                           ;SPI.c: 52: void spiInit(Spi_Type sType, Spi_Data_Sample sDataSample, Spi_Clock_Idle sCl
      +                          ockIdle, Spi_Transmit_Edge sTransmitEdge);SPI.c: 53: {;SPI.c: 54:     TRISC5 = 0;
  2131  0803  1683               	bsf	3,5	;RP0=1, select bank1
  2132  0804  1303               	bcf	3,6	;RP1=0, select bank1
  2133  0805  1287               	bcf	7,5	;volatile
  2134                           
  2135                           ;SPI.c: 55:     if(sType & 0b00000100)
  2136  0806  1D73               	btfss	spiInit@sType,2
  2137  0807  2809               	goto	u3061
  2138  0808  280A               	goto	u3060
  2139  0809                     u3061:
  2140  0809  280E               	goto	l2818
  2141  080A                     u3060:
  2142  080A                     l2814:
  2143                           
  2144                           ;SPI.c: 56:     {;SPI.c: 57:         SSPSTAT = sTransmitEdge;
  2145  080A  0872               	movf	spiInit@sTransmitEdge,w
  2146  080B  0094               	movwf	20	;volatile
  2147  080C                     l2816:
  2148                           
  2149                           ;SPI.c: 58:         TRISC3 = 1;
  2150  080C  1587               	bsf	7,3	;volatile
  2151                           
  2152                           ;SPI.c: 59:     }
  2153  080D  2812               	goto	l293
  2154  080E                     l2818:
  2155                           
  2156                           ;SPI.c: 61:     {;SPI.c: 62:         SSPSTAT = sDataSample | sTransmitEdge;
  2157  080E  0870               	movf	spiInit@sDataSample,w
  2158  080F  0472               	iorwf	spiInit@sTransmitEdge,w
  2159  0810  0094               	movwf	20	;volatile
  2160  0811                     l2820:
  2161                           
  2162                           ;SPI.c: 63:         TRISC3 = 0;
  2163  0811  1187               	bcf	7,3	;volatile
  2164  0812                     l293:	
  2165                           ;SPI.c: 64:     }
  2166                           
  2167                           
  2168                           ;SPI.c: 66:     SSPCON = sType | sClockIdle;
  2169  0812  0873               	movf	spiInit@sType,w
  2170  0813  0471               	iorwf	spiInit@sClockIdle,w
  2171  0814  1283               	bcf	3,5	;RP0=0, select bank0
  2172  0815  1303               	bcf	3,6	;RP1=0, select bank0
  2173  0816  0094               	movwf	20	;volatile
  2174  0817                     l294:
  2175  0817  0008               	return
  2176  0818                     __end_of_spiInit:
  2177                           
  2178                           	psect	text6
  2179  1485                     __ptext6:	
  2180 ;; *************** function _conf_osc *****************
  2181 ;; Defined at:
  2182 ;;		line 23 in file "configuraciones_pic.c"
  2183 ;; Parameters:    Size  Location     Type
  2184 ;;  frec            1    wreg     unsigned char 
  2185 ;; Auto vars:     Size  Location     Type
  2186 ;;  frec            1    2[COMMON] unsigned char 
  2187 ;; Return value:  Size  Location     Type
  2188 ;;                  1    wreg      void 
  2189 ;; Registers used:
  2190 ;;		wreg, fsr0l, fsr0h, status,2, status,0
  2191 ;; Tracked objects:
  2192 ;;		On entry : 0/0
  2193 ;;		On exit  : 0/0
  2194 ;;		Unchanged: 0/0
  2195 ;; Data sizes:     COMMON   BANK0   BANK1   BANK3   BANK2
  2196 ;;      Params:         0       0       0       0       0
  2197 ;;      Locals:         1       0       0       0       0
  2198 ;;      Temps:          2       0       0       0       0
  2199 ;;      Totals:         3       0       0       0       0
  2200 ;;Total ram usage:        3 bytes
  2201 ;; Hardware stack levels used:    1
  2202 ;; This function calls:
  2203 ;;		Nothing
  2204 ;; This function is called by:
  2205 ;;		_setup
  2206 ;; This function uses a non-reentrant model
  2207 ;;
  2208                           
  2209                           
  2210                           ;psect for function _conf_osc
  2211  1485                     _conf_osc:
  2212                           
  2213                           ;incstack = 0
  2214                           ; Regs used in _conf_osc: [wreg-fsr0h+status,2+status,0]
  2215                           ;conf_osc@frec stored from wreg
  2216  1485  00F2               	movwf	conf_osc@frec
  2217  1486                     l2766:
  2218                           
  2219                           ;configuraciones_pic.c: 24:     switch(frec){
  2220  1486  2CB9               	goto	l2786
  2221  1487                     l2768:
  2222                           
  2223                           ;configuraciones_pic.c: 26:             OSCCONbits.IRCF = 000;
  2224  1487  308F               	movlw	-113
  2225  1488  1683               	bsf	3,5	;RP0=1, select bank1
  2226  1489  1303               	bcf	3,6	;RP1=0, select bank1
  2227  148A  058F               	andwf	15,f	;volatile
  2228                           
  2229                           ;configuraciones_pic.c: 27:             break;
  2230  148B  2CD8               	goto	l11
  2231  148C                     l2770:
  2232                           
  2233                           ;configuraciones_pic.c: 29:             OSCCONbits.IRCF = 001;
  2234  148C  1683               	bsf	3,5	;RP0=1, select bank1
  2235  148D  1303               	bcf	3,6	;RP1=0, select bank1
  2236  148E  080F               	movf	15,w	;volatile
  2237  148F  398F               	andlw	-113
  2238  1490  3810               	iorlw	16
  2239  1491  008F               	movwf	15	;volatile
  2240                           
  2241                           ;configuraciones_pic.c: 30:             break;
  2242  1492  2CD8               	goto	l11
  2243  1493                     l2772:
  2244                           
  2245                           ;configuraciones_pic.c: 32:             OSCCONbits.IRCF = 010;
  2246  1493  308F               	movlw	-113
  2247  1494  1683               	bsf	3,5	;RP0=1, select bank1
  2248  1495  1303               	bcf	3,6	;RP1=0, select bank1
  2249  1496  058F               	andwf	15,f	;volatile
  2250                           
  2251                           ;configuraciones_pic.c: 33:             break;
  2252  1497  2CD8               	goto	l11
  2253  1498                     l2774:
  2254                           
  2255                           ;configuraciones_pic.c: 35:             OSCCONbits.IRCF = 011;
  2256  1498  1683               	bsf	3,5	;RP0=1, select bank1
  2257  1499  1303               	bcf	3,6	;RP1=0, select bank1
  2258  149A  080F               	movf	15,w	;volatile
  2259  149B  398F               	andlw	-113
  2260  149C  3810               	iorlw	16
  2261  149D  008F               	movwf	15	;volatile
  2262                           
  2263                           ;configuraciones_pic.c: 36:             break;
  2264  149E  2CD8               	goto	l11
  2265  149F                     l2776:
  2266                           
  2267                           ;configuraciones_pic.c: 38:             OSCCONbits.IRCF = 100;
  2268  149F  1683               	bsf	3,5	;RP0=1, select bank1
  2269  14A0  1303               	bcf	3,6	;RP1=0, select bank1
  2270  14A1  080F               	movf	15,w	;volatile
  2271  14A2  398F               	andlw	-113
  2272  14A3  3840               	iorlw	64
  2273  14A4  008F               	movwf	15	;volatile
  2274                           
  2275                           ;configuraciones_pic.c: 39:             break;
  2276  14A5  2CD8               	goto	l11
  2277  14A6                     l2778:
  2278                           
  2279                           ;configuraciones_pic.c: 41:             OSCCONbits.IRCF = 101;
  2280  14A6  1683               	bsf	3,5	;RP0=1, select bank1
  2281  14A7  1303               	bcf	3,6	;RP1=0, select bank1
  2282  14A8  080F               	movf	15,w	;volatile
  2283  14A9  398F               	andlw	-113
  2284  14AA  3850               	iorlw	80
  2285  14AB  008F               	movwf	15	;volatile
  2286                           
  2287                           ;configuraciones_pic.c: 42:             break;
  2288  14AC  2CD8               	goto	l11
  2289  14AD                     l2780:
  2290                           
  2291                           ;configuraciones_pic.c: 44:             OSCCONbits.IRCF = 111;
  2292  14AD  3070               	movlw	112
  2293  14AE  1683               	bsf	3,5	;RP0=1, select bank1
  2294  14AF  1303               	bcf	3,6	;RP1=0, select bank1
  2295  14B0  048F               	iorwf	15,f	;volatile
  2296                           
  2297                           ;configuraciones_pic.c: 45:             break;
  2298  14B1  2CD8               	goto	l11
  2299  14B2                     l2782:
  2300                           
  2301                           ;configuraciones_pic.c: 47:             OSCCONbits.IRCF = 110;
  2302  14B2  1683               	bsf	3,5	;RP0=1, select bank1
  2303  14B3  1303               	bcf	3,6	;RP1=0, select bank1
  2304  14B4  080F               	movf	15,w	;volatile
  2305  14B5  398F               	andlw	-113
  2306  14B6  3860               	iorlw	96
  2307  14B7  008F               	movwf	15	;volatile
  2308                           
  2309                           ;configuraciones_pic.c: 48:             break;
  2310  14B8  2CD8               	goto	l11
  2311  14B9                     l2786:
  2312  14B9  0872               	movf	conf_osc@frec,w
  2313  14BA  00F0               	movwf	??_conf_osc
  2314  14BB  01F1               	clrf	??_conf_osc+1
  2315                           
  2316                           ; Switch on 2 bytes has been partitioned into a top level switch of size 1, and 1 sub-sw
      +                          itches
  2317                           ; Switch size 1, requested type "simple"
  2318                           ; Number of cases is 1, Range of values is 0 to 0
  2319                           ; switch strategies available:
  2320                           ; Name         Instructions Cycles
  2321                           ; simple_byte            4     3 (average)
  2322                           ; direct_byte           11     8 (fixed)
  2323                           ; jumptable            260     6 (fixed)
  2324                           ;	Chosen strategy is simple_byte
  2325  14BC  0871               	movf	??_conf_osc+1,w
  2326  14BD  3A00               	xorlw	0	; case 0
  2327  14BE  1903               	skipnz
  2328  14BF  2CC1               	goto	l3530
  2329  14C0  2CB2               	goto	l2782
  2330  14C1                     l3530:
  2331                           
  2332                           ; Switch size 1, requested type "simple"
  2333                           ; Number of cases is 7, Range of values is 0 to 7
  2334                           ; switch strategies available:
  2335                           ; Name         Instructions Cycles
  2336                           ; simple_byte           22    12 (average)
  2337                           ; direct_byte           32     8 (fixed)
  2338                           ; jumptable            260     6 (fixed)
  2339                           ;	Chosen strategy is simple_byte
  2340  14C1  0870               	movf	??_conf_osc,w
  2341  14C2  3A00               	xorlw	0	; case 0
  2342  14C3  1903               	skipnz
  2343  14C4  2C87               	goto	l2768
  2344  14C5  3A01               	xorlw	1	; case 1
  2345  14C6  1903               	skipnz
  2346  14C7  2C8C               	goto	l2770
  2347  14C8  3A03               	xorlw	3	; case 2
  2348  14C9  1903               	skipnz
  2349  14CA  2C93               	goto	l2772
  2350  14CB  3A01               	xorlw	1	; case 3
  2351  14CC  1903               	skipnz
  2352  14CD  2C98               	goto	l2774
  2353  14CE  3A07               	xorlw	7	; case 4
  2354  14CF  1903               	skipnz
  2355  14D0  2C9F               	goto	l2776
  2356  14D1  3A01               	xorlw	1	; case 5
  2357  14D2  1903               	skipnz
  2358  14D3  2CA6               	goto	l2778
  2359  14D4  3A02               	xorlw	2	; case 7
  2360  14D5  1903               	skipnz
  2361  14D6  2CAD               	goto	l2780
  2362  14D7  2CB2               	goto	l2782
  2363  14D8                     l11:
  2364                           
  2365                           ;configuraciones_pic.c: 50:     OSCCONbits.SCS = 1;
  2366  14D8  140F               	bsf	15,0	;volatile
  2367  14D9                     l19:
  2368  14D9  0008               	return
  2369  14DA                     __end_of_conf_osc:
  2370                           
  2371                           	psect	text7
  2372  169F                     __ptext7:	
  2373 ;; *************** function _mensaje *****************
  2374 ;; Defined at:
  2375 ;;		line 91 in file "Lab03_master.c"
  2376 ;; Parameters:    Size  Location     Type
  2377 ;;		None
  2378 ;; Auto vars:     Size  Location     Type
  2379 ;;		None
  2380 ;; Return value:  Size  Location     Type
  2381 ;;                  1    wreg      void 
  2382 ;; Registers used:
  2383 ;;		wreg, fsr0l, fsr0h, status,2, status,0, btemp+1, pclath, cstack
  2384 ;; Tracked objects:
  2385 ;;		On entry : 0/0
  2386 ;;		On exit  : 0/0
  2387 ;;		Unchanged: 0/0
  2388 ;; Data sizes:     COMMON   BANK0   BANK1   BANK3   BANK2
  2389 ;;      Params:         0       0       0       0       0
  2390 ;;      Locals:         0       0       0       0       0
  2391 ;;      Temps:          0       5       0       0       0
  2392 ;;      Totals:         0       5       0       0       0
  2393 ;;Total ram usage:        5 bytes
  2394 ;; Hardware stack levels used:    1
  2395 ;; Hardware stack levels required when called:    4
  2396 ;; This function calls:
  2397 ;;		_concatenar
  2398 ;;		_printf
  2399 ;; This function is called by:
  2400 ;;		_main
  2401 ;; This function uses a non-reentrant model
  2402 ;;
  2403                           
  2404                           
  2405                           ;psect for function _mensaje
  2406  169F                     _mensaje:
  2407  169F                     l3294:	
  2408                           ;incstack = 0
  2409                           ; Regs used in _mensaje: [wreg-fsr0h+status,2+status,0+btemp+1+pclath+cstack]
  2410                           
  2411                           
  2412                           ;Lab03_master.c: 92:         unidad = RCREG - 48;
  2413  169F  3004               	movlw	4
  2414  16A0  1283               	bcf	3,5	;RP0=0, select bank0
  2415  16A1  1303               	bcf	3,6	;RP1=0, select bank0
  2416  16A2  00E6               	movwf	??_mensaje+2
  2417  16A3  300C               	movlw	12
  2418  16A4  00E5               	movwf	??_mensaje+1
  2419  16A5  3033               	movlw	51
  2420  16A6  00E4               	movwf	??_mensaje
  2421  16A7                     u4377:
  2422  16A7  0BE4               	decfsz	??_mensaje,f
  2423  16A8  2EA7               	goto	u4377
  2424  16A9  0BE5               	decfsz	??_mensaje+1,f
  2425  16AA  2EA7               	goto	u4377
  2426  16AB  0BE6               	decfsz	??_mensaje+2,f
  2427  16AC  2EA7               	goto	u4377
  2428  16AD                     l3296:
  2429                           
  2430                           ;Lab03_master.c: 93: 
  2431  16AD  307D               	movlw	(low ((STR_1-__stringbase)| (0+32768)))& (0+255)
  2432  16AE  1283               	bcf	3,5	;RP0=0, select bank0
  2433  16AF  1303               	bcf	3,6	;RP1=0, select bank0
  2434  16B0  00AD               	movwf	printf@f
  2435  16B1  3080               	movlw	128
  2436  16B2  00AE               	movwf	printf@f+1
  2437  16B3  160A  118A  22B9  160A  118A  	fcall	_printf
  2438  16B8                     l3298:
  2439                           
  2440                           ;Lab03_master.c: 94:        if(centena == 2 && decena == 5){
  2441  16B8  3004               	movlw	4
  2442  16B9  1283               	bcf	3,5	;RP0=0, select bank0
  2443  16BA  1303               	bcf	3,6	;RP1=0, select bank0
  2444  16BB  00E6               	movwf	??_mensaje+2
  2445  16BC  300C               	movlw	12
  2446  16BD  00E5               	movwf	??_mensaje+1
  2447  16BE  3033               	movlw	51
  2448  16BF  00E4               	movwf	??_mensaje
  2449  16C0                     u4387:
  2450  16C0  0BE4               	decfsz	??_mensaje,f
  2451  16C1  2EC0               	goto	u4387
  2452  16C2  0BE5               	decfsz	??_mensaje+1,f
  2453  16C3  2EC0               	goto	u4387
  2454  16C4  0BE6               	decfsz	??_mensaje+2,f
  2455  16C5  2EC0               	goto	u4387
  2456                           
  2457                           ;Lab03_master.c: 95:            while(RCREG > '5'){
  2458  16C6  30B8               	movlw	(low (_adc0| 0))& (0+255)
  2459  16C7  1283               	bcf	3,5	;RP0=0, select bank0
  2460  16C8  1303               	bcf	3,6	;RP1=0, select bank0
  2461  16C9  00AD               	movwf	printf@f
  2462  16CA  3000               	movlw	0
  2463  16CB  00AE               	movwf	printf@f+1
  2464  16CC  160A  118A  22B9  160A  118A  	fcall	_printf
  2465                           
  2466                           ;Lab03_master.c: 96:                goto chistosito3;
  2467  16D1  306B               	movlw	(low ((STR_2-__stringbase)| (0+32768)))& (0+255)
  2468  16D2  1283               	bcf	3,5	;RP0=0, select bank0
  2469  16D3  1303               	bcf	3,6	;RP1=0, select bank0
  2470  16D4  00AD               	movwf	printf@f
  2471  16D5  3080               	movlw	128
  2472  16D6  00AE               	movwf	printf@f+1
  2473  16D7  160A  118A  22B9  160A  118A  	fcall	_printf
  2474  16DC                     l3300:
  2475                           
  2476                           ;Lab03_master.c: 98:        }
  2477  16DC  3004               	movlw	4
  2478  16DD  1283               	bcf	3,5	;RP0=0, select bank0
  2479  16DE  1303               	bcf	3,6	;RP1=0, select bank0
  2480  16DF  00E6               	movwf	??_mensaje+2
  2481  16E0  300C               	movlw	12
  2482  16E1  00E5               	movwf	??_mensaje+1
  2483  16E2  3033               	movlw	51
  2484  16E3  00E4               	movwf	??_mensaje
  2485  16E4                     u4397:
  2486  16E4  0BE4               	decfsz	??_mensaje,f
  2487  16E5  2EE4               	goto	u4397
  2488  16E6  0BE5               	decfsz	??_mensaje+1,f
  2489  16E7  2EE4               	goto	u4397
  2490  16E8  0BE6               	decfsz	??_mensaje+2,f
  2491  16E9  2EE4               	goto	u4397
  2492  16EA                     l3302:
  2493                           
  2494                           ;Lab03_master.c: 99:       concatenado = concatenar(centena, decena);
  2495  16EA  308C               	movlw	(low ((STR_3-__stringbase)| (0+32768)))& (0+255)
  2496  16EB  1283               	bcf	3,5	;RP0=0, select bank0
  2497  16EC  1303               	bcf	3,6	;RP1=0, select bank0
  2498  16ED  00AD               	movwf	printf@f
  2499  16EE  3080               	movlw	128
  2500  16EF  00AE               	movwf	printf@f+1
  2501  16F0  160A  118A  22B9  160A  118A  	fcall	_printf
  2502                           
  2503                           ;Lab03_master.c: 100:       full = concatenar(concatenado, unidad);
  2504  16F5  3004               	movlw	4
  2505  16F6  1283               	bcf	3,5	;RP0=0, select bank0
  2506  16F7  1303               	bcf	3,6	;RP1=0, select bank0
  2507  16F8  00E6               	movwf	??_mensaje+2
  2508  16F9  300C               	movlw	12
  2509  16FA  00E5               	movwf	??_mensaje+1
  2510  16FB  3033               	movlw	51
  2511  16FC  00E4               	movwf	??_mensaje
  2512  16FD                     u4407:
  2513  16FD  0BE4               	decfsz	??_mensaje,f
  2514  16FE  2EFD               	goto	u4407
  2515  16FF  0BE5               	decfsz	??_mensaje+1,f
  2516  1700  2EFD               	goto	u4407
  2517  1701  0BE6               	decfsz	??_mensaje+2,f
  2518  1702  2EFD               	goto	u4407
  2519  1703                     l3304:
  2520                           
  2521                           ;Lab03_master.c: 101:       _delay((unsigned long)((250)*(8000000/4000.0)));
  2522  1703  30AE               	movlw	(low (_adc1| 0))& (0+255)
  2523  1704  1283               	bcf	3,5	;RP0=0, select bank0
  2524  1705  1303               	bcf	3,6	;RP1=0, select bank0
  2525  1706  00AD               	movwf	printf@f
  2526  1707  3000               	movlw	0
  2527  1708  00AE               	movwf	printf@f+1
  2528  1709  160A  118A  22B9  160A  118A  	fcall	_printf
  2529  170E                     l3306:
  2530                           
  2531                           ;Lab03_master.c: 102:     printf("El numero elegido es: %d", full);
  2532  170E  3004               	movlw	4
  2533  170F  1283               	bcf	3,5	;RP0=0, select bank0
  2534  1710  1303               	bcf	3,6	;RP1=0, select bank0
  2535  1711  00E6               	movwf	??_mensaje+2
  2536  1712  300C               	movlw	12
  2537  1713  00E5               	movwf	??_mensaje+1
  2538  1714  3033               	movlw	51
  2539  1715  00E4               	movwf	??_mensaje
  2540  1716                     u4417:
  2541  1716  0BE4               	decfsz	??_mensaje,f
  2542  1717  2F16               	goto	u4417
  2543  1718  0BE5               	decfsz	??_mensaje+1,f
  2544  1719  2F16               	goto	u4417
  2545  171A  0BE6               	decfsz	??_mensaje+2,f
  2546  171B  2F16               	goto	u4417
  2547                           
  2548                           ;Lab03_master.c: 103: 
  2549  171C  306B               	movlw	(low ((STR_2-__stringbase)| (0+32768)))& (0+255)
  2550  171D  1283               	bcf	3,5	;RP0=0, select bank0
  2551  171E  1303               	bcf	3,6	;RP1=0, select bank0
  2552  171F  00AD               	movwf	printf@f
  2553  1720  3080               	movlw	128
  2554  1721  00AE               	movwf	printf@f+1
  2555  1722  160A  118A  22B9  160A  118A  	fcall	_printf
  2556                           
  2557                           ;Lab03_master.c: 105: }
  2558  1727  300B               	movlw	(low ((STR_5-__stringbase)| (0+32768)))& (0+255)
  2559  1728  1283               	bcf	3,5	;RP0=0, select bank0
  2560  1729  1303               	bcf	3,6	;RP1=0, select bank0
  2561  172A  00AD               	movwf	printf@f
  2562  172B  3080               	movlw	128
  2563  172C  00AE               	movwf	printf@f+1
  2564  172D  160A  118A  22B9  160A  118A  	fcall	_printf
  2565  1732                     l130:
  2566  1732  1283               	bcf	3,5	;RP0=0, select bank0
  2567  1733  1303               	bcf	3,6	;RP1=0, select bank0
  2568  1734  1E8C               	btfss	12,5	;volatile
  2569  1735  2F37               	goto	u4151
  2570  1736  2F38               	goto	u4150
  2571  1737                     u4151:
  2572  1737  2F32               	goto	l130
  2573  1738                     u4150:
  2574  1738                     l3308:
  2575                           
  2576                           ;Lab03_master.c: 108:     while(TXIF == 0);
  2577  1738  081A               	movf	26,w	;volatile
  2578  1739  3ED0               	addlw	208
  2579  173A  00E4               	movwf	??_mensaje
  2580  173B  0864               	movf	??_mensaje,w
  2581  173C  00EE               	movwf	_centena
  2582  173D                     l3310:	
  2583                           ;Lab03_master.c: 110:     return;
  2584                           
  2585                           
  2586                           ;Lab03_master.c: 110:     return;
  2587  173D  3033               	movlw	51
  2588  173E  021A               	subwf	26,w	;volatile
  2589  173F  1803               	skipnc
  2590  1740  2F42               	goto	u4161
  2591  1741  2F43               	goto	u4160
  2592  1742                     u4161:
  2593  1742  2F32               	goto	l130
  2594  1743                     u4160:
  2595  1743                     l3312:
  2596                           
  2597                           ;Lab03_master.c: 115:     char s2[20];
  2598  1743  3057               	movlw	(low ((STR_6-__stringbase)| (0+32768)))& (0+255)
  2599  1744  00AD               	movwf	printf@f
  2600  1745  3080               	movlw	128
  2601  1746  00AE               	movwf	printf@f+1
  2602  1747  160A  118A  22B9  160A  118A  	fcall	_printf
  2603  174C                     l137:
  2604  174C  1283               	bcf	3,5	;RP0=0, select bank0
  2605  174D  1303               	bcf	3,6	;RP1=0, select bank0
  2606  174E  1E8C               	btfss	12,5	;volatile
  2607  174F  2F51               	goto	u4171
  2608  1750  2F52               	goto	u4170
  2609  1751                     u4171:
  2610  1751  2F4C               	goto	l137
  2611  1752                     u4170:
  2612  1752                     l3314:
  2613                           
  2614                           ;Lab03_master.c: 118:     sprintf(s1, "%d", a);
  2615  1752  081A               	movf	26,w	;volatile
  2616  1753  3ED0               	addlw	208
  2617  1754  00E4               	movwf	??_mensaje
  2618  1755  0864               	movf	??_mensaje,w
  2619  1756  1683               	bsf	3,5	;RP0=1, select bank1
  2620  1757  1303               	bcf	3,6	;RP1=0, select bank1
  2621  1758  00AB               	movwf	_decena^(0+128)
  2622                           
  2623                           ;Lab03_master.c: 120: 
  2624  1759  3002               	movlw	2
  2625  175A  1283               	bcf	3,5	;RP0=0, select bank0
  2626  175B  1303               	bcf	3,6	;RP1=0, select bank0
  2627  175C  066E               	xorwf	_centena,w
  2628  175D  1D03               	btfss	3,2
  2629  175E  2F60               	goto	u4181
  2630  175F  2F61               	goto	u4180
  2631  1760                     u4181:
  2632  1760  2F67               	goto	l3320
  2633  1761                     u4180:
  2634  1761                     l3318:
  2635                           
  2636                           ;Lab03_master.c: 121: 
  2637  1761  3036               	movlw	54
  2638  1762  021A               	subwf	26,w	;volatile
  2639  1763  1803               	skipnc
  2640  1764  2F66               	goto	u4191
  2641  1765  2F67               	goto	u4190
  2642  1766                     u4191:
  2643  1766  2F4C               	goto	l137
  2644  1767                     u4190:
  2645  1767                     l3320:
  2646                           
  2647                           ;Lab03_master.c: 126: 
  2648  1767  3042               	movlw	(low ((STR_7-__stringbase)| (0+32768)))& (0+255)
  2649  1768  00AD               	movwf	printf@f
  2650  1769  3080               	movlw	128
  2651  176A  00AE               	movwf	printf@f+1
  2652  176B  160A  118A  22B9  160A  118A  	fcall	_printf
  2653  1770                     l145:
  2654  1770  1283               	bcf	3,5	;RP0=0, select bank0
  2655  1771  1303               	bcf	3,6	;RP1=0, select bank0
  2656  1772  1E8C               	btfss	12,5	;volatile
  2657  1773  2F75               	goto	u4201
  2658  1774  2F76               	goto	u4200
  2659  1775                     u4201:
  2660  1775  2F70               	goto	l145
  2661  1776                     u4200:
  2662  1776                     l3322:
  2663                           
  2664                           ;Lab03_master.c: 129: }
  2665  1776  081A               	movf	26,w	;volatile
  2666  1777  3ED0               	addlw	208
  2667  1778  00E4               	movwf	??_mensaje
  2668  1779  0864               	movf	??_mensaje,w
  2669  177A  1683               	bsf	3,5	;RP0=1, select bank1
  2670  177B  1303               	bcf	3,6	;RP1=0, select bank1
  2671  177C  00AC               	movwf	_unidad^(0+128)
  2672                           
  2673                           ;Lab03_master.c: 131: void setup (void){
  2674  177D  3002               	movlw	2
  2675  177E  1283               	bcf	3,5	;RP0=0, select bank0
  2676  177F  1303               	bcf	3,6	;RP1=0, select bank0
  2677  1780  066E               	xorwf	_centena,w
  2678  1781  1D03               	btfss	3,2
  2679  1782  2F84               	goto	u4211
  2680  1783  2F85               	goto	u4210
  2681  1784                     u4211:
  2682  1784  2F95               	goto	l3330
  2683  1785                     u4210:
  2684  1785                     l3324:
  2685  1785  3005               	movlw	5
  2686  1786  1683               	bsf	3,5	;RP0=1, select bank1
  2687  1787  1303               	bcf	3,6	;RP1=0, select bank1
  2688  1788  062B               	xorwf	_decena^(0+128),w
  2689  1789  1D03               	btfss	3,2
  2690  178A  2F8C               	goto	u4221
  2691  178B  2F8D               	goto	u4220
  2692  178C                     u4221:
  2693  178C  2F95               	goto	l3330
  2694  178D                     u4220:
  2695  178D                     l3328:
  2696                           
  2697                           ;Lab03_master.c: 132:     ANSEL = 0x00;
  2698  178D  3036               	movlw	54
  2699  178E  1283               	bcf	3,5	;RP0=0, select bank0
  2700  178F  1303               	bcf	3,6	;RP1=0, select bank0
  2701  1790  021A               	subwf	26,w	;volatile
  2702  1791  1803               	skipnc
  2703  1792  2F94               	goto	u4231
  2704  1793  2F95               	goto	u4230
  2705  1794                     u4231:
  2706  1794  2F70               	goto	l145
  2707  1795                     u4230:
  2708  1795                     l3330:
  2709                           
  2710                           ;Lab03_master.c: 136:     TRISD = 0x00;
  2711  1795  1283               	bcf	3,5	;RP0=0, select bank0
  2712  1796  086E               	movf	_centena,w
  2713  1797  00E4               	movwf	??_mensaje
  2714  1798  01E5               	clrf	??_mensaje+1
  2715  1799  0864               	movf	??_mensaje,w
  2716  179A  00B5               	movwf	concatenar@a
  2717  179B  0865               	movf	??_mensaje+1,w
  2718  179C  00B6               	movwf	concatenar@a+1
  2719  179D  1683               	bsf	3,5	;RP0=1, select bank1
  2720  179E  1303               	bcf	3,6	;RP1=0, select bank1
  2721  179F  082B               	movf	_decena^(0+128),w
  2722  17A0  1283               	bcf	3,5	;RP0=0, select bank0
  2723  17A1  1303               	bcf	3,6	;RP1=0, select bank0
  2724  17A2  00E6               	movwf	??_mensaje+2
  2725  17A3  01E7               	clrf	??_mensaje+3
  2726  17A4  0866               	movf	??_mensaje+2,w
  2727  17A5  00B7               	movwf	concatenar@b
  2728  17A6  0867               	movf	??_mensaje+3,w
  2729  17A7  00B8               	movwf	concatenar@b+1
  2730  17A8  160A  118A  2404  160A  118A  	fcall	_concatenar
  2731  17AD  1283               	bcf	3,5	;RP0=0, select bank0
  2732  17AE  1303               	bcf	3,6	;RP1=0, select bank0
  2733  17AF  0835               	movf	?_concatenar,w
  2734  17B0  00E8               	movwf	??_mensaje+4
  2735  17B1  0868               	movf	??_mensaje+4,w
  2736  17B2  1683               	bsf	3,5	;RP0=1, select bank1
  2737  17B3  1303               	bcf	3,6	;RP1=0, select bank1
  2738  17B4  00AA               	movwf	_concatenado^(0+128)
  2739                           
  2740                           ;Lab03_master.c: 137: 
  2741  17B5  082A               	movf	_concatenado^(0+128),w
  2742  17B6  1283               	bcf	3,5	;RP0=0, select bank0
  2743  17B7  1303               	bcf	3,6	;RP1=0, select bank0
  2744  17B8  00E4               	movwf	??_mensaje
  2745  17B9  01E5               	clrf	??_mensaje+1
  2746  17BA  0864               	movf	??_mensaje,w
  2747  17BB  00B5               	movwf	concatenar@a
  2748  17BC  0865               	movf	??_mensaje+1,w
  2749  17BD  00B6               	movwf	concatenar@a+1
  2750  17BE  1683               	bsf	3,5	;RP0=1, select bank1
  2751  17BF  1303               	bcf	3,6	;RP1=0, select bank1
  2752  17C0  082C               	movf	_unidad^(0+128),w
  2753  17C1  1283               	bcf	3,5	;RP0=0, select bank0
  2754  17C2  1303               	bcf	3,6	;RP1=0, select bank0
  2755  17C3  00E6               	movwf	??_mensaje+2
  2756  17C4  01E7               	clrf	??_mensaje+3
  2757  17C5  0866               	movf	??_mensaje+2,w
  2758  17C6  00B7               	movwf	concatenar@b
  2759  17C7  0867               	movf	??_mensaje+3,w
  2760  17C8  00B8               	movwf	concatenar@b+1
  2761  17C9  160A  118A  2404  160A  118A  	fcall	_concatenar
  2762  17CE  1283               	bcf	3,5	;RP0=0, select bank0
  2763  17CF  1303               	bcf	3,6	;RP1=0, select bank0
  2764  17D0  0836               	movf	?_concatenar+1,w
  2765  17D1  1683               	bsf	3,5	;RP0=1, select bank1
  2766  17D2  1303               	bcf	3,6	;RP1=0, select bank1
  2767  17D3  00A9               	movwf	(_full+1)^(0+128)
  2768  17D4  1283               	bcf	3,5	;RP0=0, select bank0
  2769  17D5  1303               	bcf	3,6	;RP1=0, select bank0
  2770  17D6  0835               	movf	?_concatenar,w
  2771  17D7  1683               	bsf	3,5	;RP0=1, select bank1
  2772  17D8  1303               	bcf	3,6	;RP1=0, select bank1
  2773  17D9  00A8               	movwf	_full^(0+128)
  2774  17DA                     l3332:
  2775                           
  2776                           ;Lab03_master.c: 138: 
  2777  17DA  3003               	movlw	3
  2778  17DB  1283               	bcf	3,5	;RP0=0, select bank0
  2779  17DC  1303               	bcf	3,6	;RP1=0, select bank0
  2780  17DD  00E6               	movwf	??_mensaje+2
  2781  17DE  308A               	movlw	138
  2782  17DF  00E5               	movwf	??_mensaje+1
  2783  17E0  3055               	movlw	85
  2784  17E1  00E4               	movwf	??_mensaje
  2785  17E2                     u4427:
  2786  17E2  0BE4               	decfsz	??_mensaje,f
  2787  17E3  2FE2               	goto	u4427
  2788  17E4  0BE5               	decfsz	??_mensaje+1,f
  2789  17E5  2FE2               	goto	u4427
  2790  17E6  0BE6               	decfsz	??_mensaje+2,f
  2791  17E7  2FE2               	goto	u4427
  2792  17E8                     l3334:
  2793                           
  2794                           ;Lab03_master.c: 139:     PORTB = 0x00;
  2795  17E8  3029               	movlw	(low ((STR_8-__stringbase)| (0+32768)))& (0+255)
  2796  17E9  1283               	bcf	3,5	;RP0=0, select bank0
  2797  17EA  1303               	bcf	3,6	;RP1=0, select bank0
  2798  17EB  00AD               	movwf	printf@f
  2799  17EC  3080               	movlw	128
  2800  17ED  00AE               	movwf	printf@f+1
  2801  17EE  1683               	bsf	3,5	;RP0=1, select bank1
  2802  17EF  1303               	bcf	3,6	;RP1=0, select bank1
  2803  17F0  0829               	movf	(_full+1)^(0+128),w
  2804  17F1  1283               	bcf	3,5	;RP0=0, select bank0
  2805  17F2  1303               	bcf	3,6	;RP1=0, select bank0
  2806  17F3  00B0               	movwf	?_printf+3
  2807  17F4  1683               	bsf	3,5	;RP0=1, select bank1
  2808  17F5  1303               	bcf	3,6	;RP1=0, select bank1
  2809  17F6  0828               	movf	_full^(0+128),w
  2810  17F7  1283               	bcf	3,5	;RP0=0, select bank0
  2811  17F8  1303               	bcf	3,6	;RP1=0, select bank0
  2812  17F9  00AF               	movwf	?_printf+2
  2813  17FA  160A  118A  22B9  160A  118A  	fcall	_printf
  2814  17FF                     l152:
  2815  17FF  0008               	return
  2816  1800                     __end_of_mensaje:
  2817                           
  2818                           	psect	text8
  2819  12B9                     __ptext8:	
  2820 ;; *************** function _printf *****************
  2821 ;; Defined at:
  2822 ;;		line 13 in file "C:\Program Files\Microchip\xc8\v2.31\pic\sources\c90\common\printf.c"
  2823 ;; Parameters:    Size  Location     Type
  2824 ;;  f               2   13[BANK0 ] PTR const unsigned char 
  2825 ;;		 -> STR_8(25), STR_7(21), STR_6(20), STR_5(30), 
  2826 ;;		 -> STR_4(18), STR_3(15), STR_2(18), STR_1(15), 
  2827 ;;		 -> adc1(10), adc0(10), 
  2828 ;; Auto vars:     Size  Location     Type
  2829 ;;  pb              2   19[BANK0 ] struct __prbuf
  2830 ;;  ap              1   18[BANK0 ] PTR void [1]
  2831 ;;		 -> ?_sprintf(2), ?_printf(2), 
  2832 ;; Return value:  Size  Location     Type
  2833 ;;                  2   13[BANK0 ] int 
  2834 ;; Registers used:
  2835 ;;		wreg, fsr0l, fsr0h, status,2, status,0, btemp+1, pclath, cstack
  2836 ;; Tracked objects:
  2837 ;;		On entry : 0/0
  2838 ;;		On exit  : 0/0
  2839 ;;		Unchanged: 0/0
  2840 ;; Data sizes:     COMMON   BANK0   BANK1   BANK3   BANK2
  2841 ;;      Params:         0       4       0       0       0
  2842 ;;      Locals:         0       3       0       0       0
  2843 ;;      Temps:          0       1       0       0       0
  2844 ;;      Totals:         0       8       0       0       0
  2845 ;;Total ram usage:        8 bytes
  2846 ;; Hardware stack levels used:    1
  2847 ;; Hardware stack levels required when called:    2
  2848 ;; This function calls:
  2849 ;;		__doprnt
  2850 ;; This function is called by:
  2851 ;;		_mensaje
  2852 ;; This function uses a non-reentrant model
  2853 ;;
  2854                           
  2855                           
  2856                           ;psect for function _printf
  2857  12B9                     _printf:
  2858  12B9                     l2792:	
  2859                           ;incstack = 0
  2860                           ; Regs used in _printf: [wreg-fsr0h+status,2+status,0+btemp+1+pclath+cstack]
  2861                           
  2862  12B9  1283               	bcf	3,5	;RP0=0, select bank0
  2863  12BA  1303               	bcf	3,6	;RP1=0, select bank0
  2864  12BB  01B3               	clrf	printf@pb
  2865  12BC                     l2794:
  2866  12BC  3001               	movlw	(low (fp__putch-fpbase))& (0+255)
  2867  12BD  00B1               	movwf	??_printf
  2868  12BE  0831               	movf	??_printf,w
  2869  12BF  00B4               	movwf	low ((printf@pb| 0+1))
  2870  12C0                     l2796:
  2871  12C0  302F               	movlw	(low ((?_printf| 0+2)))& (0+255)
  2872  12C1  00B1               	movwf	??_printf
  2873  12C2  0831               	movf	??_printf,w
  2874  12C3  00B2               	movwf	printf@ap
  2875  12C4                     l2798:
  2876                           
  2877                           ;	Return value of _printf is never used
  2878  12C4  082D               	movf	printf@f,w
  2879  12C5  00A0               	movwf	__doprnt@f
  2880  12C6  082E               	movf	printf@f+1,w
  2881  12C7  00A1               	movwf	__doprnt@f+1
  2882  12C8  3032               	movlw	(low (printf@ap| 0))& (0+255)
  2883  12C9  00B1               	movwf	??_printf
  2884  12CA  0831               	movf	??_printf,w
  2885  12CB  00A2               	movwf	__doprnt@ap
  2886  12CC  3033               	movlw	(low (printf@pb| 0))& (0+255)
  2887  12CD  120A  158A  2092  160A  118A  	fcall	__doprnt
  2888  12D2                     l874:
  2889  12D2  0008               	return
  2890  12D3                     __end_of_printf:
  2891                           
  2892                           	psect	text9
  2893  1404                     __ptext9:	
  2894 ;; *************** function _concatenar *****************
  2895 ;; Defined at:
  2896 ;;		line 150 in file "Lab03_master.c"
  2897 ;; Parameters:    Size  Location     Type
  2898 ;;  a               2   21[BANK0 ] int 
  2899 ;;  b               2   23[BANK0 ] int 
  2900 ;; Auto vars:     Size  Location     Type
  2901 ;;  s1             20   46[BANK0 ] unsigned char [20]
  2902 ;;  s2             20   26[BANK0 ] unsigned char [20]
  2903 ;;  c               2   66[BANK0 ] int 
  2904 ;; Return value:  Size  Location     Type
  2905 ;;                  2   21[BANK0 ] int 
  2906 ;; Registers used:
  2907 ;;		wreg, fsr0l, fsr0h, status,2, status,0, btemp+1, pclath, cstack
  2908 ;; Tracked objects:
  2909 ;;		On entry : 0/0
  2910 ;;		On exit  : 0/0
  2911 ;;		Unchanged: 0/0
  2912 ;; Data sizes:     COMMON   BANK0   BANK1   BANK3   BANK2
  2913 ;;      Params:         0       4       0       0       0
  2914 ;;      Locals:         0      42       0       0       0
  2915 ;;      Temps:          0       1       0       0       0
  2916 ;;      Totals:         0      47       0       0       0
  2917 ;;Total ram usage:       47 bytes
  2918 ;; Hardware stack levels used:    1
  2919 ;; Hardware stack levels required when called:    3
  2920 ;; This function calls:
  2921 ;;		_atoi
  2922 ;;		_sprintf
  2923 ;;		_strcat
  2924 ;; This function is called by:
  2925 ;;		_mensaje
  2926 ;; This function uses a non-reentrant model
  2927 ;;
  2928                           
  2929                           
  2930                           ;psect for function _concatenar
  2931  1404                     _concatenar:
  2932  1404                     l2802:	
  2933                           ;incstack = 0
  2934                           ; Regs used in _concatenar: [wreg-fsr0h+status,2+status,0+btemp+1+pclath+cstack]
  2935                           
  2936                           
  2937                           ;Lab03_master.c: 151:     TXSTAbits.SYNC = 0;;Lab03_master.c: 152:     TXSTAbits.BRGH = 
      +                          1;;Lab03_master.c: 155:     SPBRG = 207;
  2938  1404  303F               	movlw	(low (((STR_8+22)-__stringbase)| (0+32768)))& (0+255)
  2939  1405  1283               	bcf	3,5	;RP0=0, select bank0
  2940  1406  1303               	bcf	3,6	;RP1=0, select bank0
  2941  1407  00B9               	movwf	??_concatenar
  2942  1408  0839               	movf	??_concatenar,w
  2943  1409  00AD               	movwf	sprintf@f
  2944  140A  0836               	movf	concatenar@a+1,w
  2945  140B  00AF               	movwf	?_sprintf+2
  2946  140C  0835               	movf	concatenar@a,w
  2947  140D  00AE               	movwf	?_sprintf+1
  2948  140E  304E               	movlw	(low (concatenar@s1| 0))& (0+255)
  2949  140F  160A  118A  22D3  160A  118A  	fcall	_sprintf
  2950                           
  2951                           ;Lab03_master.c: 156:     SPBRGH = 0;
  2952  1414  303F               	movlw	(low (((STR_8+22)-__stringbase)| (0+32768)))& (0+255)
  2953  1415  1283               	bcf	3,5	;RP0=0, select bank0
  2954  1416  1303               	bcf	3,6	;RP1=0, select bank0
  2955  1417  00B9               	movwf	??_concatenar
  2956  1418  0839               	movf	??_concatenar,w
  2957  1419  00AD               	movwf	sprintf@f
  2958  141A  0838               	movf	concatenar@b+1,w
  2959  141B  00AF               	movwf	?_sprintf+2
  2960  141C  0837               	movf	concatenar@b,w
  2961  141D  00AE               	movwf	?_sprintf+1
  2962  141E  303A               	movlw	(low (concatenar@s2| 0))& (0+255)
  2963  141F  160A  118A  22D3  160A  118A  	fcall	_sprintf
  2964  1424                     l2804:
  2965                           
  2966                           ;Lab03_master.c: 159:     RCSTAbits.RX9 = 0;
  2967  1424  303A               	movlw	(low (concatenar@s2| 0))& (0+255)
  2968  1425  1283               	bcf	3,5	;RP0=0, select bank0
  2969  1426  1303               	bcf	3,6	;RP1=0, select bank0
  2970  1427  00B9               	movwf	??_concatenar
  2971  1428  0839               	movf	??_concatenar,w
  2972  1429  00F0               	movwf	strcat@from
  2973  142A  304E               	movlw	(low (concatenar@s1| 0))& (0+255)
  2974  142B  160A  118A  2368  160A  118A  	fcall	_strcat
  2975  1430                     l2806:
  2976                           
  2977                           ;Lab03_master.c: 162: 
  2978  1430  304E               	movlw	(low (concatenar@s1| 0))& (0+255)
  2979  1431  120A  118A  200C  160A  118A  	fcall	_atoi
  2980  1436  1283               	bcf	3,5	;RP0=0, select bank0
  2981  1437  1303               	bcf	3,6	;RP1=0, select bank0
  2982  1438  0825               	movf	?_atoi+1,w
  2983  1439  00E3               	movwf	concatenar@c+1
  2984  143A  0824               	movf	?_atoi,w
  2985  143B  00E2               	movwf	concatenar@c
  2986  143C                     l2808:
  2987                           
  2988                           ;Lab03_master.c: 165:     INTCONbits.PEIE = 1;
  2989  143C  0863               	movf	concatenar@c+1,w
  2990  143D  00B6               	movwf	?_concatenar+1
  2991  143E  0862               	movf	concatenar@c,w
  2992  143F  00B5               	movwf	?_concatenar
  2993  1440                     l161:
  2994  1440  0008               	return
  2995  1441                     __end_of_concatenar:
  2996                           
  2997                           	psect	text10
  2998  1368                     __ptext10:	
  2999 ;; *************** function _strcat *****************
  3000 ;; Defined at:
  3001 ;;		line 8 in file "C:\Program Files\Microchip\xc8\v2.31\pic\sources\c90\common\strcat.c"
  3002 ;; Parameters:    Size  Location     Type
  3003 ;;  to              1    wreg     PTR unsigned char 
  3004 ;;		 -> concatenar@s1(20), 
  3005 ;;  from            1    0[COMMON] PTR const unsigned char 
  3006 ;;		 -> concatenar@s2(20), 
  3007 ;; Auto vars:     Size  Location     Type
  3008 ;;  to              1    2[COMMON] PTR unsigned char 
  3009 ;;		 -> concatenar@s1(20), 
  3010 ;;  cp              1    3[COMMON] PTR unsigned char 
  3011 ;;		 -> concatenar@s1(20), 
  3012 ;; Return value:  Size  Location     Type
  3013 ;;                  1    wreg      PTR unsigned char 
  3014 ;; Registers used:
  3015 ;;		wreg, fsr0l, fsr0h, status,2, status,0
  3016 ;; Tracked objects:
  3017 ;;		On entry : 0/0
  3018 ;;		On exit  : 0/0
  3019 ;;		Unchanged: 0/0
  3020 ;; Data sizes:     COMMON   BANK0   BANK1   BANK3   BANK2
  3021 ;;      Params:         1       0       0       0       0
  3022 ;;      Locals:         2       0       0       0       0
  3023 ;;      Temps:          1       0       0       0       0
  3024 ;;      Totals:         4       0       0       0       0
  3025 ;;Total ram usage:        4 bytes
  3026 ;; Hardware stack levels used:    1
  3027 ;; This function calls:
  3028 ;;		Nothing
  3029 ;; This function is called by:
  3030 ;;		_concatenar
  3031 ;; This function uses a non-reentrant model
  3032 ;;
  3033                           
  3034                           
  3035                           ;psect for function _strcat
  3036  1368                     _strcat:
  3037                           
  3038                           ;incstack = 0
  3039                           ; Regs used in _strcat: [wreg-fsr0h+status,2+status,0]
  3040                           ;strcat@to stored from wreg
  3041  1368  00F2               	movwf	strcat@to
  3042  1369                     l2514:
  3043  1369  0872               	movf	strcat@to,w
  3044  136A  00F1               	movwf	??_strcat
  3045  136B  0871               	movf	??_strcat,w
  3046  136C  00F3               	movwf	strcat@cp
  3047  136D  2B72               	goto	l2518
  3048  136E                     l2516:
  3049  136E  3001               	movlw	1
  3050  136F  00F1               	movwf	??_strcat
  3051  1370  0871               	movf	??_strcat,w
  3052  1371  07F3               	addwf	strcat@cp,f
  3053  1372                     l2518:
  3054  1372  0873               	movf	strcat@cp,w
  3055  1373  0084               	movwf	4
  3056  1374  1383               	bcf	3,7	;select IRP bank0
  3057  1375  0800               	movf	0,w
  3058  1376  1D03               	btfss	3,2
  3059  1377  2B79               	goto	u2491
  3060  1378  2B7A               	goto	u2490
  3061  1379                     u2491:
  3062  1379  2B6E               	goto	l2516
  3063  137A                     u2490:
  3064  137A  2B83               	goto	l2522
  3065  137B                     l2520:
  3066  137B  3001               	movlw	1
  3067  137C  00F1               	movwf	??_strcat
  3068  137D  0871               	movf	??_strcat,w
  3069  137E  07F3               	addwf	strcat@cp,f
  3070  137F  3001               	movlw	1
  3071  1380  00F1               	movwf	??_strcat
  3072  1381  0871               	movf	??_strcat,w
  3073  1382  07F0               	addwf	strcat@from,f
  3074  1383                     l2522:
  3075  1383  0870               	movf	strcat@from,w
  3076  1384  0084               	movwf	4
  3077  1385  0800               	movf	0,w
  3078  1386  00F1               	movwf	??_strcat
  3079  1387  0873               	movf	strcat@cp,w
  3080  1388  0084               	movwf	4
  3081  1389  0871               	movf	??_strcat,w
  3082  138A  0080               	movwf	0
  3083  138B  0800               	movf	0,w
  3084  138C  1D03               	btfss	3,2
  3085  138D  2B8F               	goto	u2501
  3086  138E  2B90               	goto	u2500
  3087  138F                     u2501:
  3088  138F  2B7B               	goto	l2520
  3089  1390                     u2500:
  3090  1390                     l932:
  3091  1390  0008               	return
  3092  1391                     __end_of_strcat:
  3093                           
  3094                           	psect	text11
  3095  12D3                     __ptext11:	
  3096 ;; *************** function _sprintf *****************
  3097 ;; Defined at:
  3098 ;;		line 13 in file "C:\Program Files\Microchip\xc8\v2.31\pic\sources\c90\common\sprintf.c"
  3099 ;; Parameters:    Size  Location     Type
  3100 ;;  wh              1    wreg     PTR unsigned char 
  3101 ;;		 -> concatenar@s2(20), concatenar@s1(20), 
  3102 ;;  f               1   13[BANK0 ] PTR const unsigned char 
  3103 ;;		 -> STR_10(3), STR_9(3), 
  3104 ;; Auto vars:     Size  Location     Type
  3105 ;;  wh              1   18[BANK0 ] PTR unsigned char 
  3106 ;;		 -> concatenar@s2(20), concatenar@s1(20), 
  3107 ;;  pb              2   19[BANK0 ] struct __prbuf
  3108 ;;  ap              1   17[BANK0 ] PTR void [1]
  3109 ;;		 -> ?_sprintf(2), ?_printf(2), 
  3110 ;; Return value:  Size  Location     Type
  3111 ;;                  2   13[BANK0 ] int 
  3112 ;; Registers used:
  3113 ;;		wreg, fsr0l, fsr0h, status,2, status,0, btemp+1, pclath, cstack
  3114 ;; Tracked objects:
  3115 ;;		On entry : 0/0
  3116 ;;		On exit  : 0/0
  3117 ;;		Unchanged: 0/0
  3118 ;; Data sizes:     COMMON   BANK0   BANK1   BANK3   BANK2
  3119 ;;      Params:         0       3       0       0       0
  3120 ;;      Locals:         0       4       0       0       0
  3121 ;;      Temps:          0       1       0       0       0
  3122 ;;      Totals:         0       8       0       0       0
  3123 ;;Total ram usage:        8 bytes
  3124 ;; Hardware stack levels used:    1
  3125 ;; Hardware stack levels required when called:    2
  3126 ;; This function calls:
  3127 ;;		__doprnt
  3128 ;; This function is called by:
  3129 ;;		_concatenar
  3130 ;; This function uses a non-reentrant model
  3131 ;;
  3132                           
  3133                           
  3134                           ;psect for function _sprintf
  3135  12D3                     _sprintf:
  3136                           
  3137                           ;incstack = 0
  3138                           ; Regs used in _sprintf: [wreg-fsr0h+status,2+status,0+btemp+1+pclath+cstack]
  3139                           ;sprintf@wh stored from wreg
  3140  12D3  1283               	bcf	3,5	;RP0=0, select bank0
  3141  12D4  1303               	bcf	3,6	;RP1=0, select bank0
  3142  12D5  00B2               	movwf	sprintf@wh
  3143  12D6                     l2502:
  3144  12D6  0832               	movf	sprintf@wh,w
  3145  12D7  00B0               	movwf	??_sprintf
  3146  12D8  0830               	movf	??_sprintf,w
  3147  12D9  00B3               	movwf	sprintf@pb
  3148  12DA                     l2504:
  3149  12DA  01B4               	clrf	low ((sprintf@pb| 0+1))
  3150  12DB                     l2506:
  3151  12DB  302E               	movlw	(low ((?_sprintf| 0+1)))& (0+255)
  3152  12DC  00B0               	movwf	??_sprintf
  3153  12DD  0830               	movf	??_sprintf,w
  3154  12DE  00B1               	movwf	sprintf@ap
  3155  12DF                     l2508:
  3156  12DF  082D               	movf	sprintf@f,w
  3157  12E0  00A0               	movwf	__doprnt@f
  3158  12E1  3000               	movlw	0
  3159  12E2  1D03               	btfss	3,2
  3160  12E3  3080               	movlw	128
  3161  12E4  00A1               	movwf	__doprnt@f+1
  3162  12E5  3031               	movlw	(low (sprintf@ap| 0))& (0+255)
  3163  12E6  00B0               	movwf	??_sprintf
  3164  12E7  0830               	movf	??_sprintf,w
  3165  12E8  00A2               	movwf	__doprnt@ap
  3166  12E9  3033               	movlw	(low (sprintf@pb| 0))& (0+255)
  3167  12EA  120A  158A  2092  160A  118A  	fcall	__doprnt
  3168  12EF                     l2510:
  3169  12EF  1283               	bcf	3,5	;RP0=0, select bank0
  3170  12F0  1303               	bcf	3,6	;RP1=0, select bank0
  3171  12F1  0833               	movf	sprintf@pb,w
  3172  12F2  0084               	movwf	4
  3173  12F3  1383               	bcf	3,7	;select IRP bank0
  3174  12F4  0180               	clrf	0
  3175  12F5                     l923:
  3176  12F5  0008               	return
  3177  12F6                     __end_of_sprintf:
  3178                           
  3179                           	psect	text12
  3180  0892                     __ptext12:	
  3181 ;; *************** function __doprnt *****************
  3182 ;; Defined at:
  3183 ;;		line 471 in file "C:\Program Files\Microchip\xc8\v2.31\pic\sources\c90\common\doprnt.c"
  3184 ;; Parameters:    Size  Location     Type
  3185 ;;  pb              1    wreg     PTR struct __prbuf
  3186 ;;		 -> sprintf@pb(2), printf@pb(2), 
  3187 ;;  f               2    0[BANK0 ] PTR const unsigned char 
  3188 ;;		 -> STR_10(3), STR_9(3), STR_8(25), STR_7(21), 
  3189 ;;		 -> STR_6(20), STR_5(30), STR_4(18), STR_3(15), 
  3190 ;;		 -> STR_2(18), STR_1(15), adc1(10), adc0(10), 
  3191 ;;  ap              1    2[BANK0 ] PTR PTR void 
  3192 ;;		 -> sprintf@ap(1), printf@ap(1), 
  3193 ;; Auto vars:     Size  Location     Type
  3194 ;;  pb              1   12[BANK0 ] PTR struct __prbuf
  3195 ;;		 -> sprintf@pb(2), printf@pb(2), 
  3196 ;;  tmpval          4    0        struct .
  3197 ;;  val             2    9[BANK0 ] unsigned int 
  3198 ;;  cp              2    0        PTR const unsigned char 
  3199 ;;  len             2    0        unsigned int 
  3200 ;;  c               1   11[BANK0 ] unsigned char 
  3201 ;;  prec            1    8[BANK0 ] char 
  3202 ;;  flag            1    7[BANK0 ] unsigned char 
  3203 ;; Return value:  Size  Location     Type
  3204 ;;                  2    0[BANK0 ] int 
  3205 ;; Registers used:
  3206 ;;		wreg, fsr0l, fsr0h, status,2, status,0, btemp+1, pclath, cstack
  3207 ;; Tracked objects:
  3208 ;;		On entry : 0/0
  3209 ;;		On exit  : 0/0
  3210 ;;		Unchanged: 0/0
  3211 ;; Data sizes:     COMMON   BANK0   BANK1   BANK3   BANK2
  3212 ;;      Params:         0       3       0       0       0
  3213 ;;      Locals:         0       6       0       0       0
  3214 ;;      Temps:          0       4       0       0       0
  3215 ;;      Totals:         0      13       0       0       0
  3216 ;;Total ram usage:       13 bytes
  3217 ;; Hardware stack levels used:    1
  3218 ;; Hardware stack levels required when called:    1
  3219 ;; This function calls:
  3220 ;;		Absolute function
  3221 ;;		___lwdiv
  3222 ;;		___lwmod
  3223 ;;		_putch
  3224 ;; This function is called by:
  3225 ;;		_printf
  3226 ;;		_sprintf
  3227 ;; This function uses a non-reentrant model
  3228 ;;
  3229                           
  3230                           
  3231                           ;psect for function __doprnt
  3232  0892                     __doprnt:
  3233                           
  3234                           ;incstack = 0
  3235                           ; Regs used in __doprnt: [wreg-fsr0h+status,2+status,0+btemp+1+pclath+cstack]
  3236                           ;__doprnt@pb stored from wreg
  3237  0892  1283               	bcf	3,5	;RP0=0, select bank0
  3238  0893  1303               	bcf	3,6	;RP1=0, select bank0
  3239  0894  00AC               	movwf	__doprnt@pb
  3240  0895                     l2422:
  3241                           
  3242                           ;C:\Program Files\Microchip\xc8\v2.31\pic\sources\c90\common\doprnt.c: 471: _doprnt(stru
      +                          ct __prbuf * pb, register const char * f, register va_list ap);C:\Program Files\Microchi
      +                          p\xc8\v2.31\pic\sources\c90\common\doprnt.c: 472: {;C:\Program Files\Microchip\xc8\v2.31
      +                          \pic\sources\c90\common\doprnt.c: 512:  char c;;C:\Program Files\Microchip\xc8\v2.31\pic
      +                          \sources\c90\common\doprnt.c: 521:  signed char prec;;C:\Program Files\Microchip\xc8\v2.
      +                          31\pic\sources\c90\common\doprnt.c: 525:  unsigned char flag;;C:\Program Files\Microchip
      +                          \xc8\v2.31\pic\sources\c90\common\doprnt.c: 543:  } tmpval;
  3243  0895  29DC               	goto	l2492
  3244  0896                     l2424:
  3245                           
  3246                           ;C:\Program Files\Microchip\xc8\v2.31\pic\sources\c90\common\doprnt.c: 555:   if(c != '%
      +                          ')
  3247  0896  3025               	movlw	37
  3248  0897  062B               	xorwf	__doprnt@c,w
  3249  0898  1903               	btfsc	3,2
  3250  0899  289B               	goto	u2381
  3251  089A  289C               	goto	u2380
  3252  089B                     u2381:
  3253  089B  28C2               	goto	l2434
  3254  089C                     u2380:
  3255  089C                     l2426:
  3256  089C  0A2C               	incf	__doprnt@pb,w
  3257  089D  0084               	movwf	4
  3258  089E  1383               	bcf	3,7	;select IRP bank0
  3259  089F  0800               	movf	0,w
  3260  08A0  1903               	btfsc	3,2
  3261  08A1  28A3               	goto	u2391
  3262  08A2  28A4               	goto	u2390
  3263  08A3                     u2391:
  3264  08A3  28B3               	goto	l2430
  3265  08A4                     u2390:
  3266  08A4                     l2428:
  3267  08A4  082B               	movf	__doprnt@c,w
  3268  08A5  00A3               	movwf	??__doprnt
  3269  08A6  0823               	movf	??__doprnt,w
  3270  08A7  00F0               	movwf	putch@dato
  3271  08A8  0A2C               	incf	__doprnt@pb,w
  3272  08A9  0084               	movwf	4
  3273  08AA  0800               	movf	0,w
  3274  08AB  120A  118A  2003  120A  158A  	fcall	fptable
  3275  08B0  1283               	bcf	3,5	;RP0=0, select bank0
  3276  08B1  1303               	bcf	3,6	;RP1=0, select bank0
  3277  08B2  2895               	goto	l2422
  3278  08B3                     l2430:
  3279  08B3  082B               	movf	__doprnt@c,w
  3280  08B4  00A3               	movwf	??__doprnt
  3281  08B5  082C               	movf	__doprnt@pb,w
  3282  08B6  0084               	movwf	4
  3283  08B7  0800               	movf	0,w
  3284  08B8  0084               	movwf	4
  3285  08B9  0823               	movf	??__doprnt,w
  3286  08BA  0080               	movwf	0
  3287  08BB                     l2432:
  3288  08BB  3001               	movlw	1
  3289  08BC  00A3               	movwf	??__doprnt
  3290  08BD  082C               	movf	__doprnt@pb,w
  3291  08BE  0084               	movwf	4
  3292  08BF  0823               	movf	??__doprnt,w
  3293  08C0  0780               	addwf	0,f
  3294  08C1  2895               	goto	l2422
  3295  08C2                     l2434:
  3296                           
  3297                           ;C:\Program Files\Microchip\xc8\v2.31\pic\sources\c90\common\doprnt.c: 565:   flag = 0;
  3298  08C2  01A7               	clrf	__doprnt@flag
  3299                           
  3300                           ;C:\Program Files\Microchip\xc8\v2.31\pic\sources\c90\common\doprnt.c: 661:   switch(c =
      +                           *f++) {
  3301  08C3  28EA               	goto	l2446
  3302  08C4                     l2436:
  3303  08C4  0A2C               	incf	__doprnt@pb,w
  3304  08C5  0084               	movwf	4
  3305  08C6  1383               	bcf	3,7	;select IRP bank0
  3306  08C7  0800               	movf	0,w
  3307  08C8  1903               	btfsc	3,2
  3308  08C9  28CB               	goto	u2401
  3309  08CA  28CC               	goto	u2400
  3310  08CB                     u2401:
  3311  08CB  28DB               	goto	l2440
  3312  08CC                     u2400:
  3313  08CC                     l2438:
  3314  08CC  082B               	movf	__doprnt@c,w
  3315  08CD  00A3               	movwf	??__doprnt
  3316  08CE  0823               	movf	??__doprnt,w
  3317  08CF  00F0               	movwf	putch@dato
  3318  08D0  0A2C               	incf	__doprnt@pb,w
  3319  08D1  0084               	movwf	4
  3320  08D2  0800               	movf	0,w
  3321  08D3  120A  118A  2003  120A  158A  	fcall	fptable
  3322  08D8  1283               	bcf	3,5	;RP0=0, select bank0
  3323  08D9  1303               	bcf	3,6	;RP1=0, select bank0
  3324  08DA  2895               	goto	l2422
  3325  08DB                     l2440:
  3326  08DB  082B               	movf	__doprnt@c,w
  3327  08DC  00A3               	movwf	??__doprnt
  3328  08DD  082C               	movf	__doprnt@pb,w
  3329  08DE  0084               	movwf	4
  3330  08DF  0800               	movf	0,w
  3331  08E0  0084               	movwf	4
  3332  08E1  0823               	movf	??__doprnt,w
  3333  08E2  0080               	movwf	0
  3334  08E3                     l2442:
  3335  08E3  3001               	movlw	1
  3336  08E4  00A3               	movwf	??__doprnt
  3337  08E5  082C               	movf	__doprnt@pb,w
  3338  08E6  0084               	movwf	4
  3339  08E7  0823               	movf	??__doprnt,w
  3340  08E8  0780               	addwf	0,f
  3341  08E9  2895               	goto	l2422
  3342  08EA                     l2446:
  3343  08EA  0821               	movf	__doprnt@f+1,w
  3344  08EB  00A4               	movwf	??__doprnt+1
  3345  08EC  0820               	movf	__doprnt@f,w
  3346  08ED  00A3               	movwf	??__doprnt
  3347  08EE  0AA0               	incf	__doprnt@f,f
  3348  08EF  1903               	skipnz
  3349  08F0  0AA1               	incf	__doprnt@f+1,f
  3350  08F1  0824               	movf	??__doprnt+1,w
  3351  08F2  00FF               	movwf	btemp+1
  3352  08F3  0823               	movf	??__doprnt,w
  3353  08F4  0084               	movwf	4
  3354  08F5  160A  118A  2000  120A  158A  	fcall	stringtab
  3355  08FA  00AB               	movwf	__doprnt@c
  3356  08FB  00A5               	movwf	??__doprnt+2
  3357  08FC  01A6               	clrf	??__doprnt+3
  3358                           
  3359                           ; Switch on 2 bytes has been partitioned into a top level switch of size 1, and 1 sub-sw
      +                          itches
  3360                           ; Switch size 1, requested type "simple"
  3361                           ; Number of cases is 1, Range of values is 0 to 0
  3362                           ; switch strategies available:
  3363                           ; Name         Instructions Cycles
  3364                           ; simple_byte            4     3 (average)
  3365                           ; direct_byte           11     8 (fixed)
  3366                           ; jumptable            260     6 (fixed)
  3367                           ;	Chosen strategy is simple_byte
  3368  08FD  0826               	movf	??__doprnt+3,w
  3369  08FE  3A00               	xorlw	0	; case 0
  3370  08FF  1903               	skipnz
  3371  0900  2902               	goto	l3532
  3372  0901  28C4               	goto	l2436
  3373  0902                     l3532:
  3374                           
  3375                           ; Switch size 1, requested type "simple"
  3376                           ; Number of cases is 3, Range of values is 0 to 105
  3377                           ; switch strategies available:
  3378                           ; Name         Instructions Cycles
  3379                           ; simple_byte           10     6 (average)
  3380                           ; jumptable            260     6 (fixed)
  3381                           ;	Chosen strategy is simple_byte
  3382  0902  0825               	movf	??__doprnt+2,w
  3383  0903  3A00               	xorlw	0	; case 0
  3384  0904  1903               	skipnz
  3385  0905  29F6               	goto	l2494
  3386  0906  3A64               	xorlw	100	; case 100
  3387  0907  1903               	skipnz
  3388  0908  290D               	goto	l2448
  3389  0909  3A0D               	xorlw	13	; case 105
  3390  090A  1903               	skipnz
  3391  090B  290D               	goto	l2448
  3392  090C  28C4               	goto	l2436
  3393  090D                     l2448:
  3394                           
  3395                           ;C:\Program Files\Microchip\xc8\v2.31\pic\sources\c90\common\doprnt.c: 1279:   {;C:\Prog
      +                          ram Files\Microchip\xc8\v2.31\pic\sources\c90\common\doprnt.c: 1285:     val = (unsigned
      +                           int)(*(int *)__va_arg((*(int **)ap), (int)0));
  3396  090D  0822               	movf	__doprnt@ap,w
  3397  090E  0084               	movwf	4
  3398  090F  1383               	bcf	3,7	;select IRP bank0
  3399  0910  0800               	movf	0,w
  3400  0911  00A3               	movwf	??__doprnt
  3401  0912  3002               	movlw	2
  3402  0913  0780               	addwf	0,f
  3403  0914  0823               	movf	??__doprnt,w
  3404  0915  0084               	movwf	4
  3405  0916  0800               	movf	0,w
  3406  0917  00A9               	movwf	__doprnt@val
  3407  0918  0A84               	incf	4,f
  3408  0919  0800               	movf	0,w
  3409  091A  00AA               	movwf	__doprnt@val+1
  3410  091B                     l2450:
  3411                           
  3412                           ;C:\Program Files\Microchip\xc8\v2.31\pic\sources\c90\common\doprnt.c: 1287:    if((int)
      +                          val < 0) {
  3413  091B  1FAA               	btfss	__doprnt@val+1,7
  3414  091C  291E               	goto	u2411
  3415  091D  291F               	goto	u2410
  3416  091E                     u2411:
  3417  091E  2928               	goto	l2456
  3418  091F                     u2410:
  3419  091F                     l2452:
  3420                           
  3421                           ;C:\Program Files\Microchip\xc8\v2.31\pic\sources\c90\common\doprnt.c: 1288:     flag |=
      +                           0x03;
  3422  091F  3003               	movlw	3
  3423  0920  00A3               	movwf	??__doprnt
  3424  0921  0823               	movf	??__doprnt,w
  3425  0922  04A7               	iorwf	__doprnt@flag,f
  3426  0923                     l2454:
  3427                           
  3428                           ;C:\Program Files\Microchip\xc8\v2.31\pic\sources\c90\common\doprnt.c: 1289:     val = -
      +                          val;
  3429  0923  09A9               	comf	__doprnt@val,f
  3430  0924  09AA               	comf	__doprnt@val+1,f
  3431  0925  0AA9               	incf	__doprnt@val,f
  3432  0926  1903               	skipnz
  3433  0927  0AAA               	incf	__doprnt@val+1,f
  3434  0928                     l2456:
  3435                           
  3436                           ;C:\Program Files\Microchip\xc8\v2.31\pic\sources\c90\common\doprnt.c: 1292:   };C:\Prog
      +                          ram Files\Microchip\xc8\v2.31\pic\sources\c90\common\doprnt.c: 1331:    for(c = 1 ; c !=
      +                           sizeof dpowers/sizeof dpowers[0] ; c++)
  3437  0928  01AB               	clrf	__doprnt@c
  3438  0929  0AAB               	incf	__doprnt@c,f
  3439  092A                     l2462:
  3440                           
  3441                           ;C:\Program Files\Microchip\xc8\v2.31\pic\sources\c90\common\doprnt.c: 1332:     if(val 
      +                          < dpowers[c])
  3442  092A  082B               	movf	__doprnt@c,w
  3443  092B  00A3               	movwf	??__doprnt
  3444  092C  0723               	addwf	??__doprnt,w
  3445  092D  3E01               	addlw	low ((_dpowers-__stringbase)| (0+32768))
  3446  092E  0084               	movwf	4
  3447  092F  160A  118A  200A  120A  158A  	fcall	stringdir
  3448  0934  00A4               	movwf	??__doprnt+1
  3449  0935  160A  118A  200A  120A  158A  	fcall	stringdir
  3450  093A  00A5               	movwf	??__doprnt+2
  3451  093B  0825               	movf	??__doprnt+2,w
  3452  093C  022A               	subwf	__doprnt@val+1,w
  3453  093D  1D03               	skipz
  3454  093E  2941               	goto	u2425
  3455  093F  0824               	movf	??__doprnt+1,w
  3456  0940  0229               	subwf	__doprnt@val,w
  3457  0941                     u2425:
  3458  0941  1803               	skipnc
  3459  0942  2944               	goto	u2421
  3460  0943  2945               	goto	u2420
  3461  0944                     u2421:
  3462  0944  2946               	goto	l2466
  3463  0945                     u2420:
  3464  0945  2950               	goto	l2468
  3465  0946                     l2466:
  3466  0946  3001               	movlw	1
  3467  0947  00A3               	movwf	??__doprnt
  3468  0948  0823               	movf	??__doprnt,w
  3469  0949  07AB               	addwf	__doprnt@c,f
  3470  094A  3005               	movlw	5
  3471  094B  062B               	xorwf	__doprnt@c,w
  3472  094C  1D03               	btfss	3,2
  3473  094D  294F               	goto	u2431
  3474  094E  2950               	goto	u2430
  3475  094F                     u2431:
  3476  094F  292A               	goto	l2462
  3477  0950                     u2430:
  3478  0950                     l2468:
  3479                           
  3480                           ;C:\Program Files\Microchip\xc8\v2.31\pic\sources\c90\common\doprnt.c: 1448:   {;C:\Prog
      +                          ram Files\Microchip\xc8\v2.31\pic\sources\c90\common\doprnt.c: 1464:    if(flag & 0x03)
  3481  0950  0827               	movf	__doprnt@flag,w
  3482  0951  3903               	andlw	3
  3483  0952  1903               	btfsc	3,2
  3484  0953  2955               	goto	u2441
  3485  0954  2956               	goto	u2440
  3486  0955                     u2441:
  3487  0955  2979               	goto	l2478
  3488  0956                     u2440:
  3489  0956                     l2470:
  3490  0956  0A2C               	incf	__doprnt@pb,w
  3491  0957  0084               	movwf	4
  3492  0958  1383               	bcf	3,7	;select IRP bank0
  3493  0959  0800               	movf	0,w
  3494  095A  1903               	btfsc	3,2
  3495  095B  295D               	goto	u2451
  3496  095C  295E               	goto	u2450
  3497  095D                     u2451:
  3498  095D  296B               	goto	l2474
  3499  095E                     u2450:
  3500  095E                     l2472:
  3501  095E  302D               	movlw	45
  3502  095F  00A3               	movwf	??__doprnt
  3503  0960  0823               	movf	??__doprnt,w
  3504  0961  00F0               	movwf	putch@dato
  3505  0962  0A2C               	incf	__doprnt@pb,w
  3506  0963  0084               	movwf	4
  3507  0964  0800               	movf	0,w
  3508  0965  120A  118A  2003  120A  158A  	fcall	fptable
  3509  096A  2979               	goto	l2478
  3510  096B                     l2474:
  3511  096B  302D               	movlw	45
  3512  096C  00A3               	movwf	??__doprnt
  3513  096D  082C               	movf	__doprnt@pb,w
  3514  096E  0084               	movwf	4
  3515  096F  0800               	movf	0,w
  3516  0970  0084               	movwf	4
  3517  0971  0823               	movf	??__doprnt,w
  3518  0972  0080               	movwf	0
  3519  0973                     l2476:
  3520  0973  3001               	movlw	1
  3521  0974  00A3               	movwf	??__doprnt
  3522  0975  082C               	movf	__doprnt@pb,w
  3523  0976  0084               	movwf	4
  3524  0977  0823               	movf	??__doprnt,w
  3525  0978  0780               	addwf	0,f
  3526  0979                     l2478:
  3527                           
  3528                           ;C:\Program Files\Microchip\xc8\v2.31\pic\sources\c90\common\doprnt.c: 1495:   };C:\Prog
      +                          ram Files\Microchip\xc8\v2.31\pic\sources\c90\common\doprnt.c: 1498:   prec = c;
  3529  0979  1283               	bcf	3,5	;RP0=0, select bank0
  3530  097A  1303               	bcf	3,6	;RP1=0, select bank0
  3531  097B  082B               	movf	__doprnt@c,w
  3532  097C  00A3               	movwf	??__doprnt
  3533  097D  0823               	movf	??__doprnt,w
  3534  097E  00A8               	movwf	__doprnt@prec
  3535                           
  3536                           ;C:\Program Files\Microchip\xc8\v2.31\pic\sources\c90\common\doprnt.c: 1500:   while(pre
      +                          c--) {
  3537  097F  29D1               	goto	l2490
  3538  0980                     l2480:
  3539                           
  3540                           ;C:\Program Files\Microchip\xc8\v2.31\pic\sources\c90\common\doprnt.c: 1504:    {;C:\Pro
      +                          gram Files\Microchip\xc8\v2.31\pic\sources\c90\common\doprnt.c: 1515:     c = (val / dpo
      +                          wers[(unsigned char)prec]) % 10 + '0';
  3541  0980  300A               	movlw	10
  3542  0981  00F8               	movwf	___lwmod@divisor
  3543  0982  3000               	movlw	0
  3544  0983  00F9               	movwf	___lwmod@divisor+1
  3545  0984  0828               	movf	__doprnt@prec,w
  3546  0985  00A3               	movwf	??__doprnt
  3547  0986  0723               	addwf	??__doprnt,w
  3548  0987  3E01               	addlw	low ((_dpowers-__stringbase)| (0+32768))
  3549  0988  0084               	movwf	4
  3550  0989  160A  118A  200A  120A  158A  	fcall	stringdir
  3551  098E  00F0               	movwf	___lwdiv@divisor
  3552  098F  160A  118A  200A  120A  158A  	fcall	stringdir
  3553  0994  00F1               	movwf	___lwdiv@divisor+1
  3554  0995  082A               	movf	__doprnt@val+1,w
  3555  0996  00F3               	movwf	___lwdiv@dividend+1
  3556  0997  0829               	movf	__doprnt@val,w
  3557  0998  00F2               	movwf	___lwdiv@dividend
  3558  0999  160A  118A  2441  120A  158A  	fcall	___lwdiv
  3559  099E  0871               	movf	?___lwdiv+1,w
  3560  099F  00FB               	movwf	___lwmod@dividend+1
  3561  09A0  0870               	movf	?___lwdiv,w
  3562  09A1  00FA               	movwf	___lwmod@dividend
  3563  09A2  160A  118A  23CA  120A  158A  	fcall	___lwmod
  3564  09A7  0878               	movf	?___lwmod,w
  3565  09A8  3E30               	addlw	48
  3566  09A9  1283               	bcf	3,5	;RP0=0, select bank0
  3567  09AA  1303               	bcf	3,6	;RP1=0, select bank0
  3568  09AB  00A4               	movwf	??__doprnt+1
  3569  09AC  0824               	movf	??__doprnt+1,w
  3570  09AD  00AB               	movwf	__doprnt@c
  3571  09AE                     l2482:
  3572  09AE  0A2C               	incf	__doprnt@pb,w
  3573  09AF  0084               	movwf	4
  3574  09B0  1383               	bcf	3,7	;select IRP bank0
  3575  09B1  0800               	movf	0,w
  3576  09B2  1903               	btfsc	3,2
  3577  09B3  29B5               	goto	u2461
  3578  09B4  29B6               	goto	u2460
  3579  09B5                     u2461:
  3580  09B5  29C3               	goto	l2486
  3581  09B6                     u2460:
  3582  09B6                     l2484:
  3583  09B6  082B               	movf	__doprnt@c,w
  3584  09B7  00A3               	movwf	??__doprnt
  3585  09B8  0823               	movf	??__doprnt,w
  3586  09B9  00F0               	movwf	putch@dato
  3587  09BA  0A2C               	incf	__doprnt@pb,w
  3588  09BB  0084               	movwf	4
  3589  09BC  0800               	movf	0,w
  3590  09BD  120A  118A  2003  120A  158A  	fcall	fptable
  3591  09C2  29D1               	goto	l2490
  3592  09C3                     l2486:
  3593  09C3  082B               	movf	__doprnt@c,w
  3594  09C4  00A3               	movwf	??__doprnt
  3595  09C5  082C               	movf	__doprnt@pb,w
  3596  09C6  0084               	movwf	4
  3597  09C7  0800               	movf	0,w
  3598  09C8  0084               	movwf	4
  3599  09C9  0823               	movf	??__doprnt,w
  3600  09CA  0080               	movwf	0
  3601  09CB                     l2488:
  3602  09CB  3001               	movlw	1
  3603  09CC  00A3               	movwf	??__doprnt
  3604  09CD  082C               	movf	__doprnt@pb,w
  3605  09CE  0084               	movwf	4
  3606  09CF  0823               	movf	??__doprnt,w
  3607  09D0  0780               	addwf	0,f
  3608  09D1                     l2490:
  3609                           
  3610                           ;C:\Program Files\Microchip\xc8\v2.31\pic\sources\c90\common\doprnt.c: 1500:   while(pre
      +                          c--) {
  3611  09D1  30FF               	movlw	255
  3612  09D2  1283               	bcf	3,5	;RP0=0, select bank0
  3613  09D3  1303               	bcf	3,6	;RP1=0, select bank0
  3614  09D4  00A3               	movwf	??__doprnt
  3615  09D5  0823               	movf	??__doprnt,w
  3616  09D6  07A8               	addwf	__doprnt@prec,f
  3617  09D7  0A28               	incf	__doprnt@prec,w
  3618  09D8  1D03               	btfss	3,2
  3619  09D9  29DB               	goto	u2471
  3620  09DA  29DC               	goto	u2470
  3621  09DB                     u2471:
  3622  09DB  2980               	goto	l2480
  3623  09DC                     u2470:
  3624  09DC                     l2492:
  3625                           
  3626                           ;C:\Program Files\Microchip\xc8\v2.31\pic\sources\c90\common\doprnt.c: 553:  while((c = 
      +                          *f++)) {
  3627  09DC  1283               	bcf	3,5	;RP0=0, select bank0
  3628  09DD  1303               	bcf	3,6	;RP1=0, select bank0
  3629  09DE  0821               	movf	__doprnt@f+1,w
  3630  09DF  00A4               	movwf	??__doprnt+1
  3631  09E0  0820               	movf	__doprnt@f,w
  3632  09E1  00A3               	movwf	??__doprnt
  3633  09E2  0AA0               	incf	__doprnt@f,f
  3634  09E3  1903               	skipnz
  3635  09E4  0AA1               	incf	__doprnt@f+1,f
  3636  09E5  0824               	movf	??__doprnt+1,w
  3637  09E6  00FF               	movwf	btemp+1
  3638  09E7  0823               	movf	??__doprnt,w
  3639  09E8  0084               	movwf	4
  3640  09E9  160A  118A  2000  120A  158A  	fcall	stringtab
  3641  09EE  00A5               	movwf	??__doprnt+2
  3642  09EF  0825               	movf	??__doprnt+2,w
  3643  09F0  00AB               	movwf	__doprnt@c
  3644  09F1  082B               	movf	__doprnt@c,w
  3645  09F2  1D03               	btfss	3,2
  3646  09F3  29F5               	goto	u2481
  3647  09F4  29F6               	goto	u2480
  3648  09F5                     u2481:
  3649  09F5  2896               	goto	l2424
  3650  09F6                     u2480:
  3651  09F6                     l2494:
  3652                           
  3653                           ;C:\Program Files\Microchip\xc8\v2.31\pic\sources\c90\common\doprnt.c: 1566:  return 0;
  3654  09F6  01A0               	clrf	?__doprnt
  3655  09F7  01A1               	clrf	?__doprnt+1
  3656  09F8                     l916:
  3657  09F8  0008               	return
  3658  09F9                     __end_of__doprnt:
  3659                           
  3660                           	psect	text13
  3661  1272                     __ptext13:	
  3662 ;; *************** function _putch *****************
  3663 ;; Defined at:
  3664 ;;		line 144 in file "Lab03_master.c"
  3665 ;; Parameters:    Size  Location     Type
  3666 ;;  dato            1    0[COMMON] unsigned char 
  3667 ;; Auto vars:     Size  Location     Type
  3668 ;;		None
  3669 ;; Return value:  Size  Location     Type
  3670 ;;                  1    wreg      void 
  3671 ;; Registers used:
  3672 ;;		wreg
  3673 ;; Tracked objects:
  3674 ;;		On entry : 0/0
  3675 ;;		On exit  : 0/0
  3676 ;;		Unchanged: 0/0
  3677 ;; Data sizes:     COMMON   BANK0   BANK1   BANK3   BANK2
  3678 ;;      Params:         1       0       0       0       0
  3679 ;;      Locals:         0       0       0       0       0
  3680 ;;      Temps:          0       0       0       0       0
  3681 ;;      Totals:         1       0       0       0       0
  3682 ;;Total ram usage:        1 bytes
  3683 ;; Hardware stack levels used:    1
  3684 ;; This function calls:
  3685 ;;		Nothing
  3686 ;; This function is called by:
  3687 ;;		_printf
  3688 ;;		__doprnt
  3689 ;; This function uses a non-reentrant model
  3690 ;;
  3691                           
  3692                           
  3693                           ;psect for function _putch
  3694  1272                     _putch:
  3695  1272                     l2342:	
  3696                           ;incstack = 0
  3697                           ; Regs used in _putch: [wreg]
  3698                           
  3699  1272                     l155:	
  3700                           ;Lab03_master.c: 145: 
  3701                           
  3702  1272  1283               	bcf	3,5	;RP0=0, select bank0
  3703  1273  1303               	bcf	3,6	;RP1=0, select bank0
  3704  1274  1E0C               	btfss	12,4	;volatile
  3705  1275  2A77               	goto	u2181
  3706  1276  2A78               	goto	u2180
  3707  1277                     u2181:
  3708  1277  2A72               	goto	l155
  3709  1278                     u2180:
  3710  1278                     l2344:
  3711                           
  3712                           ;Lab03_master.c: 146: 
  3713  1278  0870               	movf	putch@dato,w
  3714  1279  0099               	movwf	25	;volatile
  3715  127A                     l158:
  3716  127A  0008               	return
  3717  127B                     __end_of_putch:
  3718                           
  3719                           	psect	text14
  3720  13CA                     __ptext14:	
  3721 ;; *************** function ___lwmod *****************
  3722 ;; Defined at:
  3723 ;;		line 5 in file "C:\Program Files\Microchip\xc8\v2.31\pic\sources\c90\common\lwmod.c"
  3724 ;; Parameters:    Size  Location     Type
  3725 ;;  divisor         2    8[COMMON] unsigned int 
  3726 ;;  dividend        2   10[COMMON] unsigned int 
  3727 ;; Auto vars:     Size  Location     Type
  3728 ;;  counter         1   13[COMMON] unsigned char 
  3729 ;; Return value:  Size  Location     Type
  3730 ;;                  2    8[COMMON] unsigned int 
  3731 ;; Registers used:
  3732 ;;		wreg, status,2, status,0
  3733 ;; Tracked objects:
  3734 ;;		On entry : 0/0
  3735 ;;		On exit  : 0/0
  3736 ;;		Unchanged: 0/0
  3737 ;; Data sizes:     COMMON   BANK0   BANK1   BANK3   BANK2
  3738 ;;      Params:         4       0       0       0       0
  3739 ;;      Locals:         1       0       0       0       0
  3740 ;;      Temps:          1       0       0       0       0
  3741 ;;      Totals:         6       0       0       0       0
  3742 ;;Total ram usage:        6 bytes
  3743 ;; Hardware stack levels used:    1
  3744 ;; This function calls:
  3745 ;;		Nothing
  3746 ;; This function is called by:
  3747 ;;		__doprnt
  3748 ;; This function uses a non-reentrant model
  3749 ;;
  3750                           
  3751                           
  3752                           ;psect for function ___lwmod
  3753  13CA                     ___lwmod:
  3754  13CA                     l2374:	
  3755                           ;incstack = 0
  3756                           ; Regs used in ___lwmod: [wreg+status,2+status,0]
  3757                           
  3758  13CA  0878               	movf	___lwmod@divisor,w
  3759  13CB  0479               	iorwf	___lwmod@divisor+1,w
  3760  13CC  1903               	btfsc	3,2
  3761  13CD  2BCF               	goto	u2261
  3762  13CE  2BD0               	goto	u2260
  3763  13CF                     u2261:
  3764  13CF  2BFF               	goto	l2392
  3765  13D0                     u2260:
  3766  13D0                     l2376:
  3767  13D0  01FD               	clrf	___lwmod@counter
  3768  13D1  0AFD               	incf	___lwmod@counter,f
  3769  13D2  2BDE               	goto	l2382
  3770  13D3                     l2378:
  3771  13D3  3001               	movlw	1
  3772  13D4                     u2275:
  3773  13D4  1003               	clrc
  3774  13D5  0DF8               	rlf	___lwmod@divisor,f
  3775  13D6  0DF9               	rlf	___lwmod@divisor+1,f
  3776  13D7  3EFF               	addlw	-1
  3777  13D8  1D03               	skipz
  3778  13D9  2BD4               	goto	u2275
  3779  13DA                     l2380:
  3780  13DA  3001               	movlw	1
  3781  13DB  00FC               	movwf	??___lwmod
  3782  13DC  087C               	movf	??___lwmod,w
  3783  13DD  07FD               	addwf	___lwmod@counter,f
  3784  13DE                     l2382:
  3785  13DE  1FF9               	btfss	___lwmod@divisor+1,7
  3786  13DF  2BE1               	goto	u2281
  3787  13E0  2BE2               	goto	u2280
  3788  13E1                     u2281:
  3789  13E1  2BD3               	goto	l2378
  3790  13E2                     u2280:
  3791  13E2                     l2384:
  3792  13E2  0879               	movf	___lwmod@divisor+1,w
  3793  13E3  027B               	subwf	___lwmod@dividend+1,w
  3794  13E4  1D03               	skipz
  3795  13E5  2BE8               	goto	u2295
  3796  13E6  0878               	movf	___lwmod@divisor,w
  3797  13E7  027A               	subwf	___lwmod@dividend,w
  3798  13E8                     u2295:
  3799  13E8  1C03               	skipc
  3800  13E9  2BEB               	goto	u2291
  3801  13EA  2BEC               	goto	u2290
  3802  13EB                     u2291:
  3803  13EB  2BF2               	goto	l2388
  3804  13EC                     u2290:
  3805  13EC                     l2386:
  3806  13EC  0878               	movf	___lwmod@divisor,w
  3807  13ED  02FA               	subwf	___lwmod@dividend,f
  3808  13EE  0879               	movf	___lwmod@divisor+1,w
  3809  13EF  1C03               	skipc
  3810  13F0  03FB               	decf	___lwmod@dividend+1,f
  3811  13F1  02FB               	subwf	___lwmod@dividend+1,f
  3812  13F2                     l2388:
  3813  13F2  3001               	movlw	1
  3814  13F3                     u2305:
  3815  13F3  1003               	clrc
  3816  13F4  0CF9               	rrf	___lwmod@divisor+1,f
  3817  13F5  0CF8               	rrf	___lwmod@divisor,f
  3818  13F6  3EFF               	addlw	-1
  3819  13F7  1D03               	skipz
  3820  13F8  2BF3               	goto	u2305
  3821  13F9                     l2390:
  3822  13F9  3001               	movlw	1
  3823  13FA  02FD               	subwf	___lwmod@counter,f
  3824  13FB  1D03               	btfss	3,2
  3825  13FC  2BFE               	goto	u2311
  3826  13FD  2BFF               	goto	u2310
  3827  13FE                     u2311:
  3828  13FE  2BE2               	goto	l2384
  3829  13FF                     u2310:
  3830  13FF                     l2392:
  3831  13FF  087B               	movf	___lwmod@dividend+1,w
  3832  1400  00F9               	movwf	?___lwmod+1
  3833  1401  087A               	movf	___lwmod@dividend,w
  3834  1402  00F8               	movwf	?___lwmod
  3835  1403                     l679:
  3836  1403  0008               	return
  3837  1404                     __end_of___lwmod:
  3838                           
  3839                           	psect	text15
  3840  1441                     __ptext15:	
  3841 ;; *************** function ___lwdiv *****************
  3842 ;; Defined at:
  3843 ;;		line 5 in file "C:\Program Files\Microchip\xc8\v2.31\pic\sources\c90\common\lwdiv.c"
  3844 ;; Parameters:    Size  Location     Type
  3845 ;;  divisor         2    0[COMMON] unsigned int 
  3846 ;;  dividend        2    2[COMMON] unsigned int 
  3847 ;; Auto vars:     Size  Location     Type
  3848 ;;  quotient        2    5[COMMON] unsigned int 
  3849 ;;  counter         1    7[COMMON] unsigned char 
  3850 ;; Return value:  Size  Location     Type
  3851 ;;                  2    0[COMMON] unsigned int 
  3852 ;; Registers used:
  3853 ;;		wreg, status,2, status,0
  3854 ;; Tracked objects:
  3855 ;;		On entry : 0/0
  3856 ;;		On exit  : 0/0
  3857 ;;		Unchanged: 0/0
  3858 ;; Data sizes:     COMMON   BANK0   BANK1   BANK3   BANK2
  3859 ;;      Params:         4       0       0       0       0
  3860 ;;      Locals:         3       0       0       0       0
  3861 ;;      Temps:          1       0       0       0       0
  3862 ;;      Totals:         8       0       0       0       0
  3863 ;;Total ram usage:        8 bytes
  3864 ;; Hardware stack levels used:    1
  3865 ;; This function calls:
  3866 ;;		Nothing
  3867 ;; This function is called by:
  3868 ;;		__doprnt
  3869 ;; This function uses a non-reentrant model
  3870 ;;
  3871                           
  3872                           
  3873                           ;psect for function ___lwdiv
  3874  1441                     ___lwdiv:
  3875  1441                     l2348:	
  3876                           ;incstack = 0
  3877                           ; Regs used in ___lwdiv: [wreg+status,2+status,0]
  3878                           
  3879  1441  01F5               	clrf	___lwdiv@quotient
  3880  1442  01F6               	clrf	___lwdiv@quotient+1
  3881  1443                     l2350:
  3882  1443  0870               	movf	___lwdiv@divisor,w
  3883  1444  0471               	iorwf	___lwdiv@divisor+1,w
  3884  1445  1903               	btfsc	3,2
  3885  1446  2C48               	goto	u2191
  3886  1447  2C49               	goto	u2190
  3887  1448                     u2191:
  3888  1448  2C80               	goto	l2370
  3889  1449                     u2190:
  3890  1449                     l2352:
  3891  1449  01F7               	clrf	___lwdiv@counter
  3892  144A  0AF7               	incf	___lwdiv@counter,f
  3893  144B  2C57               	goto	l2358
  3894  144C                     l2354:
  3895  144C  3001               	movlw	1
  3896  144D                     u2205:
  3897  144D  1003               	clrc
  3898  144E  0DF0               	rlf	___lwdiv@divisor,f
  3899  144F  0DF1               	rlf	___lwdiv@divisor+1,f
  3900  1450  3EFF               	addlw	-1
  3901  1451  1D03               	skipz
  3902  1452  2C4D               	goto	u2205
  3903  1453                     l2356:
  3904  1453  3001               	movlw	1
  3905  1454  00F4               	movwf	??___lwdiv
  3906  1455  0874               	movf	??___lwdiv,w
  3907  1456  07F7               	addwf	___lwdiv@counter,f
  3908  1457                     l2358:
  3909  1457  1FF1               	btfss	___lwdiv@divisor+1,7
  3910  1458  2C5A               	goto	u2211
  3911  1459  2C5B               	goto	u2210
  3912  145A                     u2211:
  3913  145A  2C4C               	goto	l2354
  3914  145B                     u2210:
  3915  145B                     l2360:
  3916  145B  3001               	movlw	1
  3917  145C                     u2225:
  3918  145C  1003               	clrc
  3919  145D  0DF5               	rlf	___lwdiv@quotient,f
  3920  145E  0DF6               	rlf	___lwdiv@quotient+1,f
  3921  145F  3EFF               	addlw	-1
  3922  1460  1D03               	skipz
  3923  1461  2C5C               	goto	u2225
  3924  1462  0871               	movf	___lwdiv@divisor+1,w
  3925  1463  0273               	subwf	___lwdiv@dividend+1,w
  3926  1464  1D03               	skipz
  3927  1465  2C68               	goto	u2235
  3928  1466  0870               	movf	___lwdiv@divisor,w
  3929  1467  0272               	subwf	___lwdiv@dividend,w
  3930  1468                     u2235:
  3931  1468  1C03               	skipc
  3932  1469  2C6B               	goto	u2231
  3933  146A  2C6C               	goto	u2230
  3934  146B                     u2231:
  3935  146B  2C73               	goto	l2366
  3936  146C                     u2230:
  3937  146C                     l2362:
  3938  146C  0870               	movf	___lwdiv@divisor,w
  3939  146D  02F2               	subwf	___lwdiv@dividend,f
  3940  146E  0871               	movf	___lwdiv@divisor+1,w
  3941  146F  1C03               	skipc
  3942  1470  03F3               	decf	___lwdiv@dividend+1,f
  3943  1471  02F3               	subwf	___lwdiv@dividend+1,f
  3944  1472                     l2364:
  3945  1472  1475               	bsf	___lwdiv@quotient,0
  3946  1473                     l2366:
  3947  1473  3001               	movlw	1
  3948  1474                     u2245:
  3949  1474  1003               	clrc
  3950  1475  0CF1               	rrf	___lwdiv@divisor+1,f
  3951  1476  0CF0               	rrf	___lwdiv@divisor,f
  3952  1477  3EFF               	addlw	-1
  3953  1478  1D03               	skipz
  3954  1479  2C74               	goto	u2245
  3955  147A                     l2368:
  3956  147A  3001               	movlw	1
  3957  147B  02F7               	subwf	___lwdiv@counter,f
  3958  147C  1D03               	btfss	3,2
  3959  147D  2C7F               	goto	u2251
  3960  147E  2C80               	goto	u2250
  3961  147F                     u2251:
  3962  147F  2C5B               	goto	l2360
  3963  1480                     u2250:
  3964  1480                     l2370:
  3965  1480  0876               	movf	___lwdiv@quotient+1,w
  3966  1481  00F1               	movwf	?___lwdiv+1
  3967  1482  0875               	movf	___lwdiv@quotient,w
  3968  1483  00F0               	movwf	?___lwdiv
  3969  1484                     l669:
  3970  1484  0008               	return
  3971  1485                     __end_of___lwdiv:
  3972                           
  3973                           	psect	text16
  3974  000C                     __ptext16:	
  3975 ;; *************** function _atoi *****************
  3976 ;; Defined at:
  3977 ;;		line 5 in file "C:\Program Files\Microchip\xc8\v2.31\pic\sources\c90\common\atoi.c"
  3978 ;; Parameters:    Size  Location     Type
  3979 ;;  s               1    wreg     PTR const unsigned char 
  3980 ;;		 -> concatenar@s1(20), 
  3981 ;; Auto vars:     Size  Location     Type
  3982 ;;  s               1   11[BANK0 ] PTR const unsigned char 
  3983 ;;		 -> concatenar@s1(20), 
  3984 ;;  a               2    9[BANK0 ] int 
  3985 ;;  sign            1    8[BANK0 ] unsigned char 
  3986 ;; Return value:  Size  Location     Type
  3987 ;;                  2    4[BANK0 ] int 
  3988 ;; Registers used:
  3989 ;;		wreg, fsr0l, fsr0h, status,2, status,0, pclath, cstack
  3990 ;; Tracked objects:
  3991 ;;		On entry : 0/0
  3992 ;;		On exit  : 0/0
  3993 ;;		Unchanged: 0/0
  3994 ;; Data sizes:     COMMON   BANK0   BANK1   BANK3   BANK2
  3995 ;;      Params:         0       2       0       0       0
  3996 ;;      Locals:         0       4       0       0       0
  3997 ;;      Temps:          0       2       0       0       0
  3998 ;;      Totals:         0       8       0       0       0
  3999 ;;Total ram usage:        8 bytes
  4000 ;; Hardware stack levels used:    1
  4001 ;; Hardware stack levels required when called:    1
  4002 ;; This function calls:
  4003 ;;		___wmul
  4004 ;;		_isdigit
  4005 ;; This function is called by:
  4006 ;;		_concatenar
  4007 ;; This function uses a non-reentrant model
  4008 ;;
  4009                           
  4010                           
  4011                           ;psect for function _atoi
  4012  000C                     _atoi:
  4013                           
  4014                           ;incstack = 0
  4015                           ; Regs used in _atoi: [wreg-fsr0h+status,2+status,0+pclath+cstack]
  4016                           ;atoi@s stored from wreg
  4017  000C  1283               	bcf	3,5	;RP0=0, select bank0
  4018  000D  1303               	bcf	3,6	;RP1=0, select bank0
  4019  000E  00AB               	movwf	atoi@s
  4020  000F                     l2524:
  4021  000F  2814               	goto	l2528
  4022  0010                     l2526:
  4023  0010  3001               	movlw	1
  4024  0011  00A6               	movwf	??_atoi
  4025  0012  0826               	movf	??_atoi,w
  4026  0013  07AB               	addwf	atoi@s,f
  4027  0014                     l2528:
  4028  0014  082B               	movf	atoi@s,w
  4029  0015  0084               	movwf	4
  4030  0016  3020               	movlw	32
  4031  0017  1383               	bcf	3,7	;select IRP bank0
  4032  0018  0600               	xorwf	0,w
  4033  0019  1903               	btfsc	3,2
  4034  001A  281C               	goto	u2511
  4035  001B  281D               	goto	u2510
  4036  001C                     u2511:
  4037  001C  2810               	goto	l2526
  4038  001D                     u2510:
  4039  001D                     l2530:
  4040  001D  082B               	movf	atoi@s,w
  4041  001E  0084               	movwf	4
  4042  001F  3009               	movlw	9
  4043  0020  0600               	xorwf	0,w
  4044  0021  1903               	btfsc	3,2
  4045  0022  2824               	goto	u2521
  4046  0023  2825               	goto	u2520
  4047  0024                     u2521:
  4048  0024  2810               	goto	l2526
  4049  0025                     u2520:
  4050  0025                     l2532:
  4051  0025  01A9               	clrf	atoi@a
  4052  0026  01AA               	clrf	atoi@a+1
  4053  0027  01A8               	clrf	atoi@sign
  4054  0028                     l2534:
  4055  0028  082B               	movf	atoi@s,w
  4056  0029  0084               	movwf	4
  4057  002A  302D               	movlw	45
  4058  002B  0600               	xorwf	0,w
  4059  002C  1D03               	btfss	3,2
  4060  002D  282F               	goto	u2531
  4061  002E  2830               	goto	u2530
  4062  002F                     u2531:
  4063  002F  2839               	goto	l2538
  4064  0030                     u2530:
  4065  0030                     l2536:
  4066  0030  3001               	movlw	1
  4067  0031  00A6               	movwf	??_atoi
  4068  0032  0826               	movf	??_atoi,w
  4069  0033  07A8               	addwf	atoi@sign,f
  4070  0034  3001               	movlw	1
  4071  0035  00A6               	movwf	??_atoi
  4072  0036  0826               	movf	??_atoi,w
  4073  0037  07AB               	addwf	atoi@s,f
  4074  0038  286B               	goto	l2546
  4075  0039                     l2538:
  4076  0039  082B               	movf	atoi@s,w
  4077  003A  0084               	movwf	4
  4078  003B  302B               	movlw	43
  4079  003C  0600               	xorwf	0,w
  4080  003D  1D03               	btfss	3,2
  4081  003E  2840               	goto	u2541
  4082  003F  2841               	goto	u2540
  4083  0040                     u2541:
  4084  0040  286B               	goto	l2546
  4085  0041                     u2540:
  4086  0041                     l2540:
  4087  0041  3001               	movlw	1
  4088  0042  00A6               	movwf	??_atoi
  4089  0043  0826               	movf	??_atoi,w
  4090  0044  07AB               	addwf	atoi@s,f
  4091  0045  286B               	goto	l2546
  4092  0046                     l2542:
  4093  0046  1283               	bcf	3,5	;RP0=0, select bank0
  4094  0047  1303               	bcf	3,6	;RP1=0, select bank0
  4095  0048  082B               	movf	atoi@s,w
  4096  0049  0084               	movwf	4
  4097  004A  082A               	movf	atoi@a+1,w
  4098  004B  00A1               	movwf	___wmul@multiplier+1
  4099  004C  0829               	movf	atoi@a,w
  4100  004D  00A0               	movwf	___wmul@multiplier
  4101  004E  300A               	movlw	10
  4102  004F  00A2               	movwf	___wmul@multiplicand
  4103  0050  3000               	movlw	0
  4104  0051  00A3               	movwf	___wmul@multiplicand+1
  4105  0052  160A  118A  2341  120A  118A  	fcall	___wmul
  4106  0057  1383               	bcf	3,7	;select IRP bank0
  4107  0058  0800               	movf	0,w
  4108  0059  1283               	bcf	3,5	;RP0=0, select bank0
  4109  005A  1303               	bcf	3,6	;RP1=0, select bank0
  4110  005B  0720               	addwf	?___wmul,w
  4111  005C  00A6               	movwf	??_atoi
  4112  005D  3000               	movlw	0
  4113  005E  1803               	skipnc
  4114  005F  3001               	movlw	1
  4115  0060  0721               	addwf	?___wmul+1,w
  4116  0061  00A7               	movwf	??_atoi+1
  4117  0062  0826               	movf	??_atoi,w
  4118  0063  3ED0               	addlw	208
  4119  0064  00A9               	movwf	atoi@a
  4120  0065  0827               	movf	??_atoi+1,w
  4121  0066  1803               	skipnc
  4122  0067  3E01               	addlw	1
  4123  0068  3EFF               	addlw	255
  4124  0069  00AA               	movwf	atoi@a+1
  4125  006A  2841               	goto	l2540
  4126  006B                     l2546:
  4127  006B  082B               	movf	atoi@s,w
  4128  006C  0084               	movwf	4
  4129  006D  0800               	movf	0,w
  4130  006E  160A  118A  2294  120A  118A  	fcall	_isdigit
  4131  0073  1803               	btfsc	3,0
  4132  0074  2876               	goto	u2551
  4133  0075  2877               	goto	u2550
  4134  0076                     u2551:
  4135  0076  2846               	goto	l2542
  4136  0077                     u2550:
  4137  0077                     l2548:
  4138  0077  1283               	bcf	3,5	;RP0=0, select bank0
  4139  0078  1303               	bcf	3,6	;RP1=0, select bank0
  4140  0079  0828               	movf	atoi@sign,w
  4141  007A  1903               	btfsc	3,2
  4142  007B  287D               	goto	u2561
  4143  007C  287E               	goto	u2560
  4144  007D                     u2561:
  4145  007D  288A               	goto	l2554
  4146  007E                     u2560:
  4147  007E                     l2550:
  4148  007E  0929               	comf	atoi@a,w
  4149  007F  00A6               	movwf	??_atoi
  4150  0080  092A               	comf	atoi@a+1,w
  4151  0081  00A7               	movwf	??_atoi+1
  4152  0082  0AA6               	incf	??_atoi,f
  4153  0083  1903               	skipnz
  4154  0084  0AA7               	incf	??_atoi+1,f
  4155  0085  0826               	movf	??_atoi,w
  4156  0086  00A4               	movwf	?_atoi
  4157  0087  0827               	movf	??_atoi+1,w
  4158  0088  00A5               	movwf	?_atoi+1
  4159  0089  288E               	goto	l860
  4160  008A                     l2554:
  4161  008A  082A               	movf	atoi@a+1,w
  4162  008B  00A5               	movwf	?_atoi+1
  4163  008C  0829               	movf	atoi@a,w
  4164  008D  00A4               	movwf	?_atoi
  4165  008E                     l860:
  4166  008E  0008               	return
  4167  008F                     __end_of_atoi:
  4168                           
  4169                           	psect	text17
  4170  1294                     __ptext17:	
  4171 ;; *************** function _isdigit *****************
  4172 ;; Defined at:
  4173 ;;		line 8 in file "C:\Program Files\Microchip\xc8\v2.31\pic\sources\c90\common\isdigit.c"
  4174 ;; Parameters:    Size  Location     Type
  4175 ;;  c               1    wreg     unsigned char 
  4176 ;; Auto vars:     Size  Location     Type
  4177 ;;  c               1    1[COMMON] unsigned char 
  4178 ;; Return value:  Size  Location     Type
  4179 ;;		None               void
  4180 ;; Registers used:
  4181 ;;		wreg, status,2, status,0
  4182 ;; Tracked objects:
  4183 ;;		On entry : 0/0
  4184 ;;		On exit  : 0/0
  4185 ;;		Unchanged: 0/0
  4186 ;; Data sizes:     COMMON   BANK0   BANK1   BANK3   BANK2
  4187 ;;      Params:         0       0       0       0       0
  4188 ;;      Locals:         2       0       0       0       0
  4189 ;;      Temps:          0       0       0       0       0
  4190 ;;      Totals:         2       0       0       0       0
  4191 ;;Total ram usage:        2 bytes
  4192 ;; Hardware stack levels used:    1
  4193 ;; This function calls:
  4194 ;;		Nothing
  4195 ;; This function is called by:
  4196 ;;		_atoi
  4197 ;; This function uses a non-reentrant model
  4198 ;;
  4199                           
  4200                           
  4201                           ;psect for function _isdigit
  4202  1294                     _isdigit:
  4203                           
  4204                           ;incstack = 0
  4205                           ; Regs used in _isdigit: [wreg+status,2+status,0]
  4206                           ;isdigit@c stored from wreg
  4207  1294  00F1               	movwf	isdigit@c
  4208  1295                     l2410:
  4209  1295  01F0               	clrf	_isdigit$1216
  4210  1296                     l2412:
  4211  1296  303A               	movlw	58
  4212  1297  0271               	subwf	isdigit@c,w
  4213  1298  1803               	skipnc
  4214  1299  2A9B               	goto	u2361
  4215  129A  2A9C               	goto	u2360
  4216  129B                     u2361:
  4217  129B  2AA4               	goto	l2418
  4218  129C                     u2360:
  4219  129C                     l2414:
  4220  129C  3030               	movlw	48
  4221  129D  0271               	subwf	isdigit@c,w
  4222  129E  1C03               	skipc
  4223  129F  2AA1               	goto	u2371
  4224  12A0  2AA2               	goto	u2370
  4225  12A1                     u2371:
  4226  12A1  2AA4               	goto	l2418
  4227  12A2                     u2370:
  4228  12A2                     l2416:
  4229  12A2  01F0               	clrf	_isdigit$1216
  4230  12A3  0AF0               	incf	_isdigit$1216,f
  4231  12A4                     l2418:
  4232  12A4  0C70               	rrf	_isdigit$1216,w
  4233  12A5                     l865:
  4234  12A5  0008               	return
  4235  12A6                     __end_of_isdigit:
  4236                           
  4237                           	psect	text18
  4238  03F0                     __ptext18:	
  4239 ;; *************** function _ADC_convert *****************
  4240 ;; Defined at:
  4241 ;;		line 66 in file "ADC.c"
  4242 ;; Parameters:    Size  Location     Type
  4243 ;;  data            1    wreg     PTR unsigned char 
  4244 ;;		 -> adc1(10), adc0(10), 
  4245 ;;  a               4   70[BANK0 ] float 
  4246 ;;  place           2   74[BANK0 ] int 
  4247 ;; Auto vars:     Size  Location     Type
  4248 ;;  data            1    4[BANK1 ] PTR unsigned char 
  4249 ;;		 -> adc1(10), adc0(10), 
  4250 ;;  x               4    5[BANK1 ] float 
  4251 ;;  mu              2   13[BANK1 ] int 
  4252 ;;  digits          2   11[BANK1 ] int 
  4253 ;;  i               2    9[BANK1 ] int 
  4254 ;;  j               2    2[BANK1 ] int 
  4255 ;;  temp            2    0[BANK1 ] int 
  4256 ;; Return value:  Size  Location     Type
  4257 ;;                  1    wreg      void 
  4258 ;; Registers used:
  4259 ;;		wreg, fsr0l, fsr0h, status,2, status,0, btemp+1, pclath, cstack
  4260 ;; Tracked objects:
  4261 ;;		On entry : 0/0
  4262 ;;		On exit  : 0/0
  4263 ;;		Unchanged: 0/0
  4264 ;; Data sizes:     COMMON   BANK0   BANK1   BANK3   BANK2
  4265 ;;      Params:         0       6       0       0       0
  4266 ;;      Locals:         0       0      15       0       0
  4267 ;;      Temps:          0       2       0       0       0
  4268 ;;      Totals:         0       8      15       0       0
  4269 ;;Total ram usage:       23 bytes
  4270 ;; Hardware stack levels used:    1
  4271 ;; Hardware stack levels required when called:    2
  4272 ;; This function calls:
  4273 ;;		___awdiv
  4274 ;;		___fldiv
  4275 ;;		___flge
  4276 ;;		___flmul
  4277 ;;		___flsub
  4278 ;;		___fltol
  4279 ;;		___wmul
  4280 ;;		___xxtofl
  4281 ;; This function is called by:
  4282 ;;		_main
  4283 ;; This function uses a non-reentrant model
  4284 ;;
  4285                           
  4286                           
  4287                           ;psect for function _ADC_convert
  4288  03F0                     _ADC_convert:
  4289                           
  4290                           ;incstack = 0
  4291                           ; Regs used in _ADC_convert: [wreg-fsr0h+status,2+status,0+btemp+1+pclath+cstack]
  4292                           ;ADC_convert@data stored from wreg
  4293  03F0  1683               	bsf	3,5	;RP0=1, select bank1
  4294  03F1  1303               	bcf	3,6	;RP1=0, select bank1
  4295  03F2  00C6               	movwf	ADC_convert@data^(0+128)
  4296  03F3                     l3346:
  4297                           
  4298                           ;ADC.c: 66: void ADC_convert(char *data,float a, int place);ADC.c: 67: {;ADC.c: 68:     
      +                           int temp=a;
  4299  03F3  1283               	bcf	3,5	;RP0=0, select bank0
  4300  03F4  1303               	bcf	3,6	;RP1=0, select bank0
  4301  03F5  0869               	movf	ADC_convert@a+3,w
  4302  03F6  00F3               	movwf	___fltol@f1+3
  4303  03F7  0868               	movf	ADC_convert@a+2,w
  4304  03F8  00F2               	movwf	___fltol@f1+2
  4305  03F9  0867               	movf	ADC_convert@a+1,w
  4306  03FA  00F1               	movwf	___fltol@f1+1
  4307  03FB  0866               	movf	ADC_convert@a,w
  4308  03FC  00F0               	movwf	___fltol@f1
  4309  03FD  120A  158A  2018  120A  118A  	fcall	___fltol
  4310  0402  0871               	movf	?___fltol+1,w
  4311  0403  1683               	bsf	3,5	;RP0=1, select bank1
  4312  0404  1303               	bcf	3,6	;RP1=0, select bank1
  4313  0405  00C3               	movwf	(ADC_convert@temp+1)^(0+128)
  4314  0406  0870               	movf	?___fltol,w
  4315  0407  00C2               	movwf	ADC_convert@temp^(0+128)
  4316  0408                     l3348:
  4317  0408                     l3350:
  4318                           
  4319                           ;ADC.c: 70:      int digits=0;
  4320  0408  01CD               	clrf	ADC_convert@digits^(0+128)
  4321  0409  01CE               	clrf	(ADC_convert@digits+1)^(0+128)
  4322  040A                     l3352:
  4323                           
  4324                           ;ADC.c: 71:      int i=0,mu=1;
  4325  040A  01CB               	clrf	ADC_convert@i^(0+128)
  4326  040B  01CC               	clrf	(ADC_convert@i+1)^(0+128)
  4327  040C                     l3354:
  4328  040C  3001               	movlw	1
  4329  040D  00CF               	movwf	ADC_convert@mu^(0+128)
  4330  040E  3000               	movlw	0
  4331  040F  00D0               	movwf	(ADC_convert@mu^(0+128)+1)
  4332  0410                     l3356:
  4333  0410                     l3358:
  4334                           
  4335                           ;ADC.c: 73:      if(a<0)
  4336  0410  1283               	bcf	3,5	;RP0=0, select bank0
  4337  0411  1303               	bcf	3,6	;RP1=0, select bank0
  4338  0412  0869               	movf	ADC_convert@a+3,w
  4339  0413  00F3               	movwf	___flge@ff1+3
  4340  0414  0868               	movf	ADC_convert@a+2,w
  4341  0415  00F2               	movwf	___flge@ff1+2
  4342  0416  0867               	movf	ADC_convert@a+1,w
  4343  0417  00F1               	movwf	___flge@ff1+1
  4344  0418  0866               	movf	ADC_convert@a,w
  4345  0419  00F0               	movwf	___flge@ff1
  4346  041A  3000               	movlw	0
  4347  041B  00F7               	movwf	___flge@ff2+3
  4348  041C  3000               	movlw	0
  4349  041D  00F6               	movwf	___flge@ff2+2
  4350  041E  3000               	movlw	0
  4351  041F  00F5               	movwf	___flge@ff2+1
  4352  0420  3000               	movlw	0
  4353  0421  00F4               	movwf	___flge@ff2
  4354  0422  160A  118A  2541  120A  118A  	fcall	___flge
  4355  0427  1803               	btfsc	3,0
  4356  0428  2C2A               	goto	u4241
  4357  0429  2C2B               	goto	u4240
  4358  042A                     u4241:
  4359  042A  2C79               	goto	l3370
  4360  042B                     u4240:
  4361  042B                     l3360:
  4362                           
  4363                           ;ADC.c: 74:      {;ADC.c: 75:             a=a*-1;
  4364  042B  30BF               	movlw	191
  4365  042C  1283               	bcf	3,5	;RP0=0, select bank0
  4366  042D  1303               	bcf	3,6	;RP1=0, select bank0
  4367  042E  00CF               	movwf	___flmul@b+3
  4368  042F  3080               	movlw	128
  4369  0430  00CE               	movwf	___flmul@b+2
  4370  0431  3000               	movlw	0
  4371  0432  00CD               	movwf	___flmul@b+1
  4372  0433  3000               	movlw	0
  4373  0434  00CC               	movwf	___flmul@b
  4374  0435  0869               	movf	ADC_convert@a+3,w
  4375  0436  00D3               	movwf	___flmul@a+3
  4376  0437  0868               	movf	ADC_convert@a+2,w
  4377  0438  00D2               	movwf	___flmul@a+2
  4378  0439  0867               	movf	ADC_convert@a+1,w
  4379  043A  00D1               	movwf	___flmul@a+1
  4380  043B  0866               	movf	ADC_convert@a,w
  4381  043C  00D0               	movwf	___flmul@a
  4382  043D  120A  118A  208F  120A  118A  	fcall	___flmul
  4383  0442  1283               	bcf	3,5	;RP0=0, select bank0
  4384  0443  1303               	bcf	3,6	;RP1=0, select bank0
  4385  0444  084F               	movf	?___flmul+3,w
  4386  0445  00E9               	movwf	ADC_convert@a+3
  4387  0446  084E               	movf	?___flmul+2,w
  4388  0447  00E8               	movwf	ADC_convert@a+2
  4389  0448  084D               	movf	?___flmul+1,w
  4390  0449  00E7               	movwf	ADC_convert@a+1
  4391  044A  084C               	movf	?___flmul,w
  4392  044B  00E6               	movwf	ADC_convert@a
  4393  044C                     l3362:
  4394                           
  4395                           ;ADC.c: 76:             data[i]='-';
  4396  044C  302D               	movlw	45
  4397  044D  00EC               	movwf	??_ADC_convert
  4398  044E  1683               	bsf	3,5	;RP0=1, select bank1
  4399  044F  1303               	bcf	3,6	;RP1=0, select bank1
  4400  0450  0846               	movf	ADC_convert@data^(0+128),w
  4401  0451  0084               	movwf	4
  4402  0452  1283               	bcf	3,5	;RP0=0, select bank0
  4403  0453  1303               	bcf	3,6	;RP1=0, select bank0
  4404  0454  086C               	movf	??_ADC_convert,w
  4405  0455  1383               	bcf	3,7	;select IRP bank0
  4406  0456  0080               	movwf	0
  4407  0457                     l3364:
  4408                           
  4409                           ;ADC.c: 77:             i++;
  4410  0457  3001               	movlw	1
  4411  0458  1683               	bsf	3,5	;RP0=1, select bank1
  4412  0459  1303               	bcf	3,6	;RP1=0, select bank1
  4413  045A  07CB               	addwf	ADC_convert@i^(0+128),f
  4414  045B  1803               	skipnc
  4415  045C  0ACC               	incf	(ADC_convert@i+1)^(0+128),f
  4416  045D  3000               	movlw	0
  4417  045E  07CC               	addwf	(ADC_convert@i+1)^(0+128),f
  4418  045F  2C79               	goto	l3370
  4419  0460                     l3366:
  4420                           
  4421                           ;ADC.c: 81:      {;ADC.c: 82:          temp=temp/10;
  4422  0460  300A               	movlw	10
  4423  0461  00F0               	movwf	___awdiv@divisor
  4424  0462  3000               	movlw	0
  4425  0463  00F1               	movwf	___awdiv@divisor+1
  4426  0464  0843               	movf	(ADC_convert@temp+1)^(0+128),w
  4427  0465  00F3               	movwf	___awdiv@dividend+1
  4428  0466  0842               	movf	ADC_convert@temp^(0+128),w
  4429  0467  00F2               	movwf	___awdiv@dividend
  4430  0468  160A  118A  24DA  120A  118A  	fcall	___awdiv
  4431  046D  0871               	movf	?___awdiv+1,w
  4432  046E  1683               	bsf	3,5	;RP0=1, select bank1
  4433  046F  1303               	bcf	3,6	;RP1=0, select bank1
  4434  0470  00C3               	movwf	(ADC_convert@temp+1)^(0+128)
  4435  0471  0870               	movf	?___awdiv,w
  4436  0472  00C2               	movwf	ADC_convert@temp^(0+128)
  4437  0473                     l3368:
  4438                           
  4439                           ;ADC.c: 83:          digits++;
  4440  0473  3001               	movlw	1
  4441  0474  07CD               	addwf	ADC_convert@digits^(0+128),f
  4442  0475  1803               	skipnc
  4443  0476  0ACE               	incf	(ADC_convert@digits+1)^(0+128),f
  4444  0477  3000               	movlw	0
  4445  0478  07CE               	addwf	(ADC_convert@digits+1)^(0+128),f
  4446  0479                     l3370:
  4447                           
  4448                           ;ADC.c: 80:      while(temp!=0)
  4449  0479  1683               	bsf	3,5	;RP0=1, select bank1
  4450  047A  1303               	bcf	3,6	;RP1=0, select bank1
  4451  047B  0842               	movf	ADC_convert@temp^(0+128),w
  4452  047C  0443               	iorwf	(ADC_convert@temp+1)^(0+128),w
  4453  047D  1D03               	btfss	3,2
  4454  047E  2C80               	goto	u4251
  4455  047F  2C81               	goto	u4250
  4456  0480                     u4251:
  4457  0480  2C60               	goto	l3366
  4458  0481                     u4250:
  4459  0481  2D9D               	goto	l3394
  4460  0482                     l3372:
  4461                           
  4462                           ;ADC.c: 86:      {;ADC.c: 87:          if(digits==1)mu=1;
  4463  0482  034D               	decf	ADC_convert@digits^(0+128),w
  4464  0483  044E               	iorwf	(ADC_convert@digits+1)^(0+128),w
  4465  0484  1D03               	btfss	3,2
  4466  0485  2C87               	goto	u4261
  4467  0486  2C88               	goto	u4260
  4468  0487                     u4261:
  4469  0487  2C8D               	goto	l3376
  4470  0488                     u4260:
  4471  0488                     l3374:
  4472  0488  3001               	movlw	1
  4473  0489  00CF               	movwf	ADC_convert@mu^(0+128)
  4474  048A  3000               	movlw	0
  4475  048B  00D0               	movwf	(ADC_convert@mu^(0+128)+1)
  4476  048C  2CCF               	goto	l3384
  4477  048D                     l3376:
  4478  048D  3002               	movlw	2
  4479  048E  00C4               	movwf	ADC_convert@j^(0+128)
  4480  048F  3000               	movlw	0
  4481  0490  00C5               	movwf	(ADC_convert@j^(0+128)+1)
  4482  0491  2CB9               	goto	l3382
  4483  0492                     l3378:
  4484  0492  1683               	bsf	3,5	;RP0=1, select bank1
  4485  0493  1303               	bcf	3,6	;RP1=0, select bank1
  4486  0494  0850               	movf	(ADC_convert@mu+1)^(0+128),w
  4487  0495  1283               	bcf	3,5	;RP0=0, select bank0
  4488  0496  1303               	bcf	3,6	;RP1=0, select bank0
  4489  0497  00A1               	movwf	___wmul@multiplier+1
  4490  0498  1683               	bsf	3,5	;RP0=1, select bank1
  4491  0499  1303               	bcf	3,6	;RP1=0, select bank1
  4492  049A  084F               	movf	ADC_convert@mu^(0+128),w
  4493  049B  1283               	bcf	3,5	;RP0=0, select bank0
  4494  049C  1303               	bcf	3,6	;RP1=0, select bank0
  4495  049D  00A0               	movwf	___wmul@multiplier
  4496  049E  300A               	movlw	10
  4497  049F  00A2               	movwf	___wmul@multiplicand
  4498  04A0  3000               	movlw	0
  4499  04A1  00A3               	movwf	___wmul@multiplicand+1
  4500  04A2  160A  118A  2341  120A  118A  	fcall	___wmul
  4501  04A7  1283               	bcf	3,5	;RP0=0, select bank0
  4502  04A8  1303               	bcf	3,6	;RP1=0, select bank0
  4503  04A9  0821               	movf	?___wmul+1,w
  4504  04AA  1683               	bsf	3,5	;RP0=1, select bank1
  4505  04AB  1303               	bcf	3,6	;RP1=0, select bank1
  4506  04AC  00D0               	movwf	(ADC_convert@mu+1)^(0+128)
  4507  04AD  1283               	bcf	3,5	;RP0=0, select bank0
  4508  04AE  1303               	bcf	3,6	;RP1=0, select bank0
  4509  04AF  0820               	movf	?___wmul,w
  4510  04B0  1683               	bsf	3,5	;RP0=1, select bank1
  4511  04B1  1303               	bcf	3,6	;RP1=0, select bank1
  4512  04B2  00CF               	movwf	ADC_convert@mu^(0+128)
  4513  04B3                     l3380:
  4514  04B3  3001               	movlw	1
  4515  04B4  07C4               	addwf	ADC_convert@j^(0+128),f
  4516  04B5  1803               	skipnc
  4517  04B6  0AC5               	incf	(ADC_convert@j+1)^(0+128),f
  4518  04B7  3000               	movlw	0
  4519  04B8  07C5               	addwf	(ADC_convert@j+1)^(0+128),f
  4520  04B9                     l3382:
  4521  04B9  084E               	movf	(ADC_convert@digits+1)^(0+128),w
  4522  04BA  3A80               	xorlw	128
  4523  04BB  1283               	bcf	3,5	;RP0=0, select bank0
  4524  04BC  1303               	bcf	3,6	;RP1=0, select bank0
  4525  04BD  00EC               	movwf	??_ADC_convert
  4526  04BE  1683               	bsf	3,5	;RP0=1, select bank1
  4527  04BF  1303               	bcf	3,6	;RP1=0, select bank1
  4528  04C0  0845               	movf	(ADC_convert@j+1)^(0+128),w
  4529  04C1  3A80               	xorlw	128
  4530  04C2  1283               	bcf	3,5	;RP0=0, select bank0
  4531  04C3  1303               	bcf	3,6	;RP1=0, select bank0
  4532  04C4  026C               	subwf	??_ADC_convert,w
  4533  04C5  1D03               	skipz
  4534  04C6  2CCB               	goto	u4275
  4535  04C7  1683               	bsf	3,5	;RP0=1, select bank1
  4536  04C8  1303               	bcf	3,6	;RP1=0, select bank1
  4537  04C9  0844               	movf	ADC_convert@j^(0+128),w
  4538  04CA  024D               	subwf	ADC_convert@digits^(0+128),w
  4539  04CB                     u4275:
  4540  04CB  1803               	skipnc
  4541  04CC  2CCE               	goto	u4271
  4542  04CD  2CCF               	goto	u4270
  4543  04CE                     u4271:
  4544  04CE  2C92               	goto	l3378
  4545  04CF                     u4270:
  4546  04CF                     l3384:
  4547                           
  4548                           ;ADC.c: 90:          x=a/mu;
  4549  04CF  1683               	bsf	3,5	;RP0=1, select bank1
  4550  04D0  1303               	bcf	3,6	;RP1=0, select bank1
  4551  04D1  084F               	movf	ADC_convert@mu^(0+128),w
  4552  04D2  1283               	bcf	3,5	;RP0=0, select bank0
  4553  04D3  1303               	bcf	3,6	;RP1=0, select bank0
  4554  04D4  00A4               	movwf	___xxtofl@val
  4555  04D5  1683               	bsf	3,5	;RP0=1, select bank1
  4556  04D6  1303               	bcf	3,6	;RP1=0, select bank1
  4557  04D7  0850               	movf	(ADC_convert@mu+1)^(0+128),w
  4558  04D8  1283               	bcf	3,5	;RP0=0, select bank0
  4559  04D9  1303               	bcf	3,6	;RP1=0, select bank0
  4560  04DA  00A5               	movwf	___xxtofl@val+1
  4561  04DB  3000               	movlw	0
  4562  04DC  1BA5               	btfsc	___xxtofl@val+1,7
  4563  04DD  30FF               	movlw	255
  4564  04DE  00A6               	movwf	___xxtofl@val+2
  4565  04DF  00A7               	movwf	___xxtofl@val+3
  4566  04E0  3001               	movlw	1
  4567  04E1  160A  118A  25E3  120A  118A  	fcall	___xxtofl
  4568  04E6  1283               	bcf	3,5	;RP0=0, select bank0
  4569  04E7  1303               	bcf	3,6	;RP1=0, select bank0
  4570  04E8  0827               	movf	?___xxtofl+3,w
  4571  04E9  00B5               	movwf	___fldiv@a+3
  4572  04EA  0826               	movf	?___xxtofl+2,w
  4573  04EB  00B4               	movwf	___fldiv@a+2
  4574  04EC  0825               	movf	?___xxtofl+1,w
  4575  04ED  00B3               	movwf	___fldiv@a+1
  4576  04EE  0824               	movf	?___xxtofl,w
  4577  04EF  00B2               	movwf	___fldiv@a
  4578  04F0  0869               	movf	ADC_convert@a+3,w
  4579  04F1  00B9               	movwf	___fldiv@b+3
  4580  04F2  0868               	movf	ADC_convert@a+2,w
  4581  04F3  00B8               	movwf	___fldiv@b+2
  4582  04F4  0867               	movf	ADC_convert@a+1,w
  4583  04F5  00B7               	movwf	___fldiv@b+1
  4584  04F6  0866               	movf	ADC_convert@a,w
  4585  04F7  00B6               	movwf	___fldiv@b
  4586  04F8  120A  158A  238B  120A  118A  	fcall	___fldiv
  4587  04FD  1283               	bcf	3,5	;RP0=0, select bank0
  4588  04FE  1303               	bcf	3,6	;RP1=0, select bank0
  4589  04FF  0835               	movf	?___fldiv+3,w
  4590  0500  1683               	bsf	3,5	;RP0=1, select bank1
  4591  0501  1303               	bcf	3,6	;RP1=0, select bank1
  4592  0502  00CA               	movwf	(ADC_convert@x+3)^(0+128)
  4593  0503  1283               	bcf	3,5	;RP0=0, select bank0
  4594  0504  1303               	bcf	3,6	;RP1=0, select bank0
  4595  0505  0834               	movf	?___fldiv+2,w
  4596  0506  1683               	bsf	3,5	;RP0=1, select bank1
  4597  0507  1303               	bcf	3,6	;RP1=0, select bank1
  4598  0508  00C9               	movwf	(ADC_convert@x+2)^(0+128)
  4599  0509  1283               	bcf	3,5	;RP0=0, select bank0
  4600  050A  1303               	bcf	3,6	;RP1=0, select bank0
  4601  050B  0833               	movf	?___fldiv+1,w
  4602  050C  1683               	bsf	3,5	;RP0=1, select bank1
  4603  050D  1303               	bcf	3,6	;RP1=0, select bank1
  4604  050E  00C8               	movwf	(ADC_convert@x+1)^(0+128)
  4605  050F  1283               	bcf	3,5	;RP0=0, select bank0
  4606  0510  1303               	bcf	3,6	;RP1=0, select bank0
  4607  0511  0832               	movf	?___fldiv,w
  4608  0512  1683               	bsf	3,5	;RP0=1, select bank1
  4609  0513  1303               	bcf	3,6	;RP1=0, select bank1
  4610  0514  00C7               	movwf	ADC_convert@x^(0+128)
  4611                           
  4612                           ;ADC.c: 91:          a=a-((int)x*mu);
  4613  0515  0850               	movf	(ADC_convert@mu+1)^(0+128),w
  4614  0516  1283               	bcf	3,5	;RP0=0, select bank0
  4615  0517  1303               	bcf	3,6	;RP1=0, select bank0
  4616  0518  00A3               	movwf	___wmul@multiplicand+1
  4617  0519  1683               	bsf	3,5	;RP0=1, select bank1
  4618  051A  1303               	bcf	3,6	;RP1=0, select bank1
  4619  051B  084F               	movf	ADC_convert@mu^(0+128),w
  4620  051C  1283               	bcf	3,5	;RP0=0, select bank0
  4621  051D  1303               	bcf	3,6	;RP1=0, select bank0
  4622  051E  00A2               	movwf	___wmul@multiplicand
  4623  051F  1683               	bsf	3,5	;RP0=1, select bank1
  4624  0520  1303               	bcf	3,6	;RP1=0, select bank1
  4625  0521  084A               	movf	(ADC_convert@x+3)^(0+128),w
  4626  0522  00F3               	movwf	___fltol@f1+3
  4627  0523  0849               	movf	(ADC_convert@x+2)^(0+128),w
  4628  0524  00F2               	movwf	___fltol@f1+2
  4629  0525  0848               	movf	(ADC_convert@x+1)^(0+128),w
  4630  0526  00F1               	movwf	___fltol@f1+1
  4631  0527  0847               	movf	ADC_convert@x^(0+128),w
  4632  0528  00F0               	movwf	___fltol@f1
  4633  0529  120A  158A  2018  120A  118A  	fcall	___fltol
  4634  052E  0871               	movf	?___fltol+1,w
  4635  052F  1283               	bcf	3,5	;RP0=0, select bank0
  4636  0530  1303               	bcf	3,6	;RP1=0, select bank0
  4637  0531  00A1               	movwf	___wmul@multiplier+1
  4638  0532  0870               	movf	?___fltol,w
  4639  0533  00A0               	movwf	___wmul@multiplier
  4640  0534  160A  118A  2341  120A  118A  	fcall	___wmul
  4641  0539  1283               	bcf	3,5	;RP0=0, select bank0
  4642  053A  1303               	bcf	3,6	;RP1=0, select bank0
  4643  053B  0820               	movf	?___wmul,w
  4644  053C  00A4               	movwf	___xxtofl@val
  4645  053D  0821               	movf	?___wmul+1,w
  4646  053E  00A5               	movwf	___xxtofl@val+1
  4647  053F  3000               	movlw	0
  4648  0540  1BA5               	btfsc	___xxtofl@val+1,7
  4649  0541  30FF               	movlw	255
  4650  0542  00A6               	movwf	___xxtofl@val+2
  4651  0543  00A7               	movwf	___xxtofl@val+3
  4652  0544  3001               	movlw	1
  4653  0545  160A  118A  25E3  120A  118A  	fcall	___xxtofl
  4654  054A  1283               	bcf	3,5	;RP0=0, select bank0
  4655  054B  1303               	bcf	3,6	;RP1=0, select bank0
  4656  054C  0827               	movf	?___xxtofl+3,w
  4657  054D  00B5               	movwf	___flsub@a+3
  4658  054E  0826               	movf	?___xxtofl+2,w
  4659  054F  00B4               	movwf	___flsub@a+2
  4660  0550  0825               	movf	?___xxtofl+1,w
  4661  0551  00B3               	movwf	___flsub@a+1
  4662  0552  0824               	movf	?___xxtofl,w
  4663  0553  00B2               	movwf	___flsub@a
  4664  0554  0869               	movf	ADC_convert@a+3,w
  4665  0555  00B9               	movwf	___flsub@b+3
  4666  0556  0868               	movf	ADC_convert@a+2,w
  4667  0557  00B8               	movwf	___flsub@b+2
  4668  0558  0867               	movf	ADC_convert@a+1,w
  4669  0559  00B7               	movwf	___flsub@b+1
  4670  055A  0866               	movf	ADC_convert@a,w
  4671  055B  00B6               	movwf	___flsub@b
  4672  055C  160A  118A  22F6  120A  118A  	fcall	___flsub
  4673  0561  1283               	bcf	3,5	;RP0=0, select bank0
  4674  0562  1303               	bcf	3,6	;RP1=0, select bank0
  4675  0563  0835               	movf	?___flsub+3,w
  4676  0564  00E9               	movwf	ADC_convert@a+3
  4677  0565  0834               	movf	?___flsub+2,w
  4678  0566  00E8               	movwf	ADC_convert@a+2
  4679  0567  0833               	movf	?___flsub+1,w
  4680  0568  00E7               	movwf	ADC_convert@a+1
  4681  0569  0832               	movf	?___flsub,w
  4682  056A  00E6               	movwf	ADC_convert@a
  4683  056B                     l3386:
  4684                           
  4685                           ;ADC.c: 92:          data[i]=0x30+((int)x);
  4686  056B  1683               	bsf	3,5	;RP0=1, select bank1
  4687  056C  1303               	bcf	3,6	;RP1=0, select bank1
  4688  056D  084A               	movf	(ADC_convert@x+3)^(0+128),w
  4689  056E  00F3               	movwf	___fltol@f1+3
  4690  056F  0849               	movf	(ADC_convert@x+2)^(0+128),w
  4691  0570  00F2               	movwf	___fltol@f1+2
  4692  0571  0848               	movf	(ADC_convert@x+1)^(0+128),w
  4693  0572  00F1               	movwf	___fltol@f1+1
  4694  0573  0847               	movf	ADC_convert@x^(0+128),w
  4695  0574  00F0               	movwf	___fltol@f1
  4696  0575  120A  158A  2018  120A  118A  	fcall	___fltol
  4697  057A  0870               	movf	?___fltol,w
  4698  057B  3E30               	addlw	48
  4699  057C  1283               	bcf	3,5	;RP0=0, select bank0
  4700  057D  1303               	bcf	3,6	;RP1=0, select bank0
  4701  057E  00EC               	movwf	??_ADC_convert
  4702  057F  1683               	bsf	3,5	;RP0=1, select bank1
  4703  0580  1303               	bcf	3,6	;RP1=0, select bank1
  4704  0581  084B               	movf	ADC_convert@i^(0+128),w
  4705  0582  0746               	addwf	ADC_convert@data^(0+128),w
  4706  0583  1283               	bcf	3,5	;RP0=0, select bank0
  4707  0584  1303               	bcf	3,6	;RP1=0, select bank0
  4708  0585  00ED               	movwf	??_ADC_convert+1
  4709  0586  086D               	movf	??_ADC_convert+1,w
  4710  0587  0084               	movwf	4
  4711  0588  086C               	movf	??_ADC_convert,w
  4712  0589  1383               	bcf	3,7	;select IRP bank0
  4713  058A  0080               	movwf	0
  4714  058B                     l3388:
  4715                           
  4716                           ;ADC.c: 93:          i++;
  4717  058B  3001               	movlw	1
  4718  058C  1683               	bsf	3,5	;RP0=1, select bank1
  4719  058D  1303               	bcf	3,6	;RP1=0, select bank1
  4720  058E  07CB               	addwf	ADC_convert@i^(0+128),f
  4721  058F  1803               	skipnc
  4722  0590  0ACC               	incf	(ADC_convert@i+1)^(0+128),f
  4723  0591  3000               	movlw	0
  4724  0592  07CC               	addwf	(ADC_convert@i+1)^(0+128),f
  4725  0593                     l3390:
  4726                           
  4727                           ;ADC.c: 94:          digits--;
  4728  0593  30FF               	movlw	255
  4729  0594  07CD               	addwf	ADC_convert@digits^(0+128),f
  4730  0595  1803               	skipnc
  4731  0596  0ACE               	incf	(ADC_convert@digits+1)^(0+128),f
  4732  0597  30FF               	movlw	255
  4733  0598  07CE               	addwf	(ADC_convert@digits+1)^(0+128),f
  4734  0599                     l3392:
  4735                           
  4736                           ;ADC.c: 95:          mu=1;
  4737  0599  3001               	movlw	1
  4738  059A  00CF               	movwf	ADC_convert@mu^(0+128)
  4739  059B  3000               	movlw	0
  4740  059C  00D0               	movwf	(ADC_convert@mu^(0+128)+1)
  4741  059D                     l3394:
  4742                           
  4743                           ;ADC.c: 85:      while(digits!=0)
  4744  059D  084D               	movf	ADC_convert@digits^(0+128),w
  4745  059E  044E               	iorwf	(ADC_convert@digits+1)^(0+128),w
  4746  059F  1D03               	btfss	3,2
  4747  05A0  2DA2               	goto	u4281
  4748  05A1  2DA3               	goto	u4280
  4749  05A2                     u4281:
  4750  05A2  2C82               	goto	l3372
  4751  05A3                     u4280:
  4752  05A3                     l3396:
  4753                           
  4754                           ;ADC.c: 98:      data[i]='.';
  4755  05A3  302E               	movlw	46
  4756  05A4  1283               	bcf	3,5	;RP0=0, select bank0
  4757  05A5  1303               	bcf	3,6	;RP1=0, select bank0
  4758  05A6  00EC               	movwf	??_ADC_convert
  4759  05A7  1683               	bsf	3,5	;RP0=1, select bank1
  4760  05A8  1303               	bcf	3,6	;RP1=0, select bank1
  4761  05A9  084B               	movf	ADC_convert@i^(0+128),w
  4762  05AA  0746               	addwf	ADC_convert@data^(0+128),w
  4763  05AB  1283               	bcf	3,5	;RP0=0, select bank0
  4764  05AC  1303               	bcf	3,6	;RP1=0, select bank0
  4765  05AD  00ED               	movwf	??_ADC_convert+1
  4766  05AE  086D               	movf	??_ADC_convert+1,w
  4767  05AF  0084               	movwf	4
  4768  05B0  086C               	movf	??_ADC_convert,w
  4769  05B1  1383               	bcf	3,7	;select IRP bank0
  4770  05B2  0080               	movwf	0
  4771  05B3                     l3398:
  4772                           
  4773                           ;ADC.c: 99:      i++;
  4774  05B3  3001               	movlw	1
  4775  05B4  1683               	bsf	3,5	;RP0=1, select bank1
  4776  05B5  1303               	bcf	3,6	;RP1=0, select bank1
  4777  05B6  07CB               	addwf	ADC_convert@i^(0+128),f
  4778  05B7  1803               	skipnc
  4779  05B8  0ACC               	incf	(ADC_convert@i+1)^(0+128),f
  4780  05B9  3000               	movlw	0
  4781  05BA  07CC               	addwf	(ADC_convert@i+1)^(0+128),f
  4782  05BB                     l3400:
  4783  05BB                     l3402:
  4784                           
  4785                           ;ADC.c: 101:      for(j=1;j<=place;j++)mu=mu*10;
  4786  05BB  3001               	movlw	1
  4787  05BC  00C4               	movwf	ADC_convert@j^(0+128)
  4788  05BD  3000               	movlw	0
  4789  05BE  00C5               	movwf	(ADC_convert@j^(0+128)+1)
  4790  05BF  2DE7               	goto	l3408
  4791  05C0                     l3404:
  4792  05C0  1683               	bsf	3,5	;RP0=1, select bank1
  4793  05C1  1303               	bcf	3,6	;RP1=0, select bank1
  4794  05C2  0850               	movf	(ADC_convert@mu+1)^(0+128),w
  4795  05C3  1283               	bcf	3,5	;RP0=0, select bank0
  4796  05C4  1303               	bcf	3,6	;RP1=0, select bank0
  4797  05C5  00A1               	movwf	___wmul@multiplier+1
  4798  05C6  1683               	bsf	3,5	;RP0=1, select bank1
  4799  05C7  1303               	bcf	3,6	;RP1=0, select bank1
  4800  05C8  084F               	movf	ADC_convert@mu^(0+128),w
  4801  05C9  1283               	bcf	3,5	;RP0=0, select bank0
  4802  05CA  1303               	bcf	3,6	;RP1=0, select bank0
  4803  05CB  00A0               	movwf	___wmul@multiplier
  4804  05CC  300A               	movlw	10
  4805  05CD  00A2               	movwf	___wmul@multiplicand
  4806  05CE  3000               	movlw	0
  4807  05CF  00A3               	movwf	___wmul@multiplicand+1
  4808  05D0  160A  118A  2341  120A  118A  	fcall	___wmul
  4809  05D5  1283               	bcf	3,5	;RP0=0, select bank0
  4810  05D6  1303               	bcf	3,6	;RP1=0, select bank0
  4811  05D7  0821               	movf	?___wmul+1,w
  4812  05D8  1683               	bsf	3,5	;RP0=1, select bank1
  4813  05D9  1303               	bcf	3,6	;RP1=0, select bank1
  4814  05DA  00D0               	movwf	(ADC_convert@mu+1)^(0+128)
  4815  05DB  1283               	bcf	3,5	;RP0=0, select bank0
  4816  05DC  1303               	bcf	3,6	;RP1=0, select bank0
  4817  05DD  0820               	movf	?___wmul,w
  4818  05DE  1683               	bsf	3,5	;RP0=1, select bank1
  4819  05DF  1303               	bcf	3,6	;RP1=0, select bank1
  4820  05E0  00CF               	movwf	ADC_convert@mu^(0+128)
  4821  05E1                     l3406:
  4822  05E1  3001               	movlw	1
  4823  05E2  07C4               	addwf	ADC_convert@j^(0+128),f
  4824  05E3  1803               	skipnc
  4825  05E4  0AC5               	incf	(ADC_convert@j+1)^(0+128),f
  4826  05E5  3000               	movlw	0
  4827  05E6  07C5               	addwf	(ADC_convert@j+1)^(0+128),f
  4828  05E7                     l3408:
  4829  05E7  1283               	bcf	3,5	;RP0=0, select bank0
  4830  05E8  1303               	bcf	3,6	;RP1=0, select bank0
  4831  05E9  086B               	movf	ADC_convert@place+1,w
  4832  05EA  3A80               	xorlw	128
  4833  05EB  00EC               	movwf	??_ADC_convert
  4834  05EC  1683               	bsf	3,5	;RP0=1, select bank1
  4835  05ED  1303               	bcf	3,6	;RP1=0, select bank1
  4836  05EE  0845               	movf	(ADC_convert@j+1)^(0+128),w
  4837  05EF  3A80               	xorlw	128
  4838  05F0  1283               	bcf	3,5	;RP0=0, select bank0
  4839  05F1  1303               	bcf	3,6	;RP1=0, select bank0
  4840  05F2  026C               	subwf	??_ADC_convert,w
  4841  05F3  1D03               	skipz
  4842  05F4  2DFB               	goto	u4295
  4843  05F5  1683               	bsf	3,5	;RP0=1, select bank1
  4844  05F6  1303               	bcf	3,6	;RP1=0, select bank1
  4845  05F7  0844               	movf	ADC_convert@j^(0+128),w
  4846  05F8  1283               	bcf	3,5	;RP0=0, select bank0
  4847  05F9  1303               	bcf	3,6	;RP1=0, select bank0
  4848  05FA  026A               	subwf	ADC_convert@place,w
  4849  05FB                     u4295:
  4850  05FB  1803               	skipnc
  4851  05FC  2DFE               	goto	u4291
  4852  05FD  2DFF               	goto	u4290
  4853  05FE                     u4291:
  4854  05FE  2DC0               	goto	l3404
  4855  05FF                     u4290:
  4856  05FF                     l3410:
  4857                           
  4858                           ;ADC.c: 102:      x=(a-(int)a)*mu;
  4859  05FF  1683               	bsf	3,5	;RP0=1, select bank1
  4860  0600  1303               	bcf	3,6	;RP1=0, select bank1
  4861  0601  084F               	movf	ADC_convert@mu^(0+128),w
  4862  0602  1283               	bcf	3,5	;RP0=0, select bank0
  4863  0603  1303               	bcf	3,6	;RP1=0, select bank0
  4864  0604  00A4               	movwf	___xxtofl@val
  4865  0605  1683               	bsf	3,5	;RP0=1, select bank1
  4866  0606  1303               	bcf	3,6	;RP1=0, select bank1
  4867  0607  0850               	movf	(ADC_convert@mu+1)^(0+128),w
  4868  0608  1283               	bcf	3,5	;RP0=0, select bank0
  4869  0609  1303               	bcf	3,6	;RP1=0, select bank0
  4870  060A  00A5               	movwf	___xxtofl@val+1
  4871  060B  3000               	movlw	0
  4872  060C  1BA5               	btfsc	___xxtofl@val+1,7
  4873  060D  30FF               	movlw	255
  4874  060E  00A6               	movwf	___xxtofl@val+2
  4875  060F  00A7               	movwf	___xxtofl@val+3
  4876  0610  3001               	movlw	1
  4877  0611  160A  118A  25E3  120A  118A  	fcall	___xxtofl
  4878  0616  1283               	bcf	3,5	;RP0=0, select bank0
  4879  0617  1303               	bcf	3,6	;RP1=0, select bank0
  4880  0618  0827               	movf	?___xxtofl+3,w
  4881  0619  00CF               	movwf	___flmul@b+3
  4882  061A  0826               	movf	?___xxtofl+2,w
  4883  061B  00CE               	movwf	___flmul@b+2
  4884  061C  0825               	movf	?___xxtofl+1,w
  4885  061D  00CD               	movwf	___flmul@b+1
  4886  061E  0824               	movf	?___xxtofl,w
  4887  061F  00CC               	movwf	___flmul@b
  4888  0620  0869               	movf	ADC_convert@a+3,w
  4889  0621  00F3               	movwf	___fltol@f1+3
  4890  0622  0868               	movf	ADC_convert@a+2,w
  4891  0623  00F2               	movwf	___fltol@f1+2
  4892  0624  0867               	movf	ADC_convert@a+1,w
  4893  0625  00F1               	movwf	___fltol@f1+1
  4894  0626  0866               	movf	ADC_convert@a,w
  4895  0627  00F0               	movwf	___fltol@f1
  4896  0628  120A  158A  2018  120A  118A  	fcall	___fltol
  4897  062D  0870               	movf	?___fltol,w
  4898  062E  1283               	bcf	3,5	;RP0=0, select bank0
  4899  062F  1303               	bcf	3,6	;RP1=0, select bank0
  4900  0630  00A4               	movwf	___xxtofl@val
  4901  0631  0871               	movf	?___fltol+1,w
  4902  0632  00A5               	movwf	___xxtofl@val+1
  4903  0633  3000               	movlw	0
  4904  0634  1BA5               	btfsc	___xxtofl@val+1,7
  4905  0635  30FF               	movlw	255
  4906  0636  00A6               	movwf	___xxtofl@val+2
  4907  0637  00A7               	movwf	___xxtofl@val+3
  4908  0638  3001               	movlw	1
  4909  0639  160A  118A  25E3  120A  118A  	fcall	___xxtofl
  4910  063E  1283               	bcf	3,5	;RP0=0, select bank0
  4911  063F  1303               	bcf	3,6	;RP1=0, select bank0
  4912  0640  0827               	movf	?___xxtofl+3,w
  4913  0641  00B5               	movwf	___flsub@a+3
  4914  0642  0826               	movf	?___xxtofl+2,w
  4915  0643  00B4               	movwf	___flsub@a+2
  4916  0644  0825               	movf	?___xxtofl+1,w
  4917  0645  00B3               	movwf	___flsub@a+1
  4918  0646  0824               	movf	?___xxtofl,w
  4919  0647  00B2               	movwf	___flsub@a
  4920  0648  0869               	movf	ADC_convert@a+3,w
  4921  0649  00B9               	movwf	___flsub@b+3
  4922  064A  0868               	movf	ADC_convert@a+2,w
  4923  064B  00B8               	movwf	___flsub@b+2
  4924  064C  0867               	movf	ADC_convert@a+1,w
  4925  064D  00B7               	movwf	___flsub@b+1
  4926  064E  0866               	movf	ADC_convert@a,w
  4927  064F  00B6               	movwf	___flsub@b
  4928  0650  160A  118A  22F6  120A  118A  	fcall	___flsub
  4929  0655  1283               	bcf	3,5	;RP0=0, select bank0
  4930  0656  1303               	bcf	3,6	;RP1=0, select bank0
  4931  0657  0835               	movf	?___flsub+3,w
  4932  0658  00D3               	movwf	___flmul@a+3
  4933  0659  0834               	movf	?___flsub+2,w
  4934  065A  00D2               	movwf	___flmul@a+2
  4935  065B  0833               	movf	?___flsub+1,w
  4936  065C  00D1               	movwf	___flmul@a+1
  4937  065D  0832               	movf	?___flsub,w
  4938  065E  00D0               	movwf	___flmul@a
  4939  065F  120A  118A  208F  120A  118A  	fcall	___flmul
  4940  0664  1283               	bcf	3,5	;RP0=0, select bank0
  4941  0665  1303               	bcf	3,6	;RP1=0, select bank0
  4942  0666  084F               	movf	?___flmul+3,w
  4943  0667  1683               	bsf	3,5	;RP0=1, select bank1
  4944  0668  1303               	bcf	3,6	;RP1=0, select bank1
  4945  0669  00CA               	movwf	(ADC_convert@x+3)^(0+128)
  4946  066A  1283               	bcf	3,5	;RP0=0, select bank0
  4947  066B  1303               	bcf	3,6	;RP1=0, select bank0
  4948  066C  084E               	movf	?___flmul+2,w
  4949  066D  1683               	bsf	3,5	;RP0=1, select bank1
  4950  066E  1303               	bcf	3,6	;RP1=0, select bank1
  4951  066F  00C9               	movwf	(ADC_convert@x+2)^(0+128)
  4952  0670  1283               	bcf	3,5	;RP0=0, select bank0
  4953  0671  1303               	bcf	3,6	;RP1=0, select bank0
  4954  0672  084D               	movf	?___flmul+1,w
  4955  0673  1683               	bsf	3,5	;RP0=1, select bank1
  4956  0674  1303               	bcf	3,6	;RP1=0, select bank1
  4957  0675  00C8               	movwf	(ADC_convert@x+1)^(0+128)
  4958  0676  1283               	bcf	3,5	;RP0=0, select bank0
  4959  0677  1303               	bcf	3,6	;RP1=0, select bank0
  4960  0678  084C               	movf	?___flmul,w
  4961  0679  1683               	bsf	3,5	;RP0=1, select bank1
  4962  067A  1303               	bcf	3,6	;RP1=0, select bank1
  4963  067B  00C7               	movwf	ADC_convert@x^(0+128)
  4964  067C                     l3412:
  4965                           
  4966                           ;ADC.c: 103:      a=x;
  4967  067C  084A               	movf	(ADC_convert@x+3)^(0+128),w
  4968  067D  1283               	bcf	3,5	;RP0=0, select bank0
  4969  067E  1303               	bcf	3,6	;RP1=0, select bank0
  4970  067F  00E9               	movwf	ADC_convert@a+3
  4971  0680  1683               	bsf	3,5	;RP0=1, select bank1
  4972  0681  1303               	bcf	3,6	;RP1=0, select bank1
  4973  0682  0849               	movf	(ADC_convert@x+2)^(0+128),w
  4974  0683  1283               	bcf	3,5	;RP0=0, select bank0
  4975  0684  1303               	bcf	3,6	;RP1=0, select bank0
  4976  0685  00E8               	movwf	ADC_convert@a+2
  4977  0686  1683               	bsf	3,5	;RP0=1, select bank1
  4978  0687  1303               	bcf	3,6	;RP1=0, select bank1
  4979  0688  0848               	movf	(ADC_convert@x+1)^(0+128),w
  4980  0689  1283               	bcf	3,5	;RP0=0, select bank0
  4981  068A  1303               	bcf	3,6	;RP1=0, select bank0
  4982  068B  00E7               	movwf	ADC_convert@a+1
  4983  068C  1683               	bsf	3,5	;RP0=1, select bank1
  4984  068D  1303               	bcf	3,6	;RP1=0, select bank1
  4985  068E  0847               	movf	ADC_convert@x^(0+128),w
  4986  068F  1283               	bcf	3,5	;RP0=0, select bank0
  4987  0690  1303               	bcf	3,6	;RP1=0, select bank0
  4988  0691  00E6               	movwf	ADC_convert@a
  4989  0692                     l3414:
  4990  0692  0869               	movf	ADC_convert@a+3,w
  4991  0693  00F3               	movwf	___fltol@f1+3
  4992  0694  0868               	movf	ADC_convert@a+2,w
  4993  0695  00F2               	movwf	___fltol@f1+2
  4994  0696  0867               	movf	ADC_convert@a+1,w
  4995  0697  00F1               	movwf	___fltol@f1+1
  4996  0698  0866               	movf	ADC_convert@a,w
  4997  0699  00F0               	movwf	___fltol@f1
  4998  069A  120A  158A  2018  120A  118A  	fcall	___fltol
  4999  069F                     l3416:
  5000  069F                     l3418:
  5001                           
  5002                           ;ADC.c: 106:      mu=1;
  5003  069F  3001               	movlw	1
  5004  06A0  1683               	bsf	3,5	;RP0=1, select bank1
  5005  06A1  1303               	bcf	3,6	;RP1=0, select bank1
  5006  06A2  00CF               	movwf	ADC_convert@mu^(0+128)
  5007  06A3  3000               	movlw	0
  5008  06A4  00D0               	movwf	(ADC_convert@mu^(0+128)+1)
  5009  06A5                     l3420:
  5010                           
  5011                           ;ADC.c: 107:      digits=place;
  5012  06A5  1283               	bcf	3,5	;RP0=0, select bank0
  5013  06A6  1303               	bcf	3,6	;RP1=0, select bank0
  5014  06A7  086B               	movf	ADC_convert@place+1,w
  5015  06A8  1683               	bsf	3,5	;RP0=1, select bank1
  5016  06A9  1303               	bcf	3,6	;RP1=0, select bank1
  5017  06AA  00CE               	movwf	(ADC_convert@digits+1)^(0+128)
  5018  06AB  1283               	bcf	3,5	;RP0=0, select bank0
  5019  06AC  1303               	bcf	3,6	;RP1=0, select bank0
  5020  06AD  086A               	movf	ADC_convert@place,w
  5021  06AE  1683               	bsf	3,5	;RP0=1, select bank1
  5022  06AF  1303               	bcf	3,6	;RP1=0, select bank1
  5023  06B0  00CD               	movwf	ADC_convert@digits^(0+128)
  5024                           
  5025                           ;ADC.c: 108:      while(digits!=0)
  5026  06B1  2FCD               	goto	l3444
  5027  06B2                     l3422:
  5028                           
  5029                           ;ADC.c: 109:      {;ADC.c: 110:          if(digits==1)mu=1;
  5030  06B2  034D               	decf	ADC_convert@digits^(0+128),w
  5031  06B3  044E               	iorwf	(ADC_convert@digits+1)^(0+128),w
  5032  06B4  1D03               	btfss	3,2
  5033  06B5  2EB7               	goto	u4301
  5034  06B6  2EB8               	goto	u4300
  5035  06B7                     u4301:
  5036  06B7  2EBD               	goto	l3426
  5037  06B8                     u4300:
  5038  06B8                     l3424:
  5039  06B8  3001               	movlw	1
  5040  06B9  00CF               	movwf	ADC_convert@mu^(0+128)
  5041  06BA  3000               	movlw	0
  5042  06BB  00D0               	movwf	(ADC_convert@mu^(0+128)+1)
  5043  06BC  2EFF               	goto	l3434
  5044  06BD                     l3426:
  5045  06BD  3002               	movlw	2
  5046  06BE  00C4               	movwf	ADC_convert@j^(0+128)
  5047  06BF  3000               	movlw	0
  5048  06C0  00C5               	movwf	(ADC_convert@j^(0+128)+1)
  5049  06C1  2EE9               	goto	l3432
  5050  06C2                     l3428:
  5051  06C2  1683               	bsf	3,5	;RP0=1, select bank1
  5052  06C3  1303               	bcf	3,6	;RP1=0, select bank1
  5053  06C4  0850               	movf	(ADC_convert@mu+1)^(0+128),w
  5054  06C5  1283               	bcf	3,5	;RP0=0, select bank0
  5055  06C6  1303               	bcf	3,6	;RP1=0, select bank0
  5056  06C7  00A1               	movwf	___wmul@multiplier+1
  5057  06C8  1683               	bsf	3,5	;RP0=1, select bank1
  5058  06C9  1303               	bcf	3,6	;RP1=0, select bank1
  5059  06CA  084F               	movf	ADC_convert@mu^(0+128),w
  5060  06CB  1283               	bcf	3,5	;RP0=0, select bank0
  5061  06CC  1303               	bcf	3,6	;RP1=0, select bank0
  5062  06CD  00A0               	movwf	___wmul@multiplier
  5063  06CE  300A               	movlw	10
  5064  06CF  00A2               	movwf	___wmul@multiplicand
  5065  06D0  3000               	movlw	0
  5066  06D1  00A3               	movwf	___wmul@multiplicand+1
  5067  06D2  160A  118A  2341  120A  118A  	fcall	___wmul
  5068  06D7  1283               	bcf	3,5	;RP0=0, select bank0
  5069  06D8  1303               	bcf	3,6	;RP1=0, select bank0
  5070  06D9  0821               	movf	?___wmul+1,w
  5071  06DA  1683               	bsf	3,5	;RP0=1, select bank1
  5072  06DB  1303               	bcf	3,6	;RP1=0, select bank1
  5073  06DC  00D0               	movwf	(ADC_convert@mu+1)^(0+128)
  5074  06DD  1283               	bcf	3,5	;RP0=0, select bank0
  5075  06DE  1303               	bcf	3,6	;RP1=0, select bank0
  5076  06DF  0820               	movf	?___wmul,w
  5077  06E0  1683               	bsf	3,5	;RP0=1, select bank1
  5078  06E1  1303               	bcf	3,6	;RP1=0, select bank1
  5079  06E2  00CF               	movwf	ADC_convert@mu^(0+128)
  5080  06E3                     l3430:
  5081  06E3  3001               	movlw	1
  5082  06E4  07C4               	addwf	ADC_convert@j^(0+128),f
  5083  06E5  1803               	skipnc
  5084  06E6  0AC5               	incf	(ADC_convert@j+1)^(0+128),f
  5085  06E7  3000               	movlw	0
  5086  06E8  07C5               	addwf	(ADC_convert@j+1)^(0+128),f
  5087  06E9                     l3432:
  5088  06E9  084E               	movf	(ADC_convert@digits+1)^(0+128),w
  5089  06EA  3A80               	xorlw	128
  5090  06EB  1283               	bcf	3,5	;RP0=0, select bank0
  5091  06EC  1303               	bcf	3,6	;RP1=0, select bank0
  5092  06ED  00EC               	movwf	??_ADC_convert
  5093  06EE  1683               	bsf	3,5	;RP0=1, select bank1
  5094  06EF  1303               	bcf	3,6	;RP1=0, select bank1
  5095  06F0  0845               	movf	(ADC_convert@j+1)^(0+128),w
  5096  06F1  3A80               	xorlw	128
  5097  06F2  1283               	bcf	3,5	;RP0=0, select bank0
  5098  06F3  1303               	bcf	3,6	;RP1=0, select bank0
  5099  06F4  026C               	subwf	??_ADC_convert,w
  5100  06F5  1D03               	skipz
  5101  06F6  2EFB               	goto	u4315
  5102  06F7  1683               	bsf	3,5	;RP0=1, select bank1
  5103  06F8  1303               	bcf	3,6	;RP1=0, select bank1
  5104  06F9  0844               	movf	ADC_convert@j^(0+128),w
  5105  06FA  024D               	subwf	ADC_convert@digits^(0+128),w
  5106  06FB                     u4315:
  5107  06FB  1803               	skipnc
  5108  06FC  2EFE               	goto	u4311
  5109  06FD  2EFF               	goto	u4310
  5110  06FE                     u4311:
  5111  06FE  2EC2               	goto	l3428
  5112  06FF                     u4310:
  5113  06FF                     l3434:
  5114                           
  5115                           ;ADC.c: 113:          x=a/mu;
  5116  06FF  1683               	bsf	3,5	;RP0=1, select bank1
  5117  0700  1303               	bcf	3,6	;RP1=0, select bank1
  5118  0701  084F               	movf	ADC_convert@mu^(0+128),w
  5119  0702  1283               	bcf	3,5	;RP0=0, select bank0
  5120  0703  1303               	bcf	3,6	;RP1=0, select bank0
  5121  0704  00A4               	movwf	___xxtofl@val
  5122  0705  1683               	bsf	3,5	;RP0=1, select bank1
  5123  0706  1303               	bcf	3,6	;RP1=0, select bank1
  5124  0707  0850               	movf	(ADC_convert@mu+1)^(0+128),w
  5125  0708  1283               	bcf	3,5	;RP0=0, select bank0
  5126  0709  1303               	bcf	3,6	;RP1=0, select bank0
  5127  070A  00A5               	movwf	___xxtofl@val+1
  5128  070B  3000               	movlw	0
  5129  070C  1BA5               	btfsc	___xxtofl@val+1,7
  5130  070D  30FF               	movlw	255
  5131  070E  00A6               	movwf	___xxtofl@val+2
  5132  070F  00A7               	movwf	___xxtofl@val+3
  5133  0710  3001               	movlw	1
  5134  0711  160A  118A  25E3  120A  118A  	fcall	___xxtofl
  5135  0716  1283               	bcf	3,5	;RP0=0, select bank0
  5136  0717  1303               	bcf	3,6	;RP1=0, select bank0
  5137  0718  0827               	movf	?___xxtofl+3,w
  5138  0719  00B5               	movwf	___fldiv@a+3
  5139  071A  0826               	movf	?___xxtofl+2,w
  5140  071B  00B4               	movwf	___fldiv@a+2
  5141  071C  0825               	movf	?___xxtofl+1,w
  5142  071D  00B3               	movwf	___fldiv@a+1
  5143  071E  0824               	movf	?___xxtofl,w
  5144  071F  00B2               	movwf	___fldiv@a
  5145  0720  0869               	movf	ADC_convert@a+3,w
  5146  0721  00B9               	movwf	___fldiv@b+3
  5147  0722  0868               	movf	ADC_convert@a+2,w
  5148  0723  00B8               	movwf	___fldiv@b+2
  5149  0724  0867               	movf	ADC_convert@a+1,w
  5150  0725  00B7               	movwf	___fldiv@b+1
  5151  0726  0866               	movf	ADC_convert@a,w
  5152  0727  00B6               	movwf	___fldiv@b
  5153  0728  120A  158A  238B  120A  118A  	fcall	___fldiv
  5154  072D  1283               	bcf	3,5	;RP0=0, select bank0
  5155  072E  1303               	bcf	3,6	;RP1=0, select bank0
  5156  072F  0835               	movf	?___fldiv+3,w
  5157  0730  1683               	bsf	3,5	;RP0=1, select bank1
  5158  0731  1303               	bcf	3,6	;RP1=0, select bank1
  5159  0732  00CA               	movwf	(ADC_convert@x+3)^(0+128)
  5160  0733  1283               	bcf	3,5	;RP0=0, select bank0
  5161  0734  1303               	bcf	3,6	;RP1=0, select bank0
  5162  0735  0834               	movf	?___fldiv+2,w
  5163  0736  1683               	bsf	3,5	;RP0=1, select bank1
  5164  0737  1303               	bcf	3,6	;RP1=0, select bank1
  5165  0738  00C9               	movwf	(ADC_convert@x+2)^(0+128)
  5166  0739  1283               	bcf	3,5	;RP0=0, select bank0
  5167  073A  1303               	bcf	3,6	;RP1=0, select bank0
  5168  073B  0833               	movf	?___fldiv+1,w
  5169  073C  1683               	bsf	3,5	;RP0=1, select bank1
  5170  073D  1303               	bcf	3,6	;RP1=0, select bank1
  5171  073E  00C8               	movwf	(ADC_convert@x+1)^(0+128)
  5172  073F  1283               	bcf	3,5	;RP0=0, select bank0
  5173  0740  1303               	bcf	3,6	;RP1=0, select bank0
  5174  0741  0832               	movf	?___fldiv,w
  5175  0742  1683               	bsf	3,5	;RP0=1, select bank1
  5176  0743  1303               	bcf	3,6	;RP1=0, select bank1
  5177  0744  00C7               	movwf	ADC_convert@x^(0+128)
  5178                           
  5179                           ;ADC.c: 114:          a=a-((int)x*mu);
  5180  0745  0850               	movf	(ADC_convert@mu+1)^(0+128),w
  5181  0746  1283               	bcf	3,5	;RP0=0, select bank0
  5182  0747  1303               	bcf	3,6	;RP1=0, select bank0
  5183  0748  00A3               	movwf	___wmul@multiplicand+1
  5184  0749  1683               	bsf	3,5	;RP0=1, select bank1
  5185  074A  1303               	bcf	3,6	;RP1=0, select bank1
  5186  074B  084F               	movf	ADC_convert@mu^(0+128),w
  5187  074C  1283               	bcf	3,5	;RP0=0, select bank0
  5188  074D  1303               	bcf	3,6	;RP1=0, select bank0
  5189  074E  00A2               	movwf	___wmul@multiplicand
  5190  074F  1683               	bsf	3,5	;RP0=1, select bank1
  5191  0750  1303               	bcf	3,6	;RP1=0, select bank1
  5192  0751  084A               	movf	(ADC_convert@x+3)^(0+128),w
  5193  0752  00F3               	movwf	___fltol@f1+3
  5194  0753  0849               	movf	(ADC_convert@x+2)^(0+128),w
  5195  0754  00F2               	movwf	___fltol@f1+2
  5196  0755  0848               	movf	(ADC_convert@x+1)^(0+128),w
  5197  0756  00F1               	movwf	___fltol@f1+1
  5198  0757  0847               	movf	ADC_convert@x^(0+128),w
  5199  0758  00F0               	movwf	___fltol@f1
  5200  0759  120A  158A  2018  120A  118A  	fcall	___fltol
  5201  075E  0871               	movf	?___fltol+1,w
  5202  075F  1283               	bcf	3,5	;RP0=0, select bank0
  5203  0760  1303               	bcf	3,6	;RP1=0, select bank0
  5204  0761  00A1               	movwf	___wmul@multiplier+1
  5205  0762  0870               	movf	?___fltol,w
  5206  0763  00A0               	movwf	___wmul@multiplier
  5207  0764  160A  118A  2341  120A  118A  	fcall	___wmul
  5208  0769  1283               	bcf	3,5	;RP0=0, select bank0
  5209  076A  1303               	bcf	3,6	;RP1=0, select bank0
  5210  076B  0820               	movf	?___wmul,w
  5211  076C  00A4               	movwf	___xxtofl@val
  5212  076D  0821               	movf	?___wmul+1,w
  5213  076E  00A5               	movwf	___xxtofl@val+1
  5214  076F  3000               	movlw	0
  5215  0770  1BA5               	btfsc	___xxtofl@val+1,7
  5216  0771  30FF               	movlw	255
  5217  0772  00A6               	movwf	___xxtofl@val+2
  5218  0773  00A7               	movwf	___xxtofl@val+3
  5219  0774  3001               	movlw	1
  5220  0775  160A  118A  25E3  120A  118A  	fcall	___xxtofl
  5221  077A  1283               	bcf	3,5	;RP0=0, select bank0
  5222  077B  1303               	bcf	3,6	;RP1=0, select bank0
  5223  077C  0827               	movf	?___xxtofl+3,w
  5224  077D  00B5               	movwf	___flsub@a+3
  5225  077E  0826               	movf	?___xxtofl+2,w
  5226  077F  00B4               	movwf	___flsub@a+2
  5227  0780  0825               	movf	?___xxtofl+1,w
  5228  0781  00B3               	movwf	___flsub@a+1
  5229  0782  0824               	movf	?___xxtofl,w
  5230  0783  00B2               	movwf	___flsub@a
  5231  0784  0869               	movf	ADC_convert@a+3,w
  5232  0785  00B9               	movwf	___flsub@b+3
  5233  0786  0868               	movf	ADC_convert@a+2,w
  5234  0787  00B8               	movwf	___flsub@b+2
  5235  0788  0867               	movf	ADC_convert@a+1,w
  5236  0789  00B7               	movwf	___flsub@b+1
  5237  078A  0866               	movf	ADC_convert@a,w
  5238  078B  00B6               	movwf	___flsub@b
  5239  078C  160A  118A  22F6  120A  118A  	fcall	___flsub
  5240  0791  1283               	bcf	3,5	;RP0=0, select bank0
  5241  0792  1303               	bcf	3,6	;RP1=0, select bank0
  5242  0793  0835               	movf	?___flsub+3,w
  5243  0794  00E9               	movwf	ADC_convert@a+3
  5244  0795  0834               	movf	?___flsub+2,w
  5245  0796  00E8               	movwf	ADC_convert@a+2
  5246  0797  0833               	movf	?___flsub+1,w
  5247  0798  00E7               	movwf	ADC_convert@a+1
  5248  0799  0832               	movf	?___flsub,w
  5249  079A  00E6               	movwf	ADC_convert@a
  5250  079B                     l3436:
  5251                           
  5252                           ;ADC.c: 115:          data[i]=0x30+((int)x);
  5253  079B  1683               	bsf	3,5	;RP0=1, select bank1
  5254  079C  1303               	bcf	3,6	;RP1=0, select bank1
  5255  079D  084A               	movf	(ADC_convert@x+3)^(0+128),w
  5256  079E  00F3               	movwf	___fltol@f1+3
  5257  079F  0849               	movf	(ADC_convert@x+2)^(0+128),w
  5258  07A0  00F2               	movwf	___fltol@f1+2
  5259  07A1  0848               	movf	(ADC_convert@x+1)^(0+128),w
  5260  07A2  00F1               	movwf	___fltol@f1+1
  5261  07A3  0847               	movf	ADC_convert@x^(0+128),w
  5262  07A4  00F0               	movwf	___fltol@f1
  5263  07A5  120A  158A  2018  120A  118A  	fcall	___fltol
  5264  07AA  0870               	movf	?___fltol,w
  5265  07AB  3E30               	addlw	48
  5266  07AC  1283               	bcf	3,5	;RP0=0, select bank0
  5267  07AD  1303               	bcf	3,6	;RP1=0, select bank0
  5268  07AE  00EC               	movwf	??_ADC_convert
  5269  07AF  1683               	bsf	3,5	;RP0=1, select bank1
  5270  07B0  1303               	bcf	3,6	;RP1=0, select bank1
  5271  07B1  084B               	movf	ADC_convert@i^(0+128),w
  5272  07B2  0746               	addwf	ADC_convert@data^(0+128),w
  5273  07B3  1283               	bcf	3,5	;RP0=0, select bank0
  5274  07B4  1303               	bcf	3,6	;RP1=0, select bank0
  5275  07B5  00ED               	movwf	??_ADC_convert+1
  5276  07B6  086D               	movf	??_ADC_convert+1,w
  5277  07B7  0084               	movwf	4
  5278  07B8  086C               	movf	??_ADC_convert,w
  5279  07B9  1383               	bcf	3,7	;select IRP bank0
  5280  07BA  0080               	movwf	0
  5281  07BB                     l3438:
  5282                           
  5283                           ;ADC.c: 116:          i++;
  5284  07BB  3001               	movlw	1
  5285  07BC  1683               	bsf	3,5	;RP0=1, select bank1
  5286  07BD  1303               	bcf	3,6	;RP1=0, select bank1
  5287  07BE  07CB               	addwf	ADC_convert@i^(0+128),f
  5288  07BF  1803               	skipnc
  5289  07C0  0ACC               	incf	(ADC_convert@i+1)^(0+128),f
  5290  07C1  3000               	movlw	0
  5291  07C2  07CC               	addwf	(ADC_convert@i+1)^(0+128),f
  5292  07C3                     l3440:
  5293                           
  5294                           ;ADC.c: 117:          digits--;
  5295  07C3  30FF               	movlw	255
  5296  07C4  07CD               	addwf	ADC_convert@digits^(0+128),f
  5297  07C5  1803               	skipnc
  5298  07C6  0ACE               	incf	(ADC_convert@digits+1)^(0+128),f
  5299  07C7  30FF               	movlw	255
  5300  07C8  07CE               	addwf	(ADC_convert@digits+1)^(0+128),f
  5301  07C9                     l3442:
  5302                           
  5303                           ;ADC.c: 118:          mu=1;
  5304  07C9  3001               	movlw	1
  5305  07CA  00CF               	movwf	ADC_convert@mu^(0+128)
  5306  07CB  3000               	movlw	0
  5307  07CC  00D0               	movwf	(ADC_convert@mu^(0+128)+1)
  5308  07CD                     l3444:
  5309                           
  5310                           ;ADC.c: 108:      while(digits!=0)
  5311  07CD  084D               	movf	ADC_convert@digits^(0+128),w
  5312  07CE  044E               	iorwf	(ADC_convert@digits+1)^(0+128),w
  5313  07CF  1D03               	btfss	3,2
  5314  07D0  2FD2               	goto	u4321
  5315  07D1  2FD3               	goto	u4320
  5316  07D2                     u4321:
  5317  07D2  2EB2               	goto	l3422
  5318  07D3                     u4320:
  5319  07D3                     l3446:
  5320                           
  5321                           ;ADC.c: 121:     data[i]='\n';
  5322  07D3  300A               	movlw	10
  5323  07D4  1283               	bcf	3,5	;RP0=0, select bank0
  5324  07D5  1303               	bcf	3,6	;RP1=0, select bank0
  5325  07D6  00EC               	movwf	??_ADC_convert
  5326  07D7  1683               	bsf	3,5	;RP0=1, select bank1
  5327  07D8  1303               	bcf	3,6	;RP1=0, select bank1
  5328  07D9  084B               	movf	ADC_convert@i^(0+128),w
  5329  07DA  0746               	addwf	ADC_convert@data^(0+128),w
  5330  07DB  1283               	bcf	3,5	;RP0=0, select bank0
  5331  07DC  1303               	bcf	3,6	;RP1=0, select bank0
  5332  07DD  00ED               	movwf	??_ADC_convert+1
  5333  07DE  086D               	movf	??_ADC_convert+1,w
  5334  07DF  0084               	movwf	4
  5335  07E0  086C               	movf	??_ADC_convert,w
  5336  07E1  1383               	bcf	3,7	;select IRP bank0
  5337  07E2  0080               	movwf	0
  5338  07E3                     l222:
  5339  07E3  0008               	return
  5340  07E4                     __end_of_ADC_convert:
  5341                           
  5342                           	psect	text19
  5343  15E3                     __ptext19:	
  5344 ;; *************** function ___xxtofl *****************
  5345 ;; Defined at:
  5346 ;;		line 10 in file "C:\Program Files\Microchip\xc8\v2.31\pic\sources\c90\common\xxtofl.c"
  5347 ;; Parameters:    Size  Location     Type
  5348 ;;  sign            1    wreg     unsigned char 
  5349 ;;  val             4    4[BANK0 ] long 
  5350 ;; Auto vars:     Size  Location     Type
  5351 ;;  sign            1   12[BANK0 ] unsigned char 
  5352 ;;  arg             4   14[BANK0 ] unsigned long 
  5353 ;;  exp             1   13[BANK0 ] unsigned char 
  5354 ;; Return value:  Size  Location     Type
  5355 ;;                  4    4[BANK0 ] unsigned char 
  5356 ;; Registers used:
  5357 ;;		wreg, status,2, status,0
  5358 ;; Tracked objects:
  5359 ;;		On entry : 0/0
  5360 ;;		On exit  : 0/0
  5361 ;;		Unchanged: 0/0
  5362 ;; Data sizes:     COMMON   BANK0   BANK1   BANK3   BANK2
  5363 ;;      Params:         0       4       0       0       0
  5364 ;;      Locals:         0       6       0       0       0
  5365 ;;      Temps:          0       4       0       0       0
  5366 ;;      Totals:         0      14       0       0       0
  5367 ;;Total ram usage:       14 bytes
  5368 ;; Hardware stack levels used:    1
  5369 ;; This function calls:
  5370 ;;		Nothing
  5371 ;; This function is called by:
  5372 ;;		_main
  5373 ;;		_ADC_convert
  5374 ;; This function uses a non-reentrant model
  5375 ;;
  5376                           
  5377                           
  5378                           ;psect for function ___xxtofl
  5379  15E3                     ___xxtofl:
  5380                           
  5381                           ;incstack = 0
  5382                           ; Regs used in ___xxtofl: [wreg+status,2+status,0]
  5383                           ;___xxtofl@sign stored from wreg
  5384  15E3  1283               	bcf	3,5	;RP0=0, select bank0
  5385  15E4  1303               	bcf	3,6	;RP1=0, select bank0
  5386  15E5  00AC               	movwf	___xxtofl@sign
  5387  15E6                     l3212:
  5388  15E6  082C               	movf	___xxtofl@sign,w
  5389  15E7  1903               	btfsc	3,2
  5390  15E8  2DEA               	goto	u4011
  5391  15E9  2DEB               	goto	u4010
  5392  15EA                     u4011:
  5393  15EA  2DFF               	goto	l3218
  5394  15EB                     u4010:
  5395  15EB                     l3214:
  5396  15EB  1FA7               	btfss	___xxtofl@val+3,7
  5397  15EC  2DEE               	goto	u4021
  5398  15ED  2DEF               	goto	u4020
  5399  15EE                     u4021:
  5400  15EE  2DFF               	goto	l3218
  5401  15EF                     u4020:
  5402  15EF                     l3216:
  5403  15EF  0924               	comf	___xxtofl@val,w
  5404  15F0  00AE               	movwf	___xxtofl@arg
  5405  15F1  0925               	comf	___xxtofl@val+1,w
  5406  15F2  00AF               	movwf	___xxtofl@arg+1
  5407  15F3  0926               	comf	___xxtofl@val+2,w
  5408  15F4  00B0               	movwf	___xxtofl@arg+2
  5409  15F5  0927               	comf	___xxtofl@val+3,w
  5410  15F6  00B1               	movwf	___xxtofl@arg+3
  5411  15F7  0AAE               	incf	___xxtofl@arg,f
  5412  15F8  1903               	skipnz
  5413  15F9  0AAF               	incf	___xxtofl@arg+1,f
  5414  15FA  1903               	skipnz
  5415  15FB  0AB0               	incf	___xxtofl@arg+2,f
  5416  15FC  1903               	skipnz
  5417  15FD  0AB1               	incf	___xxtofl@arg+3,f
  5418  15FE  2E07               	goto	l830
  5419  15FF                     l3218:
  5420  15FF  0827               	movf	___xxtofl@val+3,w
  5421  1600  00B1               	movwf	___xxtofl@arg+3
  5422  1601  0826               	movf	___xxtofl@val+2,w
  5423  1602  00B0               	movwf	___xxtofl@arg+2
  5424  1603  0825               	movf	___xxtofl@val+1,w
  5425  1604  00AF               	movwf	___xxtofl@arg+1
  5426  1605  0824               	movf	___xxtofl@val,w
  5427  1606  00AE               	movwf	___xxtofl@arg
  5428  1607                     l830:
  5429  1607  0827               	movf	___xxtofl@val+3,w
  5430  1608  0426               	iorwf	___xxtofl@val+2,w
  5431  1609  0425               	iorwf	___xxtofl@val+1,w
  5432  160A  0424               	iorwf	___xxtofl@val,w
  5433  160B  1D03               	skipz
  5434  160C  2E0E               	goto	u4031
  5435  160D  2E0F               	goto	u4030
  5436  160E                     u4031:
  5437  160E  2E18               	goto	l3224
  5438  160F                     u4030:
  5439  160F                     l3220:
  5440  160F  3000               	movlw	0
  5441  1610  00A7               	movwf	?___xxtofl+3
  5442  1611  3000               	movlw	0
  5443  1612  00A6               	movwf	?___xxtofl+2
  5444  1613  3000               	movlw	0
  5445  1614  00A5               	movwf	?___xxtofl+1
  5446  1615  3000               	movlw	0
  5447  1616  00A4               	movwf	?___xxtofl
  5448  1617  2E9E               	goto	l832
  5449  1618                     l3224:
  5450  1618  3096               	movlw	150
  5451  1619  00A8               	movwf	??___xxtofl
  5452  161A  0828               	movf	??___xxtofl,w
  5453  161B  00AD               	movwf	___xxtofl@exp
  5454  161C  2E2A               	goto	l3228
  5455  161D                     l3226:
  5456  161D  3001               	movlw	1
  5457  161E  00A8               	movwf	??___xxtofl
  5458  161F  0828               	movf	??___xxtofl,w
  5459  1620  07AD               	addwf	___xxtofl@exp,f
  5460  1621  3001               	movlw	1
  5461  1622                     u4045:
  5462  1622  1003               	clrc
  5463  1623  0CB1               	rrf	___xxtofl@arg+3,f
  5464  1624  0CB0               	rrf	___xxtofl@arg+2,f
  5465  1625  0CAF               	rrf	___xxtofl@arg+1,f
  5466  1626  0CAE               	rrf	___xxtofl@arg,f
  5467  1627  3EFF               	addlw	-1
  5468  1628  1D03               	skipz
  5469  1629  2E22               	goto	u4045
  5470  162A                     l3228:
  5471  162A  30FE               	movlw	254
  5472  162B  0531               	andwf	___xxtofl@arg+3,w
  5473  162C  1D03               	btfss	3,2
  5474  162D  2E2F               	goto	u4051
  5475  162E  2E30               	goto	u4050
  5476  162F                     u4051:
  5477  162F  2E1D               	goto	l3226
  5478  1630                     u4050:
  5479  1630  2E4C               	goto	l836
  5480  1631                     l3230:
  5481  1631  3001               	movlw	1
  5482  1632  00A8               	movwf	??___xxtofl
  5483  1633  0828               	movf	??___xxtofl,w
  5484  1634  07AD               	addwf	___xxtofl@exp,f
  5485  1635                     l3232:
  5486  1635  3001               	movlw	1
  5487  1636  07AE               	addwf	___xxtofl@arg,f
  5488  1637  3000               	movlw	0
  5489  1638  1803               	skipnc
  5490  1639  3001               	movlw	1
  5491  163A  07AF               	addwf	___xxtofl@arg+1,f
  5492  163B  3000               	movlw	0
  5493  163C  1803               	skipnc
  5494  163D  3001               	movlw	1
  5495  163E  07B0               	addwf	___xxtofl@arg+2,f
  5496  163F  3000               	movlw	0
  5497  1640  1803               	skipnc
  5498  1641  3001               	movlw	1
  5499  1642  07B1               	addwf	___xxtofl@arg+3,f
  5500  1643                     l3234:
  5501  1643  3001               	movlw	1
  5502  1644                     u4065:
  5503  1644  1003               	clrc
  5504  1645  0CB1               	rrf	___xxtofl@arg+3,f
  5505  1646  0CB0               	rrf	___xxtofl@arg+2,f
  5506  1647  0CAF               	rrf	___xxtofl@arg+1,f
  5507  1648  0CAE               	rrf	___xxtofl@arg,f
  5508  1649  3EFF               	addlw	-1
  5509  164A  1D03               	skipz
  5510  164B  2E44               	goto	u4065
  5511  164C                     l836:
  5512  164C  30FF               	movlw	255
  5513  164D  0531               	andwf	___xxtofl@arg+3,w
  5514  164E  1D03               	btfss	3,2
  5515  164F  2E51               	goto	u4071
  5516  1650  2E52               	goto	u4070
  5517  1651                     u4071:
  5518  1651  2E31               	goto	l3230
  5519  1652                     u4070:
  5520  1652  2E5E               	goto	l3238
  5521  1653                     l3236:
  5522  1653  3001               	movlw	1
  5523  1654  02AD               	subwf	___xxtofl@exp,f
  5524  1655  3001               	movlw	1
  5525  1656  00A8               	movwf	??___xxtofl
  5526  1657                     u4085:
  5527  1657  1003               	clrc
  5528  1658  0DAE               	rlf	___xxtofl@arg,f
  5529  1659  0DAF               	rlf	___xxtofl@arg+1,f
  5530  165A  0DB0               	rlf	___xxtofl@arg+2,f
  5531  165B  0DB1               	rlf	___xxtofl@arg+3,f
  5532  165C  0BA8               	decfsz	??___xxtofl,f
  5533  165D  2E57               	goto	u4085
  5534  165E                     l3238:
  5535  165E  1BB0               	btfsc	___xxtofl@arg+2,7
  5536  165F  2E61               	goto	u4091
  5537  1660  2E62               	goto	u4090
  5538  1661                     u4091:
  5539  1661  2E68               	goto	l843
  5540  1662                     u4090:
  5541  1662                     l3240:
  5542  1662  3002               	movlw	2
  5543  1663  022D               	subwf	___xxtofl@exp,w
  5544  1664  1803               	skipnc
  5545  1665  2E67               	goto	u4101
  5546  1666  2E68               	goto	u4100
  5547  1667                     u4101:
  5548  1667  2E53               	goto	l3236
  5549  1668                     u4100:
  5550  1668                     l843:
  5551  1668  182D               	btfsc	___xxtofl@exp,0
  5552  1669  2E6B               	goto	u4111
  5553  166A  2E6C               	goto	u4110
  5554  166B                     u4111:
  5555  166B  2E74               	goto	l844
  5556  166C                     u4110:
  5557  166C                     l3242:
  5558  166C  30FF               	movlw	255
  5559  166D  05AE               	andwf	___xxtofl@arg,f
  5560  166E  30FF               	movlw	255
  5561  166F  05AF               	andwf	___xxtofl@arg+1,f
  5562  1670  307F               	movlw	127
  5563  1671  05B0               	andwf	___xxtofl@arg+2,f
  5564  1672  30FF               	movlw	255
  5565  1673  05B1               	andwf	___xxtofl@arg+3,f
  5566  1674                     l844:
  5567  1674  1003               	clrc
  5568  1675  0CAD               	rrf	___xxtofl@exp,f
  5569  1676                     l3244:
  5570  1676  082D               	movf	___xxtofl@exp,w
  5571  1677  00A8               	movwf	??___xxtofl
  5572  1678  01A9               	clrf	??___xxtofl+1
  5573  1679  01AA               	clrf	??___xxtofl+2
  5574  167A  01AB               	clrf	??___xxtofl+3
  5575  167B  3018               	movlw	24
  5576  167C                     u4125:
  5577  167C  1003               	clrc
  5578  167D  0DA8               	rlf	??___xxtofl,f
  5579  167E  0DA9               	rlf	??___xxtofl+1,f
  5580  167F  0DAA               	rlf	??___xxtofl+2,f
  5581  1680  0DAB               	rlf	??___xxtofl+3,f
  5582  1681                     u4120:
  5583  1681  3EFF               	addlw	-1
  5584  1682  1D03               	skipz
  5585  1683  2E7C               	goto	u4125
  5586  1684  0828               	movf	??___xxtofl,w
  5587  1685  04AE               	iorwf	___xxtofl@arg,f
  5588  1686  0829               	movf	??___xxtofl+1,w
  5589  1687  04AF               	iorwf	___xxtofl@arg+1,f
  5590  1688  082A               	movf	??___xxtofl+2,w
  5591  1689  04B0               	iorwf	___xxtofl@arg+2,f
  5592  168A  082B               	movf	??___xxtofl+3,w
  5593  168B  04B1               	iorwf	___xxtofl@arg+3,f
  5594  168C                     l3246:
  5595  168C  082C               	movf	___xxtofl@sign,w
  5596  168D  1903               	btfsc	3,2
  5597  168E  2E90               	goto	u4131
  5598  168F  2E91               	goto	u4130
  5599  1690                     u4131:
  5600  1690  2E96               	goto	l3252
  5601  1691                     u4130:
  5602  1691                     l3248:
  5603  1691  1FA7               	btfss	___xxtofl@val+3,7
  5604  1692  2E94               	goto	u4141
  5605  1693  2E95               	goto	u4140
  5606  1694                     u4141:
  5607  1694  2E96               	goto	l3252
  5608  1695                     u4140:
  5609  1695                     l3250:
  5610  1695  17B1               	bsf	___xxtofl@arg+3,7
  5611  1696                     l3252:
  5612  1696  0831               	movf	___xxtofl@arg+3,w
  5613  1697  00A7               	movwf	?___xxtofl+3
  5614  1698  0830               	movf	___xxtofl@arg+2,w
  5615  1699  00A6               	movwf	?___xxtofl+2
  5616  169A  082F               	movf	___xxtofl@arg+1,w
  5617  169B  00A5               	movwf	?___xxtofl+1
  5618  169C  082E               	movf	___xxtofl@arg,w
  5619  169D  00A4               	movwf	?___xxtofl
  5620  169E                     l832:
  5621  169E  0008               	return
  5622  169F                     __end_of___xxtofl:
  5623                           
  5624                           	psect	text20
  5625  1341                     __ptext20:	
  5626 ;; *************** function ___wmul *****************
  5627 ;; Defined at:
  5628 ;;		line 15 in file "C:\Program Files\Microchip\xc8\v2.31\pic\sources\c90\common\Umul16.c"
  5629 ;; Parameters:    Size  Location     Type
  5630 ;;  multiplier      2    0[BANK0 ] unsigned int 
  5631 ;;  multiplicand    2    2[BANK0 ] unsigned int 
  5632 ;; Auto vars:     Size  Location     Type
  5633 ;;  product         2   11[COMMON] unsigned int 
  5634 ;; Return value:  Size  Location     Type
  5635 ;;                  2    0[BANK0 ] unsigned int 
  5636 ;; Registers used:
  5637 ;;		wreg, status,2, status,0
  5638 ;; Tracked objects:
  5639 ;;		On entry : 0/0
  5640 ;;		On exit  : 0/0
  5641 ;;		Unchanged: 0/0
  5642 ;; Data sizes:     COMMON   BANK0   BANK1   BANK3   BANK2
  5643 ;;      Params:         0       4       0       0       0
  5644 ;;      Locals:         2       0       0       0       0
  5645 ;;      Temps:          0       0       0       0       0
  5646 ;;      Totals:         2       4       0       0       0
  5647 ;;Total ram usage:        6 bytes
  5648 ;; Hardware stack levels used:    1
  5649 ;; This function calls:
  5650 ;;		Nothing
  5651 ;; This function is called by:
  5652 ;;		_ADC_convert
  5653 ;;		_atoi
  5654 ;; This function uses a non-reentrant model
  5655 ;;
  5656                           
  5657                           
  5658                           ;psect for function ___wmul
  5659  1341                     ___wmul:
  5660  1341                     l2396:	
  5661                           ;incstack = 0
  5662                           ; Regs used in ___wmul: [wreg+status,2+status,0]
  5663                           
  5664  1341  01FB               	clrf	___wmul@product
  5665  1342  01FC               	clrf	___wmul@product+1
  5666  1343                     l2398:
  5667  1343  1283               	bcf	3,5	;RP0=0, select bank0
  5668  1344  1303               	bcf	3,6	;RP1=0, select bank0
  5669  1345  1C20               	btfss	___wmul@multiplier,0
  5670  1346  2B48               	goto	u2321
  5671  1347  2B49               	goto	u2320
  5672  1348                     u2321:
  5673  1348  2B4F               	goto	l397
  5674  1349                     u2320:
  5675  1349                     l2400:
  5676  1349  0822               	movf	___wmul@multiplicand,w
  5677  134A  07FB               	addwf	___wmul@product,f
  5678  134B  1803               	skipnc
  5679  134C  0AFC               	incf	___wmul@product+1,f
  5680  134D  0823               	movf	___wmul@multiplicand+1,w
  5681  134E  07FC               	addwf	___wmul@product+1,f
  5682  134F                     l397:
  5683  134F  3001               	movlw	1
  5684  1350                     u2335:
  5685  1350  1003               	clrc
  5686  1351  0DA2               	rlf	___wmul@multiplicand,f
  5687  1352  0DA3               	rlf	___wmul@multiplicand+1,f
  5688  1353  3EFF               	addlw	-1
  5689  1354  1D03               	skipz
  5690  1355  2B50               	goto	u2335
  5691  1356                     l2402:
  5692  1356  3001               	movlw	1
  5693  1357                     u2345:
  5694  1357  1003               	clrc
  5695  1358  0CA1               	rrf	___wmul@multiplier+1,f
  5696  1359  0CA0               	rrf	___wmul@multiplier,f
  5697  135A  3EFF               	addlw	-1
  5698  135B  1D03               	skipz
  5699  135C  2B57               	goto	u2345
  5700  135D                     l2404:
  5701  135D  0820               	movf	___wmul@multiplier,w
  5702  135E  0421               	iorwf	___wmul@multiplier+1,w
  5703  135F  1D03               	btfss	3,2
  5704  1360  2B62               	goto	u2351
  5705  1361  2B63               	goto	u2350
  5706  1362                     u2351:
  5707  1362  2B43               	goto	l2398
  5708  1363                     u2350:
  5709  1363                     l2406:
  5710  1363  087C               	movf	___wmul@product+1,w
  5711  1364  00A1               	movwf	?___wmul+1
  5712  1365  087B               	movf	___wmul@product,w
  5713  1366  00A0               	movwf	?___wmul
  5714  1367                     l399:
  5715  1367  0008               	return
  5716  1368                     __end_of___wmul:
  5717                           
  5718                           	psect	text21
  5719  0818                     __ptext21:	
  5720 ;; *************** function ___fltol *****************
  5721 ;; Defined at:
  5722 ;;		line 43 in file "C:\Program Files\Microchip\xc8\v2.31\pic\sources\c90\common\fltol.c"
  5723 ;; Parameters:    Size  Location     Type
  5724 ;;  f1              4    0[COMMON] unsigned int 
  5725 ;; Auto vars:     Size  Location     Type
  5726 ;;  exp1            1   10[COMMON] unsigned char 
  5727 ;;  sign1           1    9[COMMON] unsigned char 
  5728 ;; Return value:  Size  Location     Type
  5729 ;;                  4    0[COMMON] long 
  5730 ;; Registers used:
  5731 ;;		wreg, status,2, status,0
  5732 ;; Tracked objects:
  5733 ;;		On entry : 0/0
  5734 ;;		On exit  : 0/0
  5735 ;;		Unchanged: 0/0
  5736 ;; Data sizes:     COMMON   BANK0   BANK1   BANK3   BANK2
  5737 ;;      Params:         4       0       0       0       0
  5738 ;;      Locals:         2       0       0       0       0
  5739 ;;      Temps:          5       0       0       0       0
  5740 ;;      Totals:        11       0       0       0       0
  5741 ;;Total ram usage:       11 bytes
  5742 ;; Hardware stack levels used:    1
  5743 ;; This function calls:
  5744 ;;		Nothing
  5745 ;; This function is called by:
  5746 ;;		_ADC_convert
  5747 ;; This function uses a non-reentrant model
  5748 ;;
  5749                           
  5750                           
  5751                           ;psect for function ___fltol
  5752  0818                     ___fltol:
  5753  0818                     l2888:	
  5754                           ;incstack = 0
  5755                           ; Regs used in ___fltol: [wreg+status,2+status,0]
  5756                           
  5757  0818  1003               	clrc
  5758  0819  0D72               	rlf	___fltol@f1+2,w
  5759  081A  0D73               	rlf	___fltol@f1+3,w
  5760  081B  00F4               	movwf	??___fltol
  5761  081C  0874               	movf	??___fltol,w
  5762  081D  00FA               	movwf	___fltol@exp1
  5763  081E  087A               	movf	___fltol@exp1,w
  5764  081F  1D03               	btfss	3,2
  5765  0820  2822               	goto	u3251
  5766  0821  2823               	goto	u3250
  5767  0822                     u3251:
  5768  0822  282C               	goto	l2894
  5769  0823                     u3250:
  5770  0823                     l2890:
  5771  0823  3000               	movlw	0
  5772  0824  00F3               	movwf	?___fltol+3
  5773  0825  3000               	movlw	0
  5774  0826  00F2               	movwf	?___fltol+2
  5775  0827  3000               	movlw	0
  5776  0828  00F1               	movwf	?___fltol+1
  5777  0829  3000               	movlw	0
  5778  082A  00F0               	movwf	?___fltol
  5779  082B  2891               	goto	l583
  5780  082C                     l2894:
  5781  082C  0870               	movf	___fltol@f1,w
  5782  082D  00F4               	movwf	??___fltol
  5783  082E  0871               	movf	___fltol@f1+1,w
  5784  082F  00F5               	movwf	??___fltol+1
  5785  0830  0872               	movf	___fltol@f1+2,w
  5786  0831  00F6               	movwf	??___fltol+2
  5787  0832  0873               	movf	___fltol@f1+3,w
  5788  0833  00F7               	movwf	??___fltol+3
  5789  0834  301F               	movlw	31
  5790  0835                     u3265:
  5791  0835  1003               	clrc
  5792  0836  0CF7               	rrf	??___fltol+3,f
  5793  0837  0CF6               	rrf	??___fltol+2,f
  5794  0838  0CF5               	rrf	??___fltol+1,f
  5795  0839  0CF4               	rrf	??___fltol,f
  5796  083A                     u3260:
  5797  083A  3EFF               	addlw	-1
  5798  083B  1D03               	skipz
  5799  083C  2835               	goto	u3265
  5800  083D  0874               	movf	??___fltol,w
  5801  083E  00F8               	movwf	??___fltol+4
  5802  083F  0878               	movf	??___fltol+4,w
  5803  0840  00F9               	movwf	___fltol@sign1
  5804  0841                     l2896:
  5805  0841  17F2               	bsf	___fltol@f1+2,7
  5806  0842                     l2898:
  5807  0842  30FF               	movlw	255
  5808  0843  05F0               	andwf	___fltol@f1,f
  5809  0844  30FF               	movlw	255
  5810  0845  05F1               	andwf	___fltol@f1+1,f
  5811  0846  30FF               	movlw	255
  5812  0847  05F2               	andwf	___fltol@f1+2,f
  5813  0848  3000               	movlw	0
  5814  0849  05F3               	andwf	___fltol@f1+3,f
  5815  084A                     l2900:
  5816  084A  3096               	movlw	150
  5817  084B  02FA               	subwf	___fltol@exp1,f
  5818  084C                     l2902:
  5819  084C  1FFA               	btfss	___fltol@exp1,7
  5820  084D  284F               	goto	u3271
  5821  084E  2850               	goto	u3270
  5822  084F                     u3271:
  5823  084F  286A               	goto	l2912
  5824  0850                     u3270:
  5825  0850                     l2904:
  5826  0850  087A               	movf	___fltol@exp1,w
  5827  0851  3A80               	xorlw	128
  5828  0852  3E97               	addlw	151
  5829  0853  1803               	skipnc
  5830  0854  2856               	goto	u3281
  5831  0855  2857               	goto	u3280
  5832  0856                     u3281:
  5833  0856  2858               	goto	l2910
  5834  0857                     u3280:
  5835  0857  2823               	goto	l2890
  5836  0858                     l2910:
  5837  0858  3001               	movlw	1
  5838  0859                     u3295:
  5839  0859  1003               	clrc
  5840  085A  0CF3               	rrf	___fltol@f1+3,f
  5841  085B  0CF2               	rrf	___fltol@f1+2,f
  5842  085C  0CF1               	rrf	___fltol@f1+1,f
  5843  085D  0CF0               	rrf	___fltol@f1,f
  5844  085E  3EFF               	addlw	-1
  5845  085F  1D03               	skipz
  5846  0860  2859               	goto	u3295
  5847  0861  3001               	movlw	1
  5848  0862  00F4               	movwf	??___fltol
  5849  0863  0874               	movf	??___fltol,w
  5850  0864  07FA               	addwf	___fltol@exp1,f
  5851  0865  1D03               	btfss	3,2
  5852  0866  2868               	goto	u3301
  5853  0867  2869               	goto	u3300
  5854  0868                     u3301:
  5855  0868  2858               	goto	l2910
  5856  0869                     u3300:
  5857  0869  2881               	goto	l2920
  5858  086A                     l2912:
  5859  086A  3020               	movlw	32
  5860  086B  027A               	subwf	___fltol@exp1,w
  5861  086C  1C03               	skipc
  5862  086D  286F               	goto	u3311
  5863  086E  2870               	goto	u3310
  5864  086F                     u3311:
  5865  086F  287C               	goto	l590
  5866  0870                     u3310:
  5867  0870  2823               	goto	l2890
  5868  0871                     l2918:
  5869  0871  3001               	movlw	1
  5870  0872  00F4               	movwf	??___fltol
  5871  0873                     u3325:
  5872  0873  1003               	clrc
  5873  0874  0DF0               	rlf	___fltol@f1,f
  5874  0875  0DF1               	rlf	___fltol@f1+1,f
  5875  0876  0DF2               	rlf	___fltol@f1+2,f
  5876  0877  0DF3               	rlf	___fltol@f1+3,f
  5877  0878  0BF4               	decfsz	??___fltol,f
  5878  0879  2873               	goto	u3325
  5879  087A  3001               	movlw	1
  5880  087B  02FA               	subwf	___fltol@exp1,f
  5881  087C                     l590:
  5882  087C  087A               	movf	___fltol@exp1,w
  5883  087D  1D03               	btfss	3,2
  5884  087E  2880               	goto	u3331
  5885  087F  2881               	goto	u3330
  5886  0880                     u3331:
  5887  0880  2871               	goto	l2918
  5888  0881                     u3330:
  5889  0881                     l2920:
  5890  0881  0879               	movf	___fltol@sign1,w
  5891  0882  1903               	btfsc	3,2
  5892  0883  2885               	goto	u3341
  5893  0884  2886               	goto	u3340
  5894  0885                     u3341:
  5895  0885  2891               	goto	l593
  5896  0886                     u3340:
  5897  0886                     l2922:
  5898  0886  09F0               	comf	___fltol@f1,f
  5899  0887  09F1               	comf	___fltol@f1+1,f
  5900  0888  09F2               	comf	___fltol@f1+2,f
  5901  0889  09F3               	comf	___fltol@f1+3,f
  5902  088A  0AF0               	incf	___fltol@f1,f
  5903  088B  1903               	skipnz
  5904  088C  0AF1               	incf	___fltol@f1+1,f
  5905  088D  1903               	skipnz
  5906  088E  0AF2               	incf	___fltol@f1+2,f
  5907  088F  1903               	skipnz
  5908  0890  0AF3               	incf	___fltol@f1+3,f
  5909  0891                     l593:
  5910  0891                     l583:
  5911  0891  0008               	return
  5912  0892                     __end_of___fltol:
  5913                           
  5914                           	psect	text22
  5915  12F6                     __ptext22:	
  5916 ;; *************** function ___flsub *****************
  5917 ;; Defined at:
  5918 ;;		line 242 in file "C:\Program Files\Microchip\xc8\v2.31\pic\sources\c90\common\sprcadd.c"
  5919 ;; Parameters:    Size  Location     Type
  5920 ;;  a               4   18[BANK0 ] long 
  5921 ;;  b               4   22[BANK0 ] long 
  5922 ;; Auto vars:     Size  Location     Type
  5923 ;;		None
  5924 ;; Return value:  Size  Location     Type
  5925 ;;                  4   18[BANK0 ] long 
  5926 ;; Registers used:
  5927 ;;		wreg, status,2, status,0, btemp+1, pclath, cstack
  5928 ;; Tracked objects:
  5929 ;;		On entry : 0/0
  5930 ;;		On exit  : 0/0
  5931 ;;		Unchanged: 0/0
  5932 ;; Data sizes:     COMMON   BANK0   BANK1   BANK3   BANK2
  5933 ;;      Params:         0       8       0       0       0
  5934 ;;      Locals:         0       0       0       0       0
  5935 ;;      Temps:          0       0       0       0       0
  5936 ;;      Totals:         0       8       0       0       0
  5937 ;;Total ram usage:        8 bytes
  5938 ;; Hardware stack levels used:    1
  5939 ;; Hardware stack levels required when called:    1
  5940 ;; This function calls:
  5941 ;;		___fladd
  5942 ;; This function is called by:
  5943 ;;		_ADC_convert
  5944 ;; This function uses a non-reentrant model
  5945 ;;
  5946                           
  5947                           
  5948                           ;psect for function ___flsub
  5949  12F6                     ___flsub:
  5950  12F6                     l2924:	
  5951                           ;incstack = 0
  5952                           ; Regs used in ___flsub: [wreg+status,2+status,0+btemp+1+pclath+cstack]
  5953                           
  5954  12F6  3080               	movlw	128
  5955  12F7  1283               	bcf	3,5	;RP0=0, select bank0
  5956  12F8  1303               	bcf	3,6	;RP1=0, select bank0
  5957  12F9  06B5               	xorwf	___flsub@a+3,f
  5958  12FA                     l2926:
  5959  12FA  0839               	movf	___flsub@b+3,w
  5960  12FB  00F3               	movwf	___fladd@b+3
  5961  12FC  0838               	movf	___flsub@b+2,w
  5962  12FD  00F2               	movwf	___fladd@b+2
  5963  12FE  0837               	movf	___flsub@b+1,w
  5964  12FF  00F1               	movwf	___fladd@b+1
  5965  1300  0836               	movf	___flsub@b,w
  5966  1301  00F0               	movwf	___fladd@b
  5967  1302  0835               	movf	___flsub@a+3,w
  5968  1303  00F7               	movwf	___fladd@a+3
  5969  1304  0834               	movf	___flsub@a+2,w
  5970  1305  00F6               	movwf	___fladd@a+2
  5971  1306  0833               	movf	___flsub@a+1,w
  5972  1307  00F5               	movwf	___fladd@a+1
  5973  1308  0832               	movf	___flsub@a,w
  5974  1309  00F4               	movwf	___fladd@a
  5975  130A  120A  158A  2568  160A  118A  	fcall	___fladd
  5976  130F  0873               	movf	?___fladd+3,w
  5977  1310  1283               	bcf	3,5	;RP0=0, select bank0
  5978  1311  1303               	bcf	3,6	;RP1=0, select bank0
  5979  1312  00B5               	movwf	?___flsub+3
  5980  1313  0872               	movf	?___fladd+2,w
  5981  1314  00B4               	movwf	?___flsub+2
  5982  1315  0871               	movf	?___fladd+1,w
  5983  1316  00B3               	movwf	?___flsub+1
  5984  1317  0870               	movf	?___fladd,w
  5985  1318  00B2               	movwf	?___flsub
  5986  1319                     l736:
  5987  1319  0008               	return
  5988  131A                     __end_of___flsub:
  5989                           
  5990                           	psect	text23
  5991  0D68                     __ptext23:	
  5992 ;; *************** function ___fladd *****************
  5993 ;; Defined at:
  5994 ;;		line 10 in file "C:\Program Files\Microchip\xc8\v2.31\pic\sources\c90\common\sprcadd.c"
  5995 ;; Parameters:    Size  Location     Type
  5996 ;;  b               4    0[COMMON] long 
  5997 ;;  a               4    4[COMMON] long 
  5998 ;; Auto vars:     Size  Location     Type
  5999 ;;  grs             1   11[COMMON] unsigned char 
  6000 ;;  bexp            1   10[COMMON] unsigned char 
  6001 ;;  aexp            1    9[COMMON] unsigned char 
  6002 ;;  signs           1    8[COMMON] unsigned char 
  6003 ;; Return value:  Size  Location     Type
  6004 ;;                  4    0[COMMON] unsigned char 
  6005 ;; Registers used:
  6006 ;;		wreg, status,2, status,0, btemp+1
  6007 ;; Tracked objects:
  6008 ;;		On entry : 0/0
  6009 ;;		On exit  : 0/0
  6010 ;;		Unchanged: 0/0
  6011 ;; Data sizes:     COMMON   BANK0   BANK1   BANK3   BANK2
  6012 ;;      Params:         8       0       0       0       0
  6013 ;;      Locals:         4       0       0       0       0
  6014 ;;      Temps:          0       8       0       0       0
  6015 ;;      Totals:        12       8       0       0       0
  6016 ;;Total ram usage:       20 bytes
  6017 ;; Hardware stack levels used:    1
  6018 ;; This function calls:
  6019 ;;		Nothing
  6020 ;; This function is called by:
  6021 ;;		___flsub
  6022 ;; This function uses a non-reentrant model
  6023 ;;
  6024                           
  6025                           
  6026                           ;psect for function ___fladd
  6027  0D68                     ___fladd:
  6028  0D68                     l2558:	
  6029                           ;incstack = 0
  6030                           ; Regs used in ___fladd: [wreg+status,2+status,0+btemp+1]
  6031                           
  6032  0D68  0873               	movf	___fladd@b+3,w
  6033  0D69  3980               	andlw	128
  6034  0D6A  1283               	bcf	3,5	;RP0=0, select bank0
  6035  0D6B  1303               	bcf	3,6	;RP1=0, select bank0
  6036  0D6C  00A0               	movwf	??___fladd
  6037  0D6D  0820               	movf	??___fladd,w
  6038  0D6E  00F8               	movwf	___fladd@signs
  6039  0D6F                     l2560:
  6040  0D6F  0873               	movf	___fladd@b+3,w
  6041  0D70  00A0               	movwf	??___fladd
  6042  0D71  0720               	addwf	??___fladd,w
  6043  0D72  00A1               	movwf	??___fladd+1
  6044  0D73  0821               	movf	??___fladd+1,w
  6045  0D74  00FA               	movwf	___fladd@bexp
  6046  0D75                     l2562:
  6047  0D75  1FF2               	btfss	___fladd@b+2,7
  6048  0D76  2D78               	goto	u2571
  6049  0D77  2D79               	goto	u2570
  6050  0D78                     u2571:
  6051  0D78  2D7A               	goto	l2566
  6052  0D79                     u2570:
  6053  0D79                     l2564:
  6054  0D79  147A               	bsf	___fladd@bexp,0
  6055  0D7A                     l2566:
  6056  0D7A  087A               	movf	___fladd@bexp,w
  6057  0D7B  1903               	btfsc	3,2
  6058  0D7C  2D7E               	goto	u2581
  6059  0D7D  2D7F               	goto	u2580
  6060  0D7E                     u2581:
  6061  0D7E  2D8F               	goto	l2576
  6062  0D7F                     u2580:
  6063  0D7F                     l2568:
  6064  0D7F  0A7A               	incf	___fladd@bexp,w
  6065  0D80  1D03               	btfss	3,2
  6066  0D81  2D83               	goto	u2591
  6067  0D82  2D84               	goto	u2590
  6068  0D83                     u2591:
  6069  0D83  2D8C               	goto	l2572
  6070  0D84                     u2590:
  6071  0D84                     l2570:
  6072  0D84  3000               	movlw	0
  6073  0D85  00F3               	movwf	___fladd@b+3
  6074  0D86  3000               	movlw	0
  6075  0D87  00F2               	movwf	___fladd@b+2
  6076  0D88  3000               	movlw	0
  6077  0D89  00F1               	movwf	___fladd@b+1
  6078  0D8A  3000               	movlw	0
  6079  0D8B  00F0               	movwf	___fladd@b
  6080  0D8C                     l2572:
  6081  0D8C  17F2               	bsf	___fladd@b+2,7
  6082  0D8D                     l2574:
  6083  0D8D  01F3               	clrf	___fladd@b+3
  6084  0D8E  2D97               	goto	l2578
  6085  0D8F                     l2576:
  6086  0D8F  3000               	movlw	0
  6087  0D90  00F3               	movwf	___fladd@b+3
  6088  0D91  3000               	movlw	0
  6089  0D92  00F2               	movwf	___fladd@b+2
  6090  0D93  3000               	movlw	0
  6091  0D94  00F1               	movwf	___fladd@b+1
  6092  0D95  3000               	movlw	0
  6093  0D96  00F0               	movwf	___fladd@b
  6094  0D97                     l2578:
  6095  0D97  0877               	movf	___fladd@a+3,w
  6096  0D98  3980               	andlw	128
  6097  0D99  00A0               	movwf	??___fladd
  6098  0D9A  0820               	movf	??___fladd,w
  6099  0D9B  00F9               	movwf	___fladd@aexp
  6100  0D9C                     l2580:
  6101  0D9C  0879               	movf	___fladd@aexp,w
  6102  0D9D  0678               	xorwf	___fladd@signs,w
  6103  0D9E  1903               	skipnz
  6104  0D9F  2DA1               	goto	u2601
  6105  0DA0  2DA2               	goto	u2600
  6106  0DA1                     u2601:
  6107  0DA1  2DA3               	goto	l2584
  6108  0DA2                     u2600:
  6109  0DA2                     l2582:
  6110  0DA2  1778               	bsf	___fladd@signs,6
  6111  0DA3                     l2584:
  6112  0DA3  0877               	movf	___fladd@a+3,w
  6113  0DA4  00A0               	movwf	??___fladd
  6114  0DA5  0720               	addwf	??___fladd,w
  6115  0DA6  00A1               	movwf	??___fladd+1
  6116  0DA7  0821               	movf	??___fladd+1,w
  6117  0DA8  00F9               	movwf	___fladd@aexp
  6118  0DA9                     l2586:
  6119  0DA9  1FF6               	btfss	___fladd@a+2,7
  6120  0DAA  2DAC               	goto	u2611
  6121  0DAB  2DAD               	goto	u2610
  6122  0DAC                     u2611:
  6123  0DAC  2DAE               	goto	l2590
  6124  0DAD                     u2610:
  6125  0DAD                     l2588:
  6126  0DAD  1479               	bsf	___fladd@aexp,0
  6127  0DAE                     l2590:
  6128  0DAE  0879               	movf	___fladd@aexp,w
  6129  0DAF  1903               	btfsc	3,2
  6130  0DB0  2DB2               	goto	u2621
  6131  0DB1  2DB3               	goto	u2620
  6132  0DB2                     u2621:
  6133  0DB2  2DC3               	goto	l2600
  6134  0DB3                     u2620:
  6135  0DB3                     l2592:
  6136  0DB3  0A79               	incf	___fladd@aexp,w
  6137  0DB4  1D03               	btfss	3,2
  6138  0DB5  2DB7               	goto	u2631
  6139  0DB6  2DB8               	goto	u2630
  6140  0DB7                     u2631:
  6141  0DB7  2DC0               	goto	l2596
  6142  0DB8                     u2630:
  6143  0DB8                     l2594:
  6144  0DB8  3000               	movlw	0
  6145  0DB9  00F7               	movwf	___fladd@a+3
  6146  0DBA  3000               	movlw	0
  6147  0DBB  00F6               	movwf	___fladd@a+2
  6148  0DBC  3000               	movlw	0
  6149  0DBD  00F5               	movwf	___fladd@a+1
  6150  0DBE  3000               	movlw	0
  6151  0DBF  00F4               	movwf	___fladd@a
  6152  0DC0                     l2596:
  6153  0DC0  17F6               	bsf	___fladd@a+2,7
  6154  0DC1                     l2598:
  6155  0DC1  01F7               	clrf	___fladd@a+3
  6156  0DC2  2DCB               	goto	l690
  6157  0DC3                     l2600:
  6158  0DC3  3000               	movlw	0
  6159  0DC4  00F7               	movwf	___fladd@a+3
  6160  0DC5  3000               	movlw	0
  6161  0DC6  00F6               	movwf	___fladd@a+2
  6162  0DC7  3000               	movlw	0
  6163  0DC8  00F5               	movwf	___fladd@a+1
  6164  0DC9  3000               	movlw	0
  6165  0DCA  00F4               	movwf	___fladd@a
  6166  0DCB                     l690:
  6167  0DCB  087A               	movf	___fladd@bexp,w
  6168  0DCC  0279               	subwf	___fladd@aexp,w
  6169  0DCD  1803               	skipnc
  6170  0DCE  2DD0               	goto	u2641
  6171  0DCF  2DD1               	goto	u2640
  6172  0DD0                     u2641:
  6173  0DD0  2E15               	goto	l2636
  6174  0DD1                     u2640:
  6175  0DD1                     l2602:
  6176  0DD1  1F78               	btfss	___fladd@signs,6
  6177  0DD2  2DD4               	goto	u2651
  6178  0DD3  2DD5               	goto	u2650
  6179  0DD4                     u2651:
  6180  0DD4  2DD9               	goto	l2606
  6181  0DD5                     u2650:
  6182  0DD5                     l2604:
  6183  0DD5  3080               	movlw	128
  6184  0DD6  00A0               	movwf	??___fladd
  6185  0DD7  0820               	movf	??___fladd,w
  6186  0DD8  06F8               	xorwf	___fladd@signs,f
  6187  0DD9                     l2606:
  6188  0DD9  087A               	movf	___fladd@bexp,w
  6189  0DDA  00A0               	movwf	??___fladd
  6190  0DDB  0820               	movf	??___fladd,w
  6191  0DDC  00FB               	movwf	___fladd@grs
  6192  0DDD                     l2608:
  6193  0DDD  0879               	movf	___fladd@aexp,w
  6194  0DDE  00A0               	movwf	??___fladd
  6195  0DDF  0820               	movf	??___fladd,w
  6196  0DE0  00FA               	movwf	___fladd@bexp
  6197  0DE1                     l2610:
  6198  0DE1  087B               	movf	___fladd@grs,w
  6199  0DE2  00A0               	movwf	??___fladd
  6200  0DE3  0820               	movf	??___fladd,w
  6201  0DE4  00F9               	movwf	___fladd@aexp
  6202  0DE5                     l2612:
  6203  0DE5  0870               	movf	___fladd@b,w
  6204  0DE6  00A0               	movwf	??___fladd
  6205  0DE7  0820               	movf	??___fladd,w
  6206  0DE8  00FB               	movwf	___fladd@grs
  6207  0DE9                     l2614:
  6208  0DE9  0874               	movf	___fladd@a,w
  6209  0DEA  00A0               	movwf	??___fladd
  6210  0DEB  0820               	movf	??___fladd,w
  6211  0DEC  00F0               	movwf	___fladd@b
  6212  0DED                     l2616:
  6213  0DED  087B               	movf	___fladd@grs,w
  6214  0DEE  00A0               	movwf	??___fladd
  6215  0DEF  0820               	movf	??___fladd,w
  6216  0DF0  00F4               	movwf	___fladd@a
  6217  0DF1                     l2618:
  6218  0DF1  0871               	movf	___fladd@b+1,w
  6219  0DF2  00A0               	movwf	??___fladd
  6220  0DF3  0820               	movf	??___fladd,w
  6221  0DF4  00FB               	movwf	___fladd@grs
  6222  0DF5                     l2620:
  6223  0DF5  0875               	movf	___fladd@a+1,w
  6224  0DF6  00A0               	movwf	??___fladd
  6225  0DF7  0820               	movf	??___fladd,w
  6226  0DF8  00F1               	movwf	___fladd@b+1
  6227  0DF9                     l2622:
  6228  0DF9  087B               	movf	___fladd@grs,w
  6229  0DFA  00A0               	movwf	??___fladd
  6230  0DFB  0820               	movf	??___fladd,w
  6231  0DFC  00F5               	movwf	___fladd@a+1
  6232  0DFD                     l2624:
  6233  0DFD  0872               	movf	___fladd@b+2,w
  6234  0DFE  00A0               	movwf	??___fladd
  6235  0DFF  0820               	movf	??___fladd,w
  6236  0E00  00FB               	movwf	___fladd@grs
  6237  0E01                     l2626:
  6238  0E01  0876               	movf	___fladd@a+2,w
  6239  0E02  00A0               	movwf	??___fladd
  6240  0E03  0820               	movf	??___fladd,w
  6241  0E04  00F2               	movwf	___fladd@b+2
  6242  0E05                     l2628:
  6243  0E05  087B               	movf	___fladd@grs,w
  6244  0E06  00A0               	movwf	??___fladd
  6245  0E07  0820               	movf	??___fladd,w
  6246  0E08  00F6               	movwf	___fladd@a+2
  6247  0E09                     l2630:
  6248  0E09  0873               	movf	___fladd@b+3,w
  6249  0E0A  00A0               	movwf	??___fladd
  6250  0E0B  0820               	movf	??___fladd,w
  6251  0E0C  00FB               	movwf	___fladd@grs
  6252  0E0D                     l2632:
  6253  0E0D  0877               	movf	___fladd@a+3,w
  6254  0E0E  00A0               	movwf	??___fladd
  6255  0E0F  0820               	movf	??___fladd,w
  6256  0E10  00F3               	movwf	___fladd@b+3
  6257  0E11                     l2634:
  6258  0E11  087B               	movf	___fladd@grs,w
  6259  0E12  00A0               	movwf	??___fladd
  6260  0E13  0820               	movf	??___fladd,w
  6261  0E14  00F7               	movwf	___fladd@a+3
  6262  0E15                     l2636:
  6263  0E15  01FB               	clrf	___fladd@grs
  6264  0E16                     l2638:
  6265  0E16  0879               	movf	___fladd@aexp,w
  6266  0E17  00A0               	movwf	??___fladd
  6267  0E18  01A1               	clrf	??___fladd+1
  6268  0E19  0821               	movf	??___fladd+1,w
  6269  0E1A  00A3               	movwf	??___fladd+3
  6270  0E1B  087A               	movf	___fladd@bexp,w
  6271  0E1C  0220               	subwf	??___fladd,w
  6272  0E1D  00A2               	movwf	??___fladd+2
  6273  0E1E  1C03               	skipc
  6274  0E1F  03A3               	decf	??___fladd+3,f
  6275  0E20  0823               	movf	??___fladd+3,w
  6276  0E21  3A80               	xorlw	128
  6277  0E22  00FF               	movwf	btemp+1
  6278  0E23  3080               	movlw	128
  6279  0E24  027F               	subwf	btemp+1,w
  6280  0E25  1D03               	skipz
  6281  0E26  2E29               	goto	u2665
  6282  0E27  301A               	movlw	26
  6283  0E28  0222               	subwf	??___fladd+2,w
  6284  0E29                     u2665:
  6285  0E29  1C03               	skipc
  6286  0E2A  2E2C               	goto	u2661
  6287  0E2B  2E2D               	goto	u2660
  6288  0E2C                     u2661:
  6289  0E2C  2E6E               	goto	l2654
  6290  0E2D                     u2660:
  6291  0E2D                     l2640:
  6292  0E2D  0873               	movf	___fladd@b+3,w
  6293  0E2E  0472               	iorwf	___fladd@b+2,w
  6294  0E2F  0471               	iorwf	___fladd@b+1,w
  6295  0E30  0470               	iorwf	___fladd@b,w
  6296  0E31  1D03               	skipz
  6297  0E32  2E34               	goto	u2671
  6298  0E33  2E36               	goto	u2670
  6299  0E34                     u2671:
  6300  0E34  3001               	movlw	1
  6301  0E35  2E37               	goto	u2680
  6302  0E36                     u2670:
  6303  0E36  3000               	movlw	0
  6304  0E37                     u2680:
  6305  0E37  1283               	bcf	3,5	;RP0=0, select bank0
  6306  0E38  1303               	bcf	3,6	;RP1=0, select bank0
  6307  0E39  00A0               	movwf	??___fladd
  6308  0E3A  0820               	movf	??___fladd,w
  6309  0E3B  00FB               	movwf	___fladd@grs
  6310  0E3C  3000               	movlw	0
  6311  0E3D  00F3               	movwf	___fladd@b+3
  6312  0E3E  3000               	movlw	0
  6313  0E3F  00F2               	movwf	___fladd@b+2
  6314  0E40  3000               	movlw	0
  6315  0E41  00F1               	movwf	___fladd@b+1
  6316  0E42  3000               	movlw	0
  6317  0E43  00F0               	movwf	___fladd@b
  6318  0E44  0879               	movf	___fladd@aexp,w
  6319  0E45  00A0               	movwf	??___fladd
  6320  0E46  0820               	movf	??___fladd,w
  6321  0E47  00FA               	movwf	___fladd@bexp
  6322  0E48  2E74               	goto	l694
  6323  0E49                     l696:
  6324  0E49  1C7B               	btfss	___fladd@grs,0
  6325  0E4A  2E4C               	goto	u2691
  6326  0E4B  2E4D               	goto	u2690
  6327  0E4C                     u2691:
  6328  0E4C  2E58               	goto	l2644
  6329  0E4D                     u2690:
  6330  0E4D                     l2642:
  6331  0E4D  087B               	movf	___fladd@grs,w
  6332  0E4E  1283               	bcf	3,5	;RP0=0, select bank0
  6333  0E4F  1303               	bcf	3,6	;RP1=0, select bank0
  6334  0E50  00A0               	movwf	??___fladd
  6335  0E51  1003               	clrc
  6336  0E52  0C20               	rrf	??___fladd,w
  6337  0E53  3801               	iorlw	1
  6338  0E54  00A1               	movwf	??___fladd+1
  6339  0E55  0821               	movf	??___fladd+1,w
  6340  0E56  00FB               	movwf	___fladd@grs
  6341  0E57  2E5A               	goto	l2646
  6342  0E58                     l2644:
  6343  0E58  1003               	clrc
  6344  0E59  0CFB               	rrf	___fladd@grs,f
  6345  0E5A                     l2646:
  6346  0E5A  1C70               	btfss	___fladd@b,0
  6347  0E5B  2E5D               	goto	u2701
  6348  0E5C  2E5E               	goto	u2700
  6349  0E5D                     u2701:
  6350  0E5D  2E5F               	goto	l2650
  6351  0E5E                     u2700:
  6352  0E5E                     l2648:
  6353  0E5E  17FB               	bsf	___fladd@grs,7
  6354  0E5F                     l2650:
  6355  0E5F  3001               	movlw	1
  6356  0E60  1283               	bcf	3,5	;RP0=0, select bank0
  6357  0E61  1303               	bcf	3,6	;RP1=0, select bank0
  6358  0E62  00A0               	movwf	??___fladd
  6359  0E63                     u2715:
  6360  0E63  0D73               	rlf	___fladd@b+3,w
  6361  0E64  0CF3               	rrf	___fladd@b+3,f
  6362  0E65  0CF2               	rrf	___fladd@b+2,f
  6363  0E66  0CF1               	rrf	___fladd@b+1,f
  6364  0E67  0CF0               	rrf	___fladd@b,f
  6365  0E68  0BA0               	decfsz	??___fladd& (0+127),f
  6366  0E69  2E63               	goto	u2715
  6367  0E6A                     l2652:
  6368  0E6A  3001               	movlw	1
  6369  0E6B  00A0               	movwf	??___fladd
  6370  0E6C  0820               	movf	??___fladd,w
  6371  0E6D  07FA               	addwf	___fladd@bexp,f
  6372  0E6E                     l2654:
  6373  0E6E  0879               	movf	___fladd@aexp,w
  6374  0E6F  027A               	subwf	___fladd@bexp,w
  6375  0E70  1C03               	skipc
  6376  0E71  2E73               	goto	u2721
  6377  0E72  2E74               	goto	u2720
  6378  0E73                     u2721:
  6379  0E73  2E49               	goto	l696
  6380  0E74                     u2720:
  6381  0E74                     l694:
  6382  0E74  1B78               	btfsc	___fladd@signs,6
  6383  0E75  2E77               	goto	u2731
  6384  0E76  2E78               	goto	u2730
  6385  0E77                     u2731:
  6386  0E77  2EC7               	goto	l2680
  6387  0E78                     u2730:
  6388  0E78                     l2656:
  6389  0E78  087A               	movf	___fladd@bexp,w
  6390  0E79  1D03               	btfss	3,2
  6391  0E7A  2E7C               	goto	u2741
  6392  0E7B  2E7D               	goto	u2740
  6393  0E7C                     u2741:
  6394  0E7C  2E86               	goto	l2662
  6395  0E7D                     u2740:
  6396  0E7D                     l2658:
  6397  0E7D  3000               	movlw	0
  6398  0E7E  00F3               	movwf	?___fladd+3
  6399  0E7F  3000               	movlw	0
  6400  0E80  00F2               	movwf	?___fladd+2
  6401  0E81  3000               	movlw	0
  6402  0E82  00F1               	movwf	?___fladd+1
  6403  0E83  3000               	movlw	0
  6404  0E84  00F0               	movwf	?___fladd
  6405  0E85  2FFF               	goto	l703
  6406  0E86                     l2662:
  6407  0E86  0874               	movf	___fladd@a,w
  6408  0E87  07F0               	addwf	___fladd@b,f
  6409  0E88  0875               	movf	___fladd@a+1,w
  6410  0E89  1103               	clrz
  6411  0E8A  1803               	skipnc
  6412  0E8B  3E01               	addlw	1
  6413  0E8C  1903               	skipnz
  6414  0E8D  2E8F               	goto	u2751
  6415  0E8E  07F1               	addwf	___fladd@b+1,f
  6416  0E8F                     u2751:
  6417  0E8F  0876               	movf	___fladd@a+2,w
  6418  0E90  1103               	clrz
  6419  0E91  1803               	skipnc
  6420  0E92  3E01               	addlw	1
  6421  0E93  1903               	skipnz
  6422  0E94  2E96               	goto	u2752
  6423  0E95  07F2               	addwf	___fladd@b+2,f
  6424  0E96                     u2752:
  6425  0E96  0877               	movf	___fladd@a+3,w
  6426  0E97  1103               	clrz
  6427  0E98  1803               	skipnc
  6428  0E99  3E01               	addlw	1
  6429  0E9A  1903               	skipnz
  6430  0E9B  2E9D               	goto	u2753
  6431  0E9C  07F3               	addwf	___fladd@b+3,f
  6432  0E9D                     u2753:
  6433  0E9D                     l2664:
  6434  0E9D  1C73               	btfss	___fladd@b+3,0
  6435  0E9E  2EA0               	goto	u2761
  6436  0E9F  2EA1               	goto	u2760
  6437  0EA0                     u2761:
  6438  0EA0  2F7F               	goto	l2714
  6439  0EA1                     u2760:
  6440  0EA1                     l2666:
  6441  0EA1  1C7B               	btfss	___fladd@grs,0
  6442  0EA2  2EA4               	goto	u2771
  6443  0EA3  2EA5               	goto	u2770
  6444  0EA4                     u2771:
  6445  0EA4  2EB0               	goto	l2670
  6446  0EA5                     u2770:
  6447  0EA5                     l2668:
  6448  0EA5  087B               	movf	___fladd@grs,w
  6449  0EA6  1283               	bcf	3,5	;RP0=0, select bank0
  6450  0EA7  1303               	bcf	3,6	;RP1=0, select bank0
  6451  0EA8  00A0               	movwf	??___fladd
  6452  0EA9  1003               	clrc
  6453  0EAA  0C20               	rrf	??___fladd,w
  6454  0EAB  3801               	iorlw	1
  6455  0EAC  00A1               	movwf	??___fladd+1
  6456  0EAD  0821               	movf	??___fladd+1,w
  6457  0EAE  00FB               	movwf	___fladd@grs
  6458  0EAF  2EB2               	goto	l2672
  6459  0EB0                     l2670:
  6460  0EB0  1003               	clrc
  6461  0EB1  0CFB               	rrf	___fladd@grs,f
  6462  0EB2                     l2672:
  6463  0EB2  1C70               	btfss	___fladd@b,0
  6464  0EB3  2EB5               	goto	u2781
  6465  0EB4  2EB6               	goto	u2780
  6466  0EB5                     u2781:
  6467  0EB5  2EB7               	goto	l2676
  6468  0EB6                     u2780:
  6469  0EB6                     l2674:
  6470  0EB6  17FB               	bsf	___fladd@grs,7
  6471  0EB7                     l2676:
  6472  0EB7  3001               	movlw	1
  6473  0EB8  1283               	bcf	3,5	;RP0=0, select bank0
  6474  0EB9  1303               	bcf	3,6	;RP1=0, select bank0
  6475  0EBA  00A0               	movwf	??___fladd
  6476  0EBB                     u2795:
  6477  0EBB  0D73               	rlf	___fladd@b+3,w
  6478  0EBC  0CF3               	rrf	___fladd@b+3,f
  6479  0EBD  0CF2               	rrf	___fladd@b+2,f
  6480  0EBE  0CF1               	rrf	___fladd@b+1,f
  6481  0EBF  0CF0               	rrf	___fladd@b,f
  6482  0EC0  0BA0               	decfsz	??___fladd& (0+127),f
  6483  0EC1  2EBB               	goto	u2795
  6484  0EC2                     l2678:
  6485  0EC2  3001               	movlw	1
  6486  0EC3  00A0               	movwf	??___fladd
  6487  0EC4  0820               	movf	??___fladd,w
  6488  0EC5  07FA               	addwf	___fladd@bexp,f
  6489  0EC6  2F7F               	goto	l2714
  6490  0EC7                     l2680:
  6491  0EC7  0873               	movf	___fladd@b+3,w
  6492  0EC8  3A80               	xorlw	128
  6493  0EC9  00FF               	movwf	btemp+1
  6494  0ECA  0877               	movf	___fladd@a+3,w
  6495  0ECB  3A80               	xorlw	128
  6496  0ECC  027F               	subwf	btemp+1,w
  6497  0ECD  1D03               	skipz
  6498  0ECE  2ED9               	goto	u2803
  6499  0ECF  0876               	movf	___fladd@a+2,w
  6500  0ED0  0272               	subwf	___fladd@b+2,w
  6501  0ED1  1D03               	skipz
  6502  0ED2  2ED9               	goto	u2803
  6503  0ED3  0875               	movf	___fladd@a+1,w
  6504  0ED4  0271               	subwf	___fladd@b+1,w
  6505  0ED5  1D03               	skipz
  6506  0ED6  2ED9               	goto	u2803
  6507  0ED7  0874               	movf	___fladd@a,w
  6508  0ED8  0270               	subwf	___fladd@b,w
  6509  0ED9                     u2803:
  6510  0ED9  1803               	skipnc
  6511  0EDA  2EDC               	goto	u2801
  6512  0EDB  2EDD               	goto	u2800
  6513  0EDC                     u2801:
  6514  0EDC  2F37               	goto	l2690
  6515  0EDD                     u2800:
  6516  0EDD                     l2682:
  6517  0EDD  30FF               	movlw	255
  6518  0EDE  1283               	bcf	3,5	;RP0=0, select bank0
  6519  0EDF  1303               	bcf	3,6	;RP1=0, select bank0
  6520  0EE0  00A0               	movwf	??___fladd
  6521  0EE1  30FF               	movlw	255
  6522  0EE2  00A1               	movwf	??___fladd+1
  6523  0EE3  30FF               	movlw	255
  6524  0EE4  00A2               	movwf	??___fladd+2
  6525  0EE5  30FF               	movlw	255
  6526  0EE6  00A3               	movwf	??___fladd+3
  6527  0EE7  0874               	movf	___fladd@a,w
  6528  0EE8  00A4               	movwf	??___fladd+4
  6529  0EE9  0875               	movf	___fladd@a+1,w
  6530  0EEA  00A5               	movwf	??___fladd+5
  6531  0EEB  0876               	movf	___fladd@a+2,w
  6532  0EEC  00A6               	movwf	??___fladd+6
  6533  0EED  0877               	movf	___fladd@a+3,w
  6534  0EEE  00A7               	movwf	??___fladd+7
  6535  0EEF  0870               	movf	___fladd@b,w
  6536  0EF0  02A4               	subwf	??___fladd+4,f
  6537  0EF1  0871               	movf	___fladd@b+1,w
  6538  0EF2  1C03               	skipc
  6539  0EF3  0F71               	incfsz	___fladd@b+1,w
  6540  0EF4  2EF6               	goto	u2811
  6541  0EF5  2EF7               	goto	u2812
  6542  0EF6                     u2811:
  6543  0EF6  02A5               	subwf	??___fladd+5,f
  6544  0EF7                     u2812:
  6545  0EF7  0872               	movf	___fladd@b+2,w
  6546  0EF8  1C03               	skipc
  6547  0EF9  0F72               	incfsz	___fladd@b+2,w
  6548  0EFA  2EFC               	goto	u2813
  6549  0EFB  2EFD               	goto	u2814
  6550  0EFC                     u2813:
  6551  0EFC  02A6               	subwf	??___fladd+6,f
  6552  0EFD                     u2814:
  6553  0EFD  0873               	movf	___fladd@b+3,w
  6554  0EFE  1C03               	skipc
  6555  0EFF  0F73               	incfsz	___fladd@b+3,w
  6556  0F00  2F02               	goto	u2815
  6557  0F01  2F03               	goto	u2816
  6558  0F02                     u2815:
  6559  0F02  02A7               	subwf	??___fladd+7,f
  6560  0F03                     u2816:
  6561  0F03  0824               	movf	??___fladd+4,w
  6562  0F04  07A0               	addwf	??___fladd,f
  6563  0F05  0825               	movf	??___fladd+5,w
  6564  0F06  1803               	skipnc
  6565  0F07  0F25               	incfsz	??___fladd+5,w
  6566  0F08  2F0A               	goto	u2820
  6567  0F09  2F0B               	goto	u2821
  6568  0F0A                     u2820:
  6569  0F0A  07A1               	addwf	??___fladd+1,f
  6570  0F0B                     u2821:
  6571  0F0B  0826               	movf	??___fladd+6,w
  6572  0F0C  1803               	skipnc
  6573  0F0D  0F26               	incfsz	??___fladd+6,w
  6574  0F0E  2F10               	goto	u2822
  6575  0F0F  2F11               	goto	u2823
  6576  0F10                     u2822:
  6577  0F10  07A2               	addwf	??___fladd+2,f
  6578  0F11                     u2823:
  6579  0F11  0827               	movf	??___fladd+7,w
  6580  0F12  1803               	skipnc
  6581  0F13  0A27               	incf	??___fladd+7,w
  6582  0F14  07A3               	addwf	??___fladd+3,f
  6583  0F15  0823               	movf	??___fladd+3,w
  6584  0F16  00F3               	movwf	___fladd@b+3
  6585  0F17  0822               	movf	??___fladd+2,w
  6586  0F18  00F2               	movwf	___fladd@b+2
  6587  0F19  0821               	movf	??___fladd+1,w
  6588  0F1A  00F1               	movwf	___fladd@b+1
  6589  0F1B  0820               	movf	??___fladd,w
  6590  0F1C  00F0               	movwf	___fladd@b
  6591  0F1D                     l2684:
  6592  0F1D  3080               	movlw	128
  6593  0F1E  00A0               	movwf	??___fladd
  6594  0F1F  0820               	movf	??___fladd,w
  6595  0F20  06F8               	xorwf	___fladd@signs,f
  6596  0F21  09FB               	comf	___fladd@grs,f
  6597  0F22  0AFB               	incf	___fladd@grs,f
  6598  0F23                     l2686:
  6599  0F23  087B               	movf	___fladd@grs,w
  6600  0F24  1D03               	btfss	3,2
  6601  0F25  2F27               	goto	u2831
  6602  0F26  2F28               	goto	u2830
  6603  0F27                     u2831:
  6604  0F27  2F45               	goto	l711
  6605  0F28                     u2830:
  6606  0F28                     l2688:
  6607  0F28  3001               	movlw	1
  6608  0F29  07F0               	addwf	___fladd@b,f
  6609  0F2A  3000               	movlw	0
  6610  0F2B  1803               	skipnc
  6611  0F2C  3001               	movlw	1
  6612  0F2D  07F1               	addwf	___fladd@b+1,f
  6613  0F2E  3000               	movlw	0
  6614  0F2F  1803               	skipnc
  6615  0F30  3001               	movlw	1
  6616  0F31  07F2               	addwf	___fladd@b+2,f
  6617  0F32  3000               	movlw	0
  6618  0F33  1803               	skipnc
  6619  0F34  3001               	movlw	1
  6620  0F35  07F3               	addwf	___fladd@b+3,f
  6621  0F36  2F45               	goto	l711
  6622  0F37                     l2690:
  6623  0F37  0874               	movf	___fladd@a,w
  6624  0F38  02F0               	subwf	___fladd@b,f
  6625  0F39  0875               	movf	___fladd@a+1,w
  6626  0F3A  1C03               	skipc
  6627  0F3B  0F75               	incfsz	___fladd@a+1,w
  6628  0F3C  02F1               	subwf	___fladd@b+1,f
  6629  0F3D  0876               	movf	___fladd@a+2,w
  6630  0F3E  1C03               	skipc
  6631  0F3F  0F76               	incfsz	___fladd@a+2,w
  6632  0F40  02F2               	subwf	___fladd@b+2,f
  6633  0F41  0877               	movf	___fladd@a+3,w
  6634  0F42  1C03               	skipc
  6635  0F43  0F77               	incfsz	___fladd@a+3,w
  6636  0F44  02F3               	subwf	___fladd@b+3,f
  6637  0F45                     l711:
  6638  0F45  0873               	movf	___fladd@b+3,w
  6639  0F46  0472               	iorwf	___fladd@b+2,w
  6640  0F47  0471               	iorwf	___fladd@b+1,w
  6641  0F48  0470               	iorwf	___fladd@b,w
  6642  0F49  1D03               	skipz
  6643  0F4A  2F4C               	goto	u2841
  6644  0F4B  2F4D               	goto	u2840
  6645  0F4C                     u2841:
  6646  0F4C  2F7B               	goto	l2712
  6647  0F4D                     u2840:
  6648  0F4D                     l2692:
  6649  0F4D  087B               	movf	___fladd@grs,w
  6650  0F4E  1D03               	btfss	3,2
  6651  0F4F  2F51               	goto	u2851
  6652  0F50  2F52               	goto	u2850
  6653  0F51                     u2851:
  6654  0F51  2F7B               	goto	l2712
  6655  0F52                     u2850:
  6656  0F52                     l2694:
  6657  0F52  3000               	movlw	0
  6658  0F53  00F3               	movwf	?___fladd+3
  6659  0F54  3000               	movlw	0
  6660  0F55  00F2               	movwf	?___fladd+2
  6661  0F56  3000               	movlw	0
  6662  0F57  00F1               	movwf	?___fladd+1
  6663  0F58  3000               	movlw	0
  6664  0F59  00F0               	movwf	?___fladd
  6665  0F5A  2FFF               	goto	l703
  6666  0F5B                     l2698:
  6667  0F5B  3001               	movlw	1
  6668  0F5C  1283               	bcf	3,5	;RP0=0, select bank0
  6669  0F5D  1303               	bcf	3,6	;RP1=0, select bank0
  6670  0F5E  00A0               	movwf	??___fladd
  6671  0F5F                     u2865:
  6672  0F5F  1003               	clrc
  6673  0F60  0DF0               	rlf	___fladd@b,f
  6674  0F61  0DF1               	rlf	___fladd@b+1,f
  6675  0F62  0DF2               	rlf	___fladd@b+2,f
  6676  0F63  0DF3               	rlf	___fladd@b+3,f
  6677  0F64  0BA0               	decfsz	??___fladd,f
  6678  0F65  2F5F               	goto	u2865
  6679  0F66                     l2700:
  6680  0F66  1FFB               	btfss	___fladd@grs,7
  6681  0F67  2F69               	goto	u2871
  6682  0F68  2F6A               	goto	u2870
  6683  0F69                     u2871:
  6684  0F69  2F6B               	goto	l715
  6685  0F6A                     u2870:
  6686  0F6A                     l2702:
  6687  0F6A  1470               	bsf	___fladd@b,0
  6688  0F6B                     l715:
  6689  0F6B  1C7B               	btfss	___fladd@grs,0
  6690  0F6C  2F6E               	goto	u2881
  6691  0F6D  2F6F               	goto	u2880
  6692  0F6E                     u2881:
  6693  0F6E  2F72               	goto	l2706
  6694  0F6F                     u2880:
  6695  0F6F                     l2704:
  6696  0F6F  1403               	setc
  6697  0F70  0DFB               	rlf	___fladd@grs,f
  6698  0F71  2F74               	goto	l2708
  6699  0F72                     l2706:
  6700  0F72  1003               	clrc
  6701  0F73  0DFB               	rlf	___fladd@grs,f
  6702  0F74                     l2708:
  6703  0F74  087A               	movf	___fladd@bexp,w
  6704  0F75  1903               	btfsc	3,2
  6705  0F76  2F78               	goto	u2891
  6706  0F77  2F79               	goto	u2890
  6707  0F78                     u2891:
  6708  0F78  2F7B               	goto	l2712
  6709  0F79                     u2890:
  6710  0F79                     l2710:
  6711  0F79  3001               	movlw	1
  6712  0F7A  02FA               	subwf	___fladd@bexp,f
  6713  0F7B                     l2712:
  6714  0F7B  1FF2               	btfss	___fladd@b+2,7
  6715  0F7C  2F7E               	goto	u2901
  6716  0F7D  2F7F               	goto	u2900
  6717  0F7E                     u2901:
  6718  0F7E  2F5B               	goto	l2698
  6719  0F7F                     u2900:
  6720  0F7F                     l2714:
  6721  0F7F  01F9               	clrf	___fladd@aexp
  6722  0F80                     l2716:
  6723  0F80  1FFB               	btfss	___fladd@grs,7
  6724  0F81  2F83               	goto	u2911
  6725  0F82  2F84               	goto	u2910
  6726  0F83                     u2911:
  6727  0F83  2F92               	goto	l2724
  6728  0F84                     u2910:
  6729  0F84                     l2718:
  6730  0F84  087B               	movf	___fladd@grs,w
  6731  0F85  397F               	andlw	127
  6732  0F86  1903               	btfsc	3,2
  6733  0F87  2F89               	goto	u2921
  6734  0F88  2F8A               	goto	u2920
  6735  0F89                     u2921:
  6736  0F89  2F8D               	goto	l721
  6737  0F8A                     u2920:
  6738  0F8A                     l2720:
  6739  0F8A  01F9               	clrf	___fladd@aexp
  6740  0F8B  0AF9               	incf	___fladd@aexp,f
  6741  0F8C  2F92               	goto	l2724
  6742  0F8D                     l721:
  6743  0F8D  1C70               	btfss	___fladd@b,0
  6744  0F8E  2F90               	goto	u2931
  6745  0F8F  2F91               	goto	u2930
  6746  0F90                     u2931:
  6747  0F90  2F92               	goto	l2724
  6748  0F91                     u2930:
  6749  0F91  2F8A               	goto	l2720
  6750  0F92                     l2724:
  6751  0F92  0879               	movf	___fladd@aexp,w
  6752  0F93  1903               	btfsc	3,2
  6753  0F94  2F96               	goto	u2941
  6754  0F95  2F97               	goto	u2940
  6755  0F96                     u2941:
  6756  0F96  2FCD               	goto	l724
  6757  0F97                     u2940:
  6758  0F97                     l2726:
  6759  0F97  3001               	movlw	1
  6760  0F98  07F0               	addwf	___fladd@b,f
  6761  0F99  3000               	movlw	0
  6762  0F9A  1803               	skipnc
  6763  0F9B  3001               	movlw	1
  6764  0F9C  07F1               	addwf	___fladd@b+1,f
  6765  0F9D  3000               	movlw	0
  6766  0F9E  1803               	skipnc
  6767  0F9F  3001               	movlw	1
  6768  0FA0  07F2               	addwf	___fladd@b+2,f
  6769  0FA1  3000               	movlw	0
  6770  0FA2  1803               	skipnc
  6771  0FA3  3001               	movlw	1
  6772  0FA4  07F3               	addwf	___fladd@b+3,f
  6773  0FA5                     l2728:
  6774  0FA5  1C73               	btfss	___fladd@b+3,0
  6775  0FA6  2FA8               	goto	u2951
  6776  0FA7  2FA9               	goto	u2950
  6777  0FA8                     u2951:
  6778  0FA8  2FCD               	goto	l724
  6779  0FA9                     u2950:
  6780  0FA9                     l2730:
  6781  0FA9  0870               	movf	___fladd@b,w
  6782  0FAA  1283               	bcf	3,5	;RP0=0, select bank0
  6783  0FAB  1303               	bcf	3,6	;RP1=0, select bank0
  6784  0FAC  00A0               	movwf	??___fladd
  6785  0FAD  0871               	movf	___fladd@b+1,w
  6786  0FAE  00A1               	movwf	??___fladd+1
  6787  0FAF  0872               	movf	___fladd@b+2,w
  6788  0FB0  00A2               	movwf	??___fladd+2
  6789  0FB1  0873               	movf	___fladd@b+3,w
  6790  0FB2  00A3               	movwf	??___fladd+3
  6791  0FB3  3001               	movlw	1
  6792  0FB4  00A4               	movwf	??___fladd+4
  6793  0FB5                     u2965:
  6794  0FB5  0D23               	rlf	??___fladd+3,w
  6795  0FB6  0CA3               	rrf	??___fladd+3,f
  6796  0FB7  0CA2               	rrf	??___fladd+2,f
  6797  0FB8  0CA1               	rrf	??___fladd+1,f
  6798  0FB9  0CA0               	rrf	??___fladd,f
  6799  0FBA                     u2960:
  6800  0FBA  0BA4               	decfsz	??___fladd+4,f
  6801  0FBB  2FB5               	goto	u2965
  6802  0FBC  0823               	movf	??___fladd+3,w
  6803  0FBD  00F3               	movwf	___fladd@b+3
  6804  0FBE  0822               	movf	??___fladd+2,w
  6805  0FBF  00F2               	movwf	___fladd@b+2
  6806  0FC0  0821               	movf	??___fladd+1,w
  6807  0FC1  00F1               	movwf	___fladd@b+1
  6808  0FC2  0820               	movf	??___fladd,w
  6809  0FC3  00F0               	movwf	___fladd@b
  6810  0FC4  0A7A               	incf	___fladd@bexp,w
  6811  0FC5  1903               	btfsc	3,2
  6812  0FC6  2FC8               	goto	u2971
  6813  0FC7  2FC9               	goto	u2970
  6814  0FC8                     u2971:
  6815  0FC8  2FCD               	goto	l724
  6816  0FC9                     u2970:
  6817  0FC9                     l2732:
  6818  0FC9  3001               	movlw	1
  6819  0FCA  00A0               	movwf	??___fladd
  6820  0FCB  0820               	movf	??___fladd,w
  6821  0FCC  07FA               	addwf	___fladd@bexp,f
  6822  0FCD                     l724:
  6823  0FCD  0A7A               	incf	___fladd@bexp,w
  6824  0FCE  1903               	btfsc	3,2
  6825  0FCF  2FD1               	goto	u2981
  6826  0FD0  2FD2               	goto	u2980
  6827  0FD1                     u2981:
  6828  0FD1  2FD7               	goto	l2736
  6829  0FD2                     u2980:
  6830  0FD2                     l2734:
  6831  0FD2  087A               	movf	___fladd@bexp,w
  6832  0FD3  1D03               	btfss	3,2
  6833  0FD4  2FD6               	goto	u2991
  6834  0FD5  2FD7               	goto	u2990
  6835  0FD6                     u2991:
  6836  0FD6  2FE5               	goto	l2742
  6837  0FD7                     u2990:
  6838  0FD7                     l2736:
  6839  0FD7  3000               	movlw	0
  6840  0FD8  00F3               	movwf	___fladd@b+3
  6841  0FD9  3000               	movlw	0
  6842  0FDA  00F2               	movwf	___fladd@b+2
  6843  0FDB  3000               	movlw	0
  6844  0FDC  00F1               	movwf	___fladd@b+1
  6845  0FDD  3000               	movlw	0
  6846  0FDE  00F0               	movwf	___fladd@b
  6847  0FDF                     l2738:
  6848  0FDF  087A               	movf	___fladd@bexp,w
  6849  0FE0  1D03               	btfss	3,2
  6850  0FE1  2FE3               	goto	u3001
  6851  0FE2  2FE4               	goto	u3000
  6852  0FE3                     u3001:
  6853  0FE3  2FE5               	goto	l2742
  6854  0FE4                     u3000:
  6855  0FE4                     l2740:
  6856  0FE4  01F8               	clrf	___fladd@signs
  6857  0FE5                     l2742:
  6858  0FE5  1C7A               	btfss	___fladd@bexp,0
  6859  0FE6  2FE8               	goto	u3011
  6860  0FE7  2FE9               	goto	u3010
  6861  0FE8                     u3011:
  6862  0FE8  2FEB               	goto	l2746
  6863  0FE9                     u3010:
  6864  0FE9                     l2744:
  6865  0FE9  17F2               	bsf	___fladd@b+2,7
  6866  0FEA  2FF1               	goto	l732
  6867  0FEB                     l2746:
  6868  0FEB  307F               	movlw	127
  6869  0FEC  1283               	bcf	3,5	;RP0=0, select bank0
  6870  0FED  1303               	bcf	3,6	;RP1=0, select bank0
  6871  0FEE  00A0               	movwf	??___fladd
  6872  0FEF  0820               	movf	??___fladd,w
  6873  0FF0  05F2               	andwf	___fladd@b+2,f
  6874  0FF1                     l732:
  6875  0FF1  087A               	movf	___fladd@bexp,w
  6876  0FF2  1283               	bcf	3,5	;RP0=0, select bank0
  6877  0FF3  1303               	bcf	3,6	;RP1=0, select bank0
  6878  0FF4  00A0               	movwf	??___fladd
  6879  0FF5  1003               	clrc
  6880  0FF6  0C20               	rrf	??___fladd,w
  6881  0FF7  00A1               	movwf	??___fladd+1
  6882  0FF8  0821               	movf	??___fladd+1,w
  6883  0FF9  00F3               	movwf	___fladd@b+3
  6884  0FFA                     l2748:
  6885  0FFA  1FF8               	btfss	___fladd@signs,7
  6886  0FFB  2FFD               	goto	u3021
  6887  0FFC  2FFE               	goto	u3020
  6888  0FFD                     u3021:
  6889  0FFD  2FFF               	goto	l733
  6890  0FFE                     u3020:
  6891  0FFE                     l2750:
  6892  0FFE  17F3               	bsf	___fladd@b+3,7
  6893  0FFF                     l733:
  6894  0FFF                     l703:
  6895  0FFF  0008               	return
  6896  1000                     __end_of___fladd:
  6897                           
  6898                           	psect	text24
  6899  008F                     __ptext24:	
  6900 ;; *************** function ___flmul *****************
  6901 ;; Defined at:
  6902 ;;		line 8 in file "C:\Program Files\Microchip\xc8\v2.31\pic\sources\c90\common\sprcmul.c"
  6903 ;; Parameters:    Size  Location     Type
  6904 ;;  b               4   44[BANK0 ] unsigned char 
  6905 ;;  a               4   48[BANK0 ] unsigned char 
  6906 ;; Auto vars:     Size  Location     Type
  6907 ;;  prod            4   64[BANK0 ] struct .
  6908 ;;  grs             4   58[BANK0 ] unsigned long 
  6909 ;;  temp            2   68[BANK0 ] struct .
  6910 ;;  bexp            1   63[BANK0 ] unsigned char 
  6911 ;;  aexp            1   62[BANK0 ] unsigned char 
  6912 ;;  sign            1   57[BANK0 ] unsigned char 
  6913 ;; Return value:  Size  Location     Type
  6914 ;;                  4   44[BANK0 ] unsigned char 
  6915 ;; Registers used:
  6916 ;;		wreg, status,2, status,0, btemp+1, pclath, cstack
  6917 ;; Tracked objects:
  6918 ;;		On entry : 0/0
  6919 ;;		On exit  : 0/0
  6920 ;;		Unchanged: 0/0
  6921 ;; Data sizes:     COMMON   BANK0   BANK1   BANK3   BANK2
  6922 ;;      Params:         0       8       0       0       0
  6923 ;;      Locals:         0      13       0       0       0
  6924 ;;      Temps:          0       5       0       0       0
  6925 ;;      Totals:         0      26       0       0       0
  6926 ;;Total ram usage:       26 bytes
  6927 ;; Hardware stack levels used:    1
  6928 ;; Hardware stack levels required when called:    1
  6929 ;; This function calls:
  6930 ;;		__Umul8_16
  6931 ;; This function is called by:
  6932 ;;		_main
  6933 ;;		_ADC_convert
  6934 ;; This function uses a non-reentrant model
  6935 ;;
  6936                           
  6937                           
  6938                           ;psect for function ___flmul
  6939  008F                     ___flmul:
  6940  008F                     l3072:	
  6941                           ;incstack = 0
  6942                           ; Regs used in ___flmul: [wreg+status,2+status,0+btemp+1+pclath+cstack]
  6943                           
  6944  008F  1283               	bcf	3,5	;RP0=0, select bank0
  6945  0090  1303               	bcf	3,6	;RP1=0, select bank0
  6946  0091  084F               	movf	___flmul@b+3,w
  6947  0092  3980               	andlw	128
  6948  0093  00D4               	movwf	??___flmul
  6949  0094  0854               	movf	??___flmul,w
  6950  0095  00D9               	movwf	___flmul@sign
  6951  0096                     l3074:
  6952  0096  084F               	movf	___flmul@b+3,w
  6953  0097  00D4               	movwf	??___flmul
  6954  0098  0754               	addwf	??___flmul,w
  6955  0099  00D5               	movwf	??___flmul+1
  6956  009A  0855               	movf	??___flmul+1,w
  6957  009B  00DF               	movwf	___flmul@bexp
  6958  009C                     l3076:
  6959  009C  1FCE               	btfss	___flmul@b+2,7
  6960  009D  289F               	goto	u3641
  6961  009E  28A0               	goto	u3640
  6962  009F                     u3641:
  6963  009F  28A1               	goto	l3080
  6964  00A0                     u3640:
  6965  00A0                     l3078:
  6966  00A0  145F               	bsf	___flmul@bexp,0
  6967  00A1                     l3080:
  6968  00A1  085F               	movf	___flmul@bexp,w
  6969  00A2  1903               	btfsc	3,2
  6970  00A3  28A5               	goto	u3651
  6971  00A4  28A6               	goto	u3650
  6972  00A5                     u3651:
  6973  00A5  28B5               	goto	l3088
  6974  00A6                     u3650:
  6975  00A6                     l3082:
  6976  00A6  0A5F               	incf	___flmul@bexp,w
  6977  00A7  1D03               	btfss	3,2
  6978  00A8  28AA               	goto	u3661
  6979  00A9  28AB               	goto	u3660
  6980  00AA                     u3661:
  6981  00AA  28B3               	goto	l3086
  6982  00AB                     u3660:
  6983  00AB                     l3084:
  6984  00AB  3000               	movlw	0
  6985  00AC  00CF               	movwf	___flmul@b+3
  6986  00AD  3000               	movlw	0
  6987  00AE  00CE               	movwf	___flmul@b+2
  6988  00AF  3000               	movlw	0
  6989  00B0  00CD               	movwf	___flmul@b+1
  6990  00B1  3000               	movlw	0
  6991  00B2  00CC               	movwf	___flmul@b
  6992  00B3                     l3086:
  6993  00B3  17CE               	bsf	___flmul@b+2,7
  6994  00B4  28BD               	goto	l3090
  6995  00B5                     l3088:
  6996  00B5  3000               	movlw	0
  6997  00B6  00CF               	movwf	___flmul@b+3
  6998  00B7  3000               	movlw	0
  6999  00B8  00CE               	movwf	___flmul@b+2
  7000  00B9  3000               	movlw	0
  7001  00BA  00CD               	movwf	___flmul@b+1
  7002  00BB  3000               	movlw	0
  7003  00BC  00CC               	movwf	___flmul@b
  7004  00BD                     l3090:
  7005  00BD  0853               	movf	___flmul@a+3,w
  7006  00BE  3980               	andlw	128
  7007  00BF  00D4               	movwf	??___flmul
  7008  00C0  0854               	movf	??___flmul,w
  7009  00C1  06D9               	xorwf	___flmul@sign,f
  7010  00C2                     l3092:
  7011  00C2  0853               	movf	___flmul@a+3,w
  7012  00C3  00D4               	movwf	??___flmul
  7013  00C4  0754               	addwf	??___flmul,w
  7014  00C5  00D5               	movwf	??___flmul+1
  7015  00C6  0855               	movf	??___flmul+1,w
  7016  00C7  00DE               	movwf	___flmul@aexp
  7017  00C8                     l3094:
  7018  00C8  1FD2               	btfss	___flmul@a+2,7
  7019  00C9  28CB               	goto	u3671
  7020  00CA  28CC               	goto	u3670
  7021  00CB                     u3671:
  7022  00CB  28CD               	goto	l3098
  7023  00CC                     u3670:
  7024  00CC                     l3096:
  7025  00CC  145E               	bsf	___flmul@aexp,0
  7026  00CD                     l3098:
  7027  00CD  085E               	movf	___flmul@aexp,w
  7028  00CE  1903               	btfsc	3,2
  7029  00CF  28D1               	goto	u3681
  7030  00D0  28D2               	goto	u3680
  7031  00D1                     u3681:
  7032  00D1  28E1               	goto	l3106
  7033  00D2                     u3680:
  7034  00D2                     l3100:
  7035  00D2  0A5E               	incf	___flmul@aexp,w
  7036  00D3  1D03               	btfss	3,2
  7037  00D4  28D6               	goto	u3691
  7038  00D5  28D7               	goto	u3690
  7039  00D6                     u3691:
  7040  00D6  28DF               	goto	l3104
  7041  00D7                     u3690:
  7042  00D7                     l3102:
  7043  00D7  3000               	movlw	0
  7044  00D8  00D3               	movwf	___flmul@a+3
  7045  00D9  3000               	movlw	0
  7046  00DA  00D2               	movwf	___flmul@a+2
  7047  00DB  3000               	movlw	0
  7048  00DC  00D1               	movwf	___flmul@a+1
  7049  00DD  3000               	movlw	0
  7050  00DE  00D0               	movwf	___flmul@a
  7051  00DF                     l3104:
  7052  00DF  17D2               	bsf	___flmul@a+2,7
  7053  00E0  28E9               	goto	l3108
  7054  00E1                     l3106:
  7055  00E1  3000               	movlw	0
  7056  00E2  00D3               	movwf	___flmul@a+3
  7057  00E3  3000               	movlw	0
  7058  00E4  00D2               	movwf	___flmul@a+2
  7059  00E5  3000               	movlw	0
  7060  00E6  00D1               	movwf	___flmul@a+1
  7061  00E7  3000               	movlw	0
  7062  00E8  00D0               	movwf	___flmul@a
  7063  00E9                     l3108:
  7064  00E9  085E               	movf	___flmul@aexp,w
  7065  00EA  1903               	btfsc	3,2
  7066  00EB  28ED               	goto	u3701
  7067  00EC  28EE               	goto	u3700
  7068  00ED                     u3701:
  7069  00ED  28F3               	goto	l3112
  7070  00EE                     u3700:
  7071  00EE                     l3110:
  7072  00EE  085F               	movf	___flmul@bexp,w
  7073  00EF  1D03               	btfss	3,2
  7074  00F0  28F2               	goto	u3711
  7075  00F1  28F3               	goto	u3710
  7076  00F2                     u3711:
  7077  00F2  28FC               	goto	l3116
  7078  00F3                     u3710:
  7079  00F3                     l3112:
  7080  00F3  3000               	movlw	0
  7081  00F4  00CF               	movwf	?___flmul+3
  7082  00F5  3000               	movlw	0
  7083  00F6  00CE               	movwf	?___flmul+2
  7084  00F7  3000               	movlw	0
  7085  00F8  00CD               	movwf	?___flmul+1
  7086  00F9  3000               	movlw	0
  7087  00FA  00CC               	movwf	?___flmul
  7088  00FB  2BEF               	goto	l786
  7089  00FC                     l3116:
  7090  00FC  084C               	movf	___flmul@b,w
  7091  00FD  00D4               	movwf	??___flmul
  7092  00FE  0854               	movf	??___flmul,w
  7093  00FF  00F0               	movwf	__Umul8_16@multiplicand
  7094  0100  0852               	movf	___flmul@a+2,w
  7095  0101  160A  118A  231A  120A  118A  	fcall	__Umul8_16
  7096  0106  0871               	movf	?__Umul8_16+1,w
  7097  0107  1283               	bcf	3,5	;RP0=0, select bank0
  7098  0108  1303               	bcf	3,6	;RP1=0, select bank0
  7099  0109  00E5               	movwf	___flmul@temp+1
  7100  010A  0870               	movf	?__Umul8_16,w
  7101  010B  00E4               	movwf	___flmul@temp
  7102  010C                     l3118:
  7103  010C  0864               	movf	___flmul@temp,w
  7104  010D  00D4               	movwf	??___flmul
  7105  010E  01D5               	clrf	??___flmul+1
  7106  010F  01D6               	clrf	??___flmul+2
  7107  0110  01D7               	clrf	??___flmul+3
  7108  0111  0857               	movf	??___flmul+3,w
  7109  0112  00DD               	movwf	___flmul@grs+3
  7110  0113  0856               	movf	??___flmul+2,w
  7111  0114  00DC               	movwf	___flmul@grs+2
  7112  0115  0855               	movf	??___flmul+1,w
  7113  0116  00DB               	movwf	___flmul@grs+1
  7114  0117  0854               	movf	??___flmul,w
  7115  0118  00DA               	movwf	___flmul@grs
  7116  0119                     l3120:
  7117  0119  0865               	movf	___flmul@temp+1,w
  7118  011A  00D4               	movwf	??___flmul
  7119  011B  01D5               	clrf	??___flmul+1
  7120  011C  01D6               	clrf	??___flmul+2
  7121  011D  01D7               	clrf	??___flmul+3
  7122  011E  0857               	movf	??___flmul+3,w
  7123  011F  00E3               	movwf	___flmul@prod+3
  7124  0120  0856               	movf	??___flmul+2,w
  7125  0121  00E2               	movwf	___flmul@prod+2
  7126  0122  0855               	movf	??___flmul+1,w
  7127  0123  00E1               	movwf	___flmul@prod+1
  7128  0124  0854               	movf	??___flmul,w
  7129  0125  00E0               	movwf	___flmul@prod
  7130  0126  084D               	movf	___flmul@b+1,w
  7131  0127  00D4               	movwf	??___flmul
  7132  0128  0854               	movf	??___flmul,w
  7133  0129  00F0               	movwf	__Umul8_16@multiplicand
  7134  012A  0851               	movf	___flmul@a+1,w
  7135  012B  160A  118A  231A  120A  118A  	fcall	__Umul8_16
  7136  0130  0871               	movf	?__Umul8_16+1,w
  7137  0131  1283               	bcf	3,5	;RP0=0, select bank0
  7138  0132  1303               	bcf	3,6	;RP1=0, select bank0
  7139  0133  00E5               	movwf	___flmul@temp+1
  7140  0134  0870               	movf	?__Umul8_16,w
  7141  0135  00E4               	movwf	___flmul@temp
  7142  0136                     l3122:
  7143  0136  0864               	movf	___flmul@temp,w
  7144  0137  00D4               	movwf	??___flmul
  7145  0138  01D5               	clrf	??___flmul+1
  7146  0139  01D6               	clrf	??___flmul+2
  7147  013A  01D7               	clrf	??___flmul+3
  7148  013B  0854               	movf	??___flmul,w
  7149  013C  07DA               	addwf	___flmul@grs,f
  7150  013D  0855               	movf	??___flmul+1,w
  7151  013E  1103               	clrz
  7152  013F  1803               	skipnc
  7153  0140  3E01               	addlw	1
  7154  0141  1903               	skipnz
  7155  0142  2944               	goto	u3721
  7156  0143  07DB               	addwf	___flmul@grs+1,f
  7157  0144                     u3721:
  7158  0144  0856               	movf	??___flmul+2,w
  7159  0145  1103               	clrz
  7160  0146  1803               	skipnc
  7161  0147  3E01               	addlw	1
  7162  0148  1903               	skipnz
  7163  0149  294B               	goto	u3722
  7164  014A  07DC               	addwf	___flmul@grs+2,f
  7165  014B                     u3722:
  7166  014B  0857               	movf	??___flmul+3,w
  7167  014C  1103               	clrz
  7168  014D  1803               	skipnc
  7169  014E  3E01               	addlw	1
  7170  014F  1903               	skipnz
  7171  0150  2952               	goto	u3723
  7172  0151  07DD               	addwf	___flmul@grs+3,f
  7173  0152                     u3723:
  7174  0152                     l3124:
  7175  0152  0865               	movf	___flmul@temp+1,w
  7176  0153  00D4               	movwf	??___flmul
  7177  0154  01D5               	clrf	??___flmul+1
  7178  0155  01D6               	clrf	??___flmul+2
  7179  0156  01D7               	clrf	??___flmul+3
  7180  0157  0854               	movf	??___flmul,w
  7181  0158  07E0               	addwf	___flmul@prod,f
  7182  0159  0855               	movf	??___flmul+1,w
  7183  015A  1103               	clrz
  7184  015B  1803               	skipnc
  7185  015C  3E01               	addlw	1
  7186  015D  1903               	skipnz
  7187  015E  2960               	goto	u3731
  7188  015F  07E1               	addwf	___flmul@prod+1,f
  7189  0160                     u3731:
  7190  0160  0856               	movf	??___flmul+2,w
  7191  0161  1103               	clrz
  7192  0162  1803               	skipnc
  7193  0163  3E01               	addlw	1
  7194  0164  1903               	skipnz
  7195  0165  2967               	goto	u3732
  7196  0166  07E2               	addwf	___flmul@prod+2,f
  7197  0167                     u3732:
  7198  0167  0857               	movf	??___flmul+3,w
  7199  0168  1103               	clrz
  7200  0169  1803               	skipnc
  7201  016A  3E01               	addlw	1
  7202  016B  1903               	skipnz
  7203  016C  296E               	goto	u3733
  7204  016D  07E3               	addwf	___flmul@prod+3,f
  7205  016E                     u3733:
  7206  016E  084E               	movf	___flmul@b+2,w
  7207  016F  00D4               	movwf	??___flmul
  7208  0170  0854               	movf	??___flmul,w
  7209  0171  00F0               	movwf	__Umul8_16@multiplicand
  7210  0172  0850               	movf	___flmul@a,w
  7211  0173  160A  118A  231A  120A  118A  	fcall	__Umul8_16
  7212  0178  0871               	movf	?__Umul8_16+1,w
  7213  0179  1283               	bcf	3,5	;RP0=0, select bank0
  7214  017A  1303               	bcf	3,6	;RP1=0, select bank0
  7215  017B  00E5               	movwf	___flmul@temp+1
  7216  017C  0870               	movf	?__Umul8_16,w
  7217  017D  00E4               	movwf	___flmul@temp
  7218  017E                     l3126:
  7219  017E  0864               	movf	___flmul@temp,w
  7220  017F  00D4               	movwf	??___flmul
  7221  0180  01D5               	clrf	??___flmul+1
  7222  0181  01D6               	clrf	??___flmul+2
  7223  0182  01D7               	clrf	??___flmul+3
  7224  0183  0854               	movf	??___flmul,w
  7225  0184  07DA               	addwf	___flmul@grs,f
  7226  0185  0855               	movf	??___flmul+1,w
  7227  0186  1103               	clrz
  7228  0187  1803               	skipnc
  7229  0188  3E01               	addlw	1
  7230  0189  1903               	skipnz
  7231  018A  298C               	goto	u3741
  7232  018B  07DB               	addwf	___flmul@grs+1,f
  7233  018C                     u3741:
  7234  018C  0856               	movf	??___flmul+2,w
  7235  018D  1103               	clrz
  7236  018E  1803               	skipnc
  7237  018F  3E01               	addlw	1
  7238  0190  1903               	skipnz
  7239  0191  2993               	goto	u3742
  7240  0192  07DC               	addwf	___flmul@grs+2,f
  7241  0193                     u3742:
  7242  0193  0857               	movf	??___flmul+3,w
  7243  0194  1103               	clrz
  7244  0195  1803               	skipnc
  7245  0196  3E01               	addlw	1
  7246  0197  1903               	skipnz
  7247  0198  299A               	goto	u3743
  7248  0199  07DD               	addwf	___flmul@grs+3,f
  7249  019A                     u3743:
  7250  019A                     l3128:
  7251  019A  0865               	movf	___flmul@temp+1,w
  7252  019B  00D4               	movwf	??___flmul
  7253  019C  01D5               	clrf	??___flmul+1
  7254  019D  01D6               	clrf	??___flmul+2
  7255  019E  01D7               	clrf	??___flmul+3
  7256  019F  0854               	movf	??___flmul,w
  7257  01A0  07E0               	addwf	___flmul@prod,f
  7258  01A1  0855               	movf	??___flmul+1,w
  7259  01A2  1103               	clrz
  7260  01A3  1803               	skipnc
  7261  01A4  3E01               	addlw	1
  7262  01A5  1903               	skipnz
  7263  01A6  29A8               	goto	u3751
  7264  01A7  07E1               	addwf	___flmul@prod+1,f
  7265  01A8                     u3751:
  7266  01A8  0856               	movf	??___flmul+2,w
  7267  01A9  1103               	clrz
  7268  01AA  1803               	skipnc
  7269  01AB  3E01               	addlw	1
  7270  01AC  1903               	skipnz
  7271  01AD  29AF               	goto	u3752
  7272  01AE  07E2               	addwf	___flmul@prod+2,f
  7273  01AF                     u3752:
  7274  01AF  0857               	movf	??___flmul+3,w
  7275  01B0  1103               	clrz
  7276  01B1  1803               	skipnc
  7277  01B2  3E01               	addlw	1
  7278  01B3  1903               	skipnz
  7279  01B4  29B6               	goto	u3753
  7280  01B5  07E3               	addwf	___flmul@prod+3,f
  7281  01B6                     u3753:
  7282  01B6                     l3130:
  7283  01B6  3008               	movlw	8
  7284  01B7  00D4               	movwf	??___flmul
  7285  01B8                     u3765:
  7286  01B8  1003               	clrc
  7287  01B9  0DDA               	rlf	___flmul@grs,f
  7288  01BA  0DDB               	rlf	___flmul@grs+1,f
  7289  01BB  0DDC               	rlf	___flmul@grs+2,f
  7290  01BC  0DDD               	rlf	___flmul@grs+3,f
  7291  01BD  0BD4               	decfsz	??___flmul,f
  7292  01BE  29B8               	goto	u3765
  7293  01BF                     l3132:
  7294  01BF  084D               	movf	___flmul@b+1,w
  7295  01C0  00D4               	movwf	??___flmul
  7296  01C1  0854               	movf	??___flmul,w
  7297  01C2  00F0               	movwf	__Umul8_16@multiplicand
  7298  01C3  0850               	movf	___flmul@a,w
  7299  01C4  160A  118A  231A  120A  118A  	fcall	__Umul8_16
  7300  01C9  0871               	movf	?__Umul8_16+1,w
  7301  01CA  1283               	bcf	3,5	;RP0=0, select bank0
  7302  01CB  1303               	bcf	3,6	;RP1=0, select bank0
  7303  01CC  00E5               	movwf	___flmul@temp+1
  7304  01CD  0870               	movf	?__Umul8_16,w
  7305  01CE  00E4               	movwf	___flmul@temp
  7306  01CF                     l3134:
  7307  01CF  0864               	movf	___flmul@temp,w
  7308  01D0  00D4               	movwf	??___flmul
  7309  01D1  0865               	movf	___flmul@temp+1,w
  7310  01D2  00D5               	movwf	??___flmul+1
  7311  01D3  01D6               	clrf	??___flmul+2
  7312  01D4  01D7               	clrf	??___flmul+3
  7313  01D5  0854               	movf	??___flmul,w
  7314  01D6  07DA               	addwf	___flmul@grs,f
  7315  01D7  0855               	movf	??___flmul+1,w
  7316  01D8  1103               	clrz
  7317  01D9  1803               	skipnc
  7318  01DA  3E01               	addlw	1
  7319  01DB  1903               	skipnz
  7320  01DC  29DE               	goto	u3771
  7321  01DD  07DB               	addwf	___flmul@grs+1,f
  7322  01DE                     u3771:
  7323  01DE  0856               	movf	??___flmul+2,w
  7324  01DF  1103               	clrz
  7325  01E0  1803               	skipnc
  7326  01E1  3E01               	addlw	1
  7327  01E2  1903               	skipnz
  7328  01E3  29E5               	goto	u3772
  7329  01E4  07DC               	addwf	___flmul@grs+2,f
  7330  01E5                     u3772:
  7331  01E5  0857               	movf	??___flmul+3,w
  7332  01E6  1103               	clrz
  7333  01E7  1803               	skipnc
  7334  01E8  3E01               	addlw	1
  7335  01E9  1903               	skipnz
  7336  01EA  29EC               	goto	u3773
  7337  01EB  07DD               	addwf	___flmul@grs+3,f
  7338  01EC                     u3773:
  7339  01EC                     l3136:
  7340  01EC  084C               	movf	___flmul@b,w
  7341  01ED  00D4               	movwf	??___flmul
  7342  01EE  0854               	movf	??___flmul,w
  7343  01EF  00F0               	movwf	__Umul8_16@multiplicand
  7344  01F0  0851               	movf	___flmul@a+1,w
  7345  01F1  160A  118A  231A  120A  118A  	fcall	__Umul8_16
  7346  01F6  0871               	movf	?__Umul8_16+1,w
  7347  01F7  1283               	bcf	3,5	;RP0=0, select bank0
  7348  01F8  1303               	bcf	3,6	;RP1=0, select bank0
  7349  01F9  00E5               	movwf	___flmul@temp+1
  7350  01FA  0870               	movf	?__Umul8_16,w
  7351  01FB  00E4               	movwf	___flmul@temp
  7352  01FC                     l3138:
  7353  01FC  0864               	movf	___flmul@temp,w
  7354  01FD  00D4               	movwf	??___flmul
  7355  01FE  0865               	movf	___flmul@temp+1,w
  7356  01FF  00D5               	movwf	??___flmul+1
  7357  0200  01D6               	clrf	??___flmul+2
  7358  0201  01D7               	clrf	??___flmul+3
  7359  0202  0854               	movf	??___flmul,w
  7360  0203  07DA               	addwf	___flmul@grs,f
  7361  0204  0855               	movf	??___flmul+1,w
  7362  0205  1103               	clrz
  7363  0206  1803               	skipnc
  7364  0207  3E01               	addlw	1
  7365  0208  1903               	skipnz
  7366  0209  2A0B               	goto	u3781
  7367  020A  07DB               	addwf	___flmul@grs+1,f
  7368  020B                     u3781:
  7369  020B  0856               	movf	??___flmul+2,w
  7370  020C  1103               	clrz
  7371  020D  1803               	skipnc
  7372  020E  3E01               	addlw	1
  7373  020F  1903               	skipnz
  7374  0210  2A12               	goto	u3782
  7375  0211  07DC               	addwf	___flmul@grs+2,f
  7376  0212                     u3782:
  7377  0212  0857               	movf	??___flmul+3,w
  7378  0213  1103               	clrz
  7379  0214  1803               	skipnc
  7380  0215  3E01               	addlw	1
  7381  0216  1903               	skipnz
  7382  0217  2A19               	goto	u3783
  7383  0218  07DD               	addwf	___flmul@grs+3,f
  7384  0219                     u3783:
  7385  0219                     l3140:
  7386  0219  3008               	movlw	8
  7387  021A  00D4               	movwf	??___flmul
  7388  021B                     u3795:
  7389  021B  1003               	clrc
  7390  021C  0DDA               	rlf	___flmul@grs,f
  7391  021D  0DDB               	rlf	___flmul@grs+1,f
  7392  021E  0DDC               	rlf	___flmul@grs+2,f
  7393  021F  0DDD               	rlf	___flmul@grs+3,f
  7394  0220  0BD4               	decfsz	??___flmul,f
  7395  0221  2A1B               	goto	u3795
  7396  0222  084C               	movf	___flmul@b,w
  7397  0223  00D4               	movwf	??___flmul
  7398  0224  0854               	movf	??___flmul,w
  7399  0225  00F0               	movwf	__Umul8_16@multiplicand
  7400  0226  0850               	movf	___flmul@a,w
  7401  0227  160A  118A  231A  120A  118A  	fcall	__Umul8_16
  7402  022C  0871               	movf	?__Umul8_16+1,w
  7403  022D  1283               	bcf	3,5	;RP0=0, select bank0
  7404  022E  1303               	bcf	3,6	;RP1=0, select bank0
  7405  022F  00E5               	movwf	___flmul@temp+1
  7406  0230  0870               	movf	?__Umul8_16,w
  7407  0231  00E4               	movwf	___flmul@temp
  7408  0232                     l3142:
  7409  0232  0864               	movf	___flmul@temp,w
  7410  0233  00D4               	movwf	??___flmul
  7411  0234  0865               	movf	___flmul@temp+1,w
  7412  0235  00D5               	movwf	??___flmul+1
  7413  0236  01D6               	clrf	??___flmul+2
  7414  0237  01D7               	clrf	??___flmul+3
  7415  0238  0854               	movf	??___flmul,w
  7416  0239  07DA               	addwf	___flmul@grs,f
  7417  023A  0855               	movf	??___flmul+1,w
  7418  023B  1103               	clrz
  7419  023C  1803               	skipnc
  7420  023D  3E01               	addlw	1
  7421  023E  1903               	skipnz
  7422  023F  2A41               	goto	u3801
  7423  0240  07DB               	addwf	___flmul@grs+1,f
  7424  0241                     u3801:
  7425  0241  0856               	movf	??___flmul+2,w
  7426  0242  1103               	clrz
  7427  0243  1803               	skipnc
  7428  0244  3E01               	addlw	1
  7429  0245  1903               	skipnz
  7430  0246  2A48               	goto	u3802
  7431  0247  07DC               	addwf	___flmul@grs+2,f
  7432  0248                     u3802:
  7433  0248  0857               	movf	??___flmul+3,w
  7434  0249  1103               	clrz
  7435  024A  1803               	skipnc
  7436  024B  3E01               	addlw	1
  7437  024C  1903               	skipnz
  7438  024D  2A4F               	goto	u3803
  7439  024E  07DD               	addwf	___flmul@grs+3,f
  7440  024F                     u3803:
  7441  024F                     l3144:
  7442  024F  084D               	movf	___flmul@b+1,w
  7443  0250  00D4               	movwf	??___flmul
  7444  0251  0854               	movf	??___flmul,w
  7445  0252  00F0               	movwf	__Umul8_16@multiplicand
  7446  0253  0852               	movf	___flmul@a+2,w
  7447  0254  160A  118A  231A  120A  118A  	fcall	__Umul8_16
  7448  0259  0871               	movf	?__Umul8_16+1,w
  7449  025A  1283               	bcf	3,5	;RP0=0, select bank0
  7450  025B  1303               	bcf	3,6	;RP1=0, select bank0
  7451  025C  00E5               	movwf	___flmul@temp+1
  7452  025D  0870               	movf	?__Umul8_16,w
  7453  025E  00E4               	movwf	___flmul@temp
  7454  025F  0864               	movf	___flmul@temp,w
  7455  0260  00D4               	movwf	??___flmul
  7456  0261  0865               	movf	___flmul@temp+1,w
  7457  0262  00D5               	movwf	??___flmul+1
  7458  0263  01D6               	clrf	??___flmul+2
  7459  0264  01D7               	clrf	??___flmul+3
  7460  0265  0854               	movf	??___flmul,w
  7461  0266  07E0               	addwf	___flmul@prod,f
  7462  0267  0855               	movf	??___flmul+1,w
  7463  0268  1103               	clrz
  7464  0269  1803               	skipnc
  7465  026A  3E01               	addlw	1
  7466  026B  1903               	skipnz
  7467  026C  2A6E               	goto	u3811
  7468  026D  07E1               	addwf	___flmul@prod+1,f
  7469  026E                     u3811:
  7470  026E  0856               	movf	??___flmul+2,w
  7471  026F  1103               	clrz
  7472  0270  1803               	skipnc
  7473  0271  3E01               	addlw	1
  7474  0272  1903               	skipnz
  7475  0273  2A75               	goto	u3812
  7476  0274  07E2               	addwf	___flmul@prod+2,f
  7477  0275                     u3812:
  7478  0275  0857               	movf	??___flmul+3,w
  7479  0276  1103               	clrz
  7480  0277  1803               	skipnc
  7481  0278  3E01               	addlw	1
  7482  0279  1903               	skipnz
  7483  027A  2A7C               	goto	u3813
  7484  027B  07E3               	addwf	___flmul@prod+3,f
  7485  027C                     u3813:
  7486  027C                     l3146:
  7487  027C  084E               	movf	___flmul@b+2,w
  7488  027D  00D4               	movwf	??___flmul
  7489  027E  0854               	movf	??___flmul,w
  7490  027F  00F0               	movwf	__Umul8_16@multiplicand
  7491  0280  0851               	movf	___flmul@a+1,w
  7492  0281  160A  118A  231A  120A  118A  	fcall	__Umul8_16
  7493  0286  0871               	movf	?__Umul8_16+1,w
  7494  0287  1283               	bcf	3,5	;RP0=0, select bank0
  7495  0288  1303               	bcf	3,6	;RP1=0, select bank0
  7496  0289  00E5               	movwf	___flmul@temp+1
  7497  028A  0870               	movf	?__Umul8_16,w
  7498  028B  00E4               	movwf	___flmul@temp
  7499  028C                     l3148:
  7500  028C  0864               	movf	___flmul@temp,w
  7501  028D  00D4               	movwf	??___flmul
  7502  028E  0865               	movf	___flmul@temp+1,w
  7503  028F  00D5               	movwf	??___flmul+1
  7504  0290  01D6               	clrf	??___flmul+2
  7505  0291  01D7               	clrf	??___flmul+3
  7506  0292  0854               	movf	??___flmul,w
  7507  0293  07E0               	addwf	___flmul@prod,f
  7508  0294  0855               	movf	??___flmul+1,w
  7509  0295  1103               	clrz
  7510  0296  1803               	skipnc
  7511  0297  3E01               	addlw	1
  7512  0298  1903               	skipnz
  7513  0299  2A9B               	goto	u3821
  7514  029A  07E1               	addwf	___flmul@prod+1,f
  7515  029B                     u3821:
  7516  029B  0856               	movf	??___flmul+2,w
  7517  029C  1103               	clrz
  7518  029D  1803               	skipnc
  7519  029E  3E01               	addlw	1
  7520  029F  1903               	skipnz
  7521  02A0  2AA2               	goto	u3822
  7522  02A1  07E2               	addwf	___flmul@prod+2,f
  7523  02A2                     u3822:
  7524  02A2  0857               	movf	??___flmul+3,w
  7525  02A3  1103               	clrz
  7526  02A4  1803               	skipnc
  7527  02A5  3E01               	addlw	1
  7528  02A6  1903               	skipnz
  7529  02A7  2AA9               	goto	u3823
  7530  02A8  07E3               	addwf	___flmul@prod+3,f
  7531  02A9                     u3823:
  7532  02A9  084E               	movf	___flmul@b+2,w
  7533  02AA  00D4               	movwf	??___flmul
  7534  02AB  0854               	movf	??___flmul,w
  7535  02AC  00F0               	movwf	__Umul8_16@multiplicand
  7536  02AD  0852               	movf	___flmul@a+2,w
  7537  02AE  160A  118A  231A  120A  118A  	fcall	__Umul8_16
  7538  02B3  0871               	movf	?__Umul8_16+1,w
  7539  02B4  1283               	bcf	3,5	;RP0=0, select bank0
  7540  02B5  1303               	bcf	3,6	;RP1=0, select bank0
  7541  02B6  00E5               	movwf	___flmul@temp+1
  7542  02B7  0870               	movf	?__Umul8_16,w
  7543  02B8  00E4               	movwf	___flmul@temp
  7544  02B9                     l3150:
  7545  02B9  0864               	movf	___flmul@temp,w
  7546  02BA  00D4               	movwf	??___flmul
  7547  02BB  0865               	movf	___flmul@temp+1,w
  7548  02BC  00D5               	movwf	??___flmul+1
  7549  02BD  01D6               	clrf	??___flmul+2
  7550  02BE  01D7               	clrf	??___flmul+3
  7551  02BF  3008               	movlw	8
  7552  02C0                     u3835:
  7553  02C0  1003               	clrc
  7554  02C1  0DD4               	rlf	??___flmul,f
  7555  02C2  0DD5               	rlf	??___flmul+1,f
  7556  02C3  0DD6               	rlf	??___flmul+2,f
  7557  02C4  0DD7               	rlf	??___flmul+3,f
  7558  02C5                     u3830:
  7559  02C5  3EFF               	addlw	-1
  7560  02C6  1D03               	skipz
  7561  02C7  2AC0               	goto	u3835
  7562  02C8  0854               	movf	??___flmul,w
  7563  02C9  07E0               	addwf	___flmul@prod,f
  7564  02CA  0855               	movf	??___flmul+1,w
  7565  02CB  1103               	clrz
  7566  02CC  1803               	skipnc
  7567  02CD  3E01               	addlw	1
  7568  02CE  1903               	skipnz
  7569  02CF  2AD1               	goto	u3841
  7570  02D0  07E1               	addwf	___flmul@prod+1,f
  7571  02D1                     u3841:
  7572  02D1  0856               	movf	??___flmul+2,w
  7573  02D2  1103               	clrz
  7574  02D3  1803               	skipnc
  7575  02D4  3E01               	addlw	1
  7576  02D5  1903               	skipnz
  7577  02D6  2AD8               	goto	u3842
  7578  02D7  07E2               	addwf	___flmul@prod+2,f
  7579  02D8                     u3842:
  7580  02D8  0857               	movf	??___flmul+3,w
  7581  02D9  1103               	clrz
  7582  02DA  1803               	skipnc
  7583  02DB  3E01               	addlw	1
  7584  02DC  1903               	skipnz
  7585  02DD  2ADF               	goto	u3843
  7586  02DE  07E3               	addwf	___flmul@prod+3,f
  7587  02DF                     u3843:
  7588  02DF                     l3152:
  7589  02DF  085A               	movf	___flmul@grs,w
  7590  02E0  00D4               	movwf	??___flmul
  7591  02E1  085B               	movf	___flmul@grs+1,w
  7592  02E2  00D5               	movwf	??___flmul+1
  7593  02E3  085C               	movf	___flmul@grs+2,w
  7594  02E4  00D6               	movwf	??___flmul+2
  7595  02E5  085D               	movf	___flmul@grs+3,w
  7596  02E6  00D7               	movwf	??___flmul+3
  7597  02E7  3018               	movlw	24
  7598  02E8                     u3855:
  7599  02E8  1003               	clrc
  7600  02E9  0CD7               	rrf	??___flmul+3,f
  7601  02EA  0CD6               	rrf	??___flmul+2,f
  7602  02EB  0CD5               	rrf	??___flmul+1,f
  7603  02EC  0CD4               	rrf	??___flmul,f
  7604  02ED                     u3850:
  7605  02ED  3EFF               	addlw	-1
  7606  02EE  1D03               	skipz
  7607  02EF  2AE8               	goto	u3855
  7608  02F0  0854               	movf	??___flmul,w
  7609  02F1  07E0               	addwf	___flmul@prod,f
  7610  02F2  0855               	movf	??___flmul+1,w
  7611  02F3  1103               	clrz
  7612  02F4  1803               	skipnc
  7613  02F5  3E01               	addlw	1
  7614  02F6  1903               	skipnz
  7615  02F7  2AF9               	goto	u3861
  7616  02F8  07E1               	addwf	___flmul@prod+1,f
  7617  02F9                     u3861:
  7618  02F9  0856               	movf	??___flmul+2,w
  7619  02FA  1103               	clrz
  7620  02FB  1803               	skipnc
  7621  02FC  3E01               	addlw	1
  7622  02FD  1903               	skipnz
  7623  02FE  2B00               	goto	u3862
  7624  02FF  07E2               	addwf	___flmul@prod+2,f
  7625  0300                     u3862:
  7626  0300  0857               	movf	??___flmul+3,w
  7627  0301  1103               	clrz
  7628  0302  1803               	skipnc
  7629  0303  3E01               	addlw	1
  7630  0304  1903               	skipnz
  7631  0305  2B07               	goto	u3863
  7632  0306  07E3               	addwf	___flmul@prod+3,f
  7633  0307                     u3863:
  7634  0307                     l3154:
  7635  0307  3008               	movlw	8
  7636  0308  00D4               	movwf	??___flmul
  7637  0309                     u3875:
  7638  0309  1003               	clrc
  7639  030A  0DDA               	rlf	___flmul@grs,f
  7640  030B  0DDB               	rlf	___flmul@grs+1,f
  7641  030C  0DDC               	rlf	___flmul@grs+2,f
  7642  030D  0DDD               	rlf	___flmul@grs+3,f
  7643  030E  0BD4               	decfsz	??___flmul,f
  7644  030F  2B09               	goto	u3875
  7645  0310                     l3156:
  7646  0310  085F               	movf	___flmul@bexp,w
  7647  0311  075E               	addwf	___flmul@aexp,w
  7648  0312  00D4               	movwf	??___flmul
  7649  0313  01D5               	clrf	??___flmul+1
  7650  0314  0DD5               	rlf	??___flmul+1,f
  7651  0315  0854               	movf	??___flmul,w
  7652  0316  3E82               	addlw	130
  7653  0317  00E4               	movwf	___flmul@temp
  7654  0318  0855               	movf	??___flmul+1,w
  7655  0319  1803               	skipnc
  7656  031A  3E01               	addlw	1
  7657  031B  3EFF               	addlw	255
  7658  031C  00E5               	movwf	___flmul@temp+1
  7659  031D  2B3B               	goto	l3168
  7660  031E                     l3158:
  7661  031E  3001               	movlw	1
  7662  031F  00D4               	movwf	??___flmul
  7663  0320                     u3885:
  7664  0320  1003               	clrc
  7665  0321  0DE0               	rlf	___flmul@prod,f
  7666  0322  0DE1               	rlf	___flmul@prod+1,f
  7667  0323  0DE2               	rlf	___flmul@prod+2,f
  7668  0324  0DE3               	rlf	___flmul@prod+3,f
  7669  0325  0BD4               	decfsz	??___flmul,f
  7670  0326  2B20               	goto	u3885
  7671  0327                     l3160:
  7672  0327  1FDD               	btfss	___flmul@grs+3,7
  7673  0328  2B2A               	goto	u3891
  7674  0329  2B2B               	goto	u3890
  7675  032A                     u3891:
  7676  032A  2B2C               	goto	l3164
  7677  032B                     u3890:
  7678  032B                     l3162:
  7679  032B  1460               	bsf	___flmul@prod,0
  7680  032C                     l3164:
  7681  032C  3001               	movlw	1
  7682  032D  00D4               	movwf	??___flmul
  7683  032E                     u3905:
  7684  032E  1003               	clrc
  7685  032F  0DDA               	rlf	___flmul@grs,f
  7686  0330  0DDB               	rlf	___flmul@grs+1,f
  7687  0331  0DDC               	rlf	___flmul@grs+2,f
  7688  0332  0DDD               	rlf	___flmul@grs+3,f
  7689  0333  0BD4               	decfsz	??___flmul,f
  7690  0334  2B2E               	goto	u3905
  7691  0335                     l3166:
  7692  0335  30FF               	movlw	255
  7693  0336  07E4               	addwf	___flmul@temp,f
  7694  0337  1803               	skipnc
  7695  0338  0AE5               	incf	___flmul@temp+1,f
  7696  0339  30FF               	movlw	255
  7697  033A  07E5               	addwf	___flmul@temp+1,f
  7698  033B                     l3168:
  7699  033B  1FE2               	btfss	___flmul@prod+2,7
  7700  033C  2B3E               	goto	u3911
  7701  033D  2B3F               	goto	u3910
  7702  033E                     u3911:
  7703  033E  2B1E               	goto	l3158
  7704  033F                     u3910:
  7705  033F                     l3170:
  7706  033F  01DE               	clrf	___flmul@aexp
  7707  0340                     l3172:
  7708  0340  1FDD               	btfss	___flmul@grs+3,7
  7709  0341  2B43               	goto	u3921
  7710  0342  2B44               	goto	u3920
  7711  0343                     u3921:
  7712  0343  2B60               	goto	l3180
  7713  0344                     u3920:
  7714  0344                     l3174:
  7715  0344  30FF               	movlw	255
  7716  0345  055A               	andwf	___flmul@grs,w
  7717  0346  00D4               	movwf	??___flmul
  7718  0347  30FF               	movlw	255
  7719  0348  055B               	andwf	___flmul@grs+1,w
  7720  0349  00D5               	movwf	??___flmul+1
  7721  034A  30FF               	movlw	255
  7722  034B  055C               	andwf	___flmul@grs+2,w
  7723  034C  00D6               	movwf	??___flmul+2
  7724  034D  307F               	movlw	127
  7725  034E  055D               	andwf	___flmul@grs+3,w
  7726  034F  00D7               	movwf	??___flmul+3
  7727  0350  0857               	movf	??___flmul+3,w
  7728  0351  0456               	iorwf	??___flmul+2,w
  7729  0352  0455               	iorwf	??___flmul+1,w
  7730  0353  0454               	iorwf	??___flmul,w
  7731  0354  1903               	skipnz
  7732  0355  2B57               	goto	u3931
  7733  0356  2B58               	goto	u3930
  7734  0357                     u3931:
  7735  0357  2B5B               	goto	l792
  7736  0358                     u3930:
  7737  0358                     l3176:
  7738  0358  01DE               	clrf	___flmul@aexp
  7739  0359  0ADE               	incf	___flmul@aexp,f
  7740  035A  2B60               	goto	l3180
  7741  035B                     l792:
  7742  035B  1C60               	btfss	___flmul@prod,0
  7743  035C  2B5E               	goto	u3941
  7744  035D  2B5F               	goto	u3940
  7745  035E                     u3941:
  7746  035E  2B60               	goto	l3180
  7747  035F                     u3940:
  7748  035F  2B58               	goto	l3176
  7749  0360                     l3180:
  7750  0360  085E               	movf	___flmul@aexp,w
  7751  0361  1903               	btfsc	3,2
  7752  0362  2B64               	goto	u3951
  7753  0363  2B65               	goto	u3950
  7754  0364                     u3951:
  7755  0364  2B96               	goto	l3190
  7756  0365                     u3950:
  7757  0365                     l3182:
  7758  0365  3001               	movlw	1
  7759  0366  07E0               	addwf	___flmul@prod,f
  7760  0367  3000               	movlw	0
  7761  0368  1803               	skipnc
  7762  0369  3001               	movlw	1
  7763  036A  07E1               	addwf	___flmul@prod+1,f
  7764  036B  3000               	movlw	0
  7765  036C  1803               	skipnc
  7766  036D  3001               	movlw	1
  7767  036E  07E2               	addwf	___flmul@prod+2,f
  7768  036F  3000               	movlw	0
  7769  0370  1803               	skipnc
  7770  0371  3001               	movlw	1
  7771  0372  07E3               	addwf	___flmul@prod+3,f
  7772  0373                     l3184:
  7773  0373  1C63               	btfss	___flmul@prod+3,0
  7774  0374  2B76               	goto	u3961
  7775  0375  2B77               	goto	u3960
  7776  0376                     u3961:
  7777  0376  2B96               	goto	l3190
  7778  0377                     u3960:
  7779  0377                     l3186:
  7780  0377  0860               	movf	___flmul@prod,w
  7781  0378  00D4               	movwf	??___flmul
  7782  0379  0861               	movf	___flmul@prod+1,w
  7783  037A  00D5               	movwf	??___flmul+1
  7784  037B  0862               	movf	___flmul@prod+2,w
  7785  037C  00D6               	movwf	??___flmul+2
  7786  037D  0863               	movf	___flmul@prod+3,w
  7787  037E  00D7               	movwf	??___flmul+3
  7788  037F  3001               	movlw	1
  7789  0380  00D8               	movwf	??___flmul+4
  7790  0381                     u3975:
  7791  0381  0D57               	rlf	??___flmul+3,w
  7792  0382  0CD7               	rrf	??___flmul+3,f
  7793  0383  0CD6               	rrf	??___flmul+2,f
  7794  0384  0CD5               	rrf	??___flmul+1,f
  7795  0385  0CD4               	rrf	??___flmul,f
  7796  0386                     u3970:
  7797  0386  0BD8               	decfsz	??___flmul+4,f
  7798  0387  2B81               	goto	u3975
  7799  0388  0857               	movf	??___flmul+3,w
  7800  0389  00E3               	movwf	___flmul@prod+3
  7801  038A  0856               	movf	??___flmul+2,w
  7802  038B  00E2               	movwf	___flmul@prod+2
  7803  038C  0855               	movf	??___flmul+1,w
  7804  038D  00E1               	movwf	___flmul@prod+1
  7805  038E  0854               	movf	??___flmul,w
  7806  038F  00E0               	movwf	___flmul@prod
  7807  0390                     l3188:
  7808  0390  3001               	movlw	1
  7809  0391  07E4               	addwf	___flmul@temp,f
  7810  0392  1803               	skipnc
  7811  0393  0AE5               	incf	___flmul@temp+1,f
  7812  0394  3000               	movlw	0
  7813  0395  07E5               	addwf	___flmul@temp+1,f
  7814  0396                     l3190:
  7815  0396  0865               	movf	___flmul@temp+1,w
  7816  0397  3A80               	xorlw	128
  7817  0398  00FF               	movwf	btemp+1
  7818  0399  3080               	movlw	128
  7819  039A  027F               	subwf	btemp+1,w
  7820  039B  1D03               	skipz
  7821  039C  2B9F               	goto	u3985
  7822  039D  30FF               	movlw	255
  7823  039E  0264               	subwf	___flmul@temp,w
  7824  039F                     u3985:
  7825  039F  1C03               	skipc
  7826  03A0  2BA2               	goto	u3981
  7827  03A1  2BA3               	goto	u3980
  7828  03A2                     u3981:
  7829  03A2  2BAE               	goto	l3194
  7830  03A3                     u3980:
  7831  03A3                     l3192:
  7832  03A3  307F               	movlw	127
  7833  03A4  1283               	bcf	3,5	;RP0=0, select bank0
  7834  03A5  1303               	bcf	3,6	;RP1=0, select bank0
  7835  03A6  00E3               	movwf	___flmul@prod+3
  7836  03A7  3080               	movlw	128
  7837  03A8  00E2               	movwf	___flmul@prod+2
  7838  03A9  3000               	movlw	0
  7839  03AA  00E1               	movwf	___flmul@prod+1
  7840  03AB  3000               	movlw	0
  7841  03AC  00E0               	movwf	___flmul@prod
  7842  03AD  2BE3               	goto	l798
  7843  03AE                     l3194:
  7844  03AE  1283               	bcf	3,5	;RP0=0, select bank0
  7845  03AF  1303               	bcf	3,6	;RP1=0, select bank0
  7846  03B0  0865               	movf	___flmul@temp+1,w
  7847  03B1  3A80               	xorlw	128
  7848  03B2  00FF               	movwf	btemp+1
  7849  03B3  3080               	movlw	128
  7850  03B4  027F               	subwf	btemp+1,w
  7851  03B5  1D03               	skipz
  7852  03B6  2BB9               	goto	u3995
  7853  03B7  3001               	movlw	1
  7854  03B8  0264               	subwf	___flmul@temp,w
  7855  03B9                     u3995:
  7856  03B9  1803               	skipnc
  7857  03BA  2BBC               	goto	u3991
  7858  03BB  2BBD               	goto	u3990
  7859  03BC                     u3991:
  7860  03BC  2BC9               	goto	l3200
  7861  03BD                     u3990:
  7862  03BD                     l3196:
  7863  03BD  3000               	movlw	0
  7864  03BE  1283               	bcf	3,5	;RP0=0, select bank0
  7865  03BF  1303               	bcf	3,6	;RP1=0, select bank0
  7866  03C0  00E3               	movwf	___flmul@prod+3
  7867  03C1  3000               	movlw	0
  7868  03C2  00E2               	movwf	___flmul@prod+2
  7869  03C3  3000               	movlw	0
  7870  03C4  00E1               	movwf	___flmul@prod+1
  7871  03C5  3000               	movlw	0
  7872  03C6  00E0               	movwf	___flmul@prod
  7873  03C7                     l3198:
  7874  03C7  01D9               	clrf	___flmul@sign
  7875  03C8  2BE3               	goto	l798
  7876  03C9                     l3200:
  7877  03C9  1283               	bcf	3,5	;RP0=0, select bank0
  7878  03CA  1303               	bcf	3,6	;RP1=0, select bank0
  7879  03CB  0864               	movf	___flmul@temp,w
  7880  03CC  00D4               	movwf	??___flmul
  7881  03CD  0854               	movf	??___flmul,w
  7882  03CE  00DF               	movwf	___flmul@bexp
  7883  03CF  30FF               	movlw	255
  7884  03D0  05E0               	andwf	___flmul@prod,f
  7885  03D1  30FF               	movlw	255
  7886  03D2  05E1               	andwf	___flmul@prod+1,f
  7887  03D3  307F               	movlw	127
  7888  03D4  05E2               	andwf	___flmul@prod+2,f
  7889  03D5  3000               	movlw	0
  7890  03D6  05E3               	andwf	___flmul@prod+3,f
  7891  03D7                     l3202:
  7892  03D7  1C5F               	btfss	___flmul@bexp,0
  7893  03D8  2BDA               	goto	u4001
  7894  03D9  2BDB               	goto	u4000
  7895  03DA                     u4001:
  7896  03DA  2BDC               	goto	l3206
  7897  03DB                     u4000:
  7898  03DB                     l3204:
  7899  03DB  17E2               	bsf	___flmul@prod+2,7
  7900  03DC                     l3206:
  7901  03DC  085F               	movf	___flmul@bexp,w
  7902  03DD  00D4               	movwf	??___flmul
  7903  03DE  1003               	clrc
  7904  03DF  0C54               	rrf	??___flmul,w
  7905  03E0  00D5               	movwf	??___flmul+1
  7906  03E1  0855               	movf	??___flmul+1,w
  7907  03E2  00E3               	movwf	___flmul@prod+3
  7908  03E3                     l798:
  7909  03E3  0859               	movf	___flmul@sign,w
  7910  03E4  00D4               	movwf	??___flmul
  7911  03E5  0854               	movf	??___flmul,w
  7912  03E6  04E3               	iorwf	___flmul@prod+3,f
  7913  03E7                     l3208:
  7914  03E7  0863               	movf	___flmul@prod+3,w
  7915  03E8  00CF               	movwf	?___flmul+3
  7916  03E9  0862               	movf	___flmul@prod+2,w
  7917  03EA  00CE               	movwf	?___flmul+2
  7918  03EB  0861               	movf	___flmul@prod+1,w
  7919  03EC  00CD               	movwf	?___flmul+1
  7920  03ED  0860               	movf	___flmul@prod,w
  7921  03EE  00CC               	movwf	?___flmul
  7922  03EF                     l786:
  7923  03EF  0008               	return
  7924  03F0                     __end_of___flmul:
  7925                           
  7926                           	psect	text25
  7927  131A                     __ptext25:	
  7928 ;; *************** function __Umul8_16 *****************
  7929 ;; Defined at:
  7930 ;;		line 4 in file "C:\Program Files\Microchip\xc8\v2.31\pic\sources\c90\common\Umul8_16.c"
  7931 ;; Parameters:    Size  Location     Type
  7932 ;;  multiplier      1    wreg     unsigned char 
  7933 ;;  multiplicand    1    0[COMMON] unsigned char 
  7934 ;; Auto vars:     Size  Location     Type
  7935 ;;  multiplier      1    8[COMMON] unsigned char 
  7936 ;;  word_mpld       2    6[COMMON] unsigned int 
  7937 ;;  product         2    4[COMMON] unsigned int 
  7938 ;; Return value:  Size  Location     Type
  7939 ;;                  2    0[COMMON] unsigned int 
  7940 ;; Registers used:
  7941 ;;		wreg, status,2, status,0
  7942 ;; Tracked objects:
  7943 ;;		On entry : 0/0
  7944 ;;		On exit  : 0/0
  7945 ;;		Unchanged: 0/0
  7946 ;; Data sizes:     COMMON   BANK0   BANK1   BANK3   BANK2
  7947 ;;      Params:         2       0       0       0       0
  7948 ;;      Locals:         5       0       0       0       0
  7949 ;;      Temps:          2       0       0       0       0
  7950 ;;      Totals:         9       0       0       0       0
  7951 ;;Total ram usage:        9 bytes
  7952 ;; Hardware stack levels used:    1
  7953 ;; This function calls:
  7954 ;;		Nothing
  7955 ;; This function is called by:
  7956 ;;		___flmul
  7957 ;; This function uses a non-reentrant model
  7958 ;;
  7959                           
  7960                           
  7961                           ;psect for function __Umul8_16
  7962  131A                     __Umul8_16:
  7963                           
  7964                           ;incstack = 0
  7965                           ; Regs used in __Umul8_16: [wreg+status,2+status,0]
  7966                           ;__Umul8_16@multiplier stored from wreg
  7967  131A  00F8               	movwf	__Umul8_16@multiplier
  7968  131B                     l2752:
  7969  131B  01F4               	clrf	__Umul8_16@product
  7970  131C  01F5               	clrf	__Umul8_16@product+1
  7971  131D                     l2754:
  7972  131D  0870               	movf	__Umul8_16@multiplicand,w
  7973  131E  00F2               	movwf	??__Umul8_16
  7974  131F  01F3               	clrf	??__Umul8_16+1
  7975  1320  0872               	movf	??__Umul8_16,w
  7976  1321  00F6               	movwf	__Umul8_16@word_mpld
  7977  1322  0873               	movf	??__Umul8_16+1,w
  7978  1323  00F7               	movwf	__Umul8_16@word_mpld+1
  7979  1324                     l2756:
  7980  1324  1C78               	btfss	__Umul8_16@multiplier,0
  7981  1325  2B27               	goto	u3031
  7982  1326  2B28               	goto	u3030
  7983  1327                     u3031:
  7984  1327  2B2E               	goto	l805
  7985  1328                     u3030:
  7986  1328                     l2758:
  7987  1328  0876               	movf	__Umul8_16@word_mpld,w
  7988  1329  07F4               	addwf	__Umul8_16@product,f
  7989  132A  1803               	skipnc
  7990  132B  0AF5               	incf	__Umul8_16@product+1,f
  7991  132C  0877               	movf	__Umul8_16@word_mpld+1,w
  7992  132D  07F5               	addwf	__Umul8_16@product+1,f
  7993  132E                     l805:
  7994  132E  3001               	movlw	1
  7995  132F                     u3045:
  7996  132F  1003               	clrc
  7997  1330  0DF6               	rlf	__Umul8_16@word_mpld,f
  7998  1331  0DF7               	rlf	__Umul8_16@word_mpld+1,f
  7999  1332  3EFF               	addlw	-1
  8000  1333  1D03               	skipz
  8001  1334  2B2F               	goto	u3045
  8002  1335  1003               	clrc
  8003  1336  0CF8               	rrf	__Umul8_16@multiplier,f
  8004  1337                     l2760:
  8005  1337  0878               	movf	__Umul8_16@multiplier,w
  8006  1338  1D03               	btfss	3,2
  8007  1339  2B3B               	goto	u3051
  8008  133A  2B3C               	goto	u3050
  8009  133B                     u3051:
  8010  133B  2B24               	goto	l2756
  8011  133C                     u3050:
  8012  133C                     l2762:
  8013  133C  0875               	movf	__Umul8_16@product+1,w
  8014  133D  00F1               	movwf	?__Umul8_16+1
  8015  133E  0874               	movf	__Umul8_16@product,w
  8016  133F  00F0               	movwf	?__Umul8_16
  8017  1340                     l807:
  8018  1340  0008               	return
  8019  1341                     __end_of__Umul8_16:
  8020                           
  8021                           	psect	text26
  8022  1541                     __ptext26:	
  8023 ;; *************** function ___flge *****************
  8024 ;; Defined at:
  8025 ;;		line 4 in file "C:\Program Files\Microchip\xc8\v2.31\pic\sources\c90\common\flge.c"
  8026 ;; Parameters:    Size  Location     Type
  8027 ;;  ff1             4    0[COMMON] unsigned int 
  8028 ;;  ff2             4    4[COMMON] unsigned int 
  8029 ;; Auto vars:     Size  Location     Type
  8030 ;;		None
  8031 ;; Return value:  Size  Location     Type
  8032 ;;		None               void
  8033 ;; Registers used:
  8034 ;;		wreg, status,2, status,0
  8035 ;; Tracked objects:
  8036 ;;		On entry : 0/0
  8037 ;;		On exit  : 0/0
  8038 ;;		Unchanged: 0/0
  8039 ;; Data sizes:     COMMON   BANK0   BANK1   BANK3   BANK2
  8040 ;;      Params:         8       0       0       0       0
  8041 ;;      Locals:         0       0       0       0       0
  8042 ;;      Temps:          4       0       0       0       0
  8043 ;;      Totals:        12       0       0       0       0
  8044 ;;Total ram usage:       12 bytes
  8045 ;; Hardware stack levels used:    1
  8046 ;; This function calls:
  8047 ;;		Nothing
  8048 ;; This function is called by:
  8049 ;;		_ADC_convert
  8050 ;; This function uses a non-reentrant model
  8051 ;;
  8052                           
  8053                           
  8054                           ;psect for function ___flge
  8055  1541                     ___flge:
  8056  1541                     l2868:	
  8057                           ;incstack = 0
  8058                           ; Regs used in ___flge: [wreg+status,2+status,0]
  8059                           
  8060  1541  3000               	movlw	0
  8061  1542  0570               	andwf	___flge@ff1,w
  8062  1543  00F8               	movwf	??___flge
  8063  1544  3000               	movlw	0
  8064  1545  0571               	andwf	___flge@ff1+1,w
  8065  1546  00F9               	movwf	??___flge+1
  8066  1547  3080               	movlw	128
  8067  1548  0572               	andwf	___flge@ff1+2,w
  8068  1549  00FA               	movwf	??___flge+2
  8069  154A  307F               	movlw	127
  8070  154B  0573               	andwf	___flge@ff1+3,w
  8071  154C  00FB               	movwf	??___flge+3
  8072  154D  087B               	movf	??___flge+3,w
  8073  154E  047A               	iorwf	??___flge+2,w
  8074  154F  0479               	iorwf	??___flge+1,w
  8075  1550  0478               	iorwf	??___flge,w
  8076  1551  1D03               	skipz
  8077  1552  2D54               	goto	u3181
  8078  1553  2D55               	goto	u3180
  8079  1554                     u3181:
  8080  1554  2D5D               	goto	l571
  8081  1555                     u3180:
  8082  1555                     l2870:
  8083  1555  3000               	movlw	0
  8084  1556  00F3               	movwf	___flge@ff1+3
  8085  1557  3000               	movlw	0
  8086  1558  00F2               	movwf	___flge@ff1+2
  8087  1559  3000               	movlw	0
  8088  155A  00F1               	movwf	___flge@ff1+1
  8089  155B  3000               	movlw	0
  8090  155C  00F0               	movwf	___flge@ff1
  8091  155D                     l571:
  8092  155D  3000               	movlw	0
  8093  155E  0574               	andwf	___flge@ff2,w
  8094  155F  00F8               	movwf	??___flge
  8095  1560  3000               	movlw	0
  8096  1561  0575               	andwf	___flge@ff2+1,w
  8097  1562  00F9               	movwf	??___flge+1
  8098  1563  3080               	movlw	128
  8099  1564  0576               	andwf	___flge@ff2+2,w
  8100  1565  00FA               	movwf	??___flge+2
  8101  1566  307F               	movlw	127
  8102  1567  0577               	andwf	___flge@ff2+3,w
  8103  1568  00FB               	movwf	??___flge+3
  8104  1569  087B               	movf	??___flge+3,w
  8105  156A  047A               	iorwf	??___flge+2,w
  8106  156B  0479               	iorwf	??___flge+1,w
  8107  156C  0478               	iorwf	??___flge,w
  8108  156D  1D03               	skipz
  8109  156E  2D70               	goto	u3191
  8110  156F  2D71               	goto	u3190
  8111  1570                     u3191:
  8112  1570  2D79               	goto	l2874
  8113  1571                     u3190:
  8114  1571                     l2872:
  8115  1571  3000               	movlw	0
  8116  1572  00F7               	movwf	___flge@ff2+3
  8117  1573  3000               	movlw	0
  8118  1574  00F6               	movwf	___flge@ff2+2
  8119  1575  3000               	movlw	0
  8120  1576  00F5               	movwf	___flge@ff2+1
  8121  1577  3000               	movlw	0
  8122  1578  00F4               	movwf	___flge@ff2
  8123  1579                     l2874:
  8124  1579  1FF3               	btfss	___flge@ff1+3,7
  8125  157A  2D7C               	goto	u3201
  8126  157B  2D7D               	goto	u3200
  8127  157C                     u3201:
  8128  157C  2DA1               	goto	l2878
  8129  157D                     u3200:
  8130  157D                     l2876:
  8131  157D  3000               	movlw	0
  8132  157E  00F8               	movwf	??___flge
  8133  157F  3000               	movlw	0
  8134  1580  00F9               	movwf	??___flge+1
  8135  1581  3000               	movlw	0
  8136  1582  00FA               	movwf	??___flge+2
  8137  1583  3080               	movlw	128
  8138  1584  00FB               	movwf	??___flge+3
  8139  1585  0870               	movf	___flge@ff1,w
  8140  1586  02F8               	subwf	??___flge,f
  8141  1587  0871               	movf	___flge@ff1+1,w
  8142  1588  1C03               	skipc
  8143  1589  0F71               	incfsz	___flge@ff1+1,w
  8144  158A  2D8C               	goto	u3211
  8145  158B  2D8D               	goto	u3212
  8146  158C                     u3211:
  8147  158C  02F9               	subwf	??___flge+1,f
  8148  158D                     u3212:
  8149  158D  0872               	movf	___flge@ff1+2,w
  8150  158E  1C03               	skipc
  8151  158F  0F72               	incfsz	___flge@ff1+2,w
  8152  1590  2D92               	goto	u3213
  8153  1591  2D93               	goto	u3214
  8154  1592                     u3213:
  8155  1592  02FA               	subwf	??___flge+2,f
  8156  1593                     u3214:
  8157  1593  0873               	movf	___flge@ff1+3,w
  8158  1594  1C03               	skipc
  8159  1595  0F73               	incfsz	___flge@ff1+3,w
  8160  1596  2D98               	goto	u3215
  8161  1597  2D99               	goto	u3216
  8162  1598                     u3215:
  8163  1598  02FB               	subwf	??___flge+3,f
  8164  1599                     u3216:
  8165  1599  087B               	movf	??___flge+3,w
  8166  159A  00F3               	movwf	___flge@ff1+3
  8167  159B  087A               	movf	??___flge+2,w
  8168  159C  00F2               	movwf	___flge@ff1+2
  8169  159D  0879               	movf	??___flge+1,w
  8170  159E  00F1               	movwf	___flge@ff1+1
  8171  159F  0878               	movf	??___flge,w
  8172  15A0  00F0               	movwf	___flge@ff1
  8173  15A1                     l2878:
  8174  15A1  1FF7               	btfss	___flge@ff2+3,7
  8175  15A2  2DA4               	goto	u3221
  8176  15A3  2DA5               	goto	u3220
  8177  15A4                     u3221:
  8178  15A4  2DC9               	goto	l574
  8179  15A5                     u3220:
  8180  15A5                     l2880:
  8181  15A5  3000               	movlw	0
  8182  15A6  00F8               	movwf	??___flge
  8183  15A7  3000               	movlw	0
  8184  15A8  00F9               	movwf	??___flge+1
  8185  15A9  3000               	movlw	0
  8186  15AA  00FA               	movwf	??___flge+2
  8187  15AB  3080               	movlw	128
  8188  15AC  00FB               	movwf	??___flge+3
  8189  15AD  0874               	movf	___flge@ff2,w
  8190  15AE  02F8               	subwf	??___flge,f
  8191  15AF  0875               	movf	___flge@ff2+1,w
  8192  15B0  1C03               	skipc
  8193  15B1  0F75               	incfsz	___flge@ff2+1,w
  8194  15B2  2DB4               	goto	u3231
  8195  15B3  2DB5               	goto	u3232
  8196  15B4                     u3231:
  8197  15B4  02F9               	subwf	??___flge+1,f
  8198  15B5                     u3232:
  8199  15B5  0876               	movf	___flge@ff2+2,w
  8200  15B6  1C03               	skipc
  8201  15B7  0F76               	incfsz	___flge@ff2+2,w
  8202  15B8  2DBA               	goto	u3233
  8203  15B9  2DBB               	goto	u3234
  8204  15BA                     u3233:
  8205  15BA  02FA               	subwf	??___flge+2,f
  8206  15BB                     u3234:
  8207  15BB  0877               	movf	___flge@ff2+3,w
  8208  15BC  1C03               	skipc
  8209  15BD  0F77               	incfsz	___flge@ff2+3,w
  8210  15BE  2DC0               	goto	u3235
  8211  15BF  2DC1               	goto	u3236
  8212  15C0                     u3235:
  8213  15C0  02FB               	subwf	??___flge+3,f
  8214  15C1                     u3236:
  8215  15C1  087B               	movf	??___flge+3,w
  8216  15C2  00F7               	movwf	___flge@ff2+3
  8217  15C3  087A               	movf	??___flge+2,w
  8218  15C4  00F6               	movwf	___flge@ff2+2
  8219  15C5  0879               	movf	??___flge+1,w
  8220  15C6  00F5               	movwf	___flge@ff2+1
  8221  15C7  0878               	movf	??___flge,w
  8222  15C8  00F4               	movwf	___flge@ff2
  8223  15C9                     l574:
  8224  15C9  3080               	movlw	128
  8225  15CA  06F3               	xorwf	___flge@ff1+3,f
  8226  15CB  3080               	movlw	128
  8227  15CC  06F7               	xorwf	___flge@ff2+3,f
  8228  15CD  0877               	movf	___flge@ff2+3,w
  8229  15CE  0273               	subwf	___flge@ff1+3,w
  8230  15CF  1D03               	skipz
  8231  15D0  2DDB               	goto	u3245
  8232  15D1  0876               	movf	___flge@ff2+2,w
  8233  15D2  0272               	subwf	___flge@ff1+2,w
  8234  15D3  1D03               	skipz
  8235  15D4  2DDB               	goto	u3245
  8236  15D5  0875               	movf	___flge@ff2+1,w
  8237  15D6  0271               	subwf	___flge@ff1+1,w
  8238  15D7  1D03               	skipz
  8239  15D8  2DDB               	goto	u3245
  8240  15D9  0874               	movf	___flge@ff2,w
  8241  15DA  0270               	subwf	___flge@ff1,w
  8242  15DB                     u3245:
  8243  15DB  1803               	skipnc
  8244  15DC  2DDE               	goto	u3241
  8245  15DD  2DDF               	goto	u3240
  8246  15DE                     u3241:
  8247  15DE  2DE1               	goto	l2884
  8248  15DF                     u3240:
  8249  15DF                     l2882:
  8250  15DF  1003               	clrc
  8251  15E0  2DE2               	goto	l575
  8252  15E1                     l2884:
  8253  15E1  1403               	setc
  8254  15E2                     l575:
  8255  15E2  0008               	return
  8256  15E3                     __end_of___flge:
  8257                           
  8258                           	psect	text27
  8259  0B8B                     __ptext27:	
  8260 ;; *************** function ___fldiv *****************
  8261 ;; Defined at:
  8262 ;;		line 8 in file "C:\Program Files\Microchip\xc8\v2.31\pic\sources\c90\common\sprcdiv.c"
  8263 ;; Parameters:    Size  Location     Type
  8264 ;;  a               4   18[BANK0 ] unsigned int 
  8265 ;;  b               4   22[BANK0 ] unsigned int 
  8266 ;; Auto vars:     Size  Location     Type
  8267 ;;  grs             4   38[BANK0 ] unsigned long 
  8268 ;;  rem             4   31[BANK0 ] unsigned long 
  8269 ;;  new_exp         2   36[BANK0 ] int 
  8270 ;;  aexp            1   43[BANK0 ] unsigned char 
  8271 ;;  bexp            1   42[BANK0 ] unsigned char 
  8272 ;;  sign            1   35[BANK0 ] unsigned char 
  8273 ;; Return value:  Size  Location     Type
  8274 ;;                  4   18[BANK0 ] unsigned char 
  8275 ;; Registers used:
  8276 ;;		wreg, status,2, status,0, btemp+1
  8277 ;; Tracked objects:
  8278 ;;		On entry : 0/0
  8279 ;;		On exit  : 0/0
  8280 ;;		Unchanged: 0/0
  8281 ;; Data sizes:     COMMON   BANK0   BANK1   BANK3   BANK2
  8282 ;;      Params:         0       8       0       0       0
  8283 ;;      Locals:         0      13       0       0       0
  8284 ;;      Temps:          0       5       0       0       0
  8285 ;;      Totals:         0      26       0       0       0
  8286 ;;Total ram usage:       26 bytes
  8287 ;; Hardware stack levels used:    1
  8288 ;; This function calls:
  8289 ;;		Nothing
  8290 ;; This function is called by:
  8291 ;;		_main
  8292 ;;		_ADC_convert
  8293 ;; This function uses a non-reentrant model
  8294 ;;
  8295                           
  8296                           
  8297                           ;psect for function ___fldiv
  8298  0B8B                     ___fldiv:
  8299  0B8B                     l2930:	
  8300                           ;incstack = 0
  8301                           ; Regs used in ___fldiv: [wreg+status,2+status,0+btemp+1]
  8302                           
  8303  0B8B  1283               	bcf	3,5	;RP0=0, select bank0
  8304  0B8C  1303               	bcf	3,6	;RP1=0, select bank0
  8305  0B8D  0839               	movf	___fldiv@b+3,w
  8306  0B8E  3980               	andlw	128
  8307  0B8F  00BA               	movwf	??___fldiv
  8308  0B90  083A               	movf	??___fldiv,w
  8309  0B91  00C3               	movwf	___fldiv@sign
  8310  0B92                     l2932:
  8311  0B92  0839               	movf	___fldiv@b+3,w
  8312  0B93  00BA               	movwf	??___fldiv
  8313  0B94  073A               	addwf	??___fldiv,w
  8314  0B95  00BB               	movwf	??___fldiv+1
  8315  0B96  083B               	movf	??___fldiv+1,w
  8316  0B97  00CA               	movwf	___fldiv@bexp
  8317  0B98                     l2934:
  8318  0B98  1FB8               	btfss	___fldiv@b+2,7
  8319  0B99  2B9B               	goto	u3351
  8320  0B9A  2B9C               	goto	u3350
  8321  0B9B                     u3351:
  8322  0B9B  2B9D               	goto	l2938
  8323  0B9C                     u3350:
  8324  0B9C                     l2936:
  8325  0B9C  144A               	bsf	___fldiv@bexp,0
  8326  0B9D                     l2938:
  8327  0B9D  084A               	movf	___fldiv@bexp,w
  8328  0B9E  1903               	btfsc	3,2
  8329  0B9F  2BA1               	goto	u3361
  8330  0BA0  2BA2               	goto	u3360
  8331  0BA1                     u3361:
  8332  0BA1  2BB2               	goto	l2948
  8333  0BA2                     u3360:
  8334  0BA2                     l2940:
  8335  0BA2  0A4A               	incf	___fldiv@bexp,w
  8336  0BA3  1D03               	btfss	3,2
  8337  0BA4  2BA6               	goto	u3371
  8338  0BA5  2BA7               	goto	u3370
  8339  0BA6                     u3371:
  8340  0BA6  2BAF               	goto	l2944
  8341  0BA7                     u3370:
  8342  0BA7                     l2942:
  8343  0BA7  3000               	movlw	0
  8344  0BA8  00B9               	movwf	___fldiv@b+3
  8345  0BA9  3000               	movlw	0
  8346  0BAA  00B8               	movwf	___fldiv@b+2
  8347  0BAB  3000               	movlw	0
  8348  0BAC  00B7               	movwf	___fldiv@b+1
  8349  0BAD  3000               	movlw	0
  8350  0BAE  00B6               	movwf	___fldiv@b
  8351  0BAF                     l2944:
  8352  0BAF  17B8               	bsf	___fldiv@b+2,7
  8353  0BB0                     l2946:
  8354  0BB0  01B9               	clrf	___fldiv@b+3
  8355  0BB1  2BBA               	goto	l2950
  8356  0BB2                     l2948:
  8357  0BB2  3000               	movlw	0
  8358  0BB3  00B9               	movwf	___fldiv@b+3
  8359  0BB4  3000               	movlw	0
  8360  0BB5  00B8               	movwf	___fldiv@b+2
  8361  0BB6  3000               	movlw	0
  8362  0BB7  00B7               	movwf	___fldiv@b+1
  8363  0BB8  3000               	movlw	0
  8364  0BB9  00B6               	movwf	___fldiv@b
  8365  0BBA                     l2950:
  8366  0BBA  0835               	movf	___fldiv@a+3,w
  8367  0BBB  3980               	andlw	128
  8368  0BBC  00BA               	movwf	??___fldiv
  8369  0BBD  083A               	movf	??___fldiv,w
  8370  0BBE  06C3               	xorwf	___fldiv@sign,f
  8371  0BBF                     l2952:
  8372  0BBF  0835               	movf	___fldiv@a+3,w
  8373  0BC0  00BA               	movwf	??___fldiv
  8374  0BC1  073A               	addwf	??___fldiv,w
  8375  0BC2  00BB               	movwf	??___fldiv+1
  8376  0BC3  083B               	movf	??___fldiv+1,w
  8377  0BC4  00CB               	movwf	___fldiv@aexp
  8378  0BC5                     l2954:
  8379  0BC5  1FB4               	btfss	___fldiv@a+2,7
  8380  0BC6  2BC8               	goto	u3381
  8381  0BC7  2BC9               	goto	u3380
  8382  0BC8                     u3381:
  8383  0BC8  2BCA               	goto	l2958
  8384  0BC9                     u3380:
  8385  0BC9                     l2956:
  8386  0BC9  144B               	bsf	___fldiv@aexp,0
  8387  0BCA                     l2958:
  8388  0BCA  084B               	movf	___fldiv@aexp,w
  8389  0BCB  1903               	btfsc	3,2
  8390  0BCC  2BCE               	goto	u3391
  8391  0BCD  2BCF               	goto	u3390
  8392  0BCE                     u3391:
  8393  0BCE  2BDF               	goto	l2968
  8394  0BCF                     u3390:
  8395  0BCF                     l2960:
  8396  0BCF  0A4B               	incf	___fldiv@aexp,w
  8397  0BD0  1D03               	btfss	3,2
  8398  0BD1  2BD3               	goto	u3401
  8399  0BD2  2BD4               	goto	u3400
  8400  0BD3                     u3401:
  8401  0BD3  2BDC               	goto	l2964
  8402  0BD4                     u3400:
  8403  0BD4                     l2962:
  8404  0BD4  3000               	movlw	0
  8405  0BD5  00B5               	movwf	___fldiv@a+3
  8406  0BD6  3000               	movlw	0
  8407  0BD7  00B4               	movwf	___fldiv@a+2
  8408  0BD8  3000               	movlw	0
  8409  0BD9  00B3               	movwf	___fldiv@a+1
  8410  0BDA  3000               	movlw	0
  8411  0BDB  00B2               	movwf	___fldiv@a
  8412  0BDC                     l2964:
  8413  0BDC  17B4               	bsf	___fldiv@a+2,7
  8414  0BDD                     l2966:
  8415  0BDD  01B5               	clrf	___fldiv@a+3
  8416  0BDE  2BE7               	goto	l746
  8417  0BDF                     l2968:
  8418  0BDF  3000               	movlw	0
  8419  0BE0  00B5               	movwf	___fldiv@a+3
  8420  0BE1  3000               	movlw	0
  8421  0BE2  00B4               	movwf	___fldiv@a+2
  8422  0BE3  3000               	movlw	0
  8423  0BE4  00B3               	movwf	___fldiv@a+1
  8424  0BE5  3000               	movlw	0
  8425  0BE6  00B2               	movwf	___fldiv@a
  8426  0BE7                     l746:
  8427  0BE7  0835               	movf	___fldiv@a+3,w
  8428  0BE8  0434               	iorwf	___fldiv@a+2,w
  8429  0BE9  0433               	iorwf	___fldiv@a+1,w
  8430  0BEA  0432               	iorwf	___fldiv@a,w
  8431  0BEB  1D03               	skipz
  8432  0BEC  2BEE               	goto	u3411
  8433  0BED  2BEF               	goto	u3410
  8434  0BEE                     u3411:
  8435  0BEE  2C08               	goto	l2978
  8436  0BEF                     u3410:
  8437  0BEF                     l2970:
  8438  0BEF  3000               	movlw	0
  8439  0BF0  00B9               	movwf	___fldiv@b+3
  8440  0BF1  3000               	movlw	0
  8441  0BF2  00B8               	movwf	___fldiv@b+2
  8442  0BF3  3000               	movlw	0
  8443  0BF4  00B7               	movwf	___fldiv@b+1
  8444  0BF5  3000               	movlw	0
  8445  0BF6  00B6               	movwf	___fldiv@b
  8446  0BF7  3080               	movlw	128
  8447  0BF8  04B8               	iorwf	___fldiv@b+2,f
  8448  0BF9  307F               	movlw	127
  8449  0BFA  04B9               	iorwf	___fldiv@b+3,f
  8450  0BFB                     l2972:
  8451  0BFB  0843               	movf	___fldiv@sign,w
  8452  0BFC  00BA               	movwf	??___fldiv
  8453  0BFD  083A               	movf	??___fldiv,w
  8454  0BFE  04B9               	iorwf	___fldiv@b+3,f
  8455  0BFF                     l2974:
  8456  0BFF  0839               	movf	___fldiv@b+3,w
  8457  0C00  00B5               	movwf	?___fldiv+3
  8458  0C01  0838               	movf	___fldiv@b+2,w
  8459  0C02  00B4               	movwf	?___fldiv+2
  8460  0C03  0837               	movf	___fldiv@b+1,w
  8461  0C04  00B3               	movwf	?___fldiv+1
  8462  0C05  0836               	movf	___fldiv@b,w
  8463  0C06  00B2               	movwf	?___fldiv
  8464  0C07  2D67               	goto	l748
  8465  0C08                     l2978:
  8466  0C08  084A               	movf	___fldiv@bexp,w
  8467  0C09  1D03               	btfss	3,2
  8468  0C0A  2C0C               	goto	u3421
  8469  0C0B  2C0D               	goto	u3420
  8470  0C0C                     u3421:
  8471  0C0C  2C16               	goto	l2984
  8472  0C0D                     u3420:
  8473  0C0D                     l2980:
  8474  0C0D  3000               	movlw	0
  8475  0C0E  00B5               	movwf	?___fldiv+3
  8476  0C0F  3000               	movlw	0
  8477  0C10  00B4               	movwf	?___fldiv+2
  8478  0C11  3000               	movlw	0
  8479  0C12  00B3               	movwf	?___fldiv+1
  8480  0C13  3000               	movlw	0
  8481  0C14  00B2               	movwf	?___fldiv
  8482  0C15  2D67               	goto	l748
  8483  0C16                     l2984:
  8484  0C16  084A               	movf	___fldiv@bexp,w
  8485  0C17  00BA               	movwf	??___fldiv
  8486  0C18  01BB               	clrf	??___fldiv+1
  8487  0C19  083B               	movf	??___fldiv+1,w
  8488  0C1A  00BD               	movwf	??___fldiv+3
  8489  0C1B  084B               	movf	___fldiv@aexp,w
  8490  0C1C  023A               	subwf	??___fldiv,w
  8491  0C1D  00BC               	movwf	??___fldiv+2
  8492  0C1E  1C03               	skipc
  8493  0C1F  03BD               	decf	??___fldiv+3,f
  8494  0C20  083C               	movf	??___fldiv+2,w
  8495  0C21  3E7F               	addlw	127
  8496  0C22  00C4               	movwf	___fldiv@new_exp
  8497  0C23  083D               	movf	??___fldiv+3,w
  8498  0C24  1803               	skipnc
  8499  0C25  3E01               	addlw	1
  8500  0C26  3E00               	addlw	0
  8501  0C27  00C5               	movwf	___fldiv@new_exp+1
  8502  0C28                     l2986:
  8503  0C28  0839               	movf	___fldiv@b+3,w
  8504  0C29  00C2               	movwf	___fldiv@rem+3
  8505  0C2A  0838               	movf	___fldiv@b+2,w
  8506  0C2B  00C1               	movwf	___fldiv@rem+2
  8507  0C2C  0837               	movf	___fldiv@b+1,w
  8508  0C2D  00C0               	movwf	___fldiv@rem+1
  8509  0C2E  0836               	movf	___fldiv@b,w
  8510  0C2F  00BF               	movwf	___fldiv@rem
  8511  0C30                     l2988:
  8512  0C30  3000               	movlw	0
  8513  0C31  00B9               	movwf	___fldiv@b+3
  8514  0C32  3000               	movlw	0
  8515  0C33  00B8               	movwf	___fldiv@b+2
  8516  0C34  3000               	movlw	0
  8517  0C35  00B7               	movwf	___fldiv@b+1
  8518  0C36  3000               	movlw	0
  8519  0C37  00B6               	movwf	___fldiv@b
  8520  0C38                     l2990:
  8521  0C38  3000               	movlw	0
  8522  0C39  00C9               	movwf	___fldiv@grs+3
  8523  0C3A  3000               	movlw	0
  8524  0C3B  00C8               	movwf	___fldiv@grs+2
  8525  0C3C  3000               	movlw	0
  8526  0C3D  00C7               	movwf	___fldiv@grs+1
  8527  0C3E  3000               	movlw	0
  8528  0C3F  00C6               	movwf	___fldiv@grs
  8529  0C40                     l2992:
  8530  0C40  01CB               	clrf	___fldiv@aexp
  8531  0C41  2C8C               	goto	l3012
  8532  0C42                     l2994:
  8533  0C42  084B               	movf	___fldiv@aexp,w
  8534  0C43  1903               	btfsc	3,2
  8535  0C44  2C46               	goto	u3431
  8536  0C45  2C47               	goto	u3430
  8537  0C46                     u3431:
  8538  0C46  2C67               	goto	l3004
  8539  0C47                     u3430:
  8540  0C47                     l2996:
  8541  0C47  3001               	movlw	1
  8542  0C48  00BA               	movwf	??___fldiv
  8543  0C49                     u3445:
  8544  0C49  1003               	clrc
  8545  0C4A  0DBF               	rlf	___fldiv@rem,f
  8546  0C4B  0DC0               	rlf	___fldiv@rem+1,f
  8547  0C4C  0DC1               	rlf	___fldiv@rem+2,f
  8548  0C4D  0DC2               	rlf	___fldiv@rem+3,f
  8549  0C4E  0BBA               	decfsz	??___fldiv,f
  8550  0C4F  2C49               	goto	u3445
  8551  0C50  3001               	movlw	1
  8552  0C51  00BA               	movwf	??___fldiv
  8553  0C52                     u3455:
  8554  0C52  1003               	clrc
  8555  0C53  0DB6               	rlf	___fldiv@b,f
  8556  0C54  0DB7               	rlf	___fldiv@b+1,f
  8557  0C55  0DB8               	rlf	___fldiv@b+2,f
  8558  0C56  0DB9               	rlf	___fldiv@b+3,f
  8559  0C57  0BBA               	decfsz	??___fldiv,f
  8560  0C58  2C52               	goto	u3455
  8561  0C59                     l2998:
  8562  0C59  1FC9               	btfss	___fldiv@grs+3,7
  8563  0C5A  2C5C               	goto	u3461
  8564  0C5B  2C5D               	goto	u3460
  8565  0C5C                     u3461:
  8566  0C5C  2C5E               	goto	l3002
  8567  0C5D                     u3460:
  8568  0C5D                     l3000:
  8569  0C5D  1436               	bsf	___fldiv@b,0
  8570  0C5E                     l3002:
  8571  0C5E  3001               	movlw	1
  8572  0C5F  00BA               	movwf	??___fldiv
  8573  0C60                     u3475:
  8574  0C60  1003               	clrc
  8575  0C61  0DC6               	rlf	___fldiv@grs,f
  8576  0C62  0DC7               	rlf	___fldiv@grs+1,f
  8577  0C63  0DC8               	rlf	___fldiv@grs+2,f
  8578  0C64  0DC9               	rlf	___fldiv@grs+3,f
  8579  0C65  0BBA               	decfsz	??___fldiv,f
  8580  0C66  2C60               	goto	u3475
  8581  0C67                     l3004:
  8582  0C67  0835               	movf	___fldiv@a+3,w
  8583  0C68  0242               	subwf	___fldiv@rem+3,w
  8584  0C69  1D03               	skipz
  8585  0C6A  2C75               	goto	u3485
  8586  0C6B  0834               	movf	___fldiv@a+2,w
  8587  0C6C  0241               	subwf	___fldiv@rem+2,w
  8588  0C6D  1D03               	skipz
  8589  0C6E  2C75               	goto	u3485
  8590  0C6F  0833               	movf	___fldiv@a+1,w
  8591  0C70  0240               	subwf	___fldiv@rem+1,w
  8592  0C71  1D03               	skipz
  8593  0C72  2C75               	goto	u3485
  8594  0C73  0832               	movf	___fldiv@a,w
  8595  0C74  023F               	subwf	___fldiv@rem,w
  8596  0C75                     u3485:
  8597  0C75  1C03               	skipc
  8598  0C76  2C78               	goto	u3481
  8599  0C77  2C79               	goto	u3480
  8600  0C78                     u3481:
  8601  0C78  2C88               	goto	l3010
  8602  0C79                     u3480:
  8603  0C79                     l3006:
  8604  0C79  1749               	bsf	___fldiv@grs+3,6
  8605  0C7A                     l3008:
  8606  0C7A  0832               	movf	___fldiv@a,w
  8607  0C7B  02BF               	subwf	___fldiv@rem,f
  8608  0C7C  0833               	movf	___fldiv@a+1,w
  8609  0C7D  1C03               	skipc
  8610  0C7E  0F33               	incfsz	___fldiv@a+1,w
  8611  0C7F  02C0               	subwf	___fldiv@rem+1,f
  8612  0C80  0834               	movf	___fldiv@a+2,w
  8613  0C81  1C03               	skipc
  8614  0C82  0F34               	incfsz	___fldiv@a+2,w
  8615  0C83  02C1               	subwf	___fldiv@rem+2,f
  8616  0C84  0835               	movf	___fldiv@a+3,w
  8617  0C85  1C03               	skipc
  8618  0C86  0F35               	incfsz	___fldiv@a+3,w
  8619  0C87  02C2               	subwf	___fldiv@rem+3,f
  8620  0C88                     l3010:
  8621  0C88  3001               	movlw	1
  8622  0C89  00BA               	movwf	??___fldiv
  8623  0C8A  083A               	movf	??___fldiv,w
  8624  0C8B  07CB               	addwf	___fldiv@aexp,f
  8625  0C8C                     l3012:
  8626  0C8C  301A               	movlw	26
  8627  0C8D  024B               	subwf	___fldiv@aexp,w
  8628  0C8E  1C03               	skipc
  8629  0C8F  2C91               	goto	u3491
  8630  0C90  2C92               	goto	u3490
  8631  0C91                     u3491:
  8632  0C91  2C42               	goto	l2994
  8633  0C92                     u3490:
  8634  0C92                     l3014:
  8635  0C92  0842               	movf	___fldiv@rem+3,w
  8636  0C93  0441               	iorwf	___fldiv@rem+2,w
  8637  0C94  0440               	iorwf	___fldiv@rem+1,w
  8638  0C95  043F               	iorwf	___fldiv@rem,w
  8639  0C96  1903               	skipnz
  8640  0C97  2C99               	goto	u3501
  8641  0C98  2C9A               	goto	u3500
  8642  0C99                     u3501:
  8643  0C99  2CB9               	goto	l3028
  8644  0C9A                     u3500:
  8645  0C9A                     l3016:
  8646  0C9A  1446               	bsf	___fldiv@grs,0
  8647  0C9B  2CB9               	goto	l3028
  8648  0C9C                     l3018:
  8649  0C9C  3001               	movlw	1
  8650  0C9D  00BA               	movwf	??___fldiv
  8651  0C9E                     u3515:
  8652  0C9E  1003               	clrc
  8653  0C9F  0DB6               	rlf	___fldiv@b,f
  8654  0CA0  0DB7               	rlf	___fldiv@b+1,f
  8655  0CA1  0DB8               	rlf	___fldiv@b+2,f
  8656  0CA2  0DB9               	rlf	___fldiv@b+3,f
  8657  0CA3  0BBA               	decfsz	??___fldiv,f
  8658  0CA4  2C9E               	goto	u3515
  8659  0CA5                     l3020:
  8660  0CA5  1FC9               	btfss	___fldiv@grs+3,7
  8661  0CA6  2CA8               	goto	u3521
  8662  0CA7  2CA9               	goto	u3520
  8663  0CA8                     u3521:
  8664  0CA8  2CAA               	goto	l3024
  8665  0CA9                     u3520:
  8666  0CA9                     l3022:
  8667  0CA9  1436               	bsf	___fldiv@b,0
  8668  0CAA                     l3024:
  8669  0CAA  3001               	movlw	1
  8670  0CAB  00BA               	movwf	??___fldiv
  8671  0CAC                     u3535:
  8672  0CAC  1003               	clrc
  8673  0CAD  0DC6               	rlf	___fldiv@grs,f
  8674  0CAE  0DC7               	rlf	___fldiv@grs+1,f
  8675  0CAF  0DC8               	rlf	___fldiv@grs+2,f
  8676  0CB0  0DC9               	rlf	___fldiv@grs+3,f
  8677  0CB1  0BBA               	decfsz	??___fldiv,f
  8678  0CB2  2CAC               	goto	u3535
  8679  0CB3                     l3026:
  8680  0CB3  30FF               	movlw	255
  8681  0CB4  07C4               	addwf	___fldiv@new_exp,f
  8682  0CB5  1803               	skipnc
  8683  0CB6  0AC5               	incf	___fldiv@new_exp+1,f
  8684  0CB7  30FF               	movlw	255
  8685  0CB8  07C5               	addwf	___fldiv@new_exp+1,f
  8686  0CB9                     l3028:
  8687  0CB9  1FB8               	btfss	___fldiv@b+2,7
  8688  0CBA  2CBC               	goto	u3541
  8689  0CBB  2CBD               	goto	u3540
  8690  0CBC                     u3541:
  8691  0CBC  2C9C               	goto	l3018
  8692  0CBD                     u3540:
  8693  0CBD                     l3030:
  8694  0CBD  01CB               	clrf	___fldiv@aexp
  8695  0CBE                     l3032:
  8696  0CBE  1FC9               	btfss	___fldiv@grs+3,7
  8697  0CBF  2CC1               	goto	u3551
  8698  0CC0  2CC2               	goto	u3550
  8699  0CC1                     u3551:
  8700  0CC1  2CDE               	goto	l3040
  8701  0CC2                     u3550:
  8702  0CC2                     l3034:
  8703  0CC2  30FF               	movlw	255
  8704  0CC3  0546               	andwf	___fldiv@grs,w
  8705  0CC4  00BA               	movwf	??___fldiv
  8706  0CC5  30FF               	movlw	255
  8707  0CC6  0547               	andwf	___fldiv@grs+1,w
  8708  0CC7  00BB               	movwf	??___fldiv+1
  8709  0CC8  30FF               	movlw	255
  8710  0CC9  0548               	andwf	___fldiv@grs+2,w
  8711  0CCA  00BC               	movwf	??___fldiv+2
  8712  0CCB  307F               	movlw	127
  8713  0CCC  0549               	andwf	___fldiv@grs+3,w
  8714  0CCD  00BD               	movwf	??___fldiv+3
  8715  0CCE  083D               	movf	??___fldiv+3,w
  8716  0CCF  043C               	iorwf	??___fldiv+2,w
  8717  0CD0  043B               	iorwf	??___fldiv+1,w
  8718  0CD1  043A               	iorwf	??___fldiv,w
  8719  0CD2  1903               	skipnz
  8720  0CD3  2CD5               	goto	u3561
  8721  0CD4  2CD6               	goto	u3560
  8722  0CD5                     u3561:
  8723  0CD5  2CD9               	goto	l762
  8724  0CD6                     u3560:
  8725  0CD6                     l3036:
  8726  0CD6  01CB               	clrf	___fldiv@aexp
  8727  0CD7  0ACB               	incf	___fldiv@aexp,f
  8728  0CD8  2CDE               	goto	l3040
  8729  0CD9                     l762:
  8730  0CD9  1C36               	btfss	___fldiv@b,0
  8731  0CDA  2CDC               	goto	u3571
  8732  0CDB  2CDD               	goto	u3570
  8733  0CDC                     u3571:
  8734  0CDC  2CDE               	goto	l3040
  8735  0CDD                     u3570:
  8736  0CDD  2CD6               	goto	l3036
  8737  0CDE                     l3040:
  8738  0CDE  084B               	movf	___fldiv@aexp,w
  8739  0CDF  1903               	btfsc	3,2
  8740  0CE0  2CE2               	goto	u3581
  8741  0CE1  2CE3               	goto	u3580
  8742  0CE2                     u3581:
  8743  0CE2  2D14               	goto	l3050
  8744  0CE3                     u3580:
  8745  0CE3                     l3042:
  8746  0CE3  3001               	movlw	1
  8747  0CE4  07B6               	addwf	___fldiv@b,f
  8748  0CE5  3000               	movlw	0
  8749  0CE6  1803               	skipnc
  8750  0CE7  3001               	movlw	1
  8751  0CE8  07B7               	addwf	___fldiv@b+1,f
  8752  0CE9  3000               	movlw	0
  8753  0CEA  1803               	skipnc
  8754  0CEB  3001               	movlw	1
  8755  0CEC  07B8               	addwf	___fldiv@b+2,f
  8756  0CED  3000               	movlw	0
  8757  0CEE  1803               	skipnc
  8758  0CEF  3001               	movlw	1
  8759  0CF0  07B9               	addwf	___fldiv@b+3,f
  8760  0CF1                     l3044:
  8761  0CF1  1C39               	btfss	___fldiv@b+3,0
  8762  0CF2  2CF4               	goto	u3591
  8763  0CF3  2CF5               	goto	u3590
  8764  0CF4                     u3591:
  8765  0CF4  2D14               	goto	l3050
  8766  0CF5                     u3590:
  8767  0CF5                     l3046:
  8768  0CF5  0836               	movf	___fldiv@b,w
  8769  0CF6  00BA               	movwf	??___fldiv
  8770  0CF7  0837               	movf	___fldiv@b+1,w
  8771  0CF8  00BB               	movwf	??___fldiv+1
  8772  0CF9  0838               	movf	___fldiv@b+2,w
  8773  0CFA  00BC               	movwf	??___fldiv+2
  8774  0CFB  0839               	movf	___fldiv@b+3,w
  8775  0CFC  00BD               	movwf	??___fldiv+3
  8776  0CFD  3001               	movlw	1
  8777  0CFE  00BE               	movwf	??___fldiv+4
  8778  0CFF                     u3605:
  8779  0CFF  0D3D               	rlf	??___fldiv+3,w
  8780  0D00  0CBD               	rrf	??___fldiv+3,f
  8781  0D01  0CBC               	rrf	??___fldiv+2,f
  8782  0D02  0CBB               	rrf	??___fldiv+1,f
  8783  0D03  0CBA               	rrf	??___fldiv,f
  8784  0D04                     u3600:
  8785  0D04  0BBE               	decfsz	??___fldiv+4,f
  8786  0D05  2CFF               	goto	u3605
  8787  0D06  083D               	movf	??___fldiv+3,w
  8788  0D07  00B9               	movwf	___fldiv@b+3
  8789  0D08  083C               	movf	??___fldiv+2,w
  8790  0D09  00B8               	movwf	___fldiv@b+2
  8791  0D0A  083B               	movf	??___fldiv+1,w
  8792  0D0B  00B7               	movwf	___fldiv@b+1
  8793  0D0C  083A               	movf	??___fldiv,w
  8794  0D0D  00B6               	movwf	___fldiv@b
  8795  0D0E                     l3048:
  8796  0D0E  3001               	movlw	1
  8797  0D0F  07C4               	addwf	___fldiv@new_exp,f
  8798  0D10  1803               	skipnc
  8799  0D11  0AC5               	incf	___fldiv@new_exp+1,f
  8800  0D12  3000               	movlw	0
  8801  0D13  07C5               	addwf	___fldiv@new_exp+1,f
  8802  0D14                     l3050:
  8803  0D14  0845               	movf	___fldiv@new_exp+1,w
  8804  0D15  3A80               	xorlw	128
  8805  0D16  00FF               	movwf	btemp+1
  8806  0D17  3080               	movlw	128
  8807  0D18  027F               	subwf	btemp+1,w
  8808  0D19  1D03               	skipz
  8809  0D1A  2D1D               	goto	u3615
  8810  0D1B  30FF               	movlw	255
  8811  0D1C  0244               	subwf	___fldiv@new_exp,w
  8812  0D1D                     u3615:
  8813  0D1D  1C03               	skipc
  8814  0D1E  2D20               	goto	u3611
  8815  0D1F  2D21               	goto	u3610
  8816  0D20                     u3611:
  8817  0D20  2D2F               	goto	l3054
  8818  0D21                     u3610:
  8819  0D21                     l3052:
  8820  0D21  30FF               	movlw	255
  8821  0D22  1283               	bcf	3,5	;RP0=0, select bank0
  8822  0D23  1303               	bcf	3,6	;RP1=0, select bank0
  8823  0D24  00C4               	movwf	___fldiv@new_exp
  8824  0D25  3000               	movlw	0
  8825  0D26  00C5               	movwf	___fldiv@new_exp+1
  8826  0D27  3000               	movlw	0
  8827  0D28  00B9               	movwf	___fldiv@b+3
  8828  0D29  3000               	movlw	0
  8829  0D2A  00B8               	movwf	___fldiv@b+2
  8830  0D2B  3000               	movlw	0
  8831  0D2C  00B7               	movwf	___fldiv@b+1
  8832  0D2D  3000               	movlw	0
  8833  0D2E  00B6               	movwf	___fldiv@b
  8834  0D2F                     l3054:
  8835  0D2F  1283               	bcf	3,5	;RP0=0, select bank0
  8836  0D30  1303               	bcf	3,6	;RP1=0, select bank0
  8837  0D31  0845               	movf	___fldiv@new_exp+1,w
  8838  0D32  3A80               	xorlw	128
  8839  0D33  00FF               	movwf	btemp+1
  8840  0D34  3080               	movlw	128
  8841  0D35  027F               	subwf	btemp+1,w
  8842  0D36  1D03               	skipz
  8843  0D37  2D3A               	goto	u3625
  8844  0D38  3001               	movlw	1
  8845  0D39  0244               	subwf	___fldiv@new_exp,w
  8846  0D3A                     u3625:
  8847  0D3A  1803               	skipnc
  8848  0D3B  2D3D               	goto	u3621
  8849  0D3C  2D3E               	goto	u3620
  8850  0D3D                     u3621:
  8851  0D3D  2D4B               	goto	l768
  8852  0D3E                     u3620:
  8853  0D3E                     l3056:
  8854  0D3E  1283               	bcf	3,5	;RP0=0, select bank0
  8855  0D3F  1303               	bcf	3,6	;RP1=0, select bank0
  8856  0D40  01C4               	clrf	___fldiv@new_exp
  8857  0D41  01C5               	clrf	___fldiv@new_exp+1
  8858  0D42                     l3058:
  8859  0D42  3000               	movlw	0
  8860  0D43  00B9               	movwf	___fldiv@b+3
  8861  0D44  3000               	movlw	0
  8862  0D45  00B8               	movwf	___fldiv@b+2
  8863  0D46  3000               	movlw	0
  8864  0D47  00B7               	movwf	___fldiv@b+1
  8865  0D48  3000               	movlw	0
  8866  0D49  00B6               	movwf	___fldiv@b
  8867  0D4A                     l3060:
  8868  0D4A  01C3               	clrf	___fldiv@sign
  8869  0D4B                     l768:
  8870  0D4B  1283               	bcf	3,5	;RP0=0, select bank0
  8871  0D4C  1303               	bcf	3,6	;RP1=0, select bank0
  8872  0D4D  0844               	movf	___fldiv@new_exp,w
  8873  0D4E  00BA               	movwf	??___fldiv
  8874  0D4F  083A               	movf	??___fldiv,w
  8875  0D50  00CA               	movwf	___fldiv@bexp
  8876  0D51                     l3062:
  8877  0D51  1C4A               	btfss	___fldiv@bexp,0
  8878  0D52  2D54               	goto	u3631
  8879  0D53  2D55               	goto	u3630
  8880  0D54                     u3631:
  8881  0D54  2D57               	goto	l3066
  8882  0D55                     u3630:
  8883  0D55                     l3064:
  8884  0D55  17B8               	bsf	___fldiv@b+2,7
  8885  0D56  2D5B               	goto	l770
  8886  0D57                     l3066:
  8887  0D57  307F               	movlw	127
  8888  0D58  00BA               	movwf	??___fldiv
  8889  0D59  083A               	movf	??___fldiv,w
  8890  0D5A  05B8               	andwf	___fldiv@b+2,f
  8891  0D5B                     l770:
  8892  0D5B  084A               	movf	___fldiv@bexp,w
  8893  0D5C  00BA               	movwf	??___fldiv
  8894  0D5D  1003               	clrc
  8895  0D5E  0C3A               	rrf	??___fldiv,w
  8896  0D5F  00BB               	movwf	??___fldiv+1
  8897  0D60  083B               	movf	??___fldiv+1,w
  8898  0D61  00B9               	movwf	___fldiv@b+3
  8899  0D62  0843               	movf	___fldiv@sign,w
  8900  0D63  00BA               	movwf	??___fldiv
  8901  0D64  083A               	movf	??___fldiv,w
  8902  0D65  04B9               	iorwf	___fldiv@b+3,f
  8903  0D66  2BFF               	goto	l2974
  8904  0D67                     l748:
  8905  0D67  0008               	return
  8906  0D68                     __end_of___fldiv:
  8907                           
  8908                           	psect	text28
  8909  14DA                     __ptext28:	
  8910 ;; *************** function ___awdiv *****************
  8911 ;; Defined at:
  8912 ;;		line 5 in file "C:\Program Files\Microchip\xc8\v2.31\pic\sources\c90\common\awdiv.c"
  8913 ;; Parameters:    Size  Location     Type
  8914 ;;  divisor         2    0[COMMON] int 
  8915 ;;  dividend        2    2[COMMON] int 
  8916 ;; Auto vars:     Size  Location     Type
  8917 ;;  quotient        2    7[COMMON] int 
  8918 ;;  sign            1    6[COMMON] unsigned char 
  8919 ;;  counter         1    5[COMMON] unsigned char 
  8920 ;; Return value:  Size  Location     Type
  8921 ;;                  2    0[COMMON] int 
  8922 ;; Registers used:
  8923 ;;		wreg, status,2, status,0
  8924 ;; Tracked objects:
  8925 ;;		On entry : 0/0
  8926 ;;		On exit  : 0/0
  8927 ;;		Unchanged: 0/0
  8928 ;; Data sizes:     COMMON   BANK0   BANK1   BANK3   BANK2
  8929 ;;      Params:         4       0       0       0       0
  8930 ;;      Locals:         4       0       0       0       0
  8931 ;;      Temps:          1       0       0       0       0
  8932 ;;      Totals:         9       0       0       0       0
  8933 ;;Total ram usage:        9 bytes
  8934 ;; Hardware stack levels used:    1
  8935 ;; This function calls:
  8936 ;;		Nothing
  8937 ;; This function is called by:
  8938 ;;		_ADC_convert
  8939 ;; This function uses a non-reentrant model
  8940 ;;
  8941                           
  8942                           
  8943                           ;psect for function ___awdiv
  8944  14DA                     ___awdiv:
  8945  14DA                     l2824:	
  8946                           ;incstack = 0
  8947                           ; Regs used in ___awdiv: [wreg+status,2+status,0]
  8948                           
  8949  14DA  01F6               	clrf	___awdiv@sign
  8950  14DB                     l2826:
  8951  14DB  1FF1               	btfss	___awdiv@divisor+1,7
  8952  14DC  2CDE               	goto	u3081
  8953  14DD  2CDF               	goto	u3080
  8954  14DE                     u3081:
  8955  14DE  2CE6               	goto	l2832
  8956  14DF                     u3080:
  8957  14DF                     l2828:
  8958  14DF  09F0               	comf	___awdiv@divisor,f
  8959  14E0  09F1               	comf	___awdiv@divisor+1,f
  8960  14E1  0AF0               	incf	___awdiv@divisor,f
  8961  14E2  1903               	skipnz
  8962  14E3  0AF1               	incf	___awdiv@divisor+1,f
  8963  14E4                     l2830:
  8964  14E4  01F6               	clrf	___awdiv@sign
  8965  14E5  0AF6               	incf	___awdiv@sign,f
  8966  14E6                     l2832:
  8967  14E6  1FF3               	btfss	___awdiv@dividend+1,7
  8968  14E7  2CE9               	goto	u3091
  8969  14E8  2CEA               	goto	u3090
  8970  14E9                     u3091:
  8971  14E9  2CF3               	goto	l2838
  8972  14EA                     u3090:
  8973  14EA                     l2834:
  8974  14EA  09F2               	comf	___awdiv@dividend,f
  8975  14EB  09F3               	comf	___awdiv@dividend+1,f
  8976  14EC  0AF2               	incf	___awdiv@dividend,f
  8977  14ED  1903               	skipnz
  8978  14EE  0AF3               	incf	___awdiv@dividend+1,f
  8979  14EF                     l2836:
  8980  14EF  3001               	movlw	1
  8981  14F0  00F4               	movwf	??___awdiv
  8982  14F1  0874               	movf	??___awdiv,w
  8983  14F2  06F6               	xorwf	___awdiv@sign,f
  8984  14F3                     l2838:
  8985  14F3  01F7               	clrf	___awdiv@quotient
  8986  14F4  01F8               	clrf	___awdiv@quotient+1
  8987  14F5                     l2840:
  8988  14F5  0870               	movf	___awdiv@divisor,w
  8989  14F6  0471               	iorwf	___awdiv@divisor+1,w
  8990  14F7  1903               	btfsc	3,2
  8991  14F8  2CFA               	goto	u3101
  8992  14F9  2CFB               	goto	u3100
  8993  14FA                     u3101:
  8994  14FA  2D32               	goto	l2860
  8995  14FB                     u3100:
  8996  14FB                     l2842:
  8997  14FB  01F5               	clrf	___awdiv@counter
  8998  14FC  0AF5               	incf	___awdiv@counter,f
  8999  14FD  2D09               	goto	l2848
  9000  14FE                     l2844:
  9001  14FE  3001               	movlw	1
  9002  14FF                     u3115:
  9003  14FF  1003               	clrc
  9004  1500  0DF0               	rlf	___awdiv@divisor,f
  9005  1501  0DF1               	rlf	___awdiv@divisor+1,f
  9006  1502  3EFF               	addlw	-1
  9007  1503  1D03               	skipz
  9008  1504  2CFF               	goto	u3115
  9009  1505                     l2846:
  9010  1505  3001               	movlw	1
  9011  1506  00F4               	movwf	??___awdiv
  9012  1507  0874               	movf	??___awdiv,w
  9013  1508  07F5               	addwf	___awdiv@counter,f
  9014  1509                     l2848:
  9015  1509  1FF1               	btfss	___awdiv@divisor+1,7
  9016  150A  2D0C               	goto	u3121
  9017  150B  2D0D               	goto	u3120
  9018  150C                     u3121:
  9019  150C  2CFE               	goto	l2844
  9020  150D                     u3120:
  9021  150D                     l2850:
  9022  150D  3001               	movlw	1
  9023  150E                     u3135:
  9024  150E  1003               	clrc
  9025  150F  0DF7               	rlf	___awdiv@quotient,f
  9026  1510  0DF8               	rlf	___awdiv@quotient+1,f
  9027  1511  3EFF               	addlw	-1
  9028  1512  1D03               	skipz
  9029  1513  2D0E               	goto	u3135
  9030  1514  0871               	movf	___awdiv@divisor+1,w
  9031  1515  0273               	subwf	___awdiv@dividend+1,w
  9032  1516  1D03               	skipz
  9033  1517  2D1A               	goto	u3145
  9034  1518  0870               	movf	___awdiv@divisor,w
  9035  1519  0272               	subwf	___awdiv@dividend,w
  9036  151A                     u3145:
  9037  151A  1C03               	skipc
  9038  151B  2D1D               	goto	u3141
  9039  151C  2D1E               	goto	u3140
  9040  151D                     u3141:
  9041  151D  2D25               	goto	l2856
  9042  151E                     u3140:
  9043  151E                     l2852:
  9044  151E  0870               	movf	___awdiv@divisor,w
  9045  151F  02F2               	subwf	___awdiv@dividend,f
  9046  1520  0871               	movf	___awdiv@divisor+1,w
  9047  1521  1C03               	skipc
  9048  1522  03F3               	decf	___awdiv@dividend+1,f
  9049  1523  02F3               	subwf	___awdiv@dividend+1,f
  9050  1524                     l2854:
  9051  1524  1477               	bsf	___awdiv@quotient,0
  9052  1525                     l2856:
  9053  1525  3001               	movlw	1
  9054  1526                     u3155:
  9055  1526  1003               	clrc
  9056  1527  0CF1               	rrf	___awdiv@divisor+1,f
  9057  1528  0CF0               	rrf	___awdiv@divisor,f
  9058  1529  3EFF               	addlw	-1
  9059  152A  1D03               	skipz
  9060  152B  2D26               	goto	u3155
  9061  152C                     l2858:
  9062  152C  3001               	movlw	1
  9063  152D  02F5               	subwf	___awdiv@counter,f
  9064  152E  1D03               	btfss	3,2
  9065  152F  2D31               	goto	u3161
  9066  1530  2D32               	goto	u3160
  9067  1531                     u3161:
  9068  1531  2D0D               	goto	l2850
  9069  1532                     u3160:
  9070  1532                     l2860:
  9071  1532  0876               	movf	___awdiv@sign,w
  9072  1533  1903               	btfsc	3,2
  9073  1534  2D36               	goto	u3171
  9074  1535  2D37               	goto	u3170
  9075  1536                     u3171:
  9076  1536  2D3C               	goto	l2864
  9077  1537                     u3170:
  9078  1537                     l2862:
  9079  1537  09F7               	comf	___awdiv@quotient,f
  9080  1538  09F8               	comf	___awdiv@quotient+1,f
  9081  1539  0AF7               	incf	___awdiv@quotient,f
  9082  153A  1903               	skipnz
  9083  153B  0AF8               	incf	___awdiv@quotient+1,f
  9084  153C                     l2864:
  9085  153C  0878               	movf	___awdiv@quotient+1,w
  9086  153D  00F1               	movwf	?___awdiv+1
  9087  153E  0877               	movf	___awdiv@quotient,w
  9088  153F  00F0               	movwf	?___awdiv
  9089  1540                     l550:
  9090  1540  0008               	return
  9091  1541                     __end_of___awdiv:
  9092  0002                     
  9093                           	psect	functab
  9094  0003                     __pfunctab:
  9095  0003                     __fptable:
  9096  0003                     fptable:
  9097  0003  00FF               	movwf	(btemp+1)& (0+127)
  9098  0004  3000               	movlw	high fptable
  9099  0005  008A               	movwf	10
  9100  0006  087F               	movf	(btemp+1)& (0+127),w
  9101  0007  0782               	addwf	2,f
  9102  0008                     fpbase:
  9103  0008  2808               	goto	fpbase	; Call via a null pointer and you will get stuck here.
  9104  0009                     fp__putch:
  9105  0009  160A  118A  2A72   	ljmp	_putch
  9106  000C                     __end_of__fptable:
  9107  007E                     btemp	set	126	;btemp
  9108  007E                     wtemp0	set	126
  9109                           
  9110                           	psect	config
  9111                           
  9112                           ;Config register CONFIG1 @ 0x2007
  9113                           ;	Oscillator Selection bits
  9114                           ;	FOSC = INTRC_NOCLKOUT, INTOSCIO oscillator: I/O function on RA6/OSC2/CLKOUT pin, I/O f
      +                          unction on RA7/OSC1/CLKIN
  9115                           ;	Watchdog Timer Enable bit
  9116                           ;	WDTE = OFF, WDT disabled and can be enabled by SWDTEN bit of the WDTCON register
  9117                           ;	Power-up Timer Enable bit
  9118                           ;	PWRTE = OFF, PWRT disabled
  9119                           ;	RE3/MCLR pin function select bit
  9120                           ;	MCLRE = OFF, RE3/MCLR pin function is digital input, MCLR internally tied to VDD
  9121                           ;	Code Protection bit
  9122                           ;	CP = OFF, Program memory code protection is disabled
  9123                           ;	Data Code Protection bit
  9124                           ;	CPD = OFF, Data memory code protection is disabled
  9125                           ;	Brown Out Reset Selection bits
  9126                           ;	BOREN = OFF, BOR disabled
  9127                           ;	Internal External Switchover bit
  9128                           ;	IESO = OFF, Internal/External Switchover mode is disabled
  9129                           ;	Fail-Safe Clock Monitor Enabled bit
  9130                           ;	FCMEN = OFF, Fail-Safe Clock Monitor is disabled
  9131                           ;	Low Voltage Programming Enable bit
  9132                           ;	LVP = ON, RB3/PGM pin has PGM function, low voltage programming enabled
  9133                           ;	In-Circuit Debugger Mode bit
  9134                           ;	DEBUG = 0x1, unprogrammed default
  9135  2007                     	org	8199
  9136  2007  30D4               	dw	12500
  9137                           
  9138                           ;Config register CONFIG2 @ 0x2008
  9139                           ;	Brown-out Reset Selection bit
  9140                           ;	BOR4V = BOR40V, Brown-out Reset set to 4.0V
  9141                           ;	Flash Program Memory Self Write Enable bits
  9142                           ;	WRT = OFF, Write protection off
  9143  2008                     	org	8200
  9144  2008  3FFF               	dw	16383

Data Sizes:
    Strings     144
    Constant    10
    Data        16
    BSS         36
    Persistent  0
    Stack       0

Auto Spaces:
    Space          Size  Autos    Used
    COMMON           14     14      14
    BANK0            80     78      80
    BANK1            80     19      69
    BANK3            96      0       0
    BANK2            96      0       0

Pointer List with Targets:

    strcat@from	PTR const unsigned char  size(1) Largest target is 20
		 -> concatenar@s2(BANK0[20]), 

    strcat@to	PTR unsigned char  size(1) Largest target is 20
		 -> concatenar@s1(BANK0[20]), 

    strcat@cp	PTR unsigned char  size(1) Largest target is 20
		 -> concatenar@s1(BANK0[20]), 

    sprintf@f	PTR const unsigned char  size(1) Largest target is 3
		 -> STR_10(CODE[3]), STR_9(CODE[3]), 

    sprintf@ap	PTR void [1] size(1) Largest target is 2
		 -> ?_sprintf(BANK0[2]), ?_printf(BANK0[2]), 

    sprintf@wh	PTR unsigned char  size(1) Largest target is 20
		 -> concatenar@s2(BANK0[20]), concatenar@s1(BANK0[20]), 

    pb.func	PTR FTN(unsigned char ,)void  size(1) Largest target is 1
		 -> Absolute function(), putch(), 

    pb.ptr	PTR unsigned char  size(1) Largest target is 20
		 -> NULL(NULL[0]), concatenar@s2(BANK0[20]), concatenar@s1(BANK0[20]), 

    _doprnt@ap	PTR PTR void  size(1) Largest target is 1
		 -> sprintf@ap(BANK0[1]), printf@ap(BANK0[1]), 

    _doprnt@f	PTR const unsigned char  size(2) Largest target is 30
		 -> STR_10(CODE[3]), STR_9(CODE[3]), STR_8(CODE[25]), STR_7(CODE[21]), 
		 -> STR_6(CODE[20]), STR_5(CODE[30]), STR_4(CODE[18]), STR_3(CODE[15]), 
		 -> STR_2(CODE[18]), STR_1(CODE[15]), adc1(BANK1[10]), adc0(BANK1[10]), 

    _doprnt@pb.func	PTR FTN(unsigned char ,)void  size(1) Largest target is 1
		 -> Absolute function(), putch(), 

    _doprnt@pb.ptr	PTR unsigned char  size(1) Largest target is 20
		 -> NULL(NULL[0]), concatenar@s2(BANK0[20]), concatenar@s1(BANK0[20]), 

    _doprnt@pb	PTR struct __prbuf size(1) Largest target is 3
		 -> sprintf@pb(BANK0[2]), printf@pb(BANK0[2]), 

    printf@f	PTR const unsigned char  size(2) Largest target is 30
		 -> STR_8(CODE[25]), STR_7(CODE[21]), STR_6(CODE[20]), STR_5(CODE[30]), 
		 -> STR_4(CODE[18]), STR_3(CODE[15]), STR_2(CODE[18]), STR_1(CODE[15]), 
		 -> adc1(BANK1[10]), adc0(BANK1[10]), 

    printf@ap	PTR void [1] size(1) Largest target is 2
		 -> ?_sprintf(BANK0[2]), ?_printf(BANK0[2]), 

    S1218__prbuf$func	PTR FTN(unsigned char ,)void  size(1) Largest target is 1
		 -> Absolute function(), putch(), 

    pb.func	PTR FTN(unsigned char ,)void  size(1) Largest target is 1
		 -> Absolute function(), putch(), 

    S1218__prbuf$ptr	PTR unsigned char  size(1) Largest target is 20
		 -> NULL(NULL[0]), concatenar@s2(BANK0[20]), concatenar@s1(BANK0[20]), 

    pb.ptr	PTR unsigned char  size(1) Largest target is 20
		 -> NULL(NULL[0]), concatenar@s2(BANK0[20]), concatenar@s1(BANK0[20]), 

    atoi@s	PTR const unsigned char  size(1) Largest target is 20
		 -> concatenar@s1(BANK0[20]), 

    ADC_convert@data	PTR unsigned char  size(1) Largest target is 10
		 -> adc1(BANK1[10]), adc0(BANK1[10]), 

    sp__strcat	PTR unsigned char  size(1) Largest target is 20
		 -> concatenar@s1(BANK0[20]), 


Critical Paths under _main in COMMON

    _setup->_spiInit
    __doprnt->___lwmod
    ___lwmod->___lwdiv
    _atoi->___wmul
    _ADC_convert->___wmul
    ___xxtofl->___wmul
    ___wmul->___fltol
    ___flsub->___wmul

Critical Paths under _main in BANK0

    _main->_ADC_convert
    _mensaje->_concatenar
    _printf->__doprnt
    _concatenar->_sprintf
    _sprintf->__doprnt
    _atoi->___wmul
    _ADC_convert->___flmul
    ___xxtofl->___wmul
    ___flsub->___xxtofl
    ___flmul->___fldiv
    ___fldiv->___xxtofl

Critical Paths under _main in BANK1

    _main->_ADC_convert

Critical Paths under _main in BANK3

    None.

Critical Paths under _main in BANK2

    None.

Call Graph Tables:

 ---------------------------------------------------------------------------------
 (Depth) Function   	        Calls       Base Space   Used Autos Params    Refs
 ---------------------------------------------------------------------------------
 (0) _main                                                 4     4      0   25496
                                             15 BANK1      4     4      0
                        _ADC_convert
                            ___fldiv
                            ___flmul
                           ___xxtofl
                            _mensaje
                              _setup
                            _spiRead
                           _spiWrite
 ---------------------------------------------------------------------------------
 (1) _spiWrite                                             1     1      0      22
                                              0 COMMON     1     1      0
 ---------------------------------------------------------------------------------
 (1) _spiRead                                              0     0      0       0
                     _spiReceiveWait
 ---------------------------------------------------------------------------------
 (2) _spiReceiveWait                                       0     0      0       0
 ---------------------------------------------------------------------------------
 (1) _setup                                                0     0      0     382
                           _conf_osc
                            _spiInit
 ---------------------------------------------------------------------------------
 (2) _spiInit                                              4     1      3     360
                                              0 COMMON     4     1      3
 ---------------------------------------------------------------------------------
 (2) _conf_osc                                             3     3      0      22
                                              0 COMMON     3     3      0
 ---------------------------------------------------------------------------------
 (1) _mensaje                                              5     5      0    7419
                                             68 BANK0      5     5      0
                         _concatenar
                             _printf
 ---------------------------------------------------------------------------------
 (2) _printf                                               8     4      4    2927
                                             13 BANK0      8     4      4
                            __doprnt
 ---------------------------------------------------------------------------------
 (2) _concatenar                                          47    43      4    4492
                                             21 BANK0     47    43      4
                               _atoi
                            _sprintf
                             _strcat
 ---------------------------------------------------------------------------------
 (3) _strcat                                               4     3      1     207
                                              0 COMMON     4     3      1
 ---------------------------------------------------------------------------------
 (3) _sprintf                                              8     5      3    2441
                                             13 BANK0      8     5      3
                            __doprnt
 ---------------------------------------------------------------------------------
 (3) __doprnt                                             21    18      3    2053
                                              0 BANK0     13    10      3
                   Absolute function *
                            ___lwdiv
                            ___lwmod
                              _putch *
 ---------------------------------------------------------------------------------
 (4) _putch                                                1     0      1     234
                                              0 COMMON     1     0      1
 ---------------------------------------------------------------------------------
 (4) ___lwmod                                              6     2      4     311
                                              8 COMMON     6     2      4
                            ___lwdiv (ARG)
 ---------------------------------------------------------------------------------
 (4) ___lwdiv                                              8     4      4     314
                                              0 COMMON     8     4      4
 ---------------------------------------------------------------------------------
 (4) Absolute function(Fake)                               1     0      1       0
 ---------------------------------------------------------------------------------
 (3) _atoi                                                 8     6      2    1333
                                              4 BANK0      8     6      2
                             ___wmul
                            _isdigit
 ---------------------------------------------------------------------------------
 (4) _isdigit                                              2     2      0      68
                                              0 COMMON     2     2      0
 ---------------------------------------------------------------------------------
 (1) _ADC_convert                                         23    17      6   12141
                                             70 BANK0      8     2      6
                                              0 BANK1     15    15      0
                            ___awdiv
                            ___fldiv
                             ___flge
                            ___flmul
                            ___flsub
                            ___fltol
                             ___wmul
                           ___xxtofl
 ---------------------------------------------------------------------------------
 (1) ___xxtofl                                            14    10      4     930
                                              4 BANK0     14    10      4
                            ___fltol (ARG)
                             ___wmul (ARG)
 ---------------------------------------------------------------------------------
 (4) ___wmul                                               6     2      4    1004
                                             11 COMMON     2     2      0
                                              0 BANK0      4     0      4
                            ___fltol (ARG)
 ---------------------------------------------------------------------------------
 (2) ___fltol                                             11     7      4     761
                                              0 COMMON    11     7      4
 ---------------------------------------------------------------------------------
 (2) ___flsub                                              8     0      8    2637
                                             18 BANK0      8     0      8
                            ___fladd
                            ___fltol (ARG)
                             ___wmul (ARG)
                           ___xxtofl (ARG)
 ---------------------------------------------------------------------------------
 (3) ___fladd                                             20    12      8    2136
                                              0 COMMON    12     4      8
                                              0 BANK0      8     8      0
 ---------------------------------------------------------------------------------
 (1) ___flmul                                             26    18      8    2873
                                             44 BANK0     26    18      8
                          __Umul8_16
                            ___fldiv (ARG)
                            ___flsub (ARG)
                            ___fltol (ARG)
                           ___xxtofl (ARG)
 ---------------------------------------------------------------------------------
 (2) __Umul8_16                                            9     7      2     799
                                              0 COMMON     9     7      2
 ---------------------------------------------------------------------------------
 (2) ___flge                                              12     4      8     334
                                              0 COMMON    12     4      8
 ---------------------------------------------------------------------------------
 (1) ___fldiv                                             26    18      8    1729
                                             18 BANK0     26    18      8
                           ___xxtofl (ARG)
 ---------------------------------------------------------------------------------
 (2) ___awdiv                                              9     5      4     452
                                              0 COMMON     9     5      4
 ---------------------------------------------------------------------------------
 Estimated maximum stack depth 4
 ---------------------------------------------------------------------------------

 Call Graph Graphs:

 _main (ROOT)
   _ADC_convert
     ___awdiv
     ___fldiv
       ___xxtofl (ARG)
         ___fltol (ARG)
         ___wmul (ARG)
           ___fltol (ARG)
     ___flge
     ___flmul
       __Umul8_16
       ___fldiv (ARG)
         ___xxtofl (ARG)
           ___fltol (ARG)
           ___wmul (ARG)
             ___fltol (ARG)
       ___flsub (ARG)
         ___fladd
         ___fltol (ARG)
         ___wmul (ARG)
           ___fltol (ARG)
         ___xxtofl (ARG)
           ___fltol (ARG)
           ___wmul (ARG)
             ___fltol (ARG)
       ___fltol (ARG)
       ___xxtofl (ARG)
         ___fltol (ARG)
         ___wmul (ARG)
           ___fltol (ARG)
     ___flsub
       ___fladd
       ___fltol (ARG)
       ___wmul (ARG)
         ___fltol (ARG)
       ___xxtofl (ARG)
         ___fltol (ARG)
         ___wmul (ARG)
           ___fltol (ARG)
     ___fltol
     ___wmul
       ___fltol (ARG)
     ___xxtofl
       ___fltol (ARG)
       ___wmul (ARG)
         ___fltol (ARG)
   ___fldiv
     ___xxtofl (ARG)
       ___fltol (ARG)
       ___wmul (ARG)
         ___fltol (ARG)
   ___flmul
     __Umul8_16
     ___fldiv (ARG)
       ___xxtofl (ARG)
         ___fltol (ARG)
         ___wmul (ARG)
           ___fltol (ARG)
     ___flsub (ARG)
       ___fladd
       ___fltol (ARG)
       ___wmul (ARG)
         ___fltol (ARG)
       ___xxtofl (ARG)
         ___fltol (ARG)
         ___wmul (ARG)
           ___fltol (ARG)
     ___fltol (ARG)
     ___xxtofl (ARG)
       ___fltol (ARG)
       ___wmul (ARG)
         ___fltol (ARG)
   ___xxtofl
     ___fltol (ARG)
     ___wmul (ARG)
       ___fltol (ARG)
   _mensaje
     _concatenar
       _atoi
         ___wmul
           ___fltol (ARG)
         _isdigit
       _sprintf
         __doprnt
           Absolute function(Fake) *
           ___lwdiv *
           ___lwmod *
             ___lwdiv (ARG)
           _putch *
       _strcat
     _printf
       __doprnt
         Absolute function(Fake) *
         ___lwdiv *
         ___lwmod *
           ___lwdiv (ARG)
         _putch *
   _setup
     _conf_osc
     _spiInit
   _spiRead
     _spiReceiveWait
   _spiWrite

 Address spaces:
Name               Size   Autos  Total    Cost      Usage
BANK3               60      0       0       9        0.0%
BITBANK3            60      0       0       8        0.0%
SFR3                 0      0       0       4        0.0%
BITSFR3              0      0       0       4        0.0%
BANK2               60      0       0      11        0.0%
BITBANK2            60      0       0      10        0.0%
SFR2                 0      0       0       5        0.0%
BITSFR2              0      0       0       5        0.0%
BANK1               50     13      45       7       86.2%
BITBANK1            50      0       0       6        0.0%
SFR1                 0      0       0       2        0.0%
BITSFR1              0      0       0       2        0.0%
BANK0               50     4E      50       5      100.0%
BITBANK0            50      0       0       4        0.0%
SFR0                 0      0       0       1        0.0%
BITSFR0              0      0       0       1        0.0%
COMMON               E      E       E       1      100.0%
BITCOMMON            E      0       0       0        0.0%
CODE                 0      0       0       0        0.0%
DATA                 0      0      A3      12        0.0%
ABS                  0      0      A3       3        0.0%
NULL                 0      0       0       0        0.0%
STACK                0      0       0       2        0.0%
EEDATA             100      0       0       0        0.0%


Microchip Technology PIC Macro Assembler V2.31 build 20201012212115 
Symbol Table                                                                                   Wed Aug 04 12:28:37 2021

           ___fldiv@aexp 004B             ___fldiv@bexp 004A                        pc 0002  
           ___fldiv@sign 0043              _SSPSTATbits 0094                       l11 14D8  
                     l19 14D9             ___awdiv@sign 0076                       fsr 0004  
    ___wmul@multiplicand 0022              concatenar@a 0035              concatenar@b 0037  
            concatenar@c 0062      __Umul8_16@word_mpld 0076                      l130 1732  
                    l300 1269                      l222 07E3                      l311 1283  
                    l303 1262                      l152 17FF                      l161 1440  
                    l145 1770                      l137 174C                      l155 1272  
                    l164 13C9                      l158 127A                      l293 0812  
                    l550 1540                      l294 0817                      l711 0F45  
                    l703 0FFF                      l721 0F8D                      l297 1263  
                    l571 155D                      l715 0F6B                      l732 0FF1  
                    l724 0FCD                      l805 132E                      l733 0FFF  
                    l397 134F                      l574 15C9                      l590 087C  
                    l830 1607                      l575 15E2                      l807 1340  
                    l583 0891                      l399 1367                      l736 1319  
                    l832 169E                      l593 0891                      l770 0D5B  
                    l762 0CD9                      l746 0BE7                      l690 0DCB  
                    l843 1668                      l923 12F5                      l748 0D67  
                    l844 1674                      l836 164C                      l860 008E  
                    l916 09F8                      l932 1390                      l669 1484  
                    l694 0E74                      l679 1403                      l768 0D4B  
                    l792 035B                      l696 0E49                      l865 12A5  
                    l786 03EF                      l874 12D2                      l798 03E3  
                    fsr0 0004                      indf 0000             ___flmul@aexp 005E  
           ___flmul@bexp 005F             concatenar@s1 004E             concatenar@s2 003A  
           ___flmul@sign 0059             ___flmul@temp 0064             ___flmul@prod 0060  
           ___fltol@exp1 007A             conf_osc@frec 0072                     l3000 0C5D  
                   l3010 0C88                     l3002 0C5E                     l3020 0CA5  
                   l3004 0C67                     l3012 0C8C                     l3100 00D2  
                   l3030 0CBD                     l3022 0CA9                     l3014 0C92  
                   l3006 0C79                     l3110 00EE                     l3102 00D7  
                   l3040 0CDE                     l3032 0CBE                     l3024 0CAA  
                   l3016 0C9A                     l3008 0C7A                     l3200 03C9  
                   l3120 0119                     l3112 00F3                     l3104 00DF  
                   l2400 1349                     l3042 0CE3                     l3050 0D14  
                   l3034 0CC2                     l3026 0CB3                     l3018 0C9C  
                   l3202 03D7                     l3130 01B6                     l3122 0136  
                   l3106 00E1                     l2402 1356                     l2410 1295  
                   l3060 0D4A                     l3052 0D21                     l3044 0CF1  
                   l3036 0CD6                     l3028 0CB9                     l3204 03DB  
                   l3140 0219                     l3132 01BF                     l3124 0152  
                   l3116 00FC                     l3108 00E9                     l2404 135D  
                   l3220 160F                     l3212 15E6                     l2412 1296  
                   l3300 16DC                     l3062 0D51                     l3054 0D2F  
                   l3046 0CF5                     l3206 03DC                     l3150 02B9  
                   l3142 0232                     l3134 01CF                     l3126 017E  
                   l3118 010C                     l2406 1363                     l3230 1631  
                   l3214 15EB                     l2414 129C                     l2350 1443  
                   l2342 1272                     l2430 08B3                     l2422 0895  
                   l2510 12EF                     l2502 12D6                     l3310 173D  
                   l3302 16EA                     l3064 0D55                     l3056 0D3E  
                   l3048 0D0E                     l3208 03E7                     l3160 0327  
                   l3152 02DF                     l3144 024F                     l3136 01EC  
                   l3128 019A                     l3080 00A1                     l3072 008F  
                   l2600 0DC3                     l3240 1662                     l3232 1635  
                   l3224 1618                     l3216 15EF                     l3400 05BB  
                   l2416 12A2                     l2360 145B                     l2352 1449  
                   l2344 1278                     l2440 08DB                     l2432 08BB  
                   l2424 0896                     l2504 12DA                     l2520 137B  
                   l3320 1767                     l3312 1743                     l3304 1703  
                   l3066 0D57                     l3058 0D42                     l3170 033F  
                   l3162 032B                     l3154 0307                     l3146 027C  
                   l3138 01FC                     l3090 00BD                     l3082 00A6  
                   l3074 0096                     l2610 0DE1                     l2602 0DD1  
                   l3250 1695                     l3242 166C                     l3234 1643  
                   l3226 161D                     l3218 15FF                     l3410 05FF  
                   l3402 05BB                     l2418 12A4                     l2530 001D  
                   l2362 146C                     l2354 144C                     l2370 1480  
                   l2450 091B                     l2442 08E3                     l2426 089C  
                   l2434 08C2                     l2506 12DB                     l2522 1383  
                   l2514 1369                     l3330 1795                     l3322 1776  
                   l3314 1752                     l3306 170E                     l3180 0360  
                   l3172 0340                     l3164 032C                     l3156 0310  
                   l3148 028C                     l3092 00C2                     l3084 00AB  
                   l3076 009C                     l2700 0F66                     l2620 0DF5  
                   l2612 0DE5                     l2604 0DD5                     l3252 1696  
                   l3244 1676                     l3236 1653                     l3228 162A  
                   l3420 06A5                     l3412 067C                     l3404 05C0  
                   l2540 0041                     l2532 0025                     l2524 000F  
                   l2364 1472                     l2356 1453                     l2348 1441  
                   l2380 13DA                     l2452 091F                     l2436 08C4  
                   l2428 08A4                     l2508 12DF                     l2516 136E  
                   l3332 17DA                     l3324 1785                     l3308 1738  
                   l3260 139E                     l3340 127B                     l3182 0365  
                   l3190 0396                     l3174 0344                     l3166 0335  
                   l3158 031E                     l3094 00C8                     l3086 00B3  
                   l3078 00A0                     l2710 0F79                     l2702 0F6A  
                   l2630 0E09                     l2622 0DF9                     l2614 0DE9  
                   l2606 0DD9                     l3246 168C                     l3238 165E  
                   l3430 06E3                     l3422 06B2                     l3414 0692  
                   l3406 05E1                     l3350 0408                     l2550 007E  
                   l2542 0046                     l2534 0028                     l2526 0010  
                   l2366 1473                     l2358 1457                     l2390 13F9  
                   l2382 13DE                     l2374 13CA                     l2470 0956  
                   l2462 092A                     l2454 0923                     l2438 08CC  
                   l2446 08EA                     l2518 1372                     l3334 17E8  
                   l3318 1761                     l3270 13B4                     l3262 13A7  
                   l3342 1280                     l3192 03A3                     l3184 0373  
                   l3176 0358                     l3168 033B                     l3096 00CC  
                   l3088 00B5                     l2720 0F8A                     l2704 0F6F  
                   l2712 0F7B                     l2640 0E2D                     l2632 0E0D  
                   l2624 0DFD                     l2616 0DED                     l2608 0DDD  
                   l2560 0D6F                     l3248 1691                     l3440 07C3  
                   l3432 06E9                     l3424 06B8                     l3416 069F  
                   l3408 05E7                     l3360 042B                     l3352 040A  
                   l2536 0030                     l2528 0014                     l2368 147A  
                   l2384 13E2                     l2376 13D0                     l2392 13FF  
                   l2480 0980                     l2472 095E                     l2456 0928  
                   l2448 090D                     l3328 178D                     l3280 13BE  
                   l3272 13B8                     l3264 13AD                     l3256 1391  
                   l3194 03AE                     l3186 0377                     l3098 00CD  
                   l2730 0FA9                     l2706 0F72                     l2714 0F7F  
                   l2650 0E5F                     l2642 0E4D                     l2634 0E11  
                   l2626 0E01                     l2618 0DF1                     l2570 0D84  
                   l2562 0D75                     l3442 07C9                     l3434 06FF  
                   l3426 06BD                     l3418 069F                     l3362 044C  
                   l3370 0479                     l3354 040C                     l3346 03F3  
                   l2554 008A                     l2546 006B                     l2538 0039  
                   l2386 13EC                     l2378 13D3                     l2482 09AE  
                   l2490 09D1                     l2474 096B                     l2466 0946  
                   l2802 1404                     l3530 14C1                     l3290 13C5  
                   l3282 13C1                     l3274 13B9                     l3266 13B0  
                   l3258 139D                     l3338 125E                     l3450 09FE  
                   l3196 03BD                     l3188 0390                     l2740 0FE4  
                   l2732 0FC9                     l2724 0F92                     l2716 0F80  
                   l2708 0F74                     l2652 0E6A                     l2644 0E58  
                   l2628 0E05                     l2636 0E15                     l2580 0D9C  
                   l2572 0D8C                     l2564 0D79                     l2900 084A  
                   l2396 1341                     l3436 079B                     l3428 06C2  
                   l3444 07CD                     l3380 04B3                     l3372 0482  
                   l3364 0457                     l3356 0410                     l3348 0408  
                   l2548 0077                     l2388 13F2                     l2484 09B6  
                   l2476 0973                     l2468 0950                     l3532 0902  
                   l2492 09DC                     l2804 1424                     l2820 0811  
                   l2812 0803                     l3292 13C8                     l3284 13C2  
                   l3276 13BC                     l3268 13B1                     l3460 0A22  
                   l3452 0A03                     l2830 14E4                     l3198 03C7  
                   l2750 0FFE                     l2742 0FE5                     l2734 0FD2  
                   l2726 0F97                     l2718 0F84                     l2670 0EB0  
                   l2662 0E86                     l2646 0E5A                     l2654 0E6E  
                   l2638 0E16                     l2590 0DAE                     l2582 0DA2  
                   l2574 0D8D                     l2566 0D7A                     l2558 0D68  
                   l2910 0858                     l2902 084C                     l2398 1343  
                   l3446 07D3                     l3438 07BB                     l3390 0593  
                   l3382 04B9                     l3374 0488                     l3366 0460  
                   l3358 0410                     l2486 09C3                     l2478 0979  
                   l2494 09F6                     l2806 1430                     l3294 169F  
                   l2814 080A                     l3286 13C3                     l3278 13BD  
                   l2822 1263                     l3470 0A40                     l3462 0A2C  
                   l3454 0A06                     l2840 14F5                     l2832 14E6  
                   l2824 14DA                     l2760 1337                     l2752 131B  
                   l2744 0FE9                     l2736 0FD7                     l2728 0FA5  
                   l2672 0EB2                     l2664 0E9D                     l2656 0E78  
                   l2680 0EC7                     l2648 0E5E                     l2592 0DB3  
                   l2584 0DA3                     l2568 0D7F                     l2576 0D8F  
                   l2920 0881                     l2904 0850                     l2912 086A  
                   l3392 0599                     l3384 04CF                     l3376 048D  
                   l3368 0473                     l2488 09CB                     l2808 143C  
                   l3296 16AD                     l2816 080C                     l3288 13C4  
                   l3480 0A69                     l3472 0A4A                     l3464 0A2F  
                   l3456 0A10                     l3448 09F9                     l2850 150D  
                   l2842 14FB                     l2834 14EA                     l2826 14DB  
                   l2930 0B8B                     l2762 133C                     l2754 131D  
                   l2746 0FEB                     l2738 0FDF                     l2682 0EDD  
                   l2690 0F37                     l2674 0EB6                     l2666 0EA1  
                   l2658 0E7D                     l2594 0DB8                     l2586 0DA9  
                   l2578 0D97                     l2922 0886                     l3386 056B  
                   l3378 0492                     l3394 059D                     l3298 16B8  
                   l2770 148C                     l2818 080E                     l3482 0AD4  
                   l3474 0A54                     l3466 0A30                     l3458 0A16  
                   l2852 151E                     l2844 14FE                     l2860 1532  
                   l2836 14EF                     l2828 14DF                     l2940 0BA2  
                   l2932 0B92                     l2756 1324                     l2748 0FFA  
                   l2692 0F4D                     l2684 0F1D                     l2676 0EB7  
                   l2668 0EA5                     l2596 0DC0                     l2588 0DAD  
                   l2924 12F6                     l3396 05A3                     l3388 058B  
                   l2780 14AD                     l2772 1493                     l3484 0B3F  
                   l3476 0A57                     l3468 0A3A                     l2862 1537  
                   l2854 1524                     l2846 1505                     l2838 14F3  
                   l2950 0BBA                     l2942 0BA7                     l2934 0B98  
                   l2870 1555                     l2758 1328                     l2694 0F52  
                   l2686 0F23                     l2678 0EC2                     l2598 0DC1  
                   l2926 12FA                     l2918 0871                     l3398 05B3  
                   l2782 14B2                     l2774 1498                     l2766 1486  
                   l3486 0B5F                     l3478 0A61                     l2864 153C  
                   l2856 1525                     l2848 1509                     l2960 0BCF  
                   l2952 0BBF                     l2944 0BAF                     l2936 0B9C  
                   l2880 15A5                     l2872 1571                     l2688 0F28  
                   l2792 12B9                     l2776 149F                     l2768 1487  
                   l3488 0B81                     l2858 152C                     l2970 0BEF  
                   l2962 0BD4                     l2954 0BC5                     l2946 0BB0  
                   l2938 0B9D                     l2882 15DF                     l2874 1579  
                   l2698 0F5B                     l2890 0823                     l2794 12BC  
                   l2778 14A6                     l2786 14B9                     l2980 0C0D  
                   l2972 0BFB                     l2964 0BDC                     l2956 0BC9  
                   l2948 0BB2                     l2884 15E1                     l2876 157D  
                   l2868 1541                     l2796 12C0                     l2990 0C38  
                   l2974 0BFF                     l2966 0BDD                     l2958 0BCA  
                   l2878 15A1                     l2894 082C                     l2798 12C4  
                   l2992 0C40                     l2984 0C16                     l2968 0BDF  
                   l2896 0841                     l2888 0818                     l2994 0C42  
                   l2986 0C28                     l2978 0C08                     l2898 0842  
                   l2996 0C47                     l2988 0C30                     l2998 0C59  
                   STR_1 108C                     STR_2 107A                     STR_3 109B  
                   STR_4 107A                     STR_5 101A                     STR_6 1066  
                   STR_7 1051                     STR_8 1038                     STR_9 104E  
                   u3000 0FE4                     u3001 0FE3                     u3010 0FE9  
                   u2210 145B                     u3011 0FE8                     u2211 145A  
                   u3100 14FB                     u3020 0FFE                     u3101 14FA  
                   u3021 0FFD                     u2205 144D                     u3030 1328  
                   u2230 146C                     u2310 13FF                     u3031 1327  
                   u2231 146B                     u2311 13FE                     u3120 150D  
                   u3200 157D                     u4000 03DB                     u2320 1349  
                   u2400 08CC                     u3121 150C                     u3201 157C  
                   u4001 03DA                     u2321 1348                     u2225 145C  
                   u2305 13F3                     u2401 08CB                     u3050 133C  
                   u4010 15EB                     u2250 1480                     u2410 091F  
                   u3115 14FF                     u3211 158C                     u3051 133B  
                   u4011 15EA                     u2251 147F                     u2235 1468  
                   u2411 091E                     u3140 151E                     u3220 15A5  
                   u3212 158D                     u3300 0869                     u4100 1668  
                   u4020 15EF                     u2260 13D0                     u2180 1278  
                   u2420 0945                     u2500 1390                     u3060 080A  
                   u3141 151D                     u3221 15A4                     u3213 1592  
                   u3045 132F                     u3301 0868                     u4101 1667  
                   u4021 15EE                     u2245 1474                     u2261 13CF  
                   u2181 1277                     u2421 0944                     u2501 138F  
                   u3061 0809                     u3214 1593                     u3310 0870  
                   u2350 1363                     u4110 166C                     u4030 160F  
                   u2510 001D                     u2190 1449                     u2430 0950  
                   u3070 1269                     u3135 150E                     u3231 15B4  
                   u3215 1598                     u3311 086F                     u2351 1362  
                   u2335 1350                     u4111 166B                     u4031 160E  
                   u2511 001C                     u2191 1448                     u2431 094F  
                   u3071 1268                     u3160 1532                     u3080 14DF  
                   u3400 0BD4                     u3240 15DF                     u3232 15B5  
                   u3216 1599                     u2600 0DA2                     u4120 1681  
                   u2360 129C                     u2520 0025                     u2280 13E2  
                   u2440 0956                     u4200 1776                     u3161 1531  
                   u3145 151A                     u3081 14DE                     u3401 0BD3  
                   u3241 15DE                     u3233 15BA                     u2601 0DA1  
                   u2345 1357                     u2361 129B                     u2521 0024  
                   u2281 13E1                     u2441 0955                     u2425 0941  
                   u4201 1775                     u3170 1537                     u3090 14EA  
                   u3410 0BEF                     u3234 15BB                     u2610 0DAD  
                   u3330 0881                     u3250 0823                     u4130 1691  
                   u4050 1630                     u2370 12A2                     u2530 0030  
                   u2290 13EC                     u2450 095E                     u4210 1785  
                   u3171 1536                     u3155 1526                     u3091 14E9  
                   u3411 0BEE                     u3235 15C0                     u2611 0DAC  
                   u3331 0880                     u3251 0822                     u4131 1690  
                   u4051 162F                     u2371 12A1                     u2531 002F  
                   u2291 13EB                     u2275 13D4                     u2451 095D  
                   u4211 1784                     u3500 0C9A                     u3420 0C0D  
                   u3236 15C1                     u3180 1555                     u2700 0E5E  
                   u2620 0DB3                     u3340 0886                     u3260 083A  
                   u4140 1695                     u4300 06B8                     u2540 0041  
                   u2460 09B6                     u2380 089C                     u4220 178D  
                   u3501 0C99                     u3421 0C0C                     u3245 15DB  
                   u3181 1554                     u2701 0E5D                     u2621 0DB2  
                   u3341 0885                     u3325 0873                     u4141 1694  
                   u4125 167C                     u4045 1622                     u4301 06B7  
                   u2541 0040                     u2461 09B5                     u2381 089B  
                   u4221 178C                     u3430 0C47                     u3350 0B9C  
                   u3190 1571                     u2630 0DB8                     u3270 0850  
                   u4070 1652                     u4310 06FF                     u2550 0077  
                   u2470 09DC                     u2390 08A4                     u4230 1795  
                   u4150 1738                     u3431 0C46                     u3351 0B9B  
                   u3191 1570                     u2631 0DB7                     u3271 084F  
                   u4071 1651                     u4311 06FE                     u2551 0076  
                   u2295 13E8                     u2471 09DB                     u2391 08A3  
                   u4231 1794                     u4151 1737                     u3600 0D04  
                   u3520 0CA9                     u3360 0BA2                     u2800 0EDD  
                   u2720 0E74                     u2640 0DD1                     u3280 0857  
                   u4320 07D3                     u4240 042B                     u2560 007E  
                   u2480 09F6                     u4160 1743                     u3521 0CA8  
                   u3361 0BA1                     u2801 0EDC                     u2721 0E73  
                   u2641 0DD0                     u3281 0856                     u3265 0835  
                   u4065 1644                     u4321 07D2                     u4241 042A  
                   u2561 007D                     u2481 09F5                     u4161 1742  
                   u3610 0D21                     u3370 0BA7                     u2730 0E78  
                   u2650 0DD5                     u2570 0D79                     u4090 1662  
                   u4250 0481                     u2490 137A                     u4170 1752  
                   u3611 0D20                     u3515 0C9E                     u3371 0BA6  
                   u2811 0EF6                     u2803 0ED9                     u2731 0E77  
                   u2715 0E63                     u2651 0DD4                     u2571 0D78  
                   u4091 1661                     u4315 06FB                     u4251 0480  
                   u2491 1379                     u4171 1751                     u3620 0D3E  
                   u3540 0CBD                     u3460 0C5D                     u3380 0BC9  
                   u3700 00EE                     u2900 0F7F                     u2820 0F0A  
                   u2812 0EF7                     u2740 0E7D                     u2660 0E2D  
                   u2580 0D7F                     u4260 0488                     u4180 1761  
                   u3621 0D3D                     u3605 0CFF                     u3541 0CBC  
                   u3461 0C5C                     u3445 0C49                     u3381 0BC8  
                   u3701 00ED                     u2901 0F7E                     u2821 0F0B  
                   u2813 0EFC                     u2741 0E7C                     u2661 0E2C  
                   u2581 0D7E                     u4085 1657                     u4261 0487  
                   u4181 1760                     u3630 0D55                     u3550 0CC2  
                   u3390 0BCF                     u3710 00F3                     u2910 0F84  
                   u2830 0F28                     u2822 0F10                     u2814 0EFD  
                   u2670 0E36                     u2590 0D84                     u4270 04CF  
                   u4190 1767                     u3631 0D54                     u3615 0D1D  
                   u3551 0CC1                     u3535 0CAC                     u3455 0C52  
                   u3391 0BCE                     u3711 00F2                     u2911 0F83  
                   u2831 0F27                     u2823 0F11                     u2815 0F02  
                   u2751 0E8F                     u2671 0E34                     u2591 0D83  
                   u3295 0859                     u4271 04CE                     u4191 1766  
                   u4407 16FD                     u3560 0CD6                     u3480 0C79  
                   u3640 00A0                     u2920 0F8A                     u2840 0F4D  
                   u2816 0F03                     u2760 0EA1                     u2752 0E96  
                   u2680 0E37                     u4280 05A3                     u3625 0D3A  
                   u3561 0CD5                     u3481 0C78                     u3801 0241  
                   u3721 0144                     u3641 009F                     u2921 0F89  
                   u2841 0F4C                     u2761 0EA0                     u2753 0E9D  
                   u2665 0E29                     u4281 05A2                     u4417 1716  
                   u4337 0A0C                     u3570 0CDD                     u3490 0C92  
                   u3802 0248                     u3722 014B                     u3650 00A6  
                   u2930 0F91                     u2850 0F52                     u2770 0EA5  
                   u2690 0E4D                     u4290 05FF                     u3571 0CDC  
                   u3491 0C91                     u3475 0C60                     u3811 026E  
                   u3803 024F                     u3731 0160                     u3723 0152  
                   u3651 00A5                     u2931 0F90                     u2851 0F51  
                   u2771 0EA4                     u2691 0E4C                     u4291 05FE  
                   u4275 04CB                     u4427 17E2                     u4347 0A28  
                   u3580 0CE3                     u3812 0275                     u3732 0167  
                   u3660 00AB                     u2940 0F97                     u2780 0EB6  
                   u3581 0CE2                     u3485 0C75                     u3821 029B  
                   u3813 027C                     u3741 018C                     u3733 016E  
                   u3661 00AA                     u2941 0F96                     u2781 0EB5  
                   u4357 0A36                     u3590 0CF5                     u3910 033F  
                   u3830 02C5                     u3822 02A2                     u3742 0193  
                   u3670 00CC                     u2950 0FA9                     u2870 0F6A  
                   u3591 0CF4                     u3911 033E                     u3823 02A9  
                   u3751 01A8                     u3743 019A                     u3671 00CB  
                   u2951 0FA8                     u2871 0F69                     u4295 05FB  
                   u4367 0A50                     u3920 0344                     u3752 01AF  
                   u3680 00D2                     u2960 0FBA                     u2880 0F6F  
                   u3921 0343                     u3905 032E                     u3841 02D1  
                   u3753 01B6                     u3681 00D1                     u2881 0F6E  
                   u2865 0F5F                     u4377 16A7                     u3930 0358  
                   u3850 02ED                     u3842 02D8                     u3690 00D7  
                   u2970 0FC9                     u2890 0F79                     u3931 0357  
                   u3843 02DF                     u3835 02C0                     u3771 01DE  
                   u3691 00D6                     u2971 0FC8                     u2891 0F78  
                   u2795 0EBB                     u4387 16C0                     u3940 035F  
                   u3772 01E5                     u2980 0FD2                     _RCIF 0065  
                   u3941 035E                     u3861 02F9                     u3781 020B  
                   u3773 01EC                     u3765 01B8                     u2981 0FD1  
                   u2965 0FB5                     u4397 16E4                     u3950 0365  
                   u3862 0300                     u3782 0212                     u2990 0FD7  
                   u3951 0364                     u3863 0307                     u3855 02E8  
                   u3783 0219                     u2991 0FD6                     u3960 0377  
                   u3961 0376                     u3970 0386                     u3890 032B  
                   u3891 032A                     u3875 0309                     u3795 021B  
                   u3980 03A3                     u3981 03A2                     u3885 0320  
                   u3990 03BD                     u3991 03BC                     u3975 0381  
                   u3985 039F                     u3995 03B9                     _TXIF 0064  
                   _adc0 00B8                     _adc1 00AE                     _atoi 000C  
                   _main 09F9                     _full 00A8                     _pot1 006F  
                   _pot2 00AD                     btemp 007E            ADC_convert@mu 00CF  
                   start 0000          ___fldiv@new_exp 0044     __size_of_ADC_convert 03F4  
          ___fltol@sign1 0079                    ?_atoi 0024          __end_of___fladd 1000  
                  ?_main 0070          __end_of___fldiv 0D68          __end_of___awdiv 1541  
                  STR_10 104E          __end_of___flmul 03F0          __end_of___flsub 131A  
        __end_of___fltol 0892                    _ANSEL 0188          ___awdiv@divisor 0070  
        __end_of___lwdiv 1485          __end_of___lwmod 1404          ___awdiv@counter 0075  
                  _RCREG 001A                    _SPBRG 0099                    _PORTB 0006  
                  _PORTD 0008          __end_of__doprnt 09F9                    _TRISB 0086  
                  _TRISD 0088                    _TXREG 0019                    _conv0 00A4  
                  _conv1 00A0          __end_of_dpowers 101A                    _tabla 00D5  
        __end_of_isdigit 12A6          __end_of_mensaje 1800                    atoi@a 0029  
                  _setup 1391                    atoi@s 002B                    _putch 1272  
                  fpbase 0008                    pclath 000A          __end_of_spiInit 0818  
        __end_of_spiRead 1284                    status 0003                    wtemp0 007E  
        __end_of_sprintf 12F6          __initialization 07E4             __end_of_atoi 008F  
           __end_of_main 0B8B                   ??_atoi 0026                   ??_main 00D1  
       ___awdiv@dividend 0072                   ?_setup 0070                   ?_putch 0070  
                 _ANSELH 0189                   _SPBRGH 009A                   _TRISC3 043B  
                 _TRISC5 043D                   _SSPCON 0014                   _SSPBUF 0013  
       __end_of__fptable 000C         __end_of___xxtofl 169F         __end_of_conf_osc 14DA  
                 ___flge 1541                ??___fladd 0020                   ___wmul 1341  
              ??___fldiv 003A                ??___awdiv 0074                   _decena 00AB  
              ??___flmul 0054                ??___flsub 007D                ??___fltol 0074  
              ??___lwdiv 0074                ??___lwmod 007C                ??__doprnt 0023  
       ___awdiv@quotient 0077             __doprnt@flag 0027                   _printf 12B9  
                 _unidad 00AC             __doprnt@prec 0028                   _strcat 1368  
                 fptable 0003                   fptotal 0002                ??_isdigit 0070  
              ??_mensaje 0064       __size_of__Umul8_16 0027         __end_of_spiWrite 1263  
        ADC_convert@data 00C6                ??_spiInit 0073                ??_spiRead 0070  
        ADC_convert@temp 00C2                ??_sprintf 0030               ___flge@ff1 0070  
             ___flge@ff2 0074             ___xxtofl@arg 002E             ___xxtofl@exp 002D  
           ___xxtofl@val 0024  __end_of__initialization 07FC               ___fltol@f1 0070  
         __pcstackCOMMON 0070             __pidataBANK1 1284            __end_of_setup 13CA  
          __end_of_putch 127B           _OPTION_REGbits 0081               __doprnt@ap 0022  
             __doprnt@pb 002C                  ??_setup 0074                  ??_putch 0071  
             __pbssBANK0 006E               __pbssBANK1 00A0        __end_of__Umul8_16 1341  
             __pmaintext 09F9                  ?___flge 0070                  ?___wmul 0020  
__size_of_spiReceiveWait 0007                  ?_printf 002D                  ?_strcat 0070  
              ?___xxtofl 0024               _concatenar 1404                ?_conf_osc 0070  
                _SSPSTAT 0094               __stringtab 1000            ??_ADC_convert 006C  
              ?_spiWrite 0070          __size_of___flge 00A2                  ___fladd 0D68  
                ___fldiv 0B8B                  ___awdiv 14DA                  ___flmul 008F  
                ___flsub 12F6                  ___fltol 0818          __size_of___wmul 0027  
                ___lwdiv 1441                  ___lwmod 13CA                  __doprnt 0892  
              _ANSELbits 0188                  _centena 006E                  __ptext1 125D  
                __ptext2 127B                  __ptext3 1263                  __ptext4 1391  
                __ptext5 0802                  __ptext6 1485                  __ptext7 169F  
                __ptext8 12B9                  __ptext9 1404          __size_of_printf 001A  
        __size_of_strcat 0029                  _dpowers 1010                  _isdigit 1294  
                _mensaje 169F               ??___xxtofl 0028                  _spiInit 0802  
                _spiRead 127B                  _sprintf 12D3               ??_conf_osc 0070  
                clrloop0 126B     end_of_initialization 07FC         ADC_convert@place 006A  
              _RCSTAbits 0018                  printf@f 002D               ??_spiWrite 0070  
    __end_of_ADC_convert 07E4                _PORTCbits 0007              ___fladd@grs 007B  
            ?_concatenar 0035            ___xxtofl@sign 002C              ___fldiv@grs 0046  
            ___fldiv@rem 003F              spiWrite@dat 0070              ___flmul@grs 005A  
              _TXSTAbits 0098             ADC_convert@a 0066             ADC_convert@i 00CB  
           ADC_convert@j 00C4             ADC_convert@x 00C7           _spiReceiveWait 1263  
         __end_of___flge 15E3           __end_of___wmul 1368              _BAUDCTLbits 0187  
         __end_of_printf 12D3           __end_of_strcat 1391      start_initialization 07E4  
            _ADC_convert 03F0      __size_of_concatenar 003D   __end_of_spiReceiveWait 126A  
               ??___flge 0078                 ??___wmul 007B               init_fetch0 12A6  
              __Umul8_16 131A              __doprnt@val 0029              __pdataBANK1 00D5  
               ??_printf 0031                 ??_strcat 0071                ___fladd@a 0074  
              ___fladd@b 0070                ___fldiv@a 0032                ___fldiv@b 0036  
              ___flmul@a 0050                ___flmul@b 004C                ___flsub@a 0032  
              ___flsub@b 0036                ___latbits 0002            __pcstackBANK0 0020  
          __pcstackBANK1 00C2        __size_of__fptable 0009        __size_of___xxtofl 00BC  
           _isdigit$1216 0070        __size_of_conf_osc 0055                __doprnt@c 002B  
              __doprnt@f 0020         ___lwdiv@dividend 0072          ?_spiReceiveWait 0070  
              __pfunctab 0003                 ?___fladd 0070                 ?___fldiv 0032  
               ?___awdiv 0070                 ?___flmul 004C                 ?___flsub 0032  
               ?___fltol 0070               ?__Umul8_16 0070                 ?___lwdiv 0070  
               ?___lwmod 0078                 ?__doprnt 0020        __size_of_spiWrite 0006  
              __pstrings 1000                 ?_isdigit 0070                 ?_mensaje 0070  
               ?_spiInit 0070                 ?_spiRead 0070         ___lwdiv@quotient 0075  
               ?_sprintf 002D           __size_of_setup 0039           __size_of_putch 0009  
   spiInit@sTransmitEdge 0072           ___wmul@product 007B                clear_ram0 126A  
            _concatenado 00AA                 _PIE1bits 008C       spiInit@sDataSample 0070  
               _PIR1bits 000C               _ADCON0bits 001F              __stringbase 100F  
             _ADCON1bits 009F        ___wmul@multiplier 0020             ??_concatenar 0039  
     __end_of_concatenar 1441              ??__Umul8_16 0072         __size_of___fladd 0298  
       __size_of___fldiv 01DD         __size_of___awdiv 0067         __size_of___flmul 0361  
       __size_of___flsub 0024         __size_of___fltol 007A         __size_of___lwdiv 0044  
       __size_of___lwmod 003A         __size_of__doprnt 0167       __end_of__stringtab 1010  
             _ANSELHbits 0189                 __fptable 0003                 ___xxtofl 15E3  
             strcat@from 0070         __size_of_isdigit 0012         __size_of_mensaje 0161  
        ___lwdiv@divisor 0070          ___lwdiv@counter 0077                 __ptext10 1368  
               __ptext11 12D3                 __ptext20 1341                 __ptext12 0892  
               __ptext21 0818                 __ptext13 1272                 __ptext22 12F6  
               __ptext14 13CA                 __ptext23 0D68                 __ptext15 1441  
               __ptext24 008F                 __ptext16 000C                 __ptext25 131A  
               __ptext17 1294                 __ptext26 1541                 __ptext18 03F0  
               __ptext27 0B8B                 __ptext19 15E3                 __ptext28 14DA  
       __size_of_spiInit 0016         __size_of_spiRead 0009                 _conf_osc 1485  
       __size_of_sprintf 0023            __size_of_atoi 0083            __size_of_main 0192  
           ?_ADC_convert 0066                 _spiWrite 125D             spiInit@sType 0073  
               atoi@sign 0028                 fp__putch 0009        spiInit@sClockIdle 0071  
              putch@dato 0070               _INTCONbits 000B                 init_ram0 12AA  
               isdigit@c 0071                sprintf@ap 0031                sprintf@pb 0033  
              sprintf@wh 0032         ___lwmod@dividend 007A         ??_spiReceiveWait 0070  
              stringcode 100A               _OSCCONbits 008F        ADC_convert@digits 00CD  
               printf@ap 0032                 printf@pb 0033   __Umul8_16@multiplicand 0070  
               sprintf@f 002D                 strcat@cp 0073                 strcat@to 0072  
        ___lwmod@divisor 0078          ___lwmod@counter 007D                 stringdir 100A  
               stringtab 1000            ___fladd@signs 0078             ___fladd@aexp 0079  
           ___fladd@bexp 007A     __Umul8_16@multiplier 0078        __Umul8_16@product 0074  
