

Microchip MPLAB XC8 Assembler V2.31 build 20201012212115 
                                                                                               Mon Jul 26 20:37:30 2021

Microchip MPLAB XC8 C Compiler v2.31 (Free license) build 20201012212115 Og1 
     1                           	processor	16F887
     2                           	pagewidth 120
     3                           	opt	flic
     4                           	psect	idataBANK1,global,class=CODE,delta=2,noexec
     5                           	psect	strings,global,class=STRING,delta=2,noexec
     6                           	psect	cinit,global,class=CODE,merge=1,delta=2
     7                           	psect	bssCOMMON,global,class=COMMON,space=1,delta=1,noexec
     8                           	psect	bssBANK0,global,class=BANK0,space=1,delta=1,noexec
     9                           	psect	bssBANK1,global,class=BANK1,space=1,delta=1,noexec
    10                           	psect	dataBANK1,global,class=BANK1,space=1,delta=1,noexec
    11                           	psect	inittext,global,class=CODE,delta=2
    12                           	psect	clrtext,global,class=CODE,delta=2
    13                           	psect	cstackBANK1,global,class=BANK1,space=1,delta=1,noexec
    14                           	psect	cstackCOMMON,global,class=COMMON,space=1,delta=1,noexec
    15                           	psect	cstackBANK0,global,class=BANK0,space=1,delta=1,noexec
    16                           	psect	maintext,global,class=CODE,split=1,delta=2
    17                           	psect	text1,local,class=CODE,merge=1,delta=2
    18                           	psect	text2,local,class=CODE,merge=1,delta=2
    19                           	psect	text3,local,class=CODE,merge=1,delta=2
    20                           	psect	text4,local,class=CODE,merge=1,delta=2
    21                           	psect	text5,local,class=CODE,merge=1,delta=2,group=1
    22                           	psect	text6,local,class=CODE,merge=1,delta=2
    23                           	psect	text7,local,class=CODE,merge=1,delta=2
    24                           	psect	text8,local,class=CODE,merge=1,delta=2
    25                           	psect	text9,local,class=CODE,merge=1,delta=2
    26                           	psect	text10,local,class=CODE,merge=1,delta=2
    27                           	psect	text11,local,class=CODE,merge=1,delta=2
    28                           	psect	text12,local,class=CODE,merge=1,delta=2
    29                           	psect	text13,local,class=CODE,merge=1,delta=2
    30                           	psect	text14,local,class=CODE,merge=1,delta=2
    31                           	psect	text15,local,class=CODE,merge=1,delta=2
    32                           	psect	text16,local,class=CODE,merge=1,delta=2
    33                           	psect	text17,local,class=CODE,merge=1,delta=2,group=2
    34                           	psect	text18,local,class=CODE,merge=1,delta=2,group=2
    35                           	psect	text19,local,class=CODE,merge=1,delta=2,group=2
    36                           	psect	text20,local,class=CODE,merge=1,delta=2,group=2
    37                           	psect	text21,local,class=CODE,merge=1,delta=2,group=2
    38                           	psect	text22,local,class=CODE,merge=1,delta=2,group=2
    39                           	psect	text23,local,class=CODE,merge=1,delta=2,group=2
    40                           	psect	text24,local,class=CODE,merge=1,delta=2,group=2
    41                           	psect	text25,local,class=CODE,merge=1,delta=2,group=2
    42                           	psect	text26,local,class=CODE,merge=1,delta=2,group=2
    43                           	psect	config,global,abs,ovrld,class=CONFIG,space=4,delta=2,noexec
    44                           	dabs	1,0x7E,2
    45  0000                     
    46                           ; Version 2.20
    47                           ; Generated 12/02/2020 GMT
    48                           ; 
    49                           ; Copyright © 2020, Microchip Technology Inc. and its subsidiaries ("Microchip")
    50                           ; All rights reserved.
    51                           ; 
    52                           ; This software is developed by Microchip Technology Inc. and its subsidiaries ("Microch
      +                          ip").
    53                           ; 
    54                           ; Redistribution and use in source and binary forms, with or without modification, are
    55                           ; permitted provided that the following conditions are met:
    56                           ; 
    57                           ;     1. Redistributions of source code must retain the above copyright notice, this lis
      +                          t of
    58                           ;        conditions and the following disclaimer.
    59                           ; 
    60                           ;     2. Redistributions in binary form must reproduce the above copyright notice, this 
      +                          list
    61                           ;        of conditions and the following disclaimer in the documentation and/or other
    62                           ;        materials provided with the distribution.
    63                           ; 
    64                           ;     3. Microchip's name may not be used to endorse or promote products derived from th
      +                          is
    65                           ;        software without specific prior written permission.
    66                           ; 
    67                           ; THIS SOFTWARE IS PROVIDED BY MICROCHIP "AS IS" AND ANY EXPRESS OR IMPLIED WARRANTIES,
    68                           ; INCLUDING, BUT NOT LIMITED TO, THE IMPLIED WARRANTIES OF MERCHANTABILITY AND FITNESS F
      +                          OR
    69                           ; PURPOSE ARE DISCLAIMED.  IN NO EVENT SHALL MICROCHIP BE LIABLE FOR ANY DIRECT, INDIREC
      +                          T,
    70                           ; INCIDENTAL, SPECIAL, EXEMPLARY, OR CONSEQUENTIAL DAMAGES (INCLUDING BUT NOT LIMITED TO
    71                           ; PROCUREMENT OF SUBSTITUTE GOODS OR SERVICES; LOSS OF USE, DATA OR PROFITS; OR BUSINESS
    72                           ; INTERRUPTION) HOWSOEVER CAUSED AND ON ANY THEORY OF LIABILITY, WHETHER IN CONTRACT, ST
      +                          RICT
    73                           ; LIABILITY, OR TORT (INCLUDING NEGLIGENCE OR OTHERWISE) ARISING IN ANY WAY OUT OF THE U
      +                          SE OF
    74                           ; THIS SOFTWARE, EVEN IF ADVISED OF THE POSSIBILITY OF SUCH DAMAGE.
    75                           ; 
    76                           ; 
    77                           ; Code-generator required, PIC16F887 Definitions
    78                           ; 
    79                           ; SFR Addresses
    80  0000                     	;# 
    81  0001                     	;# 
    82  0002                     	;# 
    83  0003                     	;# 
    84  0004                     	;# 
    85  0005                     	;# 
    86  0006                     	;# 
    87  0007                     	;# 
    88  0008                     	;# 
    89  0009                     	;# 
    90  000A                     	;# 
    91  000B                     	;# 
    92  000C                     	;# 
    93  000D                     	;# 
    94  000E                     	;# 
    95  000E                     	;# 
    96  000F                     	;# 
    97  0010                     	;# 
    98  0011                     	;# 
    99  0012                     	;# 
   100  0013                     	;# 
   101  0014                     	;# 
   102  0015                     	;# 
   103  0015                     	;# 
   104  0016                     	;# 
   105  0017                     	;# 
   106  0018                     	;# 
   107  0019                     	;# 
   108  001A                     	;# 
   109  001B                     	;# 
   110  001B                     	;# 
   111  001C                     	;# 
   112  001D                     	;# 
   113  001E                     	;# 
   114  001F                     	;# 
   115  0081                     	;# 
   116  0085                     	;# 
   117  0086                     	;# 
   118  0087                     	;# 
   119  0088                     	;# 
   120  0089                     	;# 
   121  008C                     	;# 
   122  008D                     	;# 
   123  008E                     	;# 
   124  008F                     	;# 
   125  0090                     	;# 
   126  0091                     	;# 
   127  0092                     	;# 
   128  0093                     	;# 
   129  0093                     	;# 
   130  0093                     	;# 
   131  0094                     	;# 
   132  0095                     	;# 
   133  0096                     	;# 
   134  0097                     	;# 
   135  0098                     	;# 
   136  0099                     	;# 
   137  009A                     	;# 
   138  009B                     	;# 
   139  009C                     	;# 
   140  009D                     	;# 
   141  009E                     	;# 
   142  009F                     	;# 
   143  0105                     	;# 
   144  0107                     	;# 
   145  0108                     	;# 
   146  0109                     	;# 
   147  010C                     	;# 
   148  010C                     	;# 
   149  010D                     	;# 
   150  010E                     	;# 
   151  010F                     	;# 
   152  0185                     	;# 
   153  0187                     	;# 
   154  0188                     	;# 
   155  0189                     	;# 
   156  018C                     	;# 
   157  018D                     	;# 
   158  0000                     	;# 
   159  0001                     	;# 
   160  0002                     	;# 
   161  0003                     	;# 
   162  0004                     	;# 
   163  0005                     	;# 
   164  0006                     	;# 
   165  0007                     	;# 
   166  0008                     	;# 
   167  0009                     	;# 
   168  000A                     	;# 
   169  000B                     	;# 
   170  000C                     	;# 
   171  000D                     	;# 
   172  000E                     	;# 
   173  000E                     	;# 
   174  000F                     	;# 
   175  0010                     	;# 
   176  0011                     	;# 
   177  0012                     	;# 
   178  0013                     	;# 
   179  0014                     	;# 
   180  0015                     	;# 
   181  0015                     	;# 
   182  0016                     	;# 
   183  0017                     	;# 
   184  0018                     	;# 
   185  0019                     	;# 
   186  001A                     	;# 
   187  001B                     	;# 
   188  001B                     	;# 
   189  001C                     	;# 
   190  001D                     	;# 
   191  001E                     	;# 
   192  001F                     	;# 
   193  0081                     	;# 
   194  0085                     	;# 
   195  0086                     	;# 
   196  0087                     	;# 
   197  0088                     	;# 
   198  0089                     	;# 
   199  008C                     	;# 
   200  008D                     	;# 
   201  008E                     	;# 
   202  008F                     	;# 
   203  0090                     	;# 
   204  0091                     	;# 
   205  0092                     	;# 
   206  0093                     	;# 
   207  0093                     	;# 
   208  0093                     	;# 
   209  0094                     	;# 
   210  0095                     	;# 
   211  0096                     	;# 
   212  0097                     	;# 
   213  0098                     	;# 
   214  0099                     	;# 
   215  009A                     	;# 
   216  009B                     	;# 
   217  009C                     	;# 
   218  009D                     	;# 
   219  009E                     	;# 
   220  009F                     	;# 
   221  0105                     	;# 
   222  0107                     	;# 
   223  0108                     	;# 
   224  0109                     	;# 
   225  010C                     	;# 
   226  010C                     	;# 
   227  010D                     	;# 
   228  010E                     	;# 
   229  010F                     	;# 
   230  0185                     	;# 
   231  0187                     	;# 
   232  0188                     	;# 
   233  0189                     	;# 
   234  018C                     	;# 
   235  018D                     	;# 
   236  0000                     	;# 
   237  0001                     	;# 
   238  0002                     	;# 
   239  0003                     	;# 
   240  0004                     	;# 
   241  0005                     	;# 
   242  0006                     	;# 
   243  0007                     	;# 
   244  0008                     	;# 
   245  0009                     	;# 
   246  000A                     	;# 
   247  000B                     	;# 
   248  000C                     	;# 
   249  000D                     	;# 
   250  000E                     	;# 
   251  000E                     	;# 
   252  000F                     	;# 
   253  0010                     	;# 
   254  0011                     	;# 
   255  0012                     	;# 
   256  0013                     	;# 
   257  0014                     	;# 
   258  0015                     	;# 
   259  0015                     	;# 
   260  0016                     	;# 
   261  0017                     	;# 
   262  0018                     	;# 
   263  0019                     	;# 
   264  001A                     	;# 
   265  001B                     	;# 
   266  001B                     	;# 
   267  001C                     	;# 
   268  001D                     	;# 
   269  001E                     	;# 
   270  001F                     	;# 
   271  0081                     	;# 
   272  0085                     	;# 
   273  0086                     	;# 
   274  0087                     	;# 
   275  0088                     	;# 
   276  0089                     	;# 
   277  008C                     	;# 
   278  008D                     	;# 
   279  008E                     	;# 
   280  008F                     	;# 
   281  0090                     	;# 
   282  0091                     	;# 
   283  0092                     	;# 
   284  0093                     	;# 
   285  0093                     	;# 
   286  0093                     	;# 
   287  0094                     	;# 
   288  0095                     	;# 
   289  0096                     	;# 
   290  0097                     	;# 
   291  0098                     	;# 
   292  0099                     	;# 
   293  009A                     	;# 
   294  009B                     	;# 
   295  009C                     	;# 
   296  009D                     	;# 
   297  009E                     	;# 
   298  009F                     	;# 
   299  0105                     	;# 
   300  0107                     	;# 
   301  0108                     	;# 
   302  0109                     	;# 
   303  010C                     	;# 
   304  010C                     	;# 
   305  010D                     	;# 
   306  010E                     	;# 
   307  010F                     	;# 
   308  0185                     	;# 
   309  0187                     	;# 
   310  0188                     	;# 
   311  0189                     	;# 
   312  018C                     	;# 
   313  018D                     	;# 
   314  0000                     	;# 
   315  0001                     	;# 
   316  0002                     	;# 
   317  0003                     	;# 
   318  0004                     	;# 
   319  0005                     	;# 
   320  0006                     	;# 
   321  0007                     	;# 
   322  0008                     	;# 
   323  0009                     	;# 
   324  000A                     	;# 
   325  000B                     	;# 
   326  000C                     	;# 
   327  000D                     	;# 
   328  000E                     	;# 
   329  000E                     	;# 
   330  000F                     	;# 
   331  0010                     	;# 
   332  0011                     	;# 
   333  0012                     	;# 
   334  0013                     	;# 
   335  0014                     	;# 
   336  0015                     	;# 
   337  0015                     	;# 
   338  0016                     	;# 
   339  0017                     	;# 
   340  0018                     	;# 
   341  0019                     	;# 
   342  001A                     	;# 
   343  001B                     	;# 
   344  001B                     	;# 
   345  001C                     	;# 
   346  001D                     	;# 
   347  001E                     	;# 
   348  001F                     	;# 
   349  0081                     	;# 
   350  0085                     	;# 
   351  0086                     	;# 
   352  0087                     	;# 
   353  0088                     	;# 
   354  0089                     	;# 
   355  008C                     	;# 
   356  008D                     	;# 
   357  008E                     	;# 
   358  008F                     	;# 
   359  0090                     	;# 
   360  0091                     	;# 
   361  0092                     	;# 
   362  0093                     	;# 
   363  0093                     	;# 
   364  0093                     	;# 
   365  0094                     	;# 
   366  0095                     	;# 
   367  0096                     	;# 
   368  0097                     	;# 
   369  0098                     	;# 
   370  0099                     	;# 
   371  009A                     	;# 
   372  009B                     	;# 
   373  009C                     	;# 
   374  009D                     	;# 
   375  009E                     	;# 
   376  009F                     	;# 
   377  0105                     	;# 
   378  0107                     	;# 
   379  0108                     	;# 
   380  0109                     	;# 
   381  010C                     	;# 
   382  010C                     	;# 
   383  010D                     	;# 
   384  010E                     	;# 
   385  010F                     	;# 
   386  0185                     	;# 
   387  0187                     	;# 
   388  0188                     	;# 
   389  0189                     	;# 
   390  018C                     	;# 
   391  018D                     	;# 
   392                           
   393                           	psect	idataBANK1
   394  0000'                    __pidataBANK1:
   395                           
   396                           ;initializer for _tabla
   397  0000' 343F               	retlw	63
   398  0001' 3406               	retlw	6
   399  0002' 345B               	retlw	91
   400  0003' 344F               	retlw	79
   401  0004' 3466               	retlw	102
   402  0005' 346D               	retlw	109
   403  0006' 347D               	retlw	125
   404  0007' 3407               	retlw	7
   405  0008' 347F               	retlw	127
   406  0009' 3467               	retlw	103
   407  000A' 3477               	retlw	119
   408  000B' 347C               	retlw	124
   409  000C' 3439               	retlw	57
   410  000D' 345E               	retlw	94
   411  000E' 3479               	retlw	121
   412  000F' 3471               	retlw	113
   413  0009                     _PORTEbits	set	9
   414  000B                     _INTCONbits	set	11
   415  0018                     _RCSTAbits	set	24
   416  0008                     _PORTD	set	8
   417  0007                     _PORTC	set	7
   418  0006                     _PORTB	set	6
   419  0005                     _PORTA	set	5
   420  0019                     _TXREG	set	25
   421  001E                     _ADRESH	set	30
   422  000C                     _PIR1bits	set	12
   423  001F                     _ADCON0bits	set	31
   424  0064                     _TXIF	set	100
   425  009A                     _SPBRGH	set	154
   426  0099                     _SPBRG	set	153
   427  0098                     _TXSTAbits	set	152
   428  0089                     _TRISE	set	137
   429  0088                     _TRISD	set	136
   430  0087                     _TRISC	set	135
   431  0086                     _TRISB	set	134
   432  0085                     _TRISA	set	133
   433  008C                     _PIE1bits	set	140
   434  009F                     _ADCON1bits	set	159
   435  0081                     _OPTION_REGbits	set	129
   436  008F                     _OSCCONbits	set	143
   437  0187                     _BAUDCTLbits	set	391
   438  0189                     _ANSELH	set	393
   439  0188                     _ANSEL	set	392
   440  0189                     _ANSELHbits	set	393
   441  0188                     _ANSELbits	set	392
   442                           
   443                           	psect	strings
   444  0000'                    __pstrings:
   445  0000'                    stringtab:
   446  0000'                    __stringtab:
   447                           
   448                           ;	String table - string pointers are 1 byte each
   449  0000' 1BFF               	btfsc	btemp+1,7
   450  0001' 2800'              	ljmp	stringcode
   451  0002' 1383               	bcf	3,7
   452  0003' 187F               	btfsc	btemp+1,0
   453  0004' 1783               	bsf	3,7
   454  0005' 0800               	movf	0,w
   455  0006' 0A84               	incf	4,f
   456  0007' 1903               	skipnz
   457  0008' 0AFF               	incf	btemp+1,f
   458  0009' 0008               	return
   459  000A'                    stringcode:
   460  000A'                    stringdir:
   461  000A' 3000'              	movlw	high stringdir
   462  000B' 008A               	movwf	10
   463  000C' 0804               	movf	4,w
   464  000D' 0A84               	incf	4,f
   465  000E' 0782               	addwf	2,f
   466  000F'                    __stringbase:
   467  000F' 3400               	retlw	0
   468  0010'                    __end_of__stringtab:
   469  0010'                    STR_6:
   470  0010' 340D               	retlw	13
   471  0011' 3420               	retlw	32	;' '
   472  0012' 3476               	retlw	118	;'v'
   473  0013' 346F               	retlw	111	;'o'
   474  0014' 346C               	retlw	108	;'l'
   475  0015' 3474               	retlw	116	;'t'
   476  0016' 3461               	retlw	97	;'a'
   477  0017' 346A               	retlw	106	;'j'
   478  0018' 3465               	retlw	101	;'e'
   479  0019' 3420               	retlw	32	;' '
   480  001A' 3431               	retlw	49	;'1'
   481  001B' 343A               	retlw	58	;':'
   482  001C' 3420               	retlw	32	;' '
   483  001D' 340D               	retlw	13
   484  001E' 3400               	retlw	0
   485  001F'                    STR_7:
   486  001F' 340D               	retlw	13
   487  0020' 3420               	retlw	32	;' '
   488  0021' 3476               	retlw	118	;'v'
   489  0022' 346F               	retlw	111	;'o'
   490  0023' 346C               	retlw	108	;'l'
   491  0024' 3474               	retlw	116	;'t'
   492  0025' 3461               	retlw	97	;'a'
   493  0026' 346A               	retlw	106	;'j'
   494  0027' 3465               	retlw	101	;'e'
   495  0028' 3420               	retlw	32	;' '
   496  0029' 3432               	retlw	50	;'2'
   497  002A' 343A               	retlw	58	;':'
   498  002B' 3420               	retlw	32	;' '
   499  002C' 340D               	retlw	13
   500  002D' 3400               	retlw	0
   501  002E'                    STR_1:
   502  002E' 3453               	retlw	83	;'S'
   503  002F' 3431               	retlw	49	;'1'
   504  0030' 343A               	retlw	58	;':'
   505  0031' 3400               	retlw	0
   506  0032'                    STR_2:
   507  0032' 3453               	retlw	83	;'S'
   508  0033' 3432               	retlw	50	;'2'
   509  0034' 343A               	retlw	58	;':'
   510  0035' 3400               	retlw	0
   511  0036'                    STR_3:
   512  0036' 3453               	retlw	83	;'S'
   513  0037' 3433               	retlw	51	;'3'
   514  0038' 343A               	retlw	58	;':'
   515  0039' 3400               	retlw	0
   516  003A'                    STR_4:
   517  003A' 3456               	retlw	86	;'V'
   518  003B' 3400               	retlw	0
   519  003A'                    
   520                           	psect	cinit
   521  0000'                    start_initialization:	
   522                           ; #config settings
   523                           
   524  0000'                    __initialization:
   525                           
   526                           ; Initialize objects allocated to BANK1
   527  0000' 1383               	bcf	3,7	;select IRP bank0
   528  0001' 3000'              	movlw	low (__pdataBANK1+16)
   529  0002' 00FD               	movwf	btemp+-1
   530  0003' 3000'              	movlw	high __pidataBANK1
   531  0004' 00FE               	movwf	btemp
   532  0005' 3000'              	movlw	low __pidataBANK1
   533  0006' 00FF               	movwf	btemp+1
   534  0007' 3000'              	movlw	low __pdataBANK1
   535  0008' 0084               	movwf	4
   536  0009' 120A' 118A' 2000' 120A' 118A' 	fcall	init_ram0
   537                           
   538                           ; Clear objects allocated to BANK1
   539  000E' 3000'              	movlw	low __pbssBANK1
   540  000F' 0084               	movwf	4
   541  0010' 3000'              	movlw	low (__pbssBANK1+43)
   542  0011' 120A' 118A' 2000' 120A' 118A' 	fcall	clear_ram0
   543                           
   544                           ; Clear objects allocated to BANK0
   545  0016' 0180'              	clrf	__pbssBANK0& (0+127)
   546  0017' 0180'              	clrf	(__pbssBANK0+1)& (0+127)
   547                           
   548                           ; Clear objects allocated to COMMON
   549  0018' 0180'              	clrf	__pbssCOMMON& (0+127)
   550  0019'                    end_of_initialization:	
   551                           ;End of C runtime variable initialization code
   552                           
   553  0019'                    __end_of__initialization:
   554  0019' 0183               	clrf	3
   555  001A' 120A' 118A' 2800'  	ljmp	_main	;jump to C main() function
   556                           
   557                           	psect	bssCOMMON
   558  0000'                    __pbssCOMMON:
   559  0000'                    _var_adc0:
   560  0000'                    	ds	1
   561                           
   562                           	psect	bssBANK0
   563  0000'                    __pbssBANK0:
   564  0000'                    _var_adc1:
   565  0000'                    	ds	1
   566  0001'                    _canal_flag:
   567  0001'                    	ds	1
   568                           
   569                           	psect	bssBANK1
   570  0000'                    __pbssBANK1:
   571  0000'                    _string_uart:
   572  0000'                    	ds	10
   573  000A'                    _conv1:
   574  000A'                    	ds	4
   575  000E'                    _conv0:
   576  000E'                    	ds	4
   577  0012'                    _cont_uart:
   578  0012'                    	ds	4
   579  0016'                    _valor_uart:
   580  0016'                    	ds	1
   581  0017'                    _adc1:
   582  0017'                    	ds	10
   583  0021'                    _adc0:
   584  0021'                    	ds	10
   585                           
   586                           	psect	dataBANK1
   587  0000'                    __pdataBANK1:
   588  0000'                    _tabla:
   589  0000'                    	ds	16
   590                           
   591                           	psect	inittext
   592  0000'                    init_fetch0:	
   593                           ;	Called with low address in FSR and high address in W
   594                           
   595  0000' 087E               	movf	btemp,w
   596  0001' 008A               	movwf	10
   597  0002' 087F               	movf	btemp+1,w
   598  0003' 0082               	movwf	2
   599  0004'                    init_ram0:	
   600                           ;Called with:
   601                           ;	high address of idata address in btemp 
   602                           ;	low address of idata address in btemp+1 
   603                           ;	low address of data in FSR
   604                           ;	high address + 1 of data in btemp-1
   605                           
   606  0004' 120A' 118A' 2000' 120A' 118A' 	fcall	init_fetch0
   607  0009' 0080               	movwf	0
   608  000A' 0A84               	incf	4,f
   609  000B' 0804               	movf	4,w
   610  000C' 067D               	xorwf	btemp+-1,w
   611  000D' 1903               	btfsc	3,2
   612  000E' 3400               	retlw	0
   613  000F' 0AFF               	incf	btemp+1,f
   614  0010' 1903               	btfsc	3,2
   615  0011' 0AFE               	incf	btemp,f
   616  0012' 2800'              	goto	init_ram0
   617                           
   618                           	psect	clrtext
   619  0000'                    clear_ram0:	
   620                           ;	Called with FSR containing the base address, and
   621                           ;	W with the last address+1
   622                           
   623  0000' 0064               	clrwdt	;clear the watchdog before getting into this loop
   624  0001'                    clrloop0:
   625  0001' 0180               	clrf	0	;clear RAM location pointed to by FSR
   626  0002' 0A84               	incf	4,f	;increment pointer
   627  0003' 0604               	xorwf	4,w	;XOR with final address
   628  0004' 1903               	btfsc	3,2	;have we reached the end yet?
   629  0005' 3400               	retlw	0	;all done for this memory range, return
   630  0006' 0604               	xorwf	4,w	;XOR again to restore value
   631  0007' 2800'              	goto	clrloop0	;do the next byte
   632                           
   633                           	psect	cstackBANK1
   634  0000'                    __pcstackBANK1:
   635  0000'                    ADC_convert@temp:
   636                           
   637                           ; 2 bytes @ 0x0
   638  0000'                    	ds	2
   639  0002'                    ADC_convert@j:
   640                           
   641                           ; 2 bytes @ 0x2
   642  0002'                    	ds	2
   643  0004'                    ADC_convert@data:
   644                           
   645                           ; 1 bytes @ 0x4
   646  0004'                    	ds	1
   647  0005'                    ADC_convert@x:
   648                           
   649                           ; 4 bytes @ 0x5
   650  0005'                    	ds	4
   651  0009'                    ADC_convert@i:
   652                           
   653                           ; 2 bytes @ 0x9
   654  0009'                    	ds	2
   655  000B'                    ADC_convert@digits:
   656                           
   657                           ; 2 bytes @ 0xB
   658  000B'                    	ds	2
   659  000D'                    ADC_convert@mu:
   660                           
   661                           ; 2 bytes @ 0xD
   662  000D'                    	ds	2
   663  000F'                    ??_main:
   664                           
   665                           ; 1 bytes @ 0xF
   666  000F'                    	ds	4
   667                           
   668                           	psect	cstackCOMMON
   669  0000'                    __pcstackCOMMON:
   670  0000'                    ?___flge:
   671  0000'                    ?_setup:	
   672                           ; 1 bit 
   673                           
   674  0000'                    ?_Lcd_Init:	
   675                           ; 1 bytes @ 0x0
   676                           
   677  0000'                    ?_Lcd_Clear:	
   678                           ; 1 bytes @ 0x0
   679                           
   680  0000'                    ?_mensaje:	
   681                           ; 1 bytes @ 0x0
   682                           
   683  0000'                    ??___delay_:	
   684                           ; 1 bytes @ 0x0
   685                           
   686  0000'                    ?_conf_osc:	
   687                           ; 1 bytes @ 0x0
   688                           
   689  0000'                    ??_conf_osc:	
   690                           ; 1 bytes @ 0x0
   691                           
   692  0000'                    ?_conf_ADC:	
   693                           ; 1 bytes @ 0x0
   694                           
   695  0000'                    ?_canal_ADC:	
   696                           ; 1 bytes @ 0x0
   697                           
   698  0000'                    ??_canal_ADC:	
   699                           ; 1 bytes @ 0x0
   700                           
   701  0000'                    ?_Select_ch:	
   702                           ; 1 bytes @ 0x0
   703                           
   704  0000'                    ??_Select_ch:	
   705                           ; 1 bytes @ 0x0
   706                           
   707  0000'                    ?_main:	
   708                           ; 1 bytes @ 0x0
   709                           
   710  0000'                    ?_putch:	
   711                           ; 1 bytes @ 0x0
   712                           
   713  0000'                    ??_putch:	
   714                           ; 1 bytes @ 0x0
   715                           
   716  0000'                    ?_Lcd_Port:	
   717                           ; 1 bytes @ 0x0
   718                           
   719  0000'                    ??_Lcd_Port:	
   720                           ; 1 bytes @ 0x0
   721                           
   722  0000'                    ?_Lcd_Cmd:	
   723                           ; 1 bytes @ 0x0
   724                           
   725  0000'                    ?_Lcd_Write_Char:	
   726                           ; 1 bytes @ 0x0
   727                           
   728  0000'                    ?___delay_:	
   729                           ; 1 bytes @ 0x0
   730                           
   731  0000'                    ?__Umul8_16:	
   732                           ; 2 bytes @ 0x0
   733                           
   734  0000'                    ?___awdiv:	
   735                           ; 2 bytes @ 0x0
   736                           
   737  0000'                    ?___fltol:	
   738                           ; 2 bytes @ 0x0
   739                           
   740  0000'                    ?___fladd:	
   741                           ; 4 bytes @ 0x0
   742                           
   743  0000'                    conf_ADC@isr:	
   744                           ; 4 bytes @ 0x0
   745                           
   746  0000'                    putch@dato:	
   747                           ; 1 bytes @ 0x0
   748                           
   749  0000'                    Lcd_Port@a:	
   750                           ; 1 bytes @ 0x0
   751                           
   752  0000'                    __Umul8_16@multiplicand:	
   753                           ; 1 bytes @ 0x0
   754                           
   755  0000'                    ___awdiv@divisor:	
   756                           ; 1 bytes @ 0x0
   757                           
   758  0000'                    ___flge@ff1:	
   759                           ; 2 bytes @ 0x0
   760                           
   761  0000'                    ___fltol@f1:	
   762                           ; 4 bytes @ 0x0
   763                           
   764  0000'                    ___fladd@b:	
   765                           ; 4 bytes @ 0x0
   766                           
   767                           
   768                           ; 4 bytes @ 0x0
   769  0000'                    	ds	1
   770  0001'                    ??_Lcd_Cmd:
   771  0001'                    ??_Lcd_Write_Char:	
   772                           ; 1 bytes @ 0x1
   773                           
   774  0001'                    ?_printf:	
   775                           ; 1 bytes @ 0x1
   776                           
   777  0001'                    conf_ADC@Vref:	
   778                           ; 2 bytes @ 0x1
   779                           
   780  0001'                    printf@f:	
   781                           ; 1 bytes @ 0x1
   782                           
   783                           
   784                           ; 2 bytes @ 0x1
   785  0001'                    	ds	1
   786  0002'                    ??__Umul8_16:
   787  0002'                    conf_osc@frec:	
   788                           ; 1 bytes @ 0x2
   789                           
   790  0002'                    conf_ADC@justRL:	
   791                           ; 1 bytes @ 0x2
   792                           
   793  0002'                    canal_ADC@channel:	
   794                           ; 1 bytes @ 0x2
   795                           
   796  0002'                    Select_ch@channel:	
   797                           ; 1 bytes @ 0x2
   798                           
   799  0002'                    Lcd_Write_Char@a:	
   800                           ; 1 bytes @ 0x2
   801                           
   802  0002'                    ___awdiv@dividend:	
   803                           ; 1 bytes @ 0x2
   804                           
   805                           
   806                           ; 2 bytes @ 0x2
   807  0002'                    	ds	1
   808  0003'                    ?_Lcd_Write_String:
   809  0003'                    ??_printf:	
   810                           ; 1 bytes @ 0x3
   811                           
   812  0003'                    ??_conf_ADC:	
   813                           ; 1 bytes @ 0x3
   814                           
   815  0003'                    Lcd_Cmd@a:	
   816                           ; 1 bytes @ 0x3
   817                           
   818  0003'                    Lcd_Write_String@a:	
   819                           ; 1 bytes @ 0x3
   820                           
   821                           
   822                           ; 2 bytes @ 0x3
   823  0003'                    	ds	1
   824  0004'                    ??_Lcd_Init:
   825  0004'                    ??_Lcd_Clear:	
   826                           ; 1 bytes @ 0x4
   827                           
   828  0004'                    ?_Lcd_Set_Cursor:	
   829                           ; 1 bytes @ 0x4
   830                           
   831  0004'                    ??___awdiv:	
   832                           ; 1 bytes @ 0x4
   833                           
   834  0004'                    ??___fltol:	
   835                           ; 1 bytes @ 0x4
   836                           
   837  0004'                    Lcd_Set_Cursor@b:	
   838                           ; 1 bytes @ 0x4
   839                           
   840  0004'                    __Umul8_16@product:	
   841                           ; 1 bytes @ 0x4
   842                           
   843  0004'                    ___flge@ff2:	
   844                           ; 2 bytes @ 0x4
   845                           
   846  0004'                    ___fladd@a:	
   847                           ; 4 bytes @ 0x4
   848                           
   849                           
   850                           ; 4 bytes @ 0x4
   851  0004'                    	ds	1
   852  0005'                    ??_Lcd_Set_Cursor:
   853  0005'                    ??_Lcd_Write_String:	
   854                           ; 1 bytes @ 0x5
   855                           
   856  0005'                    conf_ADC@adcFrec:	
   857                           ; 1 bytes @ 0x5
   858                           
   859  0005'                    ___awdiv@counter:	
   860                           ; 1 bytes @ 0x5
   861                           
   862                           
   863                           ; 1 bytes @ 0x5
   864  0005'                    	ds	1
   865  0006'                    ??_setup:
   866  0006'                    Lcd_Set_Cursor@a:	
   867                           ; 1 bytes @ 0x6
   868                           
   869  0006'                    ___awdiv@sign:	
   870                           ; 1 bytes @ 0x6
   871                           
   872  0006'                    __Umul8_16@word_mpld:	
   873                           ; 1 bytes @ 0x6
   874                           
   875                           
   876                           ; 2 bytes @ 0x6
   877  0006'                    	ds	1
   878  0007'                    Lcd_Set_Cursor@temp:
   879  0007'                    printf@ap:	
   880                           ; 1 bytes @ 0x7
   881                           
   882  0007'                    ___awdiv@quotient:	
   883                           ; 1 bytes @ 0x7
   884                           
   885                           
   886                           ; 2 bytes @ 0x7
   887  0007'                    	ds	1
   888  0008'                    ??___flge:
   889  0008'                    ___fladd@signs:	
   890                           ; 1 bytes @ 0x8
   891                           
   892  0008'                    __Umul8_16@multiplier:	
   893                           ; 1 bytes @ 0x8
   894                           
   895  0008'                    Lcd_Write_String@i:	
   896                           ; 1 bytes @ 0x8
   897                           
   898                           
   899                           ; 2 bytes @ 0x8
   900  0008'                    	ds	1
   901  0009'                    printf@c:
   902  0009'                    ___fltol@sign1:	
   903                           ; 1 bytes @ 0x9
   904                           
   905  0009'                    ___fladd@aexp:	
   906                           ; 1 bytes @ 0x9
   907                           
   908                           
   909                           ; 1 bytes @ 0x9
   910  0009'                    	ds	1
   911  000A'                    ??_mensaje:
   912  000A'                    ___fltol@exp1:	
   913                           ; 1 bytes @ 0xA
   914                           
   915  000A'                    ___fladd@bexp:	
   916                           ; 1 bytes @ 0xA
   917                           
   918                           
   919                           ; 1 bytes @ 0xA
   920  000A'                    	ds	1
   921  000B'                    ??___wmul:
   922  000B'                    ___fladd@grs:	
   923                           ; 1 bytes @ 0xB
   924                           
   925  000B'                    ___wmul@product:	
   926                           ; 1 bytes @ 0xB
   927                           
   928                           
   929                           ; 2 bytes @ 0xB
   930  000B'                    	ds	2
   931  000D'                    ??___flsub:
   932                           
   933                           	psect	cstackBANK0
   934  0000'                    __pcstackBANK0:	
   935                           ; 1 bytes @ 0xD
   936                           
   937  0000'                    ??___fladd:
   938  0000'                    ?___wmul:	
   939                           ; 1 bytes @ 0x0
   940                           
   941  0000'                    ___wmul@multiplier:	
   942                           ; 2 bytes @ 0x0
   943                           
   944                           
   945                           ; 2 bytes @ 0x0
   946  0000'                    	ds	2
   947  0002'                    ___wmul@multiplicand:
   948                           
   949                           ; 2 bytes @ 0x2
   950  0002'                    	ds	2
   951  0004'                    ?___xxtofl:
   952  0004'                    ___xxtofl@val:	
   953                           ; 4 bytes @ 0x4
   954                           
   955                           
   956                           ; 4 bytes @ 0x4
   957  0004'                    	ds	4
   958  0008'                    ??___xxtofl:
   959                           
   960                           ; 1 bytes @ 0x8
   961  0008'                    	ds	4
   962  000C'                    ___xxtofl@sign:
   963                           
   964                           ; 1 bytes @ 0xC
   965  000C'                    	ds	1
   966  000D'                    ___xxtofl@exp:
   967                           
   968                           ; 1 bytes @ 0xD
   969  000D'                    	ds	1
   970  000E'                    ___xxtofl@arg:
   971                           
   972                           ; 4 bytes @ 0xE
   973  000E'                    	ds	4
   974  0012'                    ?___flsub:
   975  0012'                    ?___fldiv:	
   976                           ; 4 bytes @ 0x12
   977                           
   978  0012'                    ___flsub@a:	
   979                           ; 4 bytes @ 0x12
   980                           
   981  0012'                    ___fldiv@a:	
   982                           ; 4 bytes @ 0x12
   983                           
   984                           
   985                           ; 4 bytes @ 0x12
   986  0012'                    	ds	4
   987  0016'                    ___flsub@b:
   988  0016'                    ___fldiv@b:	
   989                           ; 4 bytes @ 0x16
   990                           
   991                           
   992                           ; 4 bytes @ 0x16
   993  0016'                    	ds	4
   994  001A'                    ??___fldiv:
   995                           
   996                           ; 1 bytes @ 0x1A
   997  001A'                    	ds	5
   998  001F'                    ___fldiv@rem:
   999                           
  1000                           ; 4 bytes @ 0x1F
  1001  001F'                    	ds	4
  1002  0023'                    ___fldiv@sign:
  1003                           
  1004                           ; 1 bytes @ 0x23
  1005  0023'                    	ds	1
  1006  0024'                    ___fldiv@new_exp:
  1007                           
  1008                           ; 2 bytes @ 0x24
  1009  0024'                    	ds	2
  1010  0026'                    ___fldiv@grs:
  1011                           
  1012                           ; 4 bytes @ 0x26
  1013  0026'                    	ds	4
  1014  002A'                    ___fldiv@bexp:
  1015                           
  1016                           ; 1 bytes @ 0x2A
  1017  002A'                    	ds	1
  1018  002B'                    ___fldiv@aexp:
  1019                           
  1020                           ; 1 bytes @ 0x2B
  1021  002B'                    	ds	1
  1022  002C'                    ?___flmul:
  1023  002C'                    ___flmul@b:	
  1024                           ; 4 bytes @ 0x2C
  1025                           
  1026                           
  1027                           ; 4 bytes @ 0x2C
  1028  002C'                    	ds	4
  1029  0030'                    ___flmul@a:
  1030                           
  1031                           ; 4 bytes @ 0x30
  1032  0030'                    	ds	4
  1033  0034'                    ??___flmul:
  1034                           
  1035                           ; 1 bytes @ 0x34
  1036  0034'                    	ds	5
  1037  0039'                    ___flmul@sign:
  1038                           
  1039                           ; 1 bytes @ 0x39
  1040  0039'                    	ds	1
  1041  003A'                    ___flmul@grs:
  1042                           
  1043                           ; 4 bytes @ 0x3A
  1044  003A'                    	ds	4
  1045  003E'                    ___flmul@aexp:
  1046                           
  1047                           ; 1 bytes @ 0x3E
  1048  003E'                    	ds	1
  1049  003F'                    ___flmul@bexp:
  1050                           
  1051                           ; 1 bytes @ 0x3F
  1052  003F'                    	ds	1
  1053  0040'                    ___flmul@prod:
  1054                           
  1055                           ; 4 bytes @ 0x40
  1056  0040'                    	ds	4
  1057  0044'                    ___flmul@temp:
  1058                           
  1059                           ; 2 bytes @ 0x44
  1060  0044'                    	ds	2
  1061  0046'                    ?_ADC_convert:
  1062  0046'                    ADC_convert@a:	
  1063                           ; 1 bytes @ 0x46
  1064                           
  1065                           
  1066                           ; 4 bytes @ 0x46
  1067  0046'                    	ds	4
  1068  004A'                    ADC_convert@place:
  1069                           
  1070                           ; 2 bytes @ 0x4A
  1071  004A'                    	ds	2
  1072  004C'                    ??_ADC_convert:
  1073                           
  1074                           ; 1 bytes @ 0x4C
  1075  004C'                    	ds	2
  1076                           
  1077                           	psect	maintext
  1078  0000'                    __pmaintext:	
  1079 ;;
  1080 ;;Main: autosize = 0, tempsize = 4, incstack = 0, save=0
  1081 ;;
  1082 ;; *************** function _main *****************
  1083 ;; Defined at:
  1084 ;;		line 53 in file "Lab02.c"
  1085 ;; Parameters:    Size  Location     Type
  1086 ;;		None
  1087 ;; Auto vars:     Size  Location     Type
  1088 ;;		None
  1089 ;; Return value:  Size  Location     Type
  1090 ;;                  1    wreg      void 
  1091 ;; Registers used:
  1092 ;;		wreg, fsr0l, fsr0h, fsr1l, fsr1h, fsr1l, fsr1h, status,2, status,0, btemp+1, pclath, cstack
  1093 ;; Tracked objects:
  1094 ;;		On entry : B00/0
  1095 ;;		On exit  : 0/0
  1096 ;;		Unchanged: 0/0
  1097 ;; Data sizes:     COMMON   BANK0   BANK1   BANK3   BANK2
  1098 ;;      Params:         0       0       0       0       0
  1099 ;;      Locals:         0       0       0       0       0
  1100 ;;      Temps:          0       0       4       0       0
  1101 ;;      Totals:         0       0       4       0       0
  1102 ;;Total ram usage:        4 bytes
  1103 ;; Hardware stack levels required when called:    3
  1104 ;; This function calls:
  1105 ;;		_ADC_convert
  1106 ;;		_Lcd_Clear
  1107 ;;		_Lcd_Init
  1108 ;;		_Lcd_Set_Cursor
  1109 ;;		_Lcd_Write_String
  1110 ;;		_Select_ch
  1111 ;;		___fldiv
  1112 ;;		___flmul
  1113 ;;		___xxtofl
  1114 ;;		_canal_ADC
  1115 ;;		_mensaje
  1116 ;;		_setup
  1117 ;; This function is called by:
  1118 ;;		Startup code after reset
  1119 ;; This function uses a non-reentrant model
  1120 ;;
  1121                           
  1122                           
  1123                           ;psect for function _main
  1124  0000'                    _main:
  1125  0000'                    l3178:	
  1126                           ;incstack = 0
  1127                           ; Regs used in _main: [allreg]
  1128                           
  1129                           
  1130                           ;Lab02.c: 54:         Lcd_Write_String(adc1);
  1131  0000' 120A' 118A' 2000' 120A' 118A' 	fcall	_setup
  1132  0005'                    l3180:
  1133                           
  1134                           ;Lab02.c: 55:         Lcd_Set_Cursor(2, 11);
  1135  0005' 120A' 118A' 2000' 120A' 118A' 	fcall	_Lcd_Init
  1136  000A'                    l3182:
  1137                           
  1138                           ;Lab02.c: 56:         Lcd_Write_String("V");
  1139  000A' 3000               	movlw	0
  1140  000B' 120A' 118A' 2000' 120A' 118A' 	fcall	_canal_ADC
  1141  0010'                    l3184:
  1142                           
  1143                           ;Lab02.c: 57: 
  1144  0010' 3001               	movlw	1
  1145  0011' 120A' 118A' 2000' 120A' 118A' 	fcall	_canal_ADC
  1146  0016'                    l3186:
  1147                           
  1148                           ;Lab02.c: 58:      conv0 = 0;
  1149  0016' 3000               	movlw	0
  1150  0017' 120A' 118A' 2000' 120A' 118A' 	fcall	_Select_ch
  1151                           
  1152                           ;Lab02.c: 59:      conv1 = 0;
  1153  001C' 120A' 118A' 2000' 120A' 118A' 	fcall	_Lcd_Clear
  1154  0021'                    l227:	
  1155                           ;Lab02.c: 60: 
  1156                           
  1157                           
  1158                           ;Lab02.c: 61:         conv0 = (var_adc0 / (float) 255)*5;
  1159  0021' 0184'              	clrf	Lcd_Set_Cursor@b
  1160  0022' 0A84'              	incf	Lcd_Set_Cursor@b,f
  1161  0023' 3001               	movlw	1
  1162  0024' 120A' 118A' 2000' 120A' 118A' 	fcall	_Lcd_Set_Cursor
  1163  0029'                    l3188:
  1164                           
  1165                           ;Lab02.c: 62: 
  1166  0029' 301F               	movlw	(low ((STR_1-__stringbase)| (0+32768)))& (0+255)
  1167  002A' 0083'              	movwf	Lcd_Write_String@a
  1168  002B' 3080               	movlw	128
  1169  002C' 0084'              	movwf	Lcd_Write_String@a+1
  1170  002D' 120A' 118A' 2000' 120A' 118A' 	fcall	_Lcd_Write_String
  1171  0032'                    l3190:
  1172                           
  1173                           ;Lab02.c: 63:         ADC_convert(adc0, conv0, 2);
  1174  0032' 3008               	movlw	8
  1175  0033' 1683               	bsf	3,5	;RP0=1, select bank1
  1176  0034' 1303               	bcf	3,6	;RP1=0, select bank1
  1177  0035' 0080'              	movwf	??_main^(0+128)
  1178  0036' 0800'              	movf	??_main^(0+128),w
  1179  0037' 0084'              	movwf	Lcd_Set_Cursor@b
  1180  0038' 3001               	movlw	1
  1181  0039' 120A' 118A' 2000' 120A' 118A' 	fcall	_Lcd_Set_Cursor
  1182                           
  1183                           ;Lab02.c: 64: 
  1184  003E' 3023               	movlw	(low ((STR_2-__stringbase)| (0+32768)))& (0+255)
  1185  003F' 0083'              	movwf	Lcd_Write_String@a
  1186  0040' 3080               	movlw	128
  1187  0041' 0084'              	movwf	Lcd_Write_String@a+1
  1188  0042' 120A' 118A' 2000' 120A' 118A' 	fcall	_Lcd_Write_String
  1189  0047'                    l3192:
  1190                           
  1191                           ;Lab02.c: 65:         conv1 = (var_adc1 / (float) 255)*5;
  1192  0047' 300F               	movlw	15
  1193  0048' 1683               	bsf	3,5	;RP0=1, select bank1
  1194  0049' 1303               	bcf	3,6	;RP1=0, select bank1
  1195  004A' 0080'              	movwf	??_main^(0+128)
  1196  004B' 0800'              	movf	??_main^(0+128),w
  1197  004C' 0084'              	movwf	Lcd_Set_Cursor@b
  1198  004D' 3001               	movlw	1
  1199  004E' 120A' 118A' 2000' 120A' 118A' 	fcall	_Lcd_Set_Cursor
  1200  0053'                    l3194:
  1201                           
  1202                           ;Lab02.c: 66:         ADC_convert(adc1, conv1, 2);
  1203  0053' 3027               	movlw	(low ((STR_3-__stringbase)| (0+32768)))& (0+255)
  1204  0054' 0083'              	movwf	Lcd_Write_String@a
  1205  0055' 3080               	movlw	128
  1206  0056' 0084'              	movwf	Lcd_Write_String@a+1
  1207  0057' 120A' 118A' 2000' 120A' 118A' 	fcall	_Lcd_Write_String
  1208  005C'                    l3196:
  1209                           
  1210                           ;Lab02.c: 68: 
  1211  005C' 120A' 118A' 2000' 120A' 118A' 	fcall	_mensaje
  1212  0061'                    l3198:
  1213                           
  1214                           ;Lab02.c: 70: }
  1215  0061' 1283               	bcf	3,5	;RP0=0, select bank0
  1216  0062' 1303               	bcf	3,6	;RP1=0, select bank0
  1217  0063' 1F0C               	btfss	12,6	;volatile
  1218  0064' 2800'              	goto	u3611
  1219  0065' 2800'              	goto	u3610
  1220  0066'                    u3611:
  1221  0066' 2800'              	goto	l3216
  1222  0067'                    u3610:
  1223  0067'                    l3200:
  1224                           
  1225                           ;Lab02.c: 71: 
  1226  0067' 0801'              	movf	_canal_flag,w
  1227  0068' 1D03               	btfss	3,2
  1228  0069' 2800'              	goto	u3621
  1229  006A' 2800'              	goto	u3620
  1230  006B'                    u3621:
  1231  006B' 2800'              	goto	l3208
  1232  006C'                    u3620:
  1233  006C'                    l3202:
  1234                           
  1235                           ;Lab02.c: 72: void mensaje (void){
  1236  006C' 081E               	movf	30,w	;volatile
  1237  006D' 1683               	bsf	3,5	;RP0=1, select bank1
  1238  006E' 1303               	bcf	3,6	;RP1=0, select bank1
  1239  006F' 0080'              	movwf	??_main^(0+128)
  1240  0070' 0800'              	movf	??_main^(0+128),w
  1241  0071' 0080'              	movwf	_var_adc0	;volatile
  1242  0072'                    l3204:
  1243                           
  1244                           ;Lab02.c: 73:     __delay_(300);
  1245  0072' 3000               	movlw	0
  1246  0073' 120A' 118A' 2000' 120A' 118A' 	fcall	_Select_ch
  1247  0078'                    l3206:
  1248                           
  1249                           ;Lab02.c: 74:     printf("\r voltaje 1: \r");
  1250  0078' 3001               	movlw	1
  1251  0079' 1683               	bsf	3,5	;RP0=1, select bank1
  1252  007A' 1303               	bcf	3,6	;RP1=0, select bank1
  1253  007B' 0080'              	movwf	??_main^(0+128)
  1254  007C' 0800'              	movf	??_main^(0+128),w
  1255  007D' 1283               	bcf	3,5	;RP0=0, select bank0
  1256  007E' 1303               	bcf	3,6	;RP1=0, select bank0
  1257  007F' 0781'              	addwf	_canal_flag,f
  1258                           
  1259                           ;Lab02.c: 75:     _delay((unsigned long)((300)*(800000/4000.0)));
  1260  0080' 2800'              	goto	l3214
  1261  0081'                    l3208:
  1262                           
  1263                           ;Lab02.c: 76:     printf(adc0);
  1264  0081' 081E               	movf	30,w	;volatile
  1265  0082' 1683               	bsf	3,5	;RP0=1, select bank1
  1266  0083' 1303               	bcf	3,6	;RP1=0, select bank1
  1267  0084' 0080'              	movwf	??_main^(0+128)
  1268  0085' 0800'              	movf	??_main^(0+128),w
  1269  0086' 1283               	bcf	3,5	;RP0=0, select bank0
  1270  0087' 1303               	bcf	3,6	;RP1=0, select bank0
  1271  0088' 0080'              	movwf	_var_adc1	;volatile
  1272  0089'                    l3210:
  1273                           
  1274                           ;Lab02.c: 77:     _delay((unsigned long)((300)*(800000/4000.0)));
  1275  0089' 3001               	movlw	1
  1276  008A' 120A' 118A' 2000' 120A' 118A' 	fcall	_Select_ch
  1277  008F'                    l3212:
  1278                           
  1279                           ;Lab02.c: 78:     printf("\r voltaje 2: \r");
  1280  008F' 3001               	movlw	1
  1281  0090' 1283               	bcf	3,5	;RP0=0, select bank0
  1282  0091' 1303               	bcf	3,6	;RP1=0, select bank0
  1283  0092' 0281'              	subwf	_canal_flag,f
  1284  0093'                    l3214:
  1285                           
  1286                           ;Lab02.c: 80:     printf(adc1);
  1287  0093' 130C               	bcf	12,6	;volatile
  1288  0094'                    l3216:
  1289                           
  1290                           ;Lab02.c: 83:     while(TXIF == 0);
  1291  0094' 0184'              	clrf	Lcd_Set_Cursor@b
  1292  0095' 0A84'              	incf	Lcd_Set_Cursor@b,f
  1293  0096' 3002               	movlw	2
  1294  0097' 120A' 118A' 2000' 120A' 118A' 	fcall	_Lcd_Set_Cursor
  1295  009C'                    l3218:
  1296                           
  1297                           ;Lab02.c: 84:     TXREG = dato;
  1298  009C' 3000'              	movlw	(low (_adc0| 0))& (0+255)
  1299  009D' 0083'              	movwf	Lcd_Write_String@a
  1300  009E' 3000               	movlw	0
  1301  009F' 0084'              	movwf	Lcd_Write_String@a+1
  1302  00A0' 120A' 118A' 2000' 120A' 118A' 	fcall	_Lcd_Write_String
  1303  00A5'                    l3220:
  1304                           
  1305                           ;Lab02.c: 85:     return;
  1306  00A5' 3005               	movlw	5
  1307  00A6' 1683               	bsf	3,5	;RP0=1, select bank1
  1308  00A7' 1303               	bcf	3,6	;RP1=0, select bank1
  1309  00A8' 0080'              	movwf	??_main^(0+128)
  1310  00A9' 0800'              	movf	??_main^(0+128),w
  1311  00AA' 0084'              	movwf	Lcd_Set_Cursor@b
  1312  00AB' 3002               	movlw	2
  1313  00AC' 120A' 118A' 2000' 120A' 118A' 	fcall	_Lcd_Set_Cursor
  1314  00B1'                    l3222:
  1315                           
  1316                           ;Lab02.c: 86: }
  1317  00B1' 302B               	movlw	(low ((STR_4-__stringbase)| (0+32768)))& (0+255)
  1318  00B2' 0083'              	movwf	Lcd_Write_String@a
  1319  00B3' 3080               	movlw	128
  1320  00B4' 0084'              	movwf	Lcd_Write_String@a+1
  1321  00B5' 120A' 118A' 2000' 120A' 118A' 	fcall	_Lcd_Write_String
  1322  00BA'                    l3224:
  1323                           
  1324                           ;Lab02.c: 88: void setup (void){
  1325  00BA' 3007               	movlw	7
  1326  00BB' 1683               	bsf	3,5	;RP0=1, select bank1
  1327  00BC' 1303               	bcf	3,6	;RP1=0, select bank1
  1328  00BD' 0080'              	movwf	??_main^(0+128)
  1329  00BE' 0800'              	movf	??_main^(0+128),w
  1330  00BF' 0084'              	movwf	Lcd_Set_Cursor@b
  1331  00C0' 3002               	movlw	2
  1332  00C1' 120A' 118A' 2000' 120A' 118A' 	fcall	_Lcd_Set_Cursor
  1333  00C6'                    l3226:
  1334                           
  1335                           ;Lab02.c: 89:     ANSEL = 0x00;
  1336  00C6' 3000'              	movlw	(low (_adc1| 0))& (0+255)
  1337  00C7' 0083'              	movwf	Lcd_Write_String@a
  1338  00C8' 3000               	movlw	0
  1339  00C9' 0084'              	movwf	Lcd_Write_String@a+1
  1340  00CA' 120A' 118A' 2000' 120A' 118A' 	fcall	_Lcd_Write_String
  1341  00CF'                    l3228:
  1342                           
  1343                           ;Lab02.c: 90:     ANSELH = 0;
  1344  00CF' 300B               	movlw	11
  1345  00D0' 1683               	bsf	3,5	;RP0=1, select bank1
  1346  00D1' 1303               	bcf	3,6	;RP1=0, select bank1
  1347  00D2' 0080'              	movwf	??_main^(0+128)
  1348  00D3' 0800'              	movf	??_main^(0+128),w
  1349  00D4' 0084'              	movwf	Lcd_Set_Cursor@b
  1350  00D5' 3002               	movlw	2
  1351  00D6' 120A' 118A' 2000' 120A' 118A' 	fcall	_Lcd_Set_Cursor
  1352  00DB'                    l3230:
  1353                           
  1354                           ;Lab02.c: 91: 
  1355  00DB' 302B               	movlw	(low ((STR_4-__stringbase)| (0+32768)))& (0+255)
  1356  00DC' 0083'              	movwf	Lcd_Write_String@a
  1357  00DD' 3080               	movlw	128
  1358  00DE' 0084'              	movwf	Lcd_Write_String@a+1
  1359  00DF' 120A' 118A' 2000' 120A' 118A' 	fcall	_Lcd_Write_String
  1360  00E4'                    l3232:
  1361                           
  1362                           ;Lab02.c: 93:     TRISB = 0x00;
  1363  00E4' 3000               	movlw	0
  1364  00E5' 1683               	bsf	3,5	;RP0=1, select bank1
  1365  00E6' 1303               	bcf	3,6	;RP1=0, select bank1
  1366  00E7' 0080'              	movwf	(_conv0+3)^(0+128)
  1367  00E8' 3000               	movlw	0
  1368  00E9' 0080'              	movwf	(_conv0+2)^(0+128)
  1369  00EA' 3000               	movlw	0
  1370  00EB' 0080'              	movwf	(_conv0+1)^(0+128)
  1371  00EC' 3000               	movlw	0
  1372  00ED' 0080'              	movwf	_conv0^(0+128)
  1373  00EE'                    l3234:
  1374                           
  1375                           ;Lab02.c: 94:     TRISC = 0x00;
  1376  00EE' 3000               	movlw	0
  1377  00EF' 0080'              	movwf	(_conv1+3)^(0+128)
  1378  00F0' 3000               	movlw	0
  1379  00F1' 0080'              	movwf	(_conv1+2)^(0+128)
  1380  00F2' 3000               	movlw	0
  1381  00F3' 0080'              	movwf	(_conv1+1)^(0+128)
  1382  00F4' 3000               	movlw	0
  1383  00F5' 0080'              	movwf	_conv1^(0+128)
  1384  00F6'                    l3236:
  1385                           
  1386                           ;Lab02.c: 96:     TRISE = 0x00;
  1387  00F6' 3040               	movlw	64
  1388  00F7' 1283               	bcf	3,5	;RP0=0, select bank0
  1389  00F8' 1303               	bcf	3,6	;RP1=0, select bank0
  1390  00F9' 00AF'              	movwf	___flmul@b+3
  1391  00FA' 30A0               	movlw	160
  1392  00FB' 00AE'              	movwf	___flmul@b+2
  1393  00FC' 3000               	movlw	0
  1394  00FD' 00AD'              	movwf	___flmul@b+1
  1395  00FE' 3000               	movlw	0
  1396  00FF' 00AC'              	movwf	___flmul@b
  1397  0100' 3043               	movlw	67
  1398  0101' 0095'              	movwf	___fldiv@a+3
  1399  0102' 307F               	movlw	127
  1400  0103' 0094'              	movwf	___fldiv@a+2
  1401  0104' 3000               	movlw	0
  1402  0105' 0093'              	movwf	___fldiv@a+1
  1403  0106' 3000               	movlw	0
  1404  0107' 0092'              	movwf	___fldiv@a
  1405  0108' 0800'              	movf	_var_adc0,w	;volatile
  1406  0109' 1683               	bsf	3,5	;RP0=1, select bank1
  1407  010A' 1303               	bcf	3,6	;RP1=0, select bank1
  1408  010B' 0080'              	movwf	??_main^(0+128)
  1409  010C' 0181'              	clrf	(??_main^(0+128)+1)
  1410  010D' 0182'              	clrf	(??_main^(0+128)+2)
  1411  010E' 0183'              	clrf	(??_main^(0+128)+3)
  1412  010F' 0800'              	movf	(??_main+3)^(0+128),w
  1413  0110' 1283               	bcf	3,5	;RP0=0, select bank0
  1414  0111' 1303               	bcf	3,6	;RP1=0, select bank0
  1415  0112' 0087'              	movwf	___xxtofl@val+3
  1416  0113' 1683               	bsf	3,5	;RP0=1, select bank1
  1417  0114' 1303               	bcf	3,6	;RP1=0, select bank1
  1418  0115' 0800'              	movf	(??_main+2)^(0+128),w
  1419  0116' 1283               	bcf	3,5	;RP0=0, select bank0
  1420  0117' 1303               	bcf	3,6	;RP1=0, select bank0
  1421  0118' 0086'              	movwf	___xxtofl@val+2
  1422  0119' 1683               	bsf	3,5	;RP0=1, select bank1
  1423  011A' 1303               	bcf	3,6	;RP1=0, select bank1
  1424  011B' 0800'              	movf	(??_main+1)^(0+128),w
  1425  011C' 1283               	bcf	3,5	;RP0=0, select bank0
  1426  011D' 1303               	bcf	3,6	;RP1=0, select bank0
  1427  011E' 0085'              	movwf	___xxtofl@val+1
  1428  011F' 1683               	bsf	3,5	;RP0=1, select bank1
  1429  0120' 1303               	bcf	3,6	;RP1=0, select bank1
  1430  0121' 0800'              	movf	??_main^(0+128),w
  1431  0122' 1283               	bcf	3,5	;RP0=0, select bank0
  1432  0123' 1303               	bcf	3,6	;RP1=0, select bank0
  1433  0124' 0084'              	movwf	___xxtofl@val
  1434  0125' 3001               	movlw	1
  1435  0126' 120A' 118A' 2000' 120A' 118A' 	fcall	___xxtofl
  1436  012B' 1283               	bcf	3,5	;RP0=0, select bank0
  1437  012C' 1303               	bcf	3,6	;RP1=0, select bank0
  1438  012D' 0807'              	movf	?___xxtofl+3,w
  1439  012E' 0099'              	movwf	___fldiv@b+3
  1440  012F' 0806'              	movf	?___xxtofl+2,w
  1441  0130' 0098'              	movwf	___fldiv@b+2
  1442  0131' 0805'              	movf	?___xxtofl+1,w
  1443  0132' 0097'              	movwf	___fldiv@b+1
  1444  0133' 0804'              	movf	?___xxtofl,w
  1445  0134' 0096'              	movwf	___fldiv@b
  1446  0135' 120A' 118A' 2000' 120A' 118A' 	fcall	___fldiv
  1447  013A' 1283               	bcf	3,5	;RP0=0, select bank0
  1448  013B' 1303               	bcf	3,6	;RP1=0, select bank0
  1449  013C' 0815'              	movf	?___fldiv+3,w
  1450  013D' 00B3'              	movwf	___flmul@a+3
  1451  013E' 0814'              	movf	?___fldiv+2,w
  1452  013F' 00B2'              	movwf	___flmul@a+2
  1453  0140' 0813'              	movf	?___fldiv+1,w
  1454  0141' 00B1'              	movwf	___flmul@a+1
  1455  0142' 0812'              	movf	?___fldiv,w
  1456  0143' 00B0'              	movwf	___flmul@a
  1457  0144' 120A' 118A' 2000' 120A' 118A' 	fcall	___flmul
  1458  0149' 1283               	bcf	3,5	;RP0=0, select bank0
  1459  014A' 1303               	bcf	3,6	;RP1=0, select bank0
  1460  014B' 082F'              	movf	?___flmul+3,w
  1461  014C' 1683               	bsf	3,5	;RP0=1, select bank1
  1462  014D' 1303               	bcf	3,6	;RP1=0, select bank1
  1463  014E' 0080'              	movwf	(_conv0+3)^(0+128)
  1464  014F' 1283               	bcf	3,5	;RP0=0, select bank0
  1465  0150' 1303               	bcf	3,6	;RP1=0, select bank0
  1466  0151' 082E'              	movf	?___flmul+2,w
  1467  0152' 1683               	bsf	3,5	;RP0=1, select bank1
  1468  0153' 1303               	bcf	3,6	;RP1=0, select bank1
  1469  0154' 0080'              	movwf	(_conv0+2)^(0+128)
  1470  0155' 1283               	bcf	3,5	;RP0=0, select bank0
  1471  0156' 1303               	bcf	3,6	;RP1=0, select bank0
  1472  0157' 082D'              	movf	?___flmul+1,w
  1473  0158' 1683               	bsf	3,5	;RP0=1, select bank1
  1474  0159' 1303               	bcf	3,6	;RP1=0, select bank1
  1475  015A' 0080'              	movwf	(_conv0+1)^(0+128)
  1476  015B' 1283               	bcf	3,5	;RP0=0, select bank0
  1477  015C' 1303               	bcf	3,6	;RP1=0, select bank0
  1478  015D' 082C'              	movf	?___flmul,w
  1479  015E' 1683               	bsf	3,5	;RP0=1, select bank1
  1480  015F' 1303               	bcf	3,6	;RP1=0, select bank1
  1481  0160' 0080'              	movwf	_conv0^(0+128)
  1482  0161'                    l3238:
  1483                           
  1484                           ;Lab02.c: 98:     PORTA = 0x00;
  1485  0161' 0800'              	movf	(_conv0+3)^(0+128),w
  1486  0162' 1283               	bcf	3,5	;RP0=0, select bank0
  1487  0163' 1303               	bcf	3,6	;RP1=0, select bank0
  1488  0164' 00C9'              	movwf	ADC_convert@a+3
  1489  0165' 1683               	bsf	3,5	;RP0=1, select bank1
  1490  0166' 1303               	bcf	3,6	;RP1=0, select bank1
  1491  0167' 0800'              	movf	(_conv0+2)^(0+128),w
  1492  0168' 1283               	bcf	3,5	;RP0=0, select bank0
  1493  0169' 1303               	bcf	3,6	;RP1=0, select bank0
  1494  016A' 00C8'              	movwf	ADC_convert@a+2
  1495  016B' 1683               	bsf	3,5	;RP0=1, select bank1
  1496  016C' 1303               	bcf	3,6	;RP1=0, select bank1
  1497  016D' 0800'              	movf	(_conv0+1)^(0+128),w
  1498  016E' 1283               	bcf	3,5	;RP0=0, select bank0
  1499  016F' 1303               	bcf	3,6	;RP1=0, select bank0
  1500  0170' 00C7'              	movwf	ADC_convert@a+1
  1501  0171' 1683               	bsf	3,5	;RP0=1, select bank1
  1502  0172' 1303               	bcf	3,6	;RP1=0, select bank1
  1503  0173' 0800'              	movf	_conv0^(0+128),w
  1504  0174' 1283               	bcf	3,5	;RP0=0, select bank0
  1505  0175' 1303               	bcf	3,6	;RP1=0, select bank0
  1506  0176' 00C6'              	movwf	ADC_convert@a
  1507  0177' 3002               	movlw	2
  1508  0178' 00CA'              	movwf	ADC_convert@place
  1509  0179' 3000               	movlw	0
  1510  017A' 00CB'              	movwf	ADC_convert@place+1
  1511  017B' 3000'              	movlw	(low (_adc0| 0))& (0+255)
  1512  017C' 120A' 118A' 2000' 120A' 118A' 	fcall	_ADC_convert
  1513  0181'                    l3240:
  1514                           
  1515                           ;Lab02.c: 100:     PORTC = 0x00;
  1516  0181' 3040               	movlw	64
  1517  0182' 1283               	bcf	3,5	;RP0=0, select bank0
  1518  0183' 1303               	bcf	3,6	;RP1=0, select bank0
  1519  0184' 00AF'              	movwf	___flmul@b+3
  1520  0185' 30A0               	movlw	160
  1521  0186' 00AE'              	movwf	___flmul@b+2
  1522  0187' 3000               	movlw	0
  1523  0188' 00AD'              	movwf	___flmul@b+1
  1524  0189' 3000               	movlw	0
  1525  018A' 00AC'              	movwf	___flmul@b
  1526  018B' 3043               	movlw	67
  1527  018C' 0095'              	movwf	___fldiv@a+3
  1528  018D' 307F               	movlw	127
  1529  018E' 0094'              	movwf	___fldiv@a+2
  1530  018F' 3000               	movlw	0
  1531  0190' 0093'              	movwf	___fldiv@a+1
  1532  0191' 3000               	movlw	0
  1533  0192' 0092'              	movwf	___fldiv@a
  1534  0193' 0800'              	movf	_var_adc1,w	;volatile
  1535  0194' 1683               	bsf	3,5	;RP0=1, select bank1
  1536  0195' 1303               	bcf	3,6	;RP1=0, select bank1
  1537  0196' 0080'              	movwf	??_main^(0+128)
  1538  0197' 0181'              	clrf	(??_main^(0+128)+1)
  1539  0198' 0182'              	clrf	(??_main^(0+128)+2)
  1540  0199' 0183'              	clrf	(??_main^(0+128)+3)
  1541  019A' 0800'              	movf	(??_main+3)^(0+128),w
  1542  019B' 1283               	bcf	3,5	;RP0=0, select bank0
  1543  019C' 1303               	bcf	3,6	;RP1=0, select bank0
  1544  019D' 0087'              	movwf	___xxtofl@val+3
  1545  019E' 1683               	bsf	3,5	;RP0=1, select bank1
  1546  019F' 1303               	bcf	3,6	;RP1=0, select bank1
  1547  01A0' 0800'              	movf	(??_main+2)^(0+128),w
  1548  01A1' 1283               	bcf	3,5	;RP0=0, select bank0
  1549  01A2' 1303               	bcf	3,6	;RP1=0, select bank0
  1550  01A3' 0086'              	movwf	___xxtofl@val+2
  1551  01A4' 1683               	bsf	3,5	;RP0=1, select bank1
  1552  01A5' 1303               	bcf	3,6	;RP1=0, select bank1
  1553  01A6' 0800'              	movf	(??_main+1)^(0+128),w
  1554  01A7' 1283               	bcf	3,5	;RP0=0, select bank0
  1555  01A8' 1303               	bcf	3,6	;RP1=0, select bank0
  1556  01A9' 0085'              	movwf	___xxtofl@val+1
  1557  01AA' 1683               	bsf	3,5	;RP0=1, select bank1
  1558  01AB' 1303               	bcf	3,6	;RP1=0, select bank1
  1559  01AC' 0800'              	movf	??_main^(0+128),w
  1560  01AD' 1283               	bcf	3,5	;RP0=0, select bank0
  1561  01AE' 1303               	bcf	3,6	;RP1=0, select bank0
  1562  01AF' 0084'              	movwf	___xxtofl@val
  1563  01B0' 3001               	movlw	1
  1564  01B1' 120A' 118A' 2000' 120A' 118A' 	fcall	___xxtofl
  1565  01B6' 1283               	bcf	3,5	;RP0=0, select bank0
  1566  01B7' 1303               	bcf	3,6	;RP1=0, select bank0
  1567  01B8' 0807'              	movf	?___xxtofl+3,w
  1568  01B9' 0099'              	movwf	___fldiv@b+3
  1569  01BA' 0806'              	movf	?___xxtofl+2,w
  1570  01BB' 0098'              	movwf	___fldiv@b+2
  1571  01BC' 0805'              	movf	?___xxtofl+1,w
  1572  01BD' 0097'              	movwf	___fldiv@b+1
  1573  01BE' 0804'              	movf	?___xxtofl,w
  1574  01BF' 0096'              	movwf	___fldiv@b
  1575  01C0' 120A' 118A' 2000' 120A' 118A' 	fcall	___fldiv
  1576  01C5' 1283               	bcf	3,5	;RP0=0, select bank0
  1577  01C6' 1303               	bcf	3,6	;RP1=0, select bank0
  1578  01C7' 0815'              	movf	?___fldiv+3,w
  1579  01C8' 00B3'              	movwf	___flmul@a+3
  1580  01C9' 0814'              	movf	?___fldiv+2,w
  1581  01CA' 00B2'              	movwf	___flmul@a+2
  1582  01CB' 0813'              	movf	?___fldiv+1,w
  1583  01CC' 00B1'              	movwf	___flmul@a+1
  1584  01CD' 0812'              	movf	?___fldiv,w
  1585  01CE' 00B0'              	movwf	___flmul@a
  1586  01CF' 120A' 118A' 2000' 120A' 118A' 	fcall	___flmul
  1587  01D4' 1283               	bcf	3,5	;RP0=0, select bank0
  1588  01D5' 1303               	bcf	3,6	;RP1=0, select bank0
  1589  01D6' 082F'              	movf	?___flmul+3,w
  1590  01D7' 1683               	bsf	3,5	;RP0=1, select bank1
  1591  01D8' 1303               	bcf	3,6	;RP1=0, select bank1
  1592  01D9' 0080'              	movwf	(_conv1+3)^(0+128)
  1593  01DA' 1283               	bcf	3,5	;RP0=0, select bank0
  1594  01DB' 1303               	bcf	3,6	;RP1=0, select bank0
  1595  01DC' 082E'              	movf	?___flmul+2,w
  1596  01DD' 1683               	bsf	3,5	;RP0=1, select bank1
  1597  01DE' 1303               	bcf	3,6	;RP1=0, select bank1
  1598  01DF' 0080'              	movwf	(_conv1+2)^(0+128)
  1599  01E0' 1283               	bcf	3,5	;RP0=0, select bank0
  1600  01E1' 1303               	bcf	3,6	;RP1=0, select bank0
  1601  01E2' 082D'              	movf	?___flmul+1,w
  1602  01E3' 1683               	bsf	3,5	;RP0=1, select bank1
  1603  01E4' 1303               	bcf	3,6	;RP1=0, select bank1
  1604  01E5' 0080'              	movwf	(_conv1+1)^(0+128)
  1605  01E6' 1283               	bcf	3,5	;RP0=0, select bank0
  1606  01E7' 1303               	bcf	3,6	;RP1=0, select bank0
  1607  01E8' 082C'              	movf	?___flmul,w
  1608  01E9' 1683               	bsf	3,5	;RP0=1, select bank1
  1609  01EA' 1303               	bcf	3,6	;RP1=0, select bank1
  1610  01EB' 0080'              	movwf	_conv1^(0+128)
  1611  01EC'                    l3242:
  1612                           
  1613                           ;Lab02.c: 101:     PORTD = 0x00;
  1614  01EC' 0800'              	movf	(_conv1+3)^(0+128),w
  1615  01ED' 1283               	bcf	3,5	;RP0=0, select bank0
  1616  01EE' 1303               	bcf	3,6	;RP1=0, select bank0
  1617  01EF' 00C9'              	movwf	ADC_convert@a+3
  1618  01F0' 1683               	bsf	3,5	;RP0=1, select bank1
  1619  01F1' 1303               	bcf	3,6	;RP1=0, select bank1
  1620  01F2' 0800'              	movf	(_conv1+2)^(0+128),w
  1621  01F3' 1283               	bcf	3,5	;RP0=0, select bank0
  1622  01F4' 1303               	bcf	3,6	;RP1=0, select bank0
  1623  01F5' 00C8'              	movwf	ADC_convert@a+2
  1624  01F6' 1683               	bsf	3,5	;RP0=1, select bank1
  1625  01F7' 1303               	bcf	3,6	;RP1=0, select bank1
  1626  01F8' 0800'              	movf	(_conv1+1)^(0+128),w
  1627  01F9' 1283               	bcf	3,5	;RP0=0, select bank0
  1628  01FA' 1303               	bcf	3,6	;RP1=0, select bank0
  1629  01FB' 00C7'              	movwf	ADC_convert@a+1
  1630  01FC' 1683               	bsf	3,5	;RP0=1, select bank1
  1631  01FD' 1303               	bcf	3,6	;RP1=0, select bank1
  1632  01FE' 0800'              	movf	_conv1^(0+128),w
  1633  01FF' 1283               	bcf	3,5	;RP0=0, select bank0
  1634  0200' 1303               	bcf	3,6	;RP1=0, select bank0
  1635  0201' 00C6'              	movwf	ADC_convert@a
  1636  0202' 3002               	movlw	2
  1637  0203' 00CA'              	movwf	ADC_convert@place
  1638  0204' 3000               	movlw	0
  1639  0205' 00CB'              	movwf	ADC_convert@place+1
  1640  0206' 3000'              	movlw	(low (_adc1| 0))& (0+255)
  1641  0207' 120A' 118A' 2000' 120A' 118A' 	fcall	_ADC_convert
  1642  020C' 2800'              	goto	l227
  1643  020D' 120A' 118A' 2800'  	ljmp	start
  1644  0210'                    __end_of_main:
  1645                           
  1646                           	psect	text1
  1647  0000'                    __ptext1:	
  1648 ;; *************** function _setup *****************
  1649 ;; Defined at:
  1650 ;;		line 123 in file "Lab02.c"
  1651 ;; Parameters:    Size  Location     Type
  1652 ;;		None
  1653 ;; Auto vars:     Size  Location     Type
  1654 ;;		None
  1655 ;; Return value:  Size  Location     Type
  1656 ;;                  1    wreg      void 
  1657 ;; Registers used:
  1658 ;;		wreg, fsr0l, fsr0h, status,2, status,0, pclath, cstack
  1659 ;; Tracked objects:
  1660 ;;		On entry : 0/0
  1661 ;;		On exit  : 0/0
  1662 ;;		Unchanged: 0/0
  1663 ;; Data sizes:     COMMON   BANK0   BANK1   BANK3   BANK2
  1664 ;;      Params:         0       0       0       0       0
  1665 ;;      Locals:         0       0       0       0       0
  1666 ;;      Temps:          1       0       0       0       0
  1667 ;;      Totals:         1       0       0       0       0
  1668 ;;Total ram usage:        1 bytes
  1669 ;; Hardware stack levels used:    1
  1670 ;; Hardware stack levels required when called:    1
  1671 ;; This function calls:
  1672 ;;		_conf_ADC
  1673 ;;		_conf_osc
  1674 ;; This function is called by:
  1675 ;;		_main
  1676 ;; This function uses a non-reentrant model
  1677 ;;
  1678                           
  1679                           
  1680                           ;psect for function _setup
  1681  0000'                    _setup:
  1682  0000'                    l3078:	
  1683                           ;incstack = 0
  1684                           ; Regs used in _setup: [wreg-fsr0h+status,2+status,0+pclath+cstack]
  1685                           
  1686                           
  1687                           ;Lab02.c: 124:     INTCONbits.GIE = 1;
  1688  0000' 1683               	bsf	3,5	;RP0=1, select bank3
  1689  0001' 1703               	bsf	3,6	;RP1=1, select bank3
  1690  0002' 0188               	clrf	8	;volatile
  1691                           
  1692                           ;Lab02.c: 125:     INTCONbits.PEIE = 1;
  1693  0003' 0189               	clrf	9	;volatile
  1694  0004'                    l3080:
  1695                           
  1696                           ;Lab02.c: 127:     PIE1bits.RCIE = 1;
  1697  0004' 3003               	movlw	3
  1698  0005' 1683               	bsf	3,5	;RP0=1, select bank1
  1699  0006' 1303               	bcf	3,6	;RP1=0, select bank1
  1700  0007' 0085               	movwf	5	;volatile
  1701  0008'                    l3082:
  1702                           
  1703                           ;Lab02.c: 128:     PIE1bits.TXIE = 1;
  1704  0008' 0186               	clrf	6	;volatile
  1705  0009'                    l3084:
  1706                           
  1707                           ;Lab02.c: 129: 
  1708  0009' 0187               	clrf	7	;volatile
  1709  000A'                    l3086:
  1710                           
  1711                           ;Lab02.c: 130:     PIR1bits.TXIF = 0;
  1712  000A' 0188               	clrf	8	;volatile
  1713  000B'                    l3088:
  1714                           
  1715                           ;Lab02.c: 131:     PIR1bits.RCIF = 0;
  1716  000B' 0189               	clrf	9	;volatile
  1717  000C'                    l3090:
  1718  000C' 1283               	bcf	3,5	;RP0=0, select bank0
  1719  000D' 1303               	bcf	3,6	;RP1=0, select bank0
  1720  000E' 0185               	clrf	5	;volatile
  1721  000F'                    l3092:
  1722  000F' 0186               	clrf	6	;volatile
  1723  0010'                    l3094:
  1724  0010' 0187               	clrf	7	;volatile
  1725  0011'                    l3096:
  1726  0011' 0188               	clrf	8	;volatile
  1727  0012'                    l3098:
  1728  0012' 3007               	movlw	7
  1729  0013' 120A' 118A' 2000' 120A' 118A' 	fcall	_conf_osc
  1730  0018'                    l3100:
  1731  0018' 0180'              	clrf	conf_ADC@isr
  1732  0019' 3003               	movlw	3
  1733  001A' 0086'              	movwf	??_setup
  1734  001B' 0806'              	movf	??_setup,w
  1735  001C' 0081'              	movwf	conf_ADC@Vref
  1736  001D' 0182'              	clrf	conf_ADC@justRL
  1737  001E' 3002               	movlw	2
  1738  001F' 120A' 118A' 2000' 120A' 118A' 	fcall	_conf_ADC
  1739  0024'                    l3102:
  1740  0024' 1683               	bsf	3,5	;RP0=1, select bank1
  1741  0025' 1303               	bcf	3,6	;RP1=0, select bank1
  1742  0026' 1218               	bcf	24,4	;volatile
  1743  0027'                    l3104:
  1744  0027' 1518               	bsf	24,2	;volatile
  1745  0028'                    l3106:
  1746  0028' 1683               	bsf	3,5	;RP0=1, select bank3
  1747  0029' 1703               	bsf	3,6	;RP1=1, select bank3
  1748  002A' 1587               	bsf	7,3	;volatile
  1749  002B'                    l3108:
  1750  002B' 30CF               	movlw	207
  1751  002C' 1683               	bsf	3,5	;RP0=1, select bank1
  1752  002D' 1303               	bcf	3,6	;RP1=0, select bank1
  1753  002E' 0099               	movwf	25	;volatile
  1754  002F' 019A               	clrf	26	;volatile
  1755  0030'                    l3110:
  1756  0030' 1283               	bcf	3,5	;RP0=0, select bank0
  1757  0031' 1303               	bcf	3,6	;RP1=0, select bank0
  1758  0032' 1798               	bsf	24,7	;volatile
  1759  0033'                    l3112:
  1760  0033' 1318               	bcf	24,6	;volatile
  1761  0034'                    l3114:
  1762  0034' 1618               	bsf	24,4	;volatile
  1763  0035'                    l3116:
  1764  0035' 1683               	bsf	3,5	;RP0=1, select bank1
  1765  0036' 1303               	bcf	3,6	;RP1=0, select bank1
  1766  0037' 1698               	bsf	24,5	;volatile
  1767  0038'                    l3118:
  1768  0038' 178B               	bsf	11,7	;volatile
  1769  0039'                    l3120:
  1770  0039' 170B               	bsf	11,6	;volatile
  1771  003A'                    l3122:
  1772  003A' 168C               	bsf	12,5	;volatile
  1773  003B'                    l3124:
  1774  003B' 160C               	bsf	12,4	;volatile
  1775  003C'                    l3126:
  1776  003C' 1283               	bcf	3,5	;RP0=0, select bank0
  1777  003D' 1303               	bcf	3,6	;RP1=0, select bank0
  1778  003E' 120C               	bcf	12,4	;volatile
  1779  003F'                    l3128:
  1780  003F' 128C               	bcf	12,5	;volatile
  1781  0040'                    l245:
  1782  0040' 0008               	return
  1783  0041'                    __end_of_setup:
  1784                           
  1785                           	psect	text2
  1786  0000'                    __ptext2:	
  1787 ;; *************** function _conf_osc *****************
  1788 ;; Defined at:
  1789 ;;		line 23 in file "configuraciones_pic.c"
  1790 ;; Parameters:    Size  Location     Type
  1791 ;;  frec            1    wreg     unsigned char 
  1792 ;; Auto vars:     Size  Location     Type
  1793 ;;  frec            1    2[COMMON] unsigned char 
  1794 ;; Return value:  Size  Location     Type
  1795 ;;                  1    wreg      void 
  1796 ;; Registers used:
  1797 ;;		wreg, fsr0l, fsr0h, status,2, status,0
  1798 ;; Tracked objects:
  1799 ;;		On entry : 0/0
  1800 ;;		On exit  : 0/0
  1801 ;;		Unchanged: 0/0
  1802 ;; Data sizes:     COMMON   BANK0   BANK1   BANK3   BANK2
  1803 ;;      Params:         0       0       0       0       0
  1804 ;;      Locals:         1       0       0       0       0
  1805 ;;      Temps:          2       0       0       0       0
  1806 ;;      Totals:         3       0       0       0       0
  1807 ;;Total ram usage:        3 bytes
  1808 ;; Hardware stack levels used:    1
  1809 ;; This function calls:
  1810 ;;		Nothing
  1811 ;; This function is called by:
  1812 ;;		_setup
  1813 ;; This function uses a non-reentrant model
  1814 ;;
  1815                           
  1816                           
  1817                           ;psect for function _conf_osc
  1818  0000'                    _conf_osc:
  1819                           
  1820                           ;incstack = 0
  1821                           ; Regs used in _conf_osc: [wreg-fsr0h+status,2+status,0]
  1822                           ;conf_osc@frec stored from wreg
  1823  0000' 0082'              	movwf	conf_osc@frec
  1824  0001'                    l2372:
  1825                           
  1826                           ;configuraciones_pic.c: 24:     switch(frec){
  1827  0001' 2800'              	goto	l2392
  1828  0002'                    l2374:
  1829                           
  1830                           ;configuraciones_pic.c: 26:             OSCCONbits.IRCF = 000;
  1831  0002' 308F               	movlw	-113
  1832  0003' 1683               	bsf	3,5	;RP0=1, select bank1
  1833  0004' 1303               	bcf	3,6	;RP1=0, select bank1
  1834  0005' 058F               	andwf	15,f	;volatile
  1835                           
  1836                           ;configuraciones_pic.c: 27:             break;
  1837  0006' 2800'              	goto	l25
  1838  0007'                    l2376:
  1839                           
  1840                           ;configuraciones_pic.c: 29:             OSCCONbits.IRCF = 001;
  1841  0007' 1683               	bsf	3,5	;RP0=1, select bank1
  1842  0008' 1303               	bcf	3,6	;RP1=0, select bank1
  1843  0009' 080F               	movf	15,w	;volatile
  1844  000A' 398F               	andlw	-113
  1845  000B' 3810               	iorlw	16
  1846  000C' 008F               	movwf	15	;volatile
  1847                           
  1848                           ;configuraciones_pic.c: 30:             break;
  1849  000D' 2800'              	goto	l25
  1850  000E'                    l2378:
  1851                           
  1852                           ;configuraciones_pic.c: 32:             OSCCONbits.IRCF = 010;
  1853  000E' 308F               	movlw	-113
  1854  000F' 1683               	bsf	3,5	;RP0=1, select bank1
  1855  0010' 1303               	bcf	3,6	;RP1=0, select bank1
  1856  0011' 058F               	andwf	15,f	;volatile
  1857                           
  1858                           ;configuraciones_pic.c: 33:             break;
  1859  0012' 2800'              	goto	l25
  1860  0013'                    l2380:
  1861                           
  1862                           ;configuraciones_pic.c: 35:             OSCCONbits.IRCF = 011;
  1863  0013' 1683               	bsf	3,5	;RP0=1, select bank1
  1864  0014' 1303               	bcf	3,6	;RP1=0, select bank1
  1865  0015' 080F               	movf	15,w	;volatile
  1866  0016' 398F               	andlw	-113
  1867  0017' 3810               	iorlw	16
  1868  0018' 008F               	movwf	15	;volatile
  1869                           
  1870                           ;configuraciones_pic.c: 36:             break;
  1871  0019' 2800'              	goto	l25
  1872  001A'                    l2382:
  1873                           
  1874                           ;configuraciones_pic.c: 38:             OSCCONbits.IRCF = 100;
  1875  001A' 1683               	bsf	3,5	;RP0=1, select bank1
  1876  001B' 1303               	bcf	3,6	;RP1=0, select bank1
  1877  001C' 080F               	movf	15,w	;volatile
  1878  001D' 398F               	andlw	-113
  1879  001E' 3840               	iorlw	64
  1880  001F' 008F               	movwf	15	;volatile
  1881                           
  1882                           ;configuraciones_pic.c: 39:             break;
  1883  0020' 2800'              	goto	l25
  1884  0021'                    l2384:
  1885                           
  1886                           ;configuraciones_pic.c: 41:             OSCCONbits.IRCF = 101;
  1887  0021' 1683               	bsf	3,5	;RP0=1, select bank1
  1888  0022' 1303               	bcf	3,6	;RP1=0, select bank1
  1889  0023' 080F               	movf	15,w	;volatile
  1890  0024' 398F               	andlw	-113
  1891  0025' 3850               	iorlw	80
  1892  0026' 008F               	movwf	15	;volatile
  1893                           
  1894                           ;configuraciones_pic.c: 42:             break;
  1895  0027' 2800'              	goto	l25
  1896  0028'                    l2386:
  1897                           
  1898                           ;configuraciones_pic.c: 44:             OSCCONbits.IRCF = 111;
  1899  0028' 3070               	movlw	112
  1900  0029' 1683               	bsf	3,5	;RP0=1, select bank1
  1901  002A' 1303               	bcf	3,6	;RP1=0, select bank1
  1902  002B' 048F               	iorwf	15,f	;volatile
  1903                           
  1904                           ;configuraciones_pic.c: 45:             break;
  1905  002C' 2800'              	goto	l25
  1906  002D'                    l2388:
  1907                           
  1908                           ;configuraciones_pic.c: 47:             OSCCONbits.IRCF = 110;
  1909  002D' 1683               	bsf	3,5	;RP0=1, select bank1
  1910  002E' 1303               	bcf	3,6	;RP1=0, select bank1
  1911  002F' 080F               	movf	15,w	;volatile
  1912  0030' 398F               	andlw	-113
  1913  0031' 3860               	iorlw	96
  1914  0032' 008F               	movwf	15	;volatile
  1915                           
  1916                           ;configuraciones_pic.c: 48:             break;
  1917  0033' 2800'              	goto	l25
  1918  0034'                    l2392:
  1919  0034' 0802'              	movf	conf_osc@frec,w
  1920  0035' 0080'              	movwf	??_conf_osc
  1921  0036' 0181'              	clrf	??_conf_osc+1
  1922                           
  1923                           ; Switch on 2 bytes has been partitioned into a top level switch of size 1, and 1 sub-sw
      +                          itches
  1924                           ; Switch size 1, requested type "simple"
  1925                           ; Number of cases is 1, Range of values is 0 to 0
  1926                           ; switch strategies available:
  1927                           ; Name         Instructions Cycles
  1928                           ; simple_byte            4     3 (average)
  1929                           ; direct_byte           11     8 (fixed)
  1930                           ; jumptable            260     6 (fixed)
  1931                           ;	Chosen strategy is simple_byte
  1932  0037' 0801'              	movf	??_conf_osc+1,w
  1933  0038' 3A00               	xorlw	0	; case 0
  1934  0039' 1903               	skipnz
  1935  003A' 2800'              	goto	l3378
  1936  003B' 2800'              	goto	l2388
  1937  003C'                    l3378:
  1938                           
  1939                           ; Switch size 1, requested type "simple"
  1940                           ; Number of cases is 7, Range of values is 0 to 7
  1941                           ; switch strategies available:
  1942                           ; Name         Instructions Cycles
  1943                           ; simple_byte           22    12 (average)
  1944                           ; direct_byte           32     8 (fixed)
  1945                           ; jumptable            260     6 (fixed)
  1946                           ;	Chosen strategy is simple_byte
  1947  003C' 0800'              	movf	??_conf_osc,w
  1948  003D' 3A00               	xorlw	0	; case 0
  1949  003E' 1903               	skipnz
  1950  003F' 2800'              	goto	l2374
  1951  0040' 3A01               	xorlw	1	; case 1
  1952  0041' 1903               	skipnz
  1953  0042' 2800'              	goto	l2376
  1954  0043' 3A03               	xorlw	3	; case 2
  1955  0044' 1903               	skipnz
  1956  0045' 2800'              	goto	l2378
  1957  0046' 3A01               	xorlw	1	; case 3
  1958  0047' 1903               	skipnz
  1959  0048' 2800'              	goto	l2380
  1960  0049' 3A07               	xorlw	7	; case 4
  1961  004A' 1903               	skipnz
  1962  004B' 2800'              	goto	l2382
  1963  004C' 3A01               	xorlw	1	; case 5
  1964  004D' 1903               	skipnz
  1965  004E' 2800'              	goto	l2384
  1966  004F' 3A02               	xorlw	2	; case 7
  1967  0050' 1903               	skipnz
  1968  0051' 2800'              	goto	l2386
  1969  0052' 2800'              	goto	l2388
  1970  0053'                    l25:
  1971                           
  1972                           ;configuraciones_pic.c: 50:     OSCCONbits.SCS = 1;
  1973  0053' 140F               	bsf	15,0	;volatile
  1974  0054'                    l33:
  1975  0054' 0008               	return
  1976  0055'                    __end_of_conf_osc:
  1977                           
  1978                           	psect	text3
  1979  0000'                    __ptext3:	
  1980 ;; *************** function _conf_ADC *****************
  1981 ;; Defined at:
  1982 ;;		line 90 in file "configuraciones_pic.c"
  1983 ;; Parameters:    Size  Location     Type
  1984 ;;  adcFrec         1    wreg     unsigned char 
  1985 ;;  isr             1    0[COMMON] unsigned char 
  1986 ;;  Vref            1    1[COMMON] unsigned char 
  1987 ;;  justRL          1    2[COMMON] unsigned char 
  1988 ;; Auto vars:     Size  Location     Type
  1989 ;;  adcFrec         1    5[COMMON] unsigned char 
  1990 ;; Return value:  Size  Location     Type
  1991 ;;                  1    wreg      void 
  1992 ;; Registers used:
  1993 ;;		wreg, fsr0l, fsr0h, status,2, status,0
  1994 ;; Tracked objects:
  1995 ;;		On entry : 0/0
  1996 ;;		On exit  : 0/0
  1997 ;;		Unchanged: 0/0
  1998 ;; Data sizes:     COMMON   BANK0   BANK1   BANK3   BANK2
  1999 ;;      Params:         3       0       0       0       0
  2000 ;;      Locals:         1       0       0       0       0
  2001 ;;      Temps:          2       0       0       0       0
  2002 ;;      Totals:         6       0       0       0       0
  2003 ;;Total ram usage:        6 bytes
  2004 ;; Hardware stack levels used:    1
  2005 ;; This function calls:
  2006 ;;		Nothing
  2007 ;; This function is called by:
  2008 ;;		_setup
  2009 ;; This function uses a non-reentrant model
  2010 ;;
  2011                           
  2012                           
  2013                           ;psect for function _conf_ADC
  2014  0000'                    _conf_ADC:
  2015                           
  2016                           ;incstack = 0
  2017                           ; Regs used in _conf_ADC: [wreg-fsr0h+status,2+status,0]
  2018                           ;conf_ADC@adcFrec stored from wreg
  2019  0000' 0085'              	movwf	conf_ADC@adcFrec
  2020  0001'                    l2398:
  2021                           
  2022                           ;configuraciones_pic.c: 91:     ADCON0bits.ADON = 1;
  2023  0001' 1283               	bcf	3,5	;RP0=0, select bank0
  2024  0002' 1303               	bcf	3,6	;RP1=0, select bank0
  2025  0003' 141F               	bsf	31,0	;volatile
  2026                           
  2027                           ;configuraciones_pic.c: 93:     switch(adcFrec){
  2028  0004' 2800'              	goto	l2410
  2029  0005'                    l2400:
  2030                           
  2031                           ;configuraciones_pic.c: 95:             ADCON0bits.ADCS = 00;
  2032  0005' 303F               	movlw	-193
  2033  0006' 059F               	andwf	31,f	;volatile
  2034                           
  2035                           ;configuraciones_pic.c: 96:             break;
  2036  0007' 2800'              	goto	l2412
  2037  0008'                    l2402:
  2038                           
  2039                           ;configuraciones_pic.c: 98:             ADCON0bits.ADCS = 01;
  2040  0008' 081F               	movf	31,w	;volatile
  2041  0009' 393F               	andlw	-193
  2042  000A' 3840               	iorlw	64
  2043  000B' 009F               	movwf	31	;volatile
  2044                           
  2045                           ;configuraciones_pic.c: 99:             break;
  2046  000C' 2800'              	goto	l2412
  2047  000D'                    l2404:
  2048                           
  2049                           ;configuraciones_pic.c: 101:             ADCON0bits.ADCS = 10;
  2050  000D' 081F               	movf	31,w	;volatile
  2051  000E' 393F               	andlw	-193
  2052  000F' 3880               	iorlw	128
  2053  0010' 009F               	movwf	31	;volatile
  2054                           
  2055                           ;configuraciones_pic.c: 102:             break;
  2056  0011' 2800'              	goto	l2412
  2057  0012'                    l2406:
  2058                           
  2059                           ;configuraciones_pic.c: 104:             ADCON0bits.ADCS = 11;
  2060  0012' 30C0               	movlw	192
  2061  0013' 049F               	iorwf	31,f	;volatile
  2062                           
  2063                           ;configuraciones_pic.c: 105:             break;
  2064  0014' 2800'              	goto	l2412
  2065  0015'                    l2410:
  2066  0015' 0805'              	movf	conf_ADC@adcFrec,w
  2067  0016' 0083'              	movwf	??_conf_ADC
  2068  0017' 0184'              	clrf	??_conf_ADC+1
  2069                           
  2070                           ; Switch on 2 bytes has been partitioned into a top level switch of size 1, and 1 sub-sw
      +                          itches
  2071                           ; Switch size 1, requested type "simple"
  2072                           ; Number of cases is 1, Range of values is 0 to 0
  2073                           ; switch strategies available:
  2074                           ; Name         Instructions Cycles
  2075                           ; simple_byte            4     3 (average)
  2076                           ; direct_byte           11     8 (fixed)
  2077                           ; jumptable            260     6 (fixed)
  2078                           ;	Chosen strategy is simple_byte
  2079  0018' 0804'              	movf	??_conf_ADC+1,w
  2080  0019' 3A00               	xorlw	0	; case 0
  2081  001A' 1903               	skipnz
  2082  001B' 2800'              	goto	l3380
  2083  001C' 2800'              	goto	l2412
  2084  001D'                    l3380:
  2085                           
  2086                           ; Switch size 1, requested type "simple"
  2087                           ; Number of cases is 4, Range of values is 0 to 3
  2088                           ; switch strategies available:
  2089                           ; Name         Instructions Cycles
  2090                           ; simple_byte           13     7 (average)
  2091                           ; direct_byte           20     8 (fixed)
  2092                           ; jumptable            260     6 (fixed)
  2093                           ;	Chosen strategy is simple_byte
  2094  001D' 0803'              	movf	??_conf_ADC,w
  2095  001E' 3A00               	xorlw	0	; case 0
  2096  001F' 1903               	skipnz
  2097  0020' 2800'              	goto	l2400
  2098  0021' 3A01               	xorlw	1	; case 1
  2099  0022' 1903               	skipnz
  2100  0023' 2800'              	goto	l2402
  2101  0024' 3A03               	xorlw	3	; case 2
  2102  0025' 1903               	skipnz
  2103  0026' 2800'              	goto	l2404
  2104  0027' 3A01               	xorlw	1	; case 3
  2105  0028' 1903               	skipnz
  2106  0029' 2800'              	goto	l2406
  2107  002A' 2800'              	goto	l2412
  2108  002B'                    l2412:
  2109                           
  2110                           ;configuraciones_pic.c: 107:     if (justRL == 0){
  2111  002B' 0802'              	movf	conf_ADC@justRL,w
  2112  002C' 1D03               	btfss	3,2
  2113  002D' 2800'              	goto	u2321
  2114  002E' 2800'              	goto	u2320
  2115  002F'                    u2321:
  2116  002F' 2800'              	goto	l55
  2117  0030'                    u2320:
  2118  0030'                    l2414:
  2119                           
  2120                           ;configuraciones_pic.c: 108:         ADCON1bits.ADFM = 0;
  2121  0030' 1683               	bsf	3,5	;RP0=1, select bank1
  2122  0031' 1303               	bcf	3,6	;RP1=0, select bank1
  2123  0032' 139F               	bcf	31,7	;volatile
  2124                           
  2125                           ;configuraciones_pic.c: 109:     }
  2126  0033' 2800'              	goto	l2416
  2127  0034'                    l55:	
  2128                           ;configuraciones_pic.c: 110:     else{
  2129                           
  2130                           
  2131                           ;configuraciones_pic.c: 111:         ADCON1bits.ADFM = 1;
  2132  0034' 1683               	bsf	3,5	;RP0=1, select bank1
  2133  0035' 1303               	bcf	3,6	;RP1=0, select bank1
  2134  0036' 179F               	bsf	31,7	;volatile
  2135  0037'                    l2416:
  2136                           
  2137                           ;configuraciones_pic.c: 113:     if (isr == 1) {
  2138  0037' 0300'              	decf	conf_ADC@isr,w
  2139  0038' 1D03               	btfss	3,2
  2140  0039' 2800'              	goto	u2331
  2141  003A' 2800'              	goto	u2330
  2142  003B'                    u2331:
  2143  003B' 2800'              	goto	l2422
  2144  003C'                    u2330:
  2145  003C'                    l2418:
  2146                           
  2147                           ;configuraciones_pic.c: 114:         PIE1bits.ADIE = 1;
  2148  003C' 170C               	bsf	12,6	;volatile
  2149                           
  2150                           ;configuraciones_pic.c: 115:         PIR1bits.ADIF = 0;
  2151  003D' 1283               	bcf	3,5	;RP0=0, select bank0
  2152  003E' 1303               	bcf	3,6	;RP1=0, select bank0
  2153  003F' 130C               	bcf	12,6	;volatile
  2154  0040' 2800'              	goto	l2422
  2155  0041'                    l59:	
  2156                           ;configuraciones_pic.c: 118:         case 0:
  2157                           
  2158                           
  2159                           ;configuraciones_pic.c: 119:             ADCON1bits.VCFG0 = 1;
  2160  0041' 1683               	bsf	3,5	;RP0=1, select bank1
  2161  0042' 1303               	bcf	3,6	;RP1=0, select bank1
  2162  0043' 161F               	bsf	31,4	;volatile
  2163                           
  2164                           ;configuraciones_pic.c: 120:             ADCON1bits.VCFG1 = 0;
  2165  0044' 129F               	bcf	31,5	;volatile
  2166                           
  2167                           ;configuraciones_pic.c: 121:             break;
  2168  0045' 2800'              	goto	l64
  2169  0046'                    l61:	
  2170                           ;configuraciones_pic.c: 122:         case 1:
  2171                           
  2172                           
  2173                           ;configuraciones_pic.c: 123:             ADCON1bits.VCFG0 = 0;
  2174  0046' 1683               	bsf	3,5	;RP0=1, select bank1
  2175  0047' 1303               	bcf	3,6	;RP1=0, select bank1
  2176  0048' 121F               	bcf	31,4	;volatile
  2177                           
  2178                           ;configuraciones_pic.c: 124:             ADCON1bits.VCFG1 = 1;
  2179  0049' 169F               	bsf	31,5	;volatile
  2180                           
  2181                           ;configuraciones_pic.c: 125:             break;
  2182  004A' 2800'              	goto	l64
  2183  004B'                    l62:	
  2184                           ;configuraciones_pic.c: 126:         case 2:
  2185                           
  2186                           
  2187                           ;configuraciones_pic.c: 127:             ADCON1bits.VCFG0 = 1;
  2188  004B' 1683               	bsf	3,5	;RP0=1, select bank1
  2189  004C' 1303               	bcf	3,6	;RP1=0, select bank1
  2190  004D' 161F               	bsf	31,4	;volatile
  2191                           
  2192                           ;configuraciones_pic.c: 128:             ADCON1bits.VCFG1 = 1;
  2193  004E' 169F               	bsf	31,5	;volatile
  2194                           
  2195                           ;configuraciones_pic.c: 129:             break;
  2196  004F' 2800'              	goto	l64
  2197  0050'                    l63:	
  2198                           ;configuraciones_pic.c: 130:         default:
  2199                           
  2200                           
  2201                           ;configuraciones_pic.c: 131:             ADCON1bits.VCFG0 = 0;
  2202  0050' 1683               	bsf	3,5	;RP0=1, select bank1
  2203  0051' 1303               	bcf	3,6	;RP1=0, select bank1
  2204  0052' 121F               	bcf	31,4	;volatile
  2205                           
  2206                           ;configuraciones_pic.c: 132:             ADCON1bits.VCFG1 = 0;
  2207  0053' 129F               	bcf	31,5	;volatile
  2208                           
  2209                           ;configuraciones_pic.c: 133:             break;
  2210  0054' 2800'              	goto	l64
  2211  0055'                    l2422:
  2212  0055' 0801'              	movf	conf_ADC@Vref,w
  2213  0056' 0083'              	movwf	??_conf_ADC
  2214  0057' 0184'              	clrf	??_conf_ADC+1
  2215                           
  2216                           ; Switch on 2 bytes has been partitioned into a top level switch of size 1, and 1 sub-sw
      +                          itches
  2217                           ; Switch size 1, requested type "simple"
  2218                           ; Number of cases is 1, Range of values is 0 to 0
  2219                           ; switch strategies available:
  2220                           ; Name         Instructions Cycles
  2221                           ; simple_byte            4     3 (average)
  2222                           ; direct_byte           11     8 (fixed)
  2223                           ; jumptable            260     6 (fixed)
  2224                           ;	Chosen strategy is simple_byte
  2225  0058' 0804'              	movf	??_conf_ADC+1,w
  2226  0059' 3A00               	xorlw	0	; case 0
  2227  005A' 1903               	skipnz
  2228  005B' 2800'              	goto	l3382
  2229  005C' 2800'              	goto	l63
  2230  005D'                    l3382:
  2231                           
  2232                           ; Switch size 1, requested type "simple"
  2233                           ; Number of cases is 3, Range of values is 0 to 2
  2234                           ; switch strategies available:
  2235                           ; Name         Instructions Cycles
  2236                           ; simple_byte           10     6 (average)
  2237                           ; direct_byte           17     8 (fixed)
  2238                           ; jumptable            260     6 (fixed)
  2239                           ;	Chosen strategy is simple_byte
  2240  005D' 0803'              	movf	??_conf_ADC,w
  2241  005E' 3A00               	xorlw	0	; case 0
  2242  005F' 1903               	skipnz
  2243  0060' 2800'              	goto	l59
  2244  0061' 3A01               	xorlw	1	; case 1
  2245  0062' 1903               	skipnz
  2246  0063' 2800'              	goto	l61
  2247  0064' 3A03               	xorlw	3	; case 2
  2248  0065' 1903               	skipnz
  2249  0066' 2800'              	goto	l62
  2250  0067' 2800'              	goto	l63
  2251  0068'                    l64:
  2252  0068' 0008               	return
  2253  0069'                    __end_of_conf_ADC:
  2254                           
  2255                           	psect	text4
  2256  0000'                    __ptext4:	
  2257 ;; *************** function _mensaje *****************
  2258 ;; Defined at:
  2259 ;;		line 107 in file "Lab02.c"
  2260 ;; Parameters:    Size  Location     Type
  2261 ;;		None
  2262 ;; Auto vars:     Size  Location     Type
  2263 ;;		None
  2264 ;; Return value:  Size  Location     Type
  2265 ;;                  1    wreg      void 
  2266 ;; Registers used:
  2267 ;;		wreg, fsr0l, fsr0h, fsr1l, fsr1h, fsr1l, fsr1h, status,2, status,0, btemp+1, pclath, cstack
  2268 ;; Tracked objects:
  2269 ;;		On entry : 0/0
  2270 ;;		On exit  : 0/0
  2271 ;;		Unchanged: 0/0
  2272 ;; Data sizes:     COMMON   BANK0   BANK1   BANK3   BANK2
  2273 ;;      Params:         0       0       0       0       0
  2274 ;;      Locals:         0       0       0       0       0
  2275 ;;      Temps:          2       0       0       0       0
  2276 ;;      Totals:         2       0       0       0       0
  2277 ;;Total ram usage:        2 bytes
  2278 ;; Hardware stack levels used:    1
  2279 ;; Hardware stack levels required when called:    2
  2280 ;; This function calls:
  2281 ;;		___delay_
  2282 ;;		_printf
  2283 ;; This function is called by:
  2284 ;;		_main
  2285 ;; This function uses a non-reentrant model
  2286 ;;
  2287                           
  2288                           
  2289                           ;psect for function _mensaje
  2290  0000'                    _mensaje:
  2291  0000'                    l3162:	
  2292                           ;incstack = 0
  2293                           ; Regs used in _mensaje: [allreg]
  2294                           
  2295                           
  2296                           ;Lab02.c: 108: 
  2297  0000' 302C               	movlw	44
  2298  0001' 0080'              	movwf	?___delay_
  2299  0002' 3001               	movlw	1
  2300  0003' 0081'              	movwf	?___delay_+1
  2301  0004' 120A' 118A' 2000' 120A' 118A' 	fcall	___delay_
  2302  0009'                    l3164:
  2303                           
  2304                           ;Lab02.c: 109: 
  2305  0009' 3001               	movlw	(low ((STR_6-__stringbase)| (0+32768)))& (0+255)
  2306  000A' 0081'              	movwf	printf@f
  2307  000B' 3080               	movlw	128
  2308  000C' 0082'              	movwf	printf@f+1
  2309  000D' 120A' 118A' 2000' 120A' 118A' 	fcall	_printf
  2310  0012'                    l3166:
  2311                           
  2312                           ;Lab02.c: 110: 
  2313  0012' 304E               	movlw	78
  2314  0013' 008B'              	movwf	??_mensaje+1
  2315  0014' 30EB               	movlw	235
  2316  0015' 008A'              	movwf	??_mensaje
  2317  0016'                    u3637:
  2318  0016' 0B8A'              	decfsz	??_mensaje,f
  2319  0017' 2800'              	goto	u3637
  2320  0018' 0B8B'              	decfsz	??_mensaje+1,f
  2321  0019' 2800'              	goto	u3637
  2322  001A'                    l3168:
  2323                           
  2324                           ;Lab02.c: 111:     TXSTAbits.SYNC = 0;
  2325  001A' 3000'              	movlw	(low (_adc0| 0))& (0+255)
  2326  001B' 0081'              	movwf	printf@f
  2327  001C' 3000               	movlw	0
  2328  001D' 0082'              	movwf	printf@f+1
  2329  001E' 120A' 118A' 2000' 120A' 118A' 	fcall	_printf
  2330  0023'                    l3170:
  2331                           
  2332                           ;Lab02.c: 112:     TXSTAbits.BRGH = 1;
  2333  0023' 304E               	movlw	78
  2334  0024' 008B'              	movwf	??_mensaje+1
  2335  0025' 30EB               	movlw	235
  2336  0026' 008A'              	movwf	??_mensaje
  2337  0027'                    u3647:
  2338  0027' 0B8A'              	decfsz	??_mensaje,f
  2339  0028' 2800'              	goto	u3647
  2340  0029' 0B8B'              	decfsz	??_mensaje+1,f
  2341  002A' 2800'              	goto	u3647
  2342  002B'                    l3172:
  2343                           
  2344                           ;Lab02.c: 113:     BAUDCTLbits.BRG16 = 1;
  2345  002B' 3010               	movlw	(low ((STR_7-__stringbase)| (0+32768)))& (0+255)
  2346  002C' 0081'              	movwf	printf@f
  2347  002D' 3080               	movlw	128
  2348  002E' 0082'              	movwf	printf@f+1
  2349  002F' 120A' 118A' 2000' 120A' 118A' 	fcall	_printf
  2350  0034'                    l3174:
  2351                           
  2352                           ;Lab02.c: 114: 
  2353  0034' 304E               	movlw	78
  2354  0035' 008B'              	movwf	??_mensaje+1
  2355  0036' 30EB               	movlw	235
  2356  0037' 008A'              	movwf	??_mensaje
  2357  0038'                    u3657:
  2358  0038' 0B8A'              	decfsz	??_mensaje,f
  2359  0039' 2800'              	goto	u3657
  2360  003A' 0B8B'              	decfsz	??_mensaje+1,f
  2361  003B' 2800'              	goto	u3657
  2362  003C'                    l3176:
  2363                           
  2364                           ;Lab02.c: 115:     SPBRG = 207;
  2365  003C' 3000'              	movlw	(low (_adc1| 0))& (0+255)
  2366  003D' 0081'              	movwf	printf@f
  2367  003E' 3000               	movlw	0
  2368  003F' 0082'              	movwf	printf@f+1
  2369  0040' 120A' 118A' 2000' 120A' 118A' 	fcall	_printf
  2370  0045'                    l236:
  2371  0045' 0008               	return
  2372  0046'                    __end_of_mensaje:
  2373                           
  2374                           	psect	text5
  2375  0000'                    __ptext5:	
  2376 ;; *************** function _printf *****************
  2377 ;; Defined at:
  2378 ;;		line 477 in file "C:\Program Files\Microchip\xc8\v2.31\pic\sources\c90\common\doprnt.c"
  2379 ;; Parameters:    Size  Location     Type
  2380 ;;  f               2    1[COMMON] PTR const unsigned char 
  2381 ;;		 -> STR_7(15), STR_6(15), adc1(10), adc0(10), 
  2382 ;; Auto vars:     Size  Location     Type
  2383 ;;  tmpval          4    0        struct .
  2384 ;;  cp              2    0        PTR const unsigned char 
  2385 ;;  len             2    0        unsigned int 
  2386 ;;  val             2    0        unsigned int 
  2387 ;;  c               1    9[COMMON] unsigned char 
  2388 ;;  flag            1    0        unsigned char 
  2389 ;;  ap              1    7[COMMON] PTR void [1]
  2390 ;;		 -> ?_printf(2), 
  2391 ;;  prec            1    0        char 
  2392 ;; Return value:  Size  Location     Type
  2393 ;;                  2    1[COMMON] int 
  2394 ;; Registers used:
  2395 ;;		wreg, fsr0l, fsr0h, status,2, status,0, btemp+1, pclath, cstack
  2396 ;; Tracked objects:
  2397 ;;		On entry : 0/0
  2398 ;;		On exit  : 0/0
  2399 ;;		Unchanged: 0/0
  2400 ;; Data sizes:     COMMON   BANK0   BANK1   BANK3   BANK2
  2401 ;;      Params:         2       0       0       0       0
  2402 ;;      Locals:         3       0       0       0       0
  2403 ;;      Temps:          4       0       0       0       0
  2404 ;;      Totals:         9       0       0       0       0
  2405 ;;Total ram usage:        9 bytes
  2406 ;; Hardware stack levels used:    1
  2407 ;; Hardware stack levels required when called:    1
  2408 ;; This function calls:
  2409 ;;		_putch
  2410 ;; This function is called by:
  2411 ;;		_mensaje
  2412 ;; This function uses a non-reentrant model
  2413 ;;
  2414                           
  2415                           
  2416                           ;psect for function _printf
  2417  0000'                    _printf:
  2418  0000'                    l2432:	
  2419                           ;incstack = 0
  2420                           ; Regs used in _printf: [wreg-fsr0h+status,2+status,0+btemp+1+pclath+cstack]
  2421                           
  2422                           
  2423                           ;C:\Program Files\Microchip\xc8\v2.31\pic\sources\c90\common\doprnt.c: 477: printf(const
      +                           char * f, ...);C:\Program Files\Microchip\xc8\v2.31\pic\sources\c90\common\doprnt.c: 47
      +                          8: {;C:\Program Files\Microchip\xc8\v2.31\pic\sources\c90\common\doprnt.c: 479:  va_list
      +                           ap;;C:\Program Files\Microchip\xc8\v2.31\pic\sources\c90\common\doprnt.c: 512:  char c;
      +                          ;C:\Program Files\Microchip\xc8\v2.31\pic\sources\c90\common\doprnt.c: 521:  signed char
      +                           prec;;C:\Program Files\Microchip\xc8\v2.31\pic\sources\c90\common\doprnt.c: 525:  unsig
      +                          ned char flag;
  2424  0000' 3000'              	movlw	(low ((?_printf| 0+2)))& (0+255)
  2425  0001' 0083'              	movwf	??_printf
  2426  0002' 0803'              	movf	??_printf,w
  2427  0003' 0087'              	movwf	printf@ap
  2428                           
  2429                           ;C:\Program Files\Microchip\xc8\v2.31\pic\sources\c90\common\doprnt.c: 553:  while((c = 
      +                          *f++)) {
  2430  0004' 2800'              	goto	l2446
  2431  0005'                    l2434:
  2432                           
  2433                           ;C:\Program Files\Microchip\xc8\v2.31\pic\sources\c90\common\doprnt.c: 555:   if(c != '%
      +                          ')
  2434  0005' 3025               	movlw	37
  2435  0006' 0609'              	xorwf	printf@c,w
  2436  0007' 1903               	btfsc	3,2
  2437  0008' 2800'              	goto	u2341
  2438  0009' 2800'              	goto	u2340
  2439  000A'                    u2341:
  2440  000A' 2800'              	goto	l2438
  2441  000B'                    u2340:
  2442  000B'                    l2436:
  2443                           
  2444                           ;C:\Program Files\Microchip\xc8\v2.31\pic\sources\c90\common\doprnt.c: 557:   {;C:\Progr
      +                          am Files\Microchip\xc8\v2.31\pic\sources\c90\common\doprnt.c: 558:    (putch(c) );
  2445  000B' 0809'              	movf	printf@c,w
  2446  000C' 120A' 118A' 2000' 120A' 118A' 	fcall	_putch
  2447                           
  2448                           ;C:\Program Files\Microchip\xc8\v2.31\pic\sources\c90\common\doprnt.c: 559:    continue;
  2449  0011' 2800'              	goto	l2446
  2450  0012'                    l2438:
  2451                           
  2452                           ;C:\Program Files\Microchip\xc8\v2.31\pic\sources\c90\common\doprnt.c: 661:   switch(c =
      +                           *f++) {
  2453  0012' 2800'              	goto	l2444
  2454  0013'                    l2440:
  2455                           
  2456                           ;C:\Program Files\Microchip\xc8\v2.31\pic\sources\c90\common\doprnt.c: 835:    (putch(c)
      +                           );
  2457  0013' 0809'              	movf	printf@c,w
  2458  0014' 120A' 118A' 2000' 120A' 118A' 	fcall	_putch
  2459                           
  2460                           ;C:\Program Files\Microchip\xc8\v2.31\pic\sources\c90\common\doprnt.c: 836:    continue;
  2461  0019' 2800'              	goto	l2446
  2462  001A'                    l2444:
  2463  001A' 0802'              	movf	printf@f+1,w
  2464  001B' 0084'              	movwf	??_printf+1
  2465  001C' 0801'              	movf	printf@f,w
  2466  001D' 0083'              	movwf	??_printf
  2467  001E' 0A81'              	incf	printf@f,f
  2468  001F' 1903               	skipnz
  2469  0020' 0A82'              	incf	printf@f+1,f
  2470  0021' 0804'              	movf	??_printf+1,w
  2471  0022' 00FF               	movwf	btemp+1
  2472  0023' 0803'              	movf	??_printf,w
  2473  0024' 0084               	movwf	4
  2474  0025' 120A' 118A' 2000' 120A' 118A' 	fcall	stringtab
  2475  002A' 0089'              	movwf	printf@c
  2476  002B' 0085'              	movwf	??_printf+2
  2477  002C' 0186'              	clrf	??_printf+3
  2478                           
  2479                           ; Switch on 2 bytes has been partitioned into a top level switch of size 1, and 1 sub-sw
      +                          itches
  2480                           ; Switch size 1, requested type "simple"
  2481                           ; Number of cases is 1, Range of values is 0 to 0
  2482                           ; switch strategies available:
  2483                           ; Name         Instructions Cycles
  2484                           ; simple_byte            4     3 (average)
  2485                           ; direct_byte           11     8 (fixed)
  2486                           ; jumptable            260     6 (fixed)
  2487                           ;	Chosen strategy is simple_byte
  2488  002D' 0806'              	movf	??_printf+3,w
  2489  002E' 3A00               	xorlw	0	; case 0
  2490  002F' 1903               	skipnz
  2491  0030' 2800'              	goto	l3384
  2492  0031' 2800'              	goto	l2440
  2493  0032'                    l3384:
  2494                           
  2495                           ; Switch size 1, requested type "simple"
  2496                           ; Number of cases is 1, Range of values is 0 to 0
  2497                           ; switch strategies available:
  2498                           ; Name         Instructions Cycles
  2499                           ; simple_byte            4     3 (average)
  2500                           ; direct_byte           11     8 (fixed)
  2501                           ; jumptable            260     6 (fixed)
  2502                           ;	Chosen strategy is simple_byte
  2503  0032' 0805'              	movf	??_printf+2,w
  2504  0033' 3A00               	xorlw	0	; case 0
  2505  0034' 1903               	skipnz
  2506  0035' 2800'              	goto	l382
  2507  0036' 2800'              	goto	l2440
  2508  0037'                    l2446:
  2509                           
  2510                           ;C:\Program Files\Microchip\xc8\v2.31\pic\sources\c90\common\doprnt.c: 553:  while((c = 
      +                          *f++)) {
  2511  0037' 0802'              	movf	printf@f+1,w
  2512  0038' 0084'              	movwf	??_printf+1
  2513  0039' 0801'              	movf	printf@f,w
  2514  003A' 0083'              	movwf	??_printf
  2515  003B' 0A81'              	incf	printf@f,f
  2516  003C' 1903               	skipnz
  2517  003D' 0A82'              	incf	printf@f+1,f
  2518  003E' 0804'              	movf	??_printf+1,w
  2519  003F' 1283               	bcf	3,5	;RP0=0, select bank0
  2520  0040' 1303               	bcf	3,6	;RP1=0, select bank0
  2521  0041' 00FF               	movwf	btemp+1
  2522  0042' 0803'              	movf	??_printf,w
  2523  0043' 0084               	movwf	4
  2524  0044' 120A' 118A' 2000' 120A' 118A' 	fcall	stringtab
  2525  0049' 0085'              	movwf	??_printf+2
  2526  004A' 0805'              	movf	??_printf+2,w
  2527  004B' 0089'              	movwf	printf@c
  2528  004C' 0809'              	movf	printf@c,w
  2529  004D' 1D03               	btfss	3,2
  2530  004E' 2800'              	goto	u2351
  2531  004F' 2800'              	goto	u2350
  2532  0050'                    u2351:
  2533  0050' 2800'              	goto	l2434
  2534  0051'                    u2350:
  2535  0051'                    l382:
  2536  0051' 0008               	return
  2537  0052'                    __end_of_printf:
  2538                           
  2539                           	psect	text6
  2540  0000'                    __ptext6:	
  2541 ;; *************** function _putch *****************
  2542 ;; Defined at:
  2543 ;;		line 117 in file "Lab02.c"
  2544 ;; Parameters:    Size  Location     Type
  2545 ;;  dato            1    wreg     unsigned char 
  2546 ;; Auto vars:     Size  Location     Type
  2547 ;;  dato            1    0[COMMON] unsigned char 
  2548 ;; Return value:  Size  Location     Type
  2549 ;;                  1    wreg      void 
  2550 ;; Registers used:
  2551 ;;		wreg
  2552 ;; Tracked objects:
  2553 ;;		On entry : 0/0
  2554 ;;		On exit  : 0/0
  2555 ;;		Unchanged: 0/0
  2556 ;; Data sizes:     COMMON   BANK0   BANK1   BANK3   BANK2
  2557 ;;      Params:         0       0       0       0       0
  2558 ;;      Locals:         1       0       0       0       0
  2559 ;;      Temps:          0       0       0       0       0
  2560 ;;      Totals:         1       0       0       0       0
  2561 ;;Total ram usage:        1 bytes
  2562 ;; Hardware stack levels used:    1
  2563 ;; This function calls:
  2564 ;;		Nothing
  2565 ;; This function is called by:
  2566 ;;		_printf
  2567 ;; This function uses a non-reentrant model
  2568 ;;
  2569                           
  2570                           
  2571                           ;psect for function _putch
  2572  0000'                    _putch:
  2573                           
  2574                           ;incstack = 0
  2575                           ; Regs used in _putch: [wreg]
  2576                           ;putch@dato stored from wreg
  2577  0000' 0080'              	movwf	putch@dato
  2578  0001'                    l2156:
  2579  0001'                    l239:	
  2580                           ;Lab02.c: 118:     RCSTAbits.SPEN = 1;
  2581                           
  2582  0001' 1283               	bcf	3,5	;RP0=0, select bank0
  2583  0002' 1303               	bcf	3,6	;RP1=0, select bank0
  2584  0003' 1E0C               	btfss	12,4	;volatile
  2585  0004' 2800'              	goto	u1821
  2586  0005' 2800'              	goto	u1820
  2587  0006'                    u1821:
  2588  0006' 2800'              	goto	l239
  2589  0007'                    u1820:
  2590  0007'                    l2158:
  2591                           
  2592                           ;Lab02.c: 119:     RCSTAbits.RX9 = 0;
  2593  0007' 0800'              	movf	putch@dato,w
  2594  0008' 0099               	movwf	25	;volatile
  2595  0009'                    l242:
  2596  0009' 0008               	return
  2597  000A'                    __end_of_putch:
  2598                           
  2599                           	psect	text7
  2600  0000'                    __ptext7:	
  2601 ;; *************** function _canal_ADC *****************
  2602 ;; Defined at:
  2603 ;;		line 201 in file "configuraciones_pic.c"
  2604 ;; Parameters:    Size  Location     Type
  2605 ;;  channel         1    wreg     unsigned char 
  2606 ;; Auto vars:     Size  Location     Type
  2607 ;;  channel         1    2[COMMON] unsigned char 
  2608 ;; Return value:  Size  Location     Type
  2609 ;;                  1    wreg      void 
  2610 ;; Registers used:
  2611 ;;		wreg, fsr0l, fsr0h, status,2, status,0
  2612 ;; Tracked objects:
  2613 ;;		On entry : 0/0
  2614 ;;		On exit  : 0/0
  2615 ;;		Unchanged: 0/0
  2616 ;; Data sizes:     COMMON   BANK0   BANK1   BANK3   BANK2
  2617 ;;      Params:         0       0       0       0       0
  2618 ;;      Locals:         1       0       0       0       0
  2619 ;;      Temps:          2       0       0       0       0
  2620 ;;      Totals:         3       0       0       0       0
  2621 ;;Total ram usage:        3 bytes
  2622 ;; Hardware stack levels used:    1
  2623 ;; This function calls:
  2624 ;;		Nothing
  2625 ;; This function is called by:
  2626 ;;		_main
  2627 ;; This function uses a non-reentrant model
  2628 ;;
  2629                           
  2630                           
  2631                           ;psect for function _canal_ADC
  2632  0000'                    _canal_ADC:
  2633                           
  2634                           ;incstack = 0
  2635                           ; Regs used in _canal_ADC: [wreg-fsr0h+status,2+status,0]
  2636                           ;canal_ADC@channel stored from wreg
  2637  0000' 0082'              	movwf	canal_ADC@channel
  2638  0001'                    l3022:
  2639                           
  2640                           ;configuraciones_pic.c: 202:     switch (channel) {
  2641  0001' 2800'              	goto	l3026
  2642  0002'                    l94:	
  2643                           ;configuraciones_pic.c: 203:         case 0:
  2644                           
  2645                           
  2646                           ;configuraciones_pic.c: 204:             ANSELbits.ANS0 = 1;
  2647  0002' 1683               	bsf	3,5	;RP0=1, select bank3
  2648  0003' 1703               	bsf	3,6	;RP1=1, select bank3
  2649  0004' 1408               	bsf	8,0	;volatile
  2650                           
  2651                           ;configuraciones_pic.c: 205:             break;
  2652  0005' 2800'              	goto	l109
  2653  0006'                    l96:	
  2654                           ;configuraciones_pic.c: 206:         case 1:
  2655                           
  2656                           
  2657                           ;configuraciones_pic.c: 207:             ANSELbits.ANS1 = 1;
  2658  0006' 1683               	bsf	3,5	;RP0=1, select bank3
  2659  0007' 1703               	bsf	3,6	;RP1=1, select bank3
  2660  0008' 1488               	bsf	8,1	;volatile
  2661                           
  2662                           ;configuraciones_pic.c: 208:             break;
  2663  0009' 2800'              	goto	l109
  2664  000A'                    l97:	
  2665                           ;configuraciones_pic.c: 209:         case 2:
  2666                           
  2667                           
  2668                           ;configuraciones_pic.c: 210:             ANSELbits.ANS2 = 1;
  2669  000A' 1683               	bsf	3,5	;RP0=1, select bank3
  2670  000B' 1703               	bsf	3,6	;RP1=1, select bank3
  2671  000C' 1508               	bsf	8,2	;volatile
  2672                           
  2673                           ;configuraciones_pic.c: 211:             break;
  2674  000D' 2800'              	goto	l109
  2675  000E'                    l98:	
  2676                           ;configuraciones_pic.c: 212:         case 3:
  2677                           
  2678                           
  2679                           ;configuraciones_pic.c: 213:             ANSELbits.ANS3 = 1;
  2680  000E' 1683               	bsf	3,5	;RP0=1, select bank3
  2681  000F' 1703               	bsf	3,6	;RP1=1, select bank3
  2682  0010' 1588               	bsf	8,3	;volatile
  2683                           
  2684                           ;configuraciones_pic.c: 214:             break;
  2685  0011' 2800'              	goto	l109
  2686  0012'                    l99:	
  2687                           ;configuraciones_pic.c: 215:         case 4:
  2688                           
  2689                           
  2690                           ;configuraciones_pic.c: 216:             ANSELbits.ANS4 = 1;
  2691  0012' 1683               	bsf	3,5	;RP0=1, select bank3
  2692  0013' 1703               	bsf	3,6	;RP1=1, select bank3
  2693  0014' 1608               	bsf	8,4	;volatile
  2694                           
  2695                           ;configuraciones_pic.c: 217:             break;
  2696  0015' 2800'              	goto	l109
  2697  0016'                    l100:	
  2698                           ;configuraciones_pic.c: 218:         case 5:
  2699                           
  2700                           
  2701                           ;configuraciones_pic.c: 219:             ANSELbits.ANS5 = 1;
  2702  0016' 1683               	bsf	3,5	;RP0=1, select bank3
  2703  0017' 1703               	bsf	3,6	;RP1=1, select bank3
  2704  0018' 1688               	bsf	8,5	;volatile
  2705                           
  2706                           ;configuraciones_pic.c: 220:             break;
  2707  0019' 2800'              	goto	l109
  2708  001A'                    l101:	
  2709                           ;configuraciones_pic.c: 221:         case 6:
  2710                           
  2711                           
  2712                           ;configuraciones_pic.c: 222:             ANSELbits.ANS6 = 1;
  2713  001A' 1683               	bsf	3,5	;RP0=1, select bank3
  2714  001B' 1703               	bsf	3,6	;RP1=1, select bank3
  2715  001C' 1708               	bsf	8,6	;volatile
  2716                           
  2717                           ;configuraciones_pic.c: 223:             break;
  2718  001D' 2800'              	goto	l109
  2719  001E'                    l102:	
  2720                           ;configuraciones_pic.c: 224:         case 7:
  2721                           
  2722                           
  2723                           ;configuraciones_pic.c: 225:             ANSELbits.ANS7 = 1;
  2724  001E' 1683               	bsf	3,5	;RP0=1, select bank3
  2725  001F' 1703               	bsf	3,6	;RP1=1, select bank3
  2726  0020' 1788               	bsf	8,7	;volatile
  2727                           
  2728                           ;configuraciones_pic.c: 226:             break;
  2729  0021' 2800'              	goto	l109
  2730  0022'                    l103:	
  2731                           ;configuraciones_pic.c: 227:         case 8:
  2732                           
  2733                           
  2734                           ;configuraciones_pic.c: 228:             ANSELHbits.ANS8 = 1;
  2735  0022' 1683               	bsf	3,5	;RP0=1, select bank3
  2736  0023' 1703               	bsf	3,6	;RP1=1, select bank3
  2737  0024' 1409               	bsf	9,0	;volatile
  2738                           
  2739                           ;configuraciones_pic.c: 229:             break;
  2740  0025' 2800'              	goto	l109
  2741  0026'                    l104:	
  2742                           ;configuraciones_pic.c: 230:         case 9:
  2743                           
  2744                           
  2745                           ;configuraciones_pic.c: 231:             ANSELHbits.ANS9 = 1;
  2746  0026' 1683               	bsf	3,5	;RP0=1, select bank3
  2747  0027' 1703               	bsf	3,6	;RP1=1, select bank3
  2748  0028' 1489               	bsf	9,1	;volatile
  2749                           
  2750                           ;configuraciones_pic.c: 232:             break;
  2751  0029' 2800'              	goto	l109
  2752  002A'                    l105:	
  2753                           ;configuraciones_pic.c: 233:         case 10:
  2754                           
  2755                           
  2756                           ;configuraciones_pic.c: 234:             ANSELHbits.ANS10 = 1;
  2757  002A' 1683               	bsf	3,5	;RP0=1, select bank3
  2758  002B' 1703               	bsf	3,6	;RP1=1, select bank3
  2759  002C' 1509               	bsf	9,2	;volatile
  2760                           
  2761                           ;configuraciones_pic.c: 235:             break;
  2762  002D' 2800'              	goto	l109
  2763  002E'                    l106:	
  2764                           ;configuraciones_pic.c: 236:         case 11:
  2765                           
  2766                           
  2767                           ;configuraciones_pic.c: 237:             ANSELHbits.ANS11 = 1;
  2768  002E' 1683               	bsf	3,5	;RP0=1, select bank3
  2769  002F' 1703               	bsf	3,6	;RP1=1, select bank3
  2770  0030' 1589               	bsf	9,3	;volatile
  2771                           
  2772                           ;configuraciones_pic.c: 238:             break;
  2773  0031' 2800'              	goto	l109
  2774  0032'                    l107:	
  2775                           ;configuraciones_pic.c: 239:         case 12:
  2776                           
  2777                           
  2778                           ;configuraciones_pic.c: 240:             ANSELHbits.ANS12 = 1;
  2779  0032' 1683               	bsf	3,5	;RP0=1, select bank3
  2780  0033' 1703               	bsf	3,6	;RP1=1, select bank3
  2781  0034' 1609               	bsf	9,4	;volatile
  2782                           
  2783                           ;configuraciones_pic.c: 241:             break;
  2784  0035' 2800'              	goto	l109
  2785  0036'                    l108:	
  2786                           ;configuraciones_pic.c: 242:         case 13:
  2787                           
  2788                           
  2789                           ;configuraciones_pic.c: 243:             ANSELHbits.ANS13 = 1;
  2790  0036' 1683               	bsf	3,5	;RP0=1, select bank3
  2791  0037' 1703               	bsf	3,6	;RP1=1, select bank3
  2792  0038' 1689               	bsf	9,5	;volatile
  2793                           
  2794                           ;configuraciones_pic.c: 244:             break;
  2795  0039' 2800'              	goto	l109
  2796  003A'                    l3026:
  2797  003A' 0802'              	movf	canal_ADC@channel,w
  2798  003B' 0080'              	movwf	??_canal_ADC
  2799  003C' 0181'              	clrf	??_canal_ADC+1
  2800                           
  2801                           ; Switch on 2 bytes has been partitioned into a top level switch of size 1, and 1 sub-sw
      +                          itches
  2802                           ; Switch size 1, requested type "simple"
  2803                           ; Number of cases is 1, Range of values is 0 to 0
  2804                           ; switch strategies available:
  2805                           ; Name         Instructions Cycles
  2806                           ; simple_byte            4     3 (average)
  2807                           ; direct_byte           11     8 (fixed)
  2808                           ; jumptable            260     6 (fixed)
  2809                           ;	Chosen strategy is simple_byte
  2810  003D' 0801'              	movf	??_canal_ADC+1,w
  2811  003E' 3A00               	xorlw	0	; case 0
  2812  003F' 1903               	skipnz
  2813  0040' 2800'              	goto	l3386
  2814  0041' 2800'              	goto	l109
  2815  0042'                    l3386:
  2816                           
  2817                           ; Switch size 1, requested type "simple"
  2818                           ; Number of cases is 14, Range of values is 0 to 13
  2819                           ; switch strategies available:
  2820                           ; Name         Instructions Cycles
  2821                           ; simple_byte           43    22 (average)
  2822                           ; direct_byte           50     8 (fixed)
  2823                           ; jumptable            260     6 (fixed)
  2824                           ;	Chosen strategy is simple_byte
  2825  0042' 0800'              	movf	??_canal_ADC,w
  2826  0043' 3A00               	xorlw	0	; case 0
  2827  0044' 1903               	skipnz
  2828  0045' 2800'              	goto	l94
  2829  0046' 3A01               	xorlw	1	; case 1
  2830  0047' 1903               	skipnz
  2831  0048' 2800'              	goto	l96
  2832  0049' 3A03               	xorlw	3	; case 2
  2833  004A' 1903               	skipnz
  2834  004B' 2800'              	goto	l97
  2835  004C' 3A01               	xorlw	1	; case 3
  2836  004D' 1903               	skipnz
  2837  004E' 2800'              	goto	l98
  2838  004F' 3A07               	xorlw	7	; case 4
  2839  0050' 1903               	skipnz
  2840  0051' 2800'              	goto	l99
  2841  0052' 3A01               	xorlw	1	; case 5
  2842  0053' 1903               	skipnz
  2843  0054' 2800'              	goto	l100
  2844  0055' 3A03               	xorlw	3	; case 6
  2845  0056' 1903               	skipnz
  2846  0057' 2800'              	goto	l101
  2847  0058' 3A01               	xorlw	1	; case 7
  2848  0059' 1903               	skipnz
  2849  005A' 2800'              	goto	l102
  2850  005B' 3A0F               	xorlw	15	; case 8
  2851  005C' 1903               	skipnz
  2852  005D' 2800'              	goto	l103
  2853  005E' 3A01               	xorlw	1	; case 9
  2854  005F' 1903               	skipnz
  2855  0060' 2800'              	goto	l104
  2856  0061' 3A03               	xorlw	3	; case 10
  2857  0062' 1903               	skipnz
  2858  0063' 2800'              	goto	l105
  2859  0064' 3A01               	xorlw	1	; case 11
  2860  0065' 1903               	skipnz
  2861  0066' 2800'              	goto	l106
  2862  0067' 3A07               	xorlw	7	; case 12
  2863  0068' 1903               	skipnz
  2864  0069' 2800'              	goto	l107
  2865  006A' 3A01               	xorlw	1	; case 13
  2866  006B' 1903               	skipnz
  2867  006C' 2800'              	goto	l108
  2868  006D' 2800'              	goto	l109
  2869  006E'                    l109:
  2870  006E' 0008               	return
  2871  006F'                    __end_of_canal_ADC:
  2872                           
  2873                           	psect	text8
  2874  0000'                    __ptext8:	
  2875 ;; *************** function _Select_ch *****************
  2876 ;; Defined at:
  2877 ;;		line 249 in file "configuraciones_pic.c"
  2878 ;; Parameters:    Size  Location     Type
  2879 ;;  channel         1    wreg     unsigned char 
  2880 ;; Auto vars:     Size  Location     Type
  2881 ;;  channel         1    2[COMMON] unsigned char 
  2882 ;; Return value:  Size  Location     Type
  2883 ;;                  1    wreg      void 
  2884 ;; Registers used:
  2885 ;;		wreg, fsr0l, fsr0h, status,2, status,0
  2886 ;; Tracked objects:
  2887 ;;		On entry : 0/0
  2888 ;;		On exit  : 0/0
  2889 ;;		Unchanged: 0/0
  2890 ;; Data sizes:     COMMON   BANK0   BANK1   BANK3   BANK2
  2891 ;;      Params:         0       0       0       0       0
  2892 ;;      Locals:         1       0       0       0       0
  2893 ;;      Temps:          2       0       0       0       0
  2894 ;;      Totals:         3       0       0       0       0
  2895 ;;Total ram usage:        3 bytes
  2896 ;; Hardware stack levels used:    1
  2897 ;; This function calls:
  2898 ;;		Nothing
  2899 ;; This function is called by:
  2900 ;;		_main
  2901 ;; This function uses a non-reentrant model
  2902 ;;
  2903                           
  2904                           
  2905                           ;psect for function _Select_ch
  2906  0000'                    _Select_ch:
  2907                           
  2908                           ;incstack = 0
  2909                           ; Regs used in _Select_ch: [wreg-fsr0h+status,2+status,0]
  2910                           ;Select_ch@channel stored from wreg
  2911  0000' 0082'              	movwf	Select_ch@channel
  2912  0001'                    l3032:
  2913                           
  2914                           ;configuraciones_pic.c: 250:     switch (channel) {
  2915  0001' 2800'              	goto	l3068
  2916  0002'                    l3034:
  2917                           
  2918                           ;configuraciones_pic.c: 252:             ADCON0bits.CHS = 0000;
  2919  0002' 30C3               	movlw	-61
  2920  0003' 1283               	bcf	3,5	;RP0=0, select bank0
  2921  0004' 1303               	bcf	3,6	;RP1=0, select bank0
  2922  0005' 059F               	andwf	31,f	;volatile
  2923                           
  2924                           ;configuraciones_pic.c: 253:             break;
  2925  0006' 2800'              	goto	l3070
  2926  0007'                    l3036:
  2927                           
  2928                           ;configuraciones_pic.c: 255:             ADCON0bits.CHS = 0001;
  2929  0007' 1283               	bcf	3,5	;RP0=0, select bank0
  2930  0008' 1303               	bcf	3,6	;RP1=0, select bank0
  2931  0009' 081F               	movf	31,w	;volatile
  2932  000A' 39C3               	andlw	-61
  2933  000B' 3804               	iorlw	4
  2934  000C' 009F               	movwf	31	;volatile
  2935                           
  2936                           ;configuraciones_pic.c: 256:             break;
  2937  000D' 2800'              	goto	l3070
  2938  000E'                    l3038:
  2939                           
  2940                           ;configuraciones_pic.c: 258:             ADCON0bits.CHS = 0010;
  2941  000E' 1283               	bcf	3,5	;RP0=0, select bank0
  2942  000F' 1303               	bcf	3,6	;RP1=0, select bank0
  2943  0010' 081F               	movf	31,w	;volatile
  2944  0011' 39C3               	andlw	-61
  2945  0012' 3820               	iorlw	32
  2946  0013' 009F               	movwf	31	;volatile
  2947                           
  2948                           ;configuraciones_pic.c: 259:             break;
  2949  0014' 2800'              	goto	l3070
  2950  0015'                    l3040:
  2951                           
  2952                           ;configuraciones_pic.c: 261:             ADCON0bits.CHS = 0011;
  2953  0015' 1283               	bcf	3,5	;RP0=0, select bank0
  2954  0016' 1303               	bcf	3,6	;RP1=0, select bank0
  2955  0017' 081F               	movf	31,w	;volatile
  2956  0018' 39C3               	andlw	-61
  2957  0019' 3824               	iorlw	36
  2958  001A' 009F               	movwf	31	;volatile
  2959                           
  2960                           ;configuraciones_pic.c: 262:             break;
  2961  001B' 2800'              	goto	l3070
  2962  001C'                    l3042:
  2963                           
  2964                           ;configuraciones_pic.c: 264:             ADCON0bits.CHS = 0100;
  2965  001C' 30C3               	movlw	-61
  2966  001D' 1283               	bcf	3,5	;RP0=0, select bank0
  2967  001E' 1303               	bcf	3,6	;RP1=0, select bank0
  2968  001F' 059F               	andwf	31,f	;volatile
  2969                           
  2970                           ;configuraciones_pic.c: 265:             break;
  2971  0020' 2800'              	goto	l3070
  2972  0021'                    l3044:
  2973                           
  2974                           ;configuraciones_pic.c: 267:             ADCON0bits.CHS = 0101;
  2975  0021' 1283               	bcf	3,5	;RP0=0, select bank0
  2976  0022' 1303               	bcf	3,6	;RP1=0, select bank0
  2977  0023' 081F               	movf	31,w	;volatile
  2978  0024' 39C3               	andlw	-61
  2979  0025' 3804               	iorlw	4
  2980  0026' 009F               	movwf	31	;volatile
  2981                           
  2982                           ;configuraciones_pic.c: 268:             break;
  2983  0027' 2800'              	goto	l3070
  2984  0028'                    l3046:
  2985                           
  2986                           ;configuraciones_pic.c: 270:             ADCON0bits.CHS = 0110;
  2987  0028' 1283               	bcf	3,5	;RP0=0, select bank0
  2988  0029' 1303               	bcf	3,6	;RP1=0, select bank0
  2989  002A' 081F               	movf	31,w	;volatile
  2990  002B' 39C3               	andlw	-61
  2991  002C' 3820               	iorlw	32
  2992  002D' 009F               	movwf	31	;volatile
  2993                           
  2994                           ;configuraciones_pic.c: 271:             break;
  2995  002E' 2800'              	goto	l3070
  2996  002F'                    l3048:
  2997                           
  2998                           ;configuraciones_pic.c: 273:             ADCON0bits.CHS = 0111;
  2999  002F' 1283               	bcf	3,5	;RP0=0, select bank0
  3000  0030' 1303               	bcf	3,6	;RP1=0, select bank0
  3001  0031' 081F               	movf	31,w	;volatile
  3002  0032' 39C3               	andlw	-61
  3003  0033' 3824               	iorlw	36
  3004  0034' 009F               	movwf	31	;volatile
  3005                           
  3006                           ;configuraciones_pic.c: 274:             break;
  3007  0035' 2800'              	goto	l3070
  3008  0036'                    l3050:
  3009                           
  3010                           ;configuraciones_pic.c: 276:             ADCON0bits.CHS = 1000;
  3011  0036' 1283               	bcf	3,5	;RP0=0, select bank0
  3012  0037' 1303               	bcf	3,6	;RP1=0, select bank0
  3013  0038' 081F               	movf	31,w	;volatile
  3014  0039' 39C3               	andlw	-61
  3015  003A' 3820               	iorlw	32
  3016  003B' 009F               	movwf	31	;volatile
  3017                           
  3018                           ;configuraciones_pic.c: 277:             break;
  3019  003C' 2800'              	goto	l3070
  3020  003D'                    l3052:
  3021                           
  3022                           ;configuraciones_pic.c: 279:             ADCON0bits.CHS = 1001;
  3023  003D' 1283               	bcf	3,5	;RP0=0, select bank0
  3024  003E' 1303               	bcf	3,6	;RP1=0, select bank0
  3025  003F' 081F               	movf	31,w	;volatile
  3026  0040' 39C3               	andlw	-61
  3027  0041' 3824               	iorlw	36
  3028  0042' 009F               	movwf	31	;volatile
  3029                           
  3030                           ;configuraciones_pic.c: 280:             break;
  3031  0043' 2800'              	goto	l3070
  3032  0044'                    l3054:
  3033                           
  3034                           ;configuraciones_pic.c: 282:             ADCON0bits.CHS = 1010;
  3035  0044' 1283               	bcf	3,5	;RP0=0, select bank0
  3036  0045' 1303               	bcf	3,6	;RP1=0, select bank0
  3037  0046' 081F               	movf	31,w	;volatile
  3038  0047' 39C3               	andlw	-61
  3039  0048' 3808               	iorlw	8
  3040  0049' 009F               	movwf	31	;volatile
  3041                           
  3042                           ;configuraciones_pic.c: 283:             break;
  3043  004A' 2800'              	goto	l3070
  3044  004B'                    l3056:
  3045                           
  3046                           ;configuraciones_pic.c: 285:             ADCON0bits.CHS = 1011;
  3047  004B' 1283               	bcf	3,5	;RP0=0, select bank0
  3048  004C' 1303               	bcf	3,6	;RP1=0, select bank0
  3049  004D' 081F               	movf	31,w	;volatile
  3050  004E' 39C3               	andlw	-61
  3051  004F' 380C               	iorlw	12
  3052  0050' 009F               	movwf	31	;volatile
  3053                           
  3054                           ;configuraciones_pic.c: 286:             break;
  3055  0051' 2800'              	goto	l3070
  3056  0052'                    l3058:
  3057                           
  3058                           ;configuraciones_pic.c: 288:             ADCON0bits.CHS = 1100;
  3059  0052' 1283               	bcf	3,5	;RP0=0, select bank0
  3060  0053' 1303               	bcf	3,6	;RP1=0, select bank0
  3061  0054' 081F               	movf	31,w	;volatile
  3062  0055' 39C3               	andlw	-61
  3063  0056' 3830               	iorlw	48
  3064  0057' 009F               	movwf	31	;volatile
  3065                           
  3066                           ;configuraciones_pic.c: 289:             break;
  3067  0058' 2800'              	goto	l3070
  3068  0059'                    l3060:
  3069                           
  3070                           ;configuraciones_pic.c: 291:             ADCON0bits.CHS = 1101;
  3071  0059' 1283               	bcf	3,5	;RP0=0, select bank0
  3072  005A' 1303               	bcf	3,6	;RP1=0, select bank0
  3073  005B' 081F               	movf	31,w	;volatile
  3074  005C' 39C3               	andlw	-61
  3075  005D' 3834               	iorlw	52
  3076  005E' 009F               	movwf	31	;volatile
  3077                           
  3078                           ;configuraciones_pic.c: 292:             break;
  3079  005F' 2800'              	goto	l3070
  3080  0060'                    l3062:
  3081                           
  3082                           ;configuraciones_pic.c: 294:             ADCON0bits.CHS = 1110;
  3083  0060' 1283               	bcf	3,5	;RP0=0, select bank0
  3084  0061' 1303               	bcf	3,6	;RP1=0, select bank0
  3085  0062' 081F               	movf	31,w	;volatile
  3086  0063' 39C3               	andlw	-61
  3087  0064' 3818               	iorlw	24
  3088  0065' 009F               	movwf	31	;volatile
  3089                           
  3090                           ;configuraciones_pic.c: 295:             break;
  3091  0066' 2800'              	goto	l3070
  3092  0067'                    l3064:
  3093                           
  3094                           ;configuraciones_pic.c: 297:             ADCON0bits.CHS = 1111;
  3095  0067' 1283               	bcf	3,5	;RP0=0, select bank0
  3096  0068' 1303               	bcf	3,6	;RP1=0, select bank0
  3097  0069' 081F               	movf	31,w	;volatile
  3098  006A' 39C3               	andlw	-61
  3099  006B' 381C               	iorlw	28
  3100  006C' 009F               	movwf	31	;volatile
  3101                           
  3102                           ;configuraciones_pic.c: 298:             break;
  3103  006D' 2800'              	goto	l3070
  3104  006E'                    l3068:
  3105  006E' 0802'              	movf	Select_ch@channel,w
  3106  006F' 0080'              	movwf	??_Select_ch
  3107  0070' 0181'              	clrf	??_Select_ch+1
  3108                           
  3109                           ; Switch on 2 bytes has been partitioned into a top level switch of size 1, and 1 sub-sw
      +                          itches
  3110                           ; Switch size 1, requested type "simple"
  3111                           ; Number of cases is 1, Range of values is 0 to 0
  3112                           ; switch strategies available:
  3113                           ; Name         Instructions Cycles
  3114                           ; simple_byte            4     3 (average)
  3115                           ; direct_byte           11     8 (fixed)
  3116                           ; jumptable            260     6 (fixed)
  3117                           ;	Chosen strategy is simple_byte
  3118  0071' 0801'              	movf	??_Select_ch+1,w
  3119  0072' 3A00               	xorlw	0	; case 0
  3120  0073' 1903               	skipnz
  3121  0074' 2800'              	goto	l3388
  3122  0075' 2800'              	goto	l3070
  3123  0076'                    l3388:
  3124                           
  3125                           ; Switch size 1, requested type "simple"
  3126                           ; Number of cases is 16, Range of values is 0 to 15
  3127                           ; switch strategies available:
  3128                           ; Name         Instructions Cycles
  3129                           ; simple_byte           49    25 (average)
  3130                           ; direct_byte           56     8 (fixed)
  3131                           ; jumptable            260     6 (fixed)
  3132                           ;	Chosen strategy is simple_byte
  3133  0076' 0800'              	movf	??_Select_ch,w
  3134  0077' 3A00               	xorlw	0	; case 0
  3135  0078' 1903               	skipnz
  3136  0079' 2800'              	goto	l3034
  3137  007A' 3A01               	xorlw	1	; case 1
  3138  007B' 1903               	skipnz
  3139  007C' 2800'              	goto	l3036
  3140  007D' 3A03               	xorlw	3	; case 2
  3141  007E' 1903               	skipnz
  3142  007F' 2800'              	goto	l3038
  3143  0080' 3A01               	xorlw	1	; case 3
  3144  0081' 1903               	skipnz
  3145  0082' 2800'              	goto	l3040
  3146  0083' 3A07               	xorlw	7	; case 4
  3147  0084' 1903               	skipnz
  3148  0085' 2800'              	goto	l3042
  3149  0086' 3A01               	xorlw	1	; case 5
  3150  0087' 1903               	skipnz
  3151  0088' 2800'              	goto	l3044
  3152  0089' 3A03               	xorlw	3	; case 6
  3153  008A' 1903               	skipnz
  3154  008B' 2800'              	goto	l3046
  3155  008C' 3A01               	xorlw	1	; case 7
  3156  008D' 1903               	skipnz
  3157  008E' 2800'              	goto	l3048
  3158  008F' 3A0F               	xorlw	15	; case 8
  3159  0090' 1903               	skipnz
  3160  0091' 2800'              	goto	l3050
  3161  0092' 3A01               	xorlw	1	; case 9
  3162  0093' 1903               	skipnz
  3163  0094' 2800'              	goto	l3052
  3164  0095' 3A03               	xorlw	3	; case 10
  3165  0096' 1903               	skipnz
  3166  0097' 2800'              	goto	l3054
  3167  0098' 3A01               	xorlw	1	; case 11
  3168  0099' 1903               	skipnz
  3169  009A' 2800'              	goto	l3056
  3170  009B' 3A07               	xorlw	7	; case 12
  3171  009C' 1903               	skipnz
  3172  009D' 2800'              	goto	l3058
  3173  009E' 3A01               	xorlw	1	; case 13
  3174  009F' 1903               	skipnz
  3175  00A0' 2800'              	goto	l3060
  3176  00A1' 3A03               	xorlw	3	; case 14
  3177  00A2' 1903               	skipnz
  3178  00A3' 2800'              	goto	l3062
  3179  00A4' 3A01               	xorlw	1	; case 15
  3180  00A5' 1903               	skipnz
  3181  00A6' 2800'              	goto	l3064
  3182  00A7' 2800'              	goto	l3070
  3183  00A8'                    l3070:
  3184                           
  3185                           ;configuraciones_pic.c: 300:     _delay((unsigned long)((200)*(800000/4000000.0)));
  3186  00A8' 300D               	movlw	13
  3187  00A9' 0080'              	movwf	??_Select_ch
  3188  00AA'                    u3667:
  3189  00AA' 0B80'              	decfsz	??_Select_ch,f
  3190  00AB' 2800'              	goto	u3667
  3191  00AC'                    l3072:
  3192                           
  3193                           ;configuraciones_pic.c: 301:     ADCON0bits.GO = 1;
  3194  00AC' 1283               	bcf	3,5	;RP0=0, select bank0
  3195  00AD' 1303               	bcf	3,6	;RP1=0, select bank0
  3196  00AE' 149F               	bsf	31,1	;volatile
  3197  00AF'                    l130:
  3198  00AF' 0008               	return
  3199  00B0'                    __end_of_Select_ch:
  3200                           
  3201                           	psect	text9
  3202  0000'                    __ptext9:	
  3203 ;; *************** function _Lcd_Write_String *****************
  3204 ;; Defined at:
  3205 ;;		line 63 in file "LCD.c"
  3206 ;; Parameters:    Size  Location     Type
  3207 ;;  a               2    3[COMMON] PTR unsigned char 
  3208 ;;		 -> STR_5(2), adc1(10), STR_4(2), adc0(10), 
  3209 ;;		 -> STR_3(4), STR_2(4), STR_1(4), 
  3210 ;; Auto vars:     Size  Location     Type
  3211 ;;  i               2    8[COMMON] int 
  3212 ;; Return value:  Size  Location     Type
  3213 ;;                  1    wreg      void 
  3214 ;; Registers used:
  3215 ;;		wreg, fsr0l, fsr0h, status,2, status,0, btemp+1, pclath, cstack
  3216 ;; Tracked objects:
  3217 ;;		On entry : 0/0
  3218 ;;		On exit  : 0/0
  3219 ;;		Unchanged: 0/0
  3220 ;; Data sizes:     COMMON   BANK0   BANK1   BANK3   BANK2
  3221 ;;      Params:         2       0       0       0       0
  3222 ;;      Locals:         2       0       0       0       0
  3223 ;;      Temps:          3       0       0       0       0
  3224 ;;      Totals:         7       0       0       0       0
  3225 ;;Total ram usage:        7 bytes
  3226 ;; Hardware stack levels used:    1
  3227 ;; Hardware stack levels required when called:    2
  3228 ;; This function calls:
  3229 ;;		_Lcd_Write_Char
  3230 ;; This function is called by:
  3231 ;;		_main
  3232 ;; This function uses a non-reentrant model
  3233 ;;
  3234                           
  3235                           
  3236                           ;psect for function _Lcd_Write_String
  3237  0000'                    _Lcd_Write_String:
  3238  0000'                    l3154:	
  3239                           ;incstack = 0
  3240                           ; Regs used in _Lcd_Write_String: [wreg-fsr0h+status,2+status,0+btemp+1+pclath+cstack]
  3241                           
  3242                           
  3243                           ;LCD.c: 64:     int i;;LCD.c: 65:     for (i = 0; a[i] != '\0'; i++)
  3244  0000' 0188'              	clrf	Lcd_Write_String@i
  3245  0001' 0189'              	clrf	Lcd_Write_String@i+1
  3246  0002' 2800'              	goto	l3160
  3247  0003'                    l3156:
  3248                           
  3249                           ;LCD.c: 66:         Lcd_Write_Char(a[i]);
  3250  0003' 0808'              	movf	Lcd_Write_String@i,w
  3251  0004' 0703'              	addwf	Lcd_Write_String@a,w
  3252  0005' 0086'              	movwf	??_Lcd_Write_String+1
  3253  0006' 0804'              	movf	Lcd_Write_String@a+1,w
  3254  0007' 0085'              	movwf	??_Lcd_Write_String
  3255  0008' 1803               	skipnc
  3256  0009' 0A85'              	incf	??_Lcd_Write_String,f
  3257  000A' 1F88'              	btfss	Lcd_Write_String@i,7
  3258  000B' 2800'              	goto	u3580
  3259  000C' 0385'              	decf	??_Lcd_Write_String,f
  3260  000D'                    u3580:
  3261  000D' 0805'              	movf	??_Lcd_Write_String,w
  3262  000E' 0087'              	movwf	??_Lcd_Write_String+2
  3263  000F' 0807'              	movf	??_Lcd_Write_String+2,w
  3264  0010' 1283               	bcf	3,5	;RP0=0, select bank0
  3265  0011' 1303               	bcf	3,6	;RP1=0, select bank0
  3266  0012' 00FF               	movwf	btemp+1
  3267  0013' 0806'              	movf	??_Lcd_Write_String+1,w
  3268  0014' 0084               	movwf	4
  3269  0015' 120A' 118A' 2000' 120A' 118A' 	fcall	stringtab
  3270  001A' 120A' 118A' 2000' 120A' 118A' 	fcall	_Lcd_Write_Char
  3271  001F'                    l3158:
  3272  001F' 3001               	movlw	1
  3273  0020' 0788'              	addwf	Lcd_Write_String@i,f
  3274  0021' 1803               	skipnc
  3275  0022' 0A89'              	incf	Lcd_Write_String@i+1,f
  3276  0023' 3000               	movlw	0
  3277  0024' 0789'              	addwf	Lcd_Write_String@i+1,f
  3278  0025'                    l3160:
  3279  0025' 0808'              	movf	Lcd_Write_String@i,w
  3280  0026' 0703'              	addwf	Lcd_Write_String@a,w
  3281  0027' 0086'              	movwf	??_Lcd_Write_String+1
  3282  0028' 0804'              	movf	Lcd_Write_String@a+1,w
  3283  0029' 0085'              	movwf	??_Lcd_Write_String
  3284  002A' 1803               	skipnc
  3285  002B' 0A85'              	incf	??_Lcd_Write_String,f
  3286  002C' 1F88'              	btfss	Lcd_Write_String@i,7
  3287  002D' 2800'              	goto	u3590
  3288  002E' 0385'              	decf	??_Lcd_Write_String,f
  3289  002F'                    u3590:
  3290  002F' 0805'              	movf	??_Lcd_Write_String,w
  3291  0030' 0087'              	movwf	??_Lcd_Write_String+2
  3292  0031' 0807'              	movf	??_Lcd_Write_String+2,w
  3293  0032' 1283               	bcf	3,5	;RP0=0, select bank0
  3294  0033' 1303               	bcf	3,6	;RP1=0, select bank0
  3295  0034' 00FF               	movwf	btemp+1
  3296  0035' 0806'              	movf	??_Lcd_Write_String+1,w
  3297  0036' 0084               	movwf	4
  3298  0037' 120A' 118A' 2000' 120A' 118A' 	fcall	stringtab
  3299  003C' 3A00               	xorlw	0
  3300  003D' 1D03               	skipz
  3301  003E' 2800'              	goto	u3601
  3302  003F' 2800'              	goto	u3600
  3303  0040'                    u3601:
  3304  0040' 2800'              	goto	l3156
  3305  0041'                    u3600:
  3306  0041'                    l278:
  3307  0041' 0008               	return
  3308  0042'                    __end_of_Lcd_Write_String:
  3309                           
  3310                           	psect	text10
  3311  0000'                    __ptext10:	
  3312 ;; *************** function _Lcd_Write_Char *****************
  3313 ;; Defined at:
  3314 ;;		line 55 in file "LCD.c"
  3315 ;; Parameters:    Size  Location     Type
  3316 ;;  a               1    wreg     unsigned char 
  3317 ;; Auto vars:     Size  Location     Type
  3318 ;;  a               1    2[COMMON] unsigned char 
  3319 ;; Return value:  Size  Location     Type
  3320 ;;                  1    wreg      void 
  3321 ;; Registers used:
  3322 ;;		wreg, status,2, status,0, pclath, cstack
  3323 ;; Tracked objects:
  3324 ;;		On entry : 0/0
  3325 ;;		On exit  : 0/0
  3326 ;;		Unchanged: 0/0
  3327 ;; Data sizes:     COMMON   BANK0   BANK1   BANK3   BANK2
  3328 ;;      Params:         0       0       0       0       0
  3329 ;;      Locals:         1       0       0       0       0
  3330 ;;      Temps:          1       0       0       0       0
  3331 ;;      Totals:         2       0       0       0       0
  3332 ;;Total ram usage:        2 bytes
  3333 ;; Hardware stack levels used:    1
  3334 ;; Hardware stack levels required when called:    1
  3335 ;; This function calls:
  3336 ;;		_Lcd_Port
  3337 ;; This function is called by:
  3338 ;;		_Lcd_Write_String
  3339 ;; This function uses a non-reentrant model
  3340 ;;
  3341                           
  3342                           
  3343                           ;psect for function _Lcd_Write_Char
  3344  0000'                    _Lcd_Write_Char:
  3345                           
  3346                           ;incstack = 0
  3347                           ; Regs used in _Lcd_Write_Char: [wreg+status,2+status,0+pclath+cstack]
  3348                           ;Lcd_Write_Char@a stored from wreg
  3349  0000' 0082'              	movwf	Lcd_Write_Char@a
  3350  0001'                    l2464:
  3351                           
  3352                           ;LCD.c: 56:     PORTEbits.RE0 = 1;
  3353  0001' 1283               	bcf	3,5	;RP0=0, select bank0
  3354  0002' 1303               	bcf	3,6	;RP1=0, select bank0
  3355  0003' 1409               	bsf	9,0	;volatile
  3356  0004'                    l2466:
  3357                           
  3358                           ;LCD.c: 57:     Lcd_Port(a);
  3359  0004' 0802'              	movf	Lcd_Write_Char@a,w
  3360  0005' 120A' 118A' 2000' 120A' 118A' 	fcall	_Lcd_Port
  3361  000A'                    l2468:
  3362                           
  3363                           ;LCD.c: 58:     PORTEbits.RE2 = 1;
  3364  000A' 1283               	bcf	3,5	;RP0=0, select bank0
  3365  000B' 1303               	bcf	3,6	;RP1=0, select bank0
  3366  000C' 1509               	bsf	9,2	;volatile
  3367  000D'                    l2470:
  3368                           
  3369                           ;LCD.c: 59:     _delay((unsigned long)((10)*(8000000/4000000.0)));
  3370  000D' 3006               	movlw	6
  3371  000E' 0081'              	movwf	??_Lcd_Write_Char
  3372  000F'                    u3677:
  3373  000F' 0B81'              	decfsz	??_Lcd_Write_Char,f
  3374  0010' 2800'              	goto	u3677
  3375  0011' 0000               	nop
  3376  0012'                    l2472:
  3377                           
  3378                           ;LCD.c: 60:     PORTEbits.RE2 = 0;
  3379  0012' 1283               	bcf	3,5	;RP0=0, select bank0
  3380  0013' 1303               	bcf	3,6	;RP1=0, select bank0
  3381  0014' 1109               	bcf	9,2	;volatile
  3382  0015'                    l272:
  3383  0015' 0008               	return
  3384  0016'                    __end_of_Lcd_Write_Char:
  3385                           
  3386                           	psect	text11
  3387  0000'                    __ptext11:	
  3388 ;; *************** function _Lcd_Set_Cursor *****************
  3389 ;; Defined at:
  3390 ;;		line 30 in file "LCD.c"
  3391 ;; Parameters:    Size  Location     Type
  3392 ;;  a               1    wreg     unsigned char 
  3393 ;;  b               1    4[COMMON] unsigned char 
  3394 ;; Auto vars:     Size  Location     Type
  3395 ;;  a               1    6[COMMON] unsigned char 
  3396 ;;  temp            1    7[COMMON] unsigned char 
  3397 ;; Return value:  Size  Location     Type
  3398 ;;                  1    wreg      void 
  3399 ;; Registers used:
  3400 ;;		wreg, status,2, status,0, pclath, cstack
  3401 ;; Tracked objects:
  3402 ;;		On entry : 0/0
  3403 ;;		On exit  : 0/0
  3404 ;;		Unchanged: 0/0
  3405 ;; Data sizes:     COMMON   BANK0   BANK1   BANK3   BANK2
  3406 ;;      Params:         1       0       0       0       0
  3407 ;;      Locals:         2       0       0       0       0
  3408 ;;      Temps:          1       0       0       0       0
  3409 ;;      Totals:         4       0       0       0       0
  3410 ;;Total ram usage:        4 bytes
  3411 ;; Hardware stack levels used:    1
  3412 ;; Hardware stack levels required when called:    2
  3413 ;; This function calls:
  3414 ;;		_Lcd_Cmd
  3415 ;; This function is called by:
  3416 ;;		_main
  3417 ;; This function uses a non-reentrant model
  3418 ;;
  3419                           
  3420                           
  3421                           ;psect for function _Lcd_Set_Cursor
  3422  0000'                    _Lcd_Set_Cursor:
  3423                           
  3424                           ;incstack = 0
  3425                           ; Regs used in _Lcd_Set_Cursor: [wreg+status,2+status,0+pclath+cstack]
  3426                           ;Lcd_Set_Cursor@a stored from wreg
  3427  0000' 0086'              	movwf	Lcd_Set_Cursor@a
  3428  0001'                    l3142:
  3429                           
  3430                           ;LCD.c: 31:     char temp;;LCD.c: 32:     if (a == 1) {
  3431  0001' 0306'              	decf	Lcd_Set_Cursor@a,w
  3432  0002' 1D03               	btfss	3,2
  3433  0003' 2800'              	goto	u3561
  3434  0004' 2800'              	goto	u3560
  3435  0005'                    u3561:
  3436  0005' 2800'              	goto	l3148
  3437  0006'                    u3560:
  3438  0006'                    l3144:
  3439                           
  3440                           ;LCD.c: 33:         temp = 0x80 + b - 1;
  3441  0006' 0804'              	movf	Lcd_Set_Cursor@b,w
  3442  0007' 3E7F               	addlw	127
  3443  0008' 0085'              	movwf	??_Lcd_Set_Cursor
  3444  0009' 0805'              	movf	??_Lcd_Set_Cursor,w
  3445  000A' 0087'              	movwf	Lcd_Set_Cursor@temp
  3446  000B'                    l3146:
  3447                           
  3448                           ;LCD.c: 34:         Lcd_Cmd(temp);
  3449  000B' 0807'              	movf	Lcd_Set_Cursor@temp,w
  3450  000C' 120A' 118A' 2000' 120A' 118A' 	fcall	_Lcd_Cmd
  3451                           
  3452                           ;LCD.c: 35:     } else if (a == 2) {
  3453  0011' 2800'              	goto	l266
  3454  0012'                    l3148:
  3455  0012' 3002               	movlw	2
  3456  0013' 0606'              	xorwf	Lcd_Set_Cursor@a,w
  3457  0014' 1D03               	btfss	3,2
  3458  0015' 2800'              	goto	u3571
  3459  0016' 2800'              	goto	u3570
  3460  0017'                    u3571:
  3461  0017' 2800'              	goto	l266
  3462  0018'                    u3570:
  3463  0018'                    l3150:
  3464                           
  3465                           ;LCD.c: 36:         temp = 0xC0 + b - 1;
  3466  0018' 0804'              	movf	Lcd_Set_Cursor@b,w
  3467  0019' 3EBF               	addlw	191
  3468  001A' 0085'              	movwf	??_Lcd_Set_Cursor
  3469  001B' 0805'              	movf	??_Lcd_Set_Cursor,w
  3470  001C' 0087'              	movwf	Lcd_Set_Cursor@temp
  3471  001D'                    l3152:
  3472                           
  3473                           ;LCD.c: 37:         Lcd_Cmd(temp);
  3474  001D' 0807'              	movf	Lcd_Set_Cursor@temp,w
  3475  001E' 120A' 118A' 2000' 120A' 118A' 	fcall	_Lcd_Cmd
  3476  0023'                    l266:
  3477  0023' 0008               	return
  3478  0024'                    __end_of_Lcd_Set_Cursor:
  3479                           
  3480                           	psect	text12
  3481  0000'                    __ptext12:	
  3482 ;; *************** function _Lcd_Init *****************
  3483 ;; Defined at:
  3484 ;;		line 41 in file "LCD.c"
  3485 ;; Parameters:    Size  Location     Type
  3486 ;;		None
  3487 ;; Auto vars:     Size  Location     Type
  3488 ;;		None
  3489 ;; Return value:  Size  Location     Type
  3490 ;;                  1    wreg      void 
  3491 ;; Registers used:
  3492 ;;		wreg, status,2, status,0, pclath, cstack
  3493 ;; Tracked objects:
  3494 ;;		On entry : 0/0
  3495 ;;		On exit  : 0/0
  3496 ;;		Unchanged: 0/0
  3497 ;; Data sizes:     COMMON   BANK0   BANK1   BANK3   BANK2
  3498 ;;      Params:         0       0       0       0       0
  3499 ;;      Locals:         0       0       0       0       0
  3500 ;;      Temps:          2       0       0       0       0
  3501 ;;      Totals:         2       0       0       0       0
  3502 ;;Total ram usage:        2 bytes
  3503 ;; Hardware stack levels used:    1
  3504 ;; Hardware stack levels required when called:    2
  3505 ;; This function calls:
  3506 ;;		_Lcd_Cmd
  3507 ;;		_Lcd_Port
  3508 ;; This function is called by:
  3509 ;;		_main
  3510 ;; This function uses a non-reentrant model
  3511 ;;
  3512                           
  3513                           
  3514                           ;psect for function _Lcd_Init
  3515  0000'                    _Lcd_Init:
  3516  0000'                    l3130:	
  3517                           ;incstack = 0
  3518                           ; Regs used in _Lcd_Init: [wreg+status,2+status,0+pclath+cstack]
  3519                           
  3520                           
  3521                           ;LCD.c: 42:     Lcd_Port(0x00);
  3522  0000' 3000               	movlw	0
  3523  0001' 120A' 118A' 2000' 120A' 118A' 	fcall	_Lcd_Port
  3524  0006'                    l3132:
  3525                           
  3526                           ;LCD.c: 43:     _delay((unsigned long)((20)*(8000000/4000.0)));
  3527  0006' 3034               	movlw	52
  3528  0007' 0085'              	movwf	??_Lcd_Init+1
  3529  0008' 30F1               	movlw	241
  3530  0009' 0084'              	movwf	??_Lcd_Init
  3531  000A'                    u3687:
  3532  000A' 0B84'              	decfsz	??_Lcd_Init,f
  3533  000B' 2800'              	goto	u3687
  3534  000C' 0B85'              	decfsz	??_Lcd_Init+1,f
  3535  000D' 2800'              	goto	u3687
  3536  000E' 2800'              	nop2
  3537  000F'                    l3134:
  3538                           
  3539                           ;LCD.c: 44:     Lcd_Cmd(0x30);
  3540  000F' 3030               	movlw	48
  3541  0010' 120A' 118A' 2000' 120A' 118A' 	fcall	_Lcd_Cmd
  3542                           
  3543                           ;LCD.c: 45:     _delay((unsigned long)((5)*(8000000/4000.0)));
  3544  0015' 300D               	movlw	13
  3545  0016' 0085'              	movwf	??_Lcd_Init+1
  3546  0017' 30FB               	movlw	251
  3547  0018' 0084'              	movwf	??_Lcd_Init
  3548  0019'                    u3697:
  3549  0019' 0B84'              	decfsz	??_Lcd_Init,f
  3550  001A' 2800'              	goto	u3697
  3551  001B' 0B85'              	decfsz	??_Lcd_Init+1,f
  3552  001C' 2800'              	goto	u3697
  3553  001D' 2800'              	nop2
  3554  001E'                    l3136:
  3555                           
  3556                           ;LCD.c: 46:     Lcd_Cmd(0x30);
  3557  001E' 3030               	movlw	48
  3558  001F' 120A' 118A' 2000' 120A' 118A' 	fcall	_Lcd_Cmd
  3559  0024'                    l3138:
  3560                           
  3561                           ;LCD.c: 47:     _delay((unsigned long)((11)*(8000000/4000.0)));
  3562  0024' 301D               	movlw	29
  3563  0025' 0085'              	movwf	??_Lcd_Init+1
  3564  0026' 3091               	movlw	145
  3565  0027' 0084'              	movwf	??_Lcd_Init
  3566  0028'                    u3707:
  3567  0028' 0B84'              	decfsz	??_Lcd_Init,f
  3568  0029' 2800'              	goto	u3707
  3569  002A' 0B85'              	decfsz	??_Lcd_Init+1,f
  3570  002B' 2800'              	goto	u3707
  3571                           
  3572                           ;LCD.c: 48:     Lcd_Cmd(0x30);
  3573  002C' 3030               	movlw	48
  3574  002D' 120A' 118A' 2000' 120A' 118A' 	fcall	_Lcd_Cmd
  3575                           
  3576                           ;LCD.c: 50:     Lcd_Cmd(0x38);
  3577  0032' 3038               	movlw	56
  3578  0033' 120A' 118A' 2000' 120A' 118A' 	fcall	_Lcd_Cmd
  3579                           
  3580                           ;LCD.c: 51:     Lcd_Cmd(0x0C);
  3581  0038' 300C               	movlw	12
  3582  0039' 120A' 118A' 2000' 120A' 118A' 	fcall	_Lcd_Cmd
  3583                           
  3584                           ;LCD.c: 52:     Lcd_Cmd(0x06);
  3585  003E' 3006               	movlw	6
  3586  003F' 120A' 118A' 2000' 120A' 118A' 	fcall	_Lcd_Cmd
  3587  0044'                    l269:
  3588  0044' 0008               	return
  3589  0045'                    __end_of_Lcd_Init:
  3590                           
  3591                           	psect	text13
  3592  0000'                    __ptext13:	
  3593 ;; *************** function _Lcd_Clear *****************
  3594 ;; Defined at:
  3595 ;;		line 25 in file "LCD.c"
  3596 ;; Parameters:    Size  Location     Type
  3597 ;;		None
  3598 ;; Auto vars:     Size  Location     Type
  3599 ;;		None
  3600 ;; Return value:  Size  Location     Type
  3601 ;;                  1    wreg      void 
  3602 ;; Registers used:
  3603 ;;		wreg, status,2, status,0, pclath, cstack
  3604 ;; Tracked objects:
  3605 ;;		On entry : 0/0
  3606 ;;		On exit  : 0/0
  3607 ;;		Unchanged: 0/0
  3608 ;; Data sizes:     COMMON   BANK0   BANK1   BANK3   BANK2
  3609 ;;      Params:         0       0       0       0       0
  3610 ;;      Locals:         0       0       0       0       0
  3611 ;;      Temps:          0       0       0       0       0
  3612 ;;      Totals:         0       0       0       0       0
  3613 ;;Total ram usage:        0 bytes
  3614 ;; Hardware stack levels used:    1
  3615 ;; Hardware stack levels required when called:    2
  3616 ;; This function calls:
  3617 ;;		_Lcd_Cmd
  3618 ;; This function is called by:
  3619 ;;		_main
  3620 ;; This function uses a non-reentrant model
  3621 ;;
  3622                           
  3623                           
  3624                           ;psect for function _Lcd_Clear
  3625  0000'                    _Lcd_Clear:
  3626  0000'                    l3140:	
  3627                           ;incstack = 0
  3628                           ; Regs used in _Lcd_Clear: [wreg+status,2+status,0+pclath+cstack]
  3629                           
  3630                           
  3631                           ;LCD.c: 26:     Lcd_Cmd(0);
  3632  0000' 3000               	movlw	0
  3633  0001' 120A' 118A' 2000' 120A' 118A' 	fcall	_Lcd_Cmd
  3634                           
  3635                           ;LCD.c: 27:     Lcd_Cmd(1);
  3636  0006' 3001               	movlw	1
  3637  0007' 120A' 118A' 2000' 120A' 118A' 	fcall	_Lcd_Cmd
  3638  000C'                    l260:
  3639  000C' 0008               	return
  3640  000D'                    __end_of_Lcd_Clear:
  3641                           
  3642                           	psect	text14
  3643  0000'                    __ptext14:	
  3644 ;; *************** function _Lcd_Cmd *****************
  3645 ;; Defined at:
  3646 ;;		line 17 in file "LCD.c"
  3647 ;; Parameters:    Size  Location     Type
  3648 ;;  a               1    wreg     unsigned char 
  3649 ;; Auto vars:     Size  Location     Type
  3650 ;;  a               1    3[COMMON] unsigned char 
  3651 ;; Return value:  Size  Location     Type
  3652 ;;                  1    wreg      void 
  3653 ;; Registers used:
  3654 ;;		wreg, status,2, status,0, pclath, cstack
  3655 ;; Tracked objects:
  3656 ;;		On entry : 0/0
  3657 ;;		On exit  : 0/0
  3658 ;;		Unchanged: 0/0
  3659 ;; Data sizes:     COMMON   BANK0   BANK1   BANK3   BANK2
  3660 ;;      Params:         0       0       0       0       0
  3661 ;;      Locals:         1       0       0       0       0
  3662 ;;      Temps:          2       0       0       0       0
  3663 ;;      Totals:         3       0       0       0       0
  3664 ;;Total ram usage:        3 bytes
  3665 ;; Hardware stack levels used:    1
  3666 ;; Hardware stack levels required when called:    1
  3667 ;; This function calls:
  3668 ;;		_Lcd_Port
  3669 ;; This function is called by:
  3670 ;;		_Lcd_Clear
  3671 ;;		_Lcd_Set_Cursor
  3672 ;;		_Lcd_Init
  3673 ;;		_Lcd_Shift_Right
  3674 ;;		_Lcd_Shift_Left
  3675 ;; This function uses a non-reentrant model
  3676 ;;
  3677                           
  3678                           
  3679                           ;psect for function _Lcd_Cmd
  3680  0000'                    _Lcd_Cmd:
  3681                           
  3682                           ;incstack = 0
  3683                           ; Regs used in _Lcd_Cmd: [wreg+status,2+status,0+pclath+cstack]
  3684                           ;Lcd_Cmd@a stored from wreg
  3685  0000' 0083'              	movwf	Lcd_Cmd@a
  3686  0001'                    l2454:
  3687                           
  3688                           ;LCD.c: 18:     PORTEbits.RE0 = 0;
  3689  0001' 1283               	bcf	3,5	;RP0=0, select bank0
  3690  0002' 1303               	bcf	3,6	;RP1=0, select bank0
  3691  0003' 1009               	bcf	9,0	;volatile
  3692  0004'                    l2456:
  3693                           
  3694                           ;LCD.c: 19:     Lcd_Port(a);
  3695  0004' 0803'              	movf	Lcd_Cmd@a,w
  3696  0005' 120A' 118A' 2000' 120A' 118A' 	fcall	_Lcd_Port
  3697  000A'                    l2458:
  3698                           
  3699                           ;LCD.c: 20:     PORTEbits.RE2 = 1;
  3700  000A' 1283               	bcf	3,5	;RP0=0, select bank0
  3701  000B' 1303               	bcf	3,6	;RP1=0, select bank0
  3702  000C' 1509               	bsf	9,2	;volatile
  3703  000D'                    l2460:
  3704                           
  3705                           ;LCD.c: 21:     _delay((unsigned long)((4)*(8000000/4000.0)));
  3706  000D' 300B               	movlw	11
  3707  000E' 0082'              	movwf	??_Lcd_Cmd+1
  3708  000F' 3062               	movlw	98
  3709  0010' 0081'              	movwf	??_Lcd_Cmd
  3710  0011'                    u3717:
  3711  0011' 0B81'              	decfsz	??_Lcd_Cmd,f
  3712  0012' 2800'              	goto	u3717
  3713  0013' 0B82'              	decfsz	??_Lcd_Cmd+1,f
  3714  0014' 2800'              	goto	u3717
  3715  0015' 0000               	nop
  3716  0016'                    l2462:
  3717                           
  3718                           ;LCD.c: 22:     PORTEbits.RE2 = 0;
  3719  0016' 1283               	bcf	3,5	;RP0=0, select bank0
  3720  0017' 1303               	bcf	3,6	;RP1=0, select bank0
  3721  0018' 1109               	bcf	9,2	;volatile
  3722  0019'                    l257:
  3723  0019' 0008               	return
  3724  001A'                    __end_of_Lcd_Cmd:
  3725                           
  3726                           	psect	text15
  3727  0000'                    __ptext15:	
  3728 ;; *************** function _Lcd_Port *****************
  3729 ;; Defined at:
  3730 ;;		line 13 in file "LCD.c"
  3731 ;; Parameters:    Size  Location     Type
  3732 ;;  a               1    wreg     unsigned char 
  3733 ;; Auto vars:     Size  Location     Type
  3734 ;;  a               1    0[COMMON] unsigned char 
  3735 ;; Return value:  Size  Location     Type
  3736 ;;                  1    wreg      void 
  3737 ;; Registers used:
  3738 ;;		wreg
  3739 ;; Tracked objects:
  3740 ;;		On entry : 0/0
  3741 ;;		On exit  : 0/0
  3742 ;;		Unchanged: 0/0
  3743 ;; Data sizes:     COMMON   BANK0   BANK1   BANK3   BANK2
  3744 ;;      Params:         0       0       0       0       0
  3745 ;;      Locals:         1       0       0       0       0
  3746 ;;      Temps:          0       0       0       0       0
  3747 ;;      Totals:         1       0       0       0       0
  3748 ;;Total ram usage:        1 bytes
  3749 ;; Hardware stack levels used:    1
  3750 ;; This function calls:
  3751 ;;		Nothing
  3752 ;; This function is called by:
  3753 ;;		_Lcd_Cmd
  3754 ;;		_Lcd_Init
  3755 ;;		_Lcd_Write_Char
  3756 ;; This function uses a non-reentrant model
  3757 ;;
  3758                           
  3759                           
  3760                           ;psect for function _Lcd_Port
  3761  0000'                    _Lcd_Port:
  3762                           
  3763                           ;incstack = 0
  3764                           ; Regs used in _Lcd_Port: [wreg]
  3765                           ;Lcd_Port@a stored from wreg
  3766  0000' 0080'              	movwf	Lcd_Port@a
  3767  0001'                    l2162:
  3768                           
  3769                           ;LCD.c: 14:     PORTB = a;
  3770  0001' 0800'              	movf	Lcd_Port@a,w
  3771  0002' 1283               	bcf	3,5	;RP0=0, select bank0
  3772  0003' 1303               	bcf	3,6	;RP1=0, select bank0
  3773  0004' 0086               	movwf	6	;volatile
  3774  0005'                    l254:
  3775  0005' 0008               	return
  3776  0006'                    __end_of_Lcd_Port:
  3777                           
  3778                           	psect	text16
  3779  0000'                    __ptext16:	
  3780 ;; *************** function _ADC_convert *****************
  3781 ;; Defined at:
  3782 ;;		line 140 in file "configuraciones_pic.c"
  3783 ;; Parameters:    Size  Location     Type
  3784 ;;  data            1    wreg     PTR unsigned char 
  3785 ;;		 -> adc1(10), adc0(10), 
  3786 ;;  a               4   70[BANK0 ] float 
  3787 ;;  place           2   74[BANK0 ] int 
  3788 ;; Auto vars:     Size  Location     Type
  3789 ;;  data            1    4[BANK1 ] PTR unsigned char 
  3790 ;;		 -> adc1(10), adc0(10), 
  3791 ;;  x               4    5[BANK1 ] float 
  3792 ;;  mu              2   13[BANK1 ] int 
  3793 ;;  digits          2   11[BANK1 ] int 
  3794 ;;  i               2    9[BANK1 ] int 
  3795 ;;  j               2    2[BANK1 ] int 
  3796 ;;  temp            2    0[BANK1 ] int 
  3797 ;; Return value:  Size  Location     Type
  3798 ;;                  1    wreg      void 
  3799 ;; Registers used:
  3800 ;;		wreg, fsr0l, fsr0h, status,2, status,0, btemp+1, pclath, cstack
  3801 ;; Tracked objects:
  3802 ;;		On entry : 0/0
  3803 ;;		On exit  : 0/0
  3804 ;;		Unchanged: 0/0
  3805 ;; Data sizes:     COMMON   BANK0   BANK1   BANK3   BANK2
  3806 ;;      Params:         0       6       0       0       0
  3807 ;;      Locals:         0       0      15       0       0
  3808 ;;      Temps:          0       2       0       0       0
  3809 ;;      Totals:         0       8      15       0       0
  3810 ;;Total ram usage:       23 bytes
  3811 ;; Hardware stack levels used:    1
  3812 ;; Hardware stack levels required when called:    2
  3813 ;; This function calls:
  3814 ;;		___awdiv
  3815 ;;		___fldiv
  3816 ;;		___flge
  3817 ;;		___flmul
  3818 ;;		___flsub
  3819 ;;		___fltol
  3820 ;;		___wmul
  3821 ;;		___xxtofl
  3822 ;; This function is called by:
  3823 ;;		_main
  3824 ;; This function uses a non-reentrant model
  3825 ;;
  3826                           
  3827                           
  3828                           ;psect for function _ADC_convert
  3829  0000'                    _ADC_convert:
  3830                           
  3831                           ;incstack = 0
  3832                           ; Regs used in _ADC_convert: [wreg-fsr0h+status,2+status,0+btemp+1+pclath+cstack]
  3833                           ;ADC_convert@data stored from wreg
  3834  0000' 1683               	bsf	3,5	;RP0=1, select bank1
  3835  0001' 1303               	bcf	3,6	;RP1=0, select bank1
  3836  0002' 0080'              	movwf	ADC_convert@data^(0+128)
  3837  0003'                    l2920:
  3838                           
  3839                           ;configuraciones_pic.c: 140: void ADC_convert(char *data,float a, int place);configuraci
      +                          ones_pic.c: 141: {;configuraciones_pic.c: 142:      int temp=a;
  3840  0003' 1283               	bcf	3,5	;RP0=0, select bank0
  3841  0004' 1303               	bcf	3,6	;RP1=0, select bank0
  3842  0005' 0849'              	movf	ADC_convert@a+3,w
  3843  0006' 0083'              	movwf	___fltol@f1+3
  3844  0007' 0848'              	movf	ADC_convert@a+2,w
  3845  0008' 0082'              	movwf	___fltol@f1+2
  3846  0009' 0847'              	movf	ADC_convert@a+1,w
  3847  000A' 0081'              	movwf	___fltol@f1+1
  3848  000B' 0846'              	movf	ADC_convert@a,w
  3849  000C' 0080'              	movwf	___fltol@f1
  3850  000D' 120A' 118A' 2000' 120A' 118A' 	fcall	___fltol
  3851  0012' 0801'              	movf	?___fltol+1,w
  3852  0013' 1683               	bsf	3,5	;RP0=1, select bank1
  3853  0014' 1303               	bcf	3,6	;RP1=0, select bank1
  3854  0015' 0080'              	movwf	(ADC_convert@temp+1)^(0+128)
  3855  0016' 0800'              	movf	?___fltol,w
  3856  0017' 0080'              	movwf	ADC_convert@temp^(0+128)
  3857  0018'                    l2922:
  3858  0018'                    l2924:
  3859                           
  3860                           ;configuraciones_pic.c: 144:      int digits=0;
  3861  0018' 0180'              	clrf	ADC_convert@digits^(0+128)
  3862  0019' 0180'              	clrf	(ADC_convert@digits+1)^(0+128)
  3863  001A'                    l2926:
  3864                           
  3865                           ;configuraciones_pic.c: 145:      int i=0,mu=1;
  3866  001A' 0180'              	clrf	ADC_convert@i^(0+128)
  3867  001B' 0180'              	clrf	(ADC_convert@i+1)^(0+128)
  3868  001C'                    l2928:
  3869  001C' 3001               	movlw	1
  3870  001D' 0080'              	movwf	ADC_convert@mu^(0+128)
  3871  001E' 3000               	movlw	0
  3872  001F' 0081'              	movwf	(ADC_convert@mu^(0+128)+1)
  3873  0020'                    l2930:
  3874  0020'                    l2932:
  3875                           
  3876                           ;configuraciones_pic.c: 147:      if(a<0)
  3877  0020' 1283               	bcf	3,5	;RP0=0, select bank0
  3878  0021' 1303               	bcf	3,6	;RP1=0, select bank0
  3879  0022' 0849'              	movf	ADC_convert@a+3,w
  3880  0023' 0083'              	movwf	___flge@ff1+3
  3881  0024' 0848'              	movf	ADC_convert@a+2,w
  3882  0025' 0082'              	movwf	___flge@ff1+2
  3883  0026' 0847'              	movf	ADC_convert@a+1,w
  3884  0027' 0081'              	movwf	___flge@ff1+1
  3885  0028' 0846'              	movf	ADC_convert@a,w
  3886  0029' 0080'              	movwf	___flge@ff1
  3887  002A' 3000               	movlw	0
  3888  002B' 0087'              	movwf	___flge@ff2+3
  3889  002C' 3000               	movlw	0
  3890  002D' 0086'              	movwf	___flge@ff2+2
  3891  002E' 3000               	movlw	0
  3892  002F' 0085'              	movwf	___flge@ff2+1
  3893  0030' 3000               	movlw	0
  3894  0031' 0084'              	movwf	___flge@ff2
  3895  0032' 120A' 118A' 2000' 120A' 118A' 	fcall	___flge
  3896  0037' 1803               	btfsc	3,0
  3897  0038' 2800'              	goto	u3471
  3898  0039' 2800'              	goto	u3470
  3899  003A'                    u3471:
  3900  003A' 2800'              	goto	l2944
  3901  003B'                    u3470:
  3902  003B'                    l2934:
  3903                           
  3904                           ;configuraciones_pic.c: 148:      {;configuraciones_pic.c: 149:             a=a*-1;
  3905  003B' 30BF               	movlw	191
  3906  003C' 1283               	bcf	3,5	;RP0=0, select bank0
  3907  003D' 1303               	bcf	3,6	;RP1=0, select bank0
  3908  003E' 00AF'              	movwf	___flmul@b+3
  3909  003F' 3080               	movlw	128
  3910  0040' 00AE'              	movwf	___flmul@b+2
  3911  0041' 3000               	movlw	0
  3912  0042' 00AD'              	movwf	___flmul@b+1
  3913  0043' 3000               	movlw	0
  3914  0044' 00AC'              	movwf	___flmul@b
  3915  0045' 0849'              	movf	ADC_convert@a+3,w
  3916  0046' 00B3'              	movwf	___flmul@a+3
  3917  0047' 0848'              	movf	ADC_convert@a+2,w
  3918  0048' 00B2'              	movwf	___flmul@a+2
  3919  0049' 0847'              	movf	ADC_convert@a+1,w
  3920  004A' 00B1'              	movwf	___flmul@a+1
  3921  004B' 0846'              	movf	ADC_convert@a,w
  3922  004C' 00B0'              	movwf	___flmul@a
  3923  004D' 120A' 118A' 2000' 120A' 118A' 	fcall	___flmul
  3924  0052' 1283               	bcf	3,5	;RP0=0, select bank0
  3925  0053' 1303               	bcf	3,6	;RP1=0, select bank0
  3926  0054' 082F'              	movf	?___flmul+3,w
  3927  0055' 00C9'              	movwf	ADC_convert@a+3
  3928  0056' 082E'              	movf	?___flmul+2,w
  3929  0057' 00C8'              	movwf	ADC_convert@a+2
  3930  0058' 082D'              	movf	?___flmul+1,w
  3931  0059' 00C7'              	movwf	ADC_convert@a+1
  3932  005A' 082C'              	movf	?___flmul,w
  3933  005B' 00C6'              	movwf	ADC_convert@a
  3934  005C'                    l2936:
  3935                           
  3936                           ;configuraciones_pic.c: 150:             data[i]='-';
  3937  005C' 302D               	movlw	45
  3938  005D' 00CC'              	movwf	??_ADC_convert
  3939  005E' 1683               	bsf	3,5	;RP0=1, select bank1
  3940  005F' 1303               	bcf	3,6	;RP1=0, select bank1
  3941  0060' 0800'              	movf	ADC_convert@data^(0+128),w
  3942  0061' 0084               	movwf	4
  3943  0062' 1283               	bcf	3,5	;RP0=0, select bank0
  3944  0063' 1303               	bcf	3,6	;RP1=0, select bank0
  3945  0064' 084C'              	movf	??_ADC_convert,w
  3946  0065' 1383               	bcf	3,7	;select IRP bank0
  3947  0066' 0080               	movwf	0
  3948  0067'                    l2938:
  3949                           
  3950                           ;configuraciones_pic.c: 151:             i++;
  3951  0067' 3001               	movlw	1
  3952  0068' 1683               	bsf	3,5	;RP0=1, select bank1
  3953  0069' 1303               	bcf	3,6	;RP1=0, select bank1
  3954  006A' 0780'              	addwf	ADC_convert@i^(0+128),f
  3955  006B' 1803               	skipnc
  3956  006C' 0A80'              	incf	(ADC_convert@i+1)^(0+128),f
  3957  006D' 3000               	movlw	0
  3958  006E' 0780'              	addwf	(ADC_convert@i+1)^(0+128),f
  3959  006F' 2800'              	goto	l2944
  3960  0070'                    l2940:
  3961                           
  3962                           ;configuraciones_pic.c: 155:      {;configuraciones_pic.c: 156:          temp=temp/10;
  3963  0070' 300A               	movlw	10
  3964  0071' 0080'              	movwf	___awdiv@divisor
  3965  0072' 3000               	movlw	0
  3966  0073' 0081'              	movwf	___awdiv@divisor+1
  3967  0074' 0800'              	movf	(ADC_convert@temp+1)^(0+128),w
  3968  0075' 0083'              	movwf	___awdiv@dividend+1
  3969  0076' 0800'              	movf	ADC_convert@temp^(0+128),w
  3970  0077' 0082'              	movwf	___awdiv@dividend
  3971  0078' 120A' 118A' 2000' 120A' 118A' 	fcall	___awdiv
  3972  007D' 0801'              	movf	?___awdiv+1,w
  3973  007E' 1683               	bsf	3,5	;RP0=1, select bank1
  3974  007F' 1303               	bcf	3,6	;RP1=0, select bank1
  3975  0080' 0080'              	movwf	(ADC_convert@temp+1)^(0+128)
  3976  0081' 0800'              	movf	?___awdiv,w
  3977  0082' 0080'              	movwf	ADC_convert@temp^(0+128)
  3978  0083'                    l2942:
  3979                           
  3980                           ;configuraciones_pic.c: 157:          digits++;
  3981  0083' 3001               	movlw	1
  3982  0084' 0780'              	addwf	ADC_convert@digits^(0+128),f
  3983  0085' 1803               	skipnc
  3984  0086' 0A80'              	incf	(ADC_convert@digits+1)^(0+128),f
  3985  0087' 3000               	movlw	0
  3986  0088' 0780'              	addwf	(ADC_convert@digits+1)^(0+128),f
  3987  0089'                    l2944:
  3988                           
  3989                           ;configuraciones_pic.c: 154:      while(temp!=0)
  3990  0089' 1683               	bsf	3,5	;RP0=1, select bank1
  3991  008A' 1303               	bcf	3,6	;RP1=0, select bank1
  3992  008B' 0800'              	movf	ADC_convert@temp^(0+128),w
  3993  008C' 0400'              	iorwf	(ADC_convert@temp+1)^(0+128),w
  3994  008D' 1D03               	btfss	3,2
  3995  008E' 2800'              	goto	u3481
  3996  008F' 2800'              	goto	u3480
  3997  0090'                    u3481:
  3998  0090' 2800'              	goto	l2940
  3999  0091'                    u3480:
  4000  0091' 2800'              	goto	l2968
  4001  0092'                    l2946:
  4002                           
  4003                           ;configuraciones_pic.c: 160:      {;configuraciones_pic.c: 161:          if(digits==1)mu
      +                          =1;
  4004  0092' 0300'              	decf	ADC_convert@digits^(0+128),w
  4005  0093' 0400'              	iorwf	(ADC_convert@digits+1)^(0+128),w
  4006  0094' 1D03               	btfss	3,2
  4007  0095' 2800'              	goto	u3491
  4008  0096' 2800'              	goto	u3490
  4009  0097'                    u3491:
  4010  0097' 2800'              	goto	l2950
  4011  0098'                    u3490:
  4012  0098'                    l2948:
  4013  0098' 3001               	movlw	1
  4014  0099' 0080'              	movwf	ADC_convert@mu^(0+128)
  4015  009A' 3000               	movlw	0
  4016  009B' 0081'              	movwf	(ADC_convert@mu^(0+128)+1)
  4017  009C' 2800'              	goto	l2958
  4018  009D'                    l2950:
  4019  009D' 3002               	movlw	2
  4020  009E' 0080'              	movwf	ADC_convert@j^(0+128)
  4021  009F' 3000               	movlw	0
  4022  00A0' 0081'              	movwf	(ADC_convert@j^(0+128)+1)
  4023  00A1' 2800'              	goto	l2956
  4024  00A2'                    l2952:
  4025  00A2' 1683               	bsf	3,5	;RP0=1, select bank1
  4026  00A3' 1303               	bcf	3,6	;RP1=0, select bank1
  4027  00A4' 0800'              	movf	(ADC_convert@mu+1)^(0+128),w
  4028  00A5' 1283               	bcf	3,5	;RP0=0, select bank0
  4029  00A6' 1303               	bcf	3,6	;RP1=0, select bank0
  4030  00A7' 0081'              	movwf	___wmul@multiplier+1
  4031  00A8' 1683               	bsf	3,5	;RP0=1, select bank1
  4032  00A9' 1303               	bcf	3,6	;RP1=0, select bank1
  4033  00AA' 0800'              	movf	ADC_convert@mu^(0+128),w
  4034  00AB' 1283               	bcf	3,5	;RP0=0, select bank0
  4035  00AC' 1303               	bcf	3,6	;RP1=0, select bank0
  4036  00AD' 0080'              	movwf	___wmul@multiplier
  4037  00AE' 300A               	movlw	10
  4038  00AF' 0082'              	movwf	___wmul@multiplicand
  4039  00B0' 3000               	movlw	0
  4040  00B1' 0083'              	movwf	___wmul@multiplicand+1
  4041  00B2' 120A' 118A' 2000' 120A' 118A' 	fcall	___wmul
  4042  00B7' 1283               	bcf	3,5	;RP0=0, select bank0
  4043  00B8' 1303               	bcf	3,6	;RP1=0, select bank0
  4044  00B9' 0801'              	movf	?___wmul+1,w
  4045  00BA' 1683               	bsf	3,5	;RP0=1, select bank1
  4046  00BB' 1303               	bcf	3,6	;RP1=0, select bank1
  4047  00BC' 0080'              	movwf	(ADC_convert@mu+1)^(0+128)
  4048  00BD' 1283               	bcf	3,5	;RP0=0, select bank0
  4049  00BE' 1303               	bcf	3,6	;RP1=0, select bank0
  4050  00BF' 0800'              	movf	?___wmul,w
  4051  00C0' 1683               	bsf	3,5	;RP0=1, select bank1
  4052  00C1' 1303               	bcf	3,6	;RP1=0, select bank1
  4053  00C2' 0080'              	movwf	ADC_convert@mu^(0+128)
  4054  00C3'                    l2954:
  4055  00C3' 3001               	movlw	1
  4056  00C4' 0780'              	addwf	ADC_convert@j^(0+128),f
  4057  00C5' 1803               	skipnc
  4058  00C6' 0A80'              	incf	(ADC_convert@j+1)^(0+128),f
  4059  00C7' 3000               	movlw	0
  4060  00C8' 0780'              	addwf	(ADC_convert@j+1)^(0+128),f
  4061  00C9'                    l2956:
  4062  00C9' 0800'              	movf	(ADC_convert@digits+1)^(0+128),w
  4063  00CA' 3A80               	xorlw	128
  4064  00CB' 1283               	bcf	3,5	;RP0=0, select bank0
  4065  00CC' 1303               	bcf	3,6	;RP1=0, select bank0
  4066  00CD' 00CC'              	movwf	??_ADC_convert
  4067  00CE' 1683               	bsf	3,5	;RP0=1, select bank1
  4068  00CF' 1303               	bcf	3,6	;RP1=0, select bank1
  4069  00D0' 0800'              	movf	(ADC_convert@j+1)^(0+128),w
  4070  00D1' 3A80               	xorlw	128
  4071  00D2' 1283               	bcf	3,5	;RP0=0, select bank0
  4072  00D3' 1303               	bcf	3,6	;RP1=0, select bank0
  4073  00D4' 024C'              	subwf	??_ADC_convert,w
  4074  00D5' 1D03               	skipz
  4075  00D6' 2800'              	goto	u3505
  4076  00D7' 1683               	bsf	3,5	;RP0=1, select bank1
  4077  00D8' 1303               	bcf	3,6	;RP1=0, select bank1
  4078  00D9' 0800'              	movf	ADC_convert@j^(0+128),w
  4079  00DA' 0200'              	subwf	ADC_convert@digits^(0+128),w
  4080  00DB'                    u3505:
  4081  00DB' 1803               	skipnc
  4082  00DC' 2800'              	goto	u3501
  4083  00DD' 2800'              	goto	u3500
  4084  00DE'                    u3501:
  4085  00DE' 2800'              	goto	l2952
  4086  00DF'                    u3500:
  4087  00DF'                    l2958:
  4088                           
  4089                           ;configuraciones_pic.c: 164:          x=a/mu;
  4090  00DF' 1683               	bsf	3,5	;RP0=1, select bank1
  4091  00E0' 1303               	bcf	3,6	;RP1=0, select bank1
  4092  00E1' 0800'              	movf	ADC_convert@mu^(0+128),w
  4093  00E2' 1283               	bcf	3,5	;RP0=0, select bank0
  4094  00E3' 1303               	bcf	3,6	;RP1=0, select bank0
  4095  00E4' 0084'              	movwf	___xxtofl@val
  4096  00E5' 1683               	bsf	3,5	;RP0=1, select bank1
  4097  00E6' 1303               	bcf	3,6	;RP1=0, select bank1
  4098  00E7' 0800'              	movf	(ADC_convert@mu+1)^(0+128),w
  4099  00E8' 1283               	bcf	3,5	;RP0=0, select bank0
  4100  00E9' 1303               	bcf	3,6	;RP1=0, select bank0
  4101  00EA' 0085'              	movwf	___xxtofl@val+1
  4102  00EB' 3000               	movlw	0
  4103  00EC' 1B85'              	btfsc	___xxtofl@val+1,7
  4104  00ED' 30FF               	movlw	255
  4105  00EE' 0086'              	movwf	___xxtofl@val+2
  4106  00EF' 0087'              	movwf	___xxtofl@val+3
  4107  00F0' 3001               	movlw	1
  4108  00F1' 120A' 118A' 2000' 120A' 118A' 	fcall	___xxtofl
  4109  00F6' 1283               	bcf	3,5	;RP0=0, select bank0
  4110  00F7' 1303               	bcf	3,6	;RP1=0, select bank0
  4111  00F8' 0807'              	movf	?___xxtofl+3,w
  4112  00F9' 0095'              	movwf	___fldiv@a+3
  4113  00FA' 0806'              	movf	?___xxtofl+2,w
  4114  00FB' 0094'              	movwf	___fldiv@a+2
  4115  00FC' 0805'              	movf	?___xxtofl+1,w
  4116  00FD' 0093'              	movwf	___fldiv@a+1
  4117  00FE' 0804'              	movf	?___xxtofl,w
  4118  00FF' 0092'              	movwf	___fldiv@a
  4119  0100' 0849'              	movf	ADC_convert@a+3,w
  4120  0101' 0099'              	movwf	___fldiv@b+3
  4121  0102' 0848'              	movf	ADC_convert@a+2,w
  4122  0103' 0098'              	movwf	___fldiv@b+2
  4123  0104' 0847'              	movf	ADC_convert@a+1,w
  4124  0105' 0097'              	movwf	___fldiv@b+1
  4125  0106' 0846'              	movf	ADC_convert@a,w
  4126  0107' 0096'              	movwf	___fldiv@b
  4127  0108' 120A' 118A' 2000' 120A' 118A' 	fcall	___fldiv
  4128  010D' 1283               	bcf	3,5	;RP0=0, select bank0
  4129  010E' 1303               	bcf	3,6	;RP1=0, select bank0
  4130  010F' 0815'              	movf	?___fldiv+3,w
  4131  0110' 1683               	bsf	3,5	;RP0=1, select bank1
  4132  0111' 1303               	bcf	3,6	;RP1=0, select bank1
  4133  0112' 0080'              	movwf	(ADC_convert@x+3)^(0+128)
  4134  0113' 1283               	bcf	3,5	;RP0=0, select bank0
  4135  0114' 1303               	bcf	3,6	;RP1=0, select bank0
  4136  0115' 0814'              	movf	?___fldiv+2,w
  4137  0116' 1683               	bsf	3,5	;RP0=1, select bank1
  4138  0117' 1303               	bcf	3,6	;RP1=0, select bank1
  4139  0118' 0080'              	movwf	(ADC_convert@x+2)^(0+128)
  4140  0119' 1283               	bcf	3,5	;RP0=0, select bank0
  4141  011A' 1303               	bcf	3,6	;RP1=0, select bank0
  4142  011B' 0813'              	movf	?___fldiv+1,w
  4143  011C' 1683               	bsf	3,5	;RP0=1, select bank1
  4144  011D' 1303               	bcf	3,6	;RP1=0, select bank1
  4145  011E' 0080'              	movwf	(ADC_convert@x+1)^(0+128)
  4146  011F' 1283               	bcf	3,5	;RP0=0, select bank0
  4147  0120' 1303               	bcf	3,6	;RP1=0, select bank0
  4148  0121' 0812'              	movf	?___fldiv,w
  4149  0122' 1683               	bsf	3,5	;RP0=1, select bank1
  4150  0123' 1303               	bcf	3,6	;RP1=0, select bank1
  4151  0124' 0080'              	movwf	ADC_convert@x^(0+128)
  4152                           
  4153                           ;configuraciones_pic.c: 165:          a=a-((int)x*mu);
  4154  0125' 0800'              	movf	(ADC_convert@mu+1)^(0+128),w
  4155  0126' 1283               	bcf	3,5	;RP0=0, select bank0
  4156  0127' 1303               	bcf	3,6	;RP1=0, select bank0
  4157  0128' 0083'              	movwf	___wmul@multiplicand+1
  4158  0129' 1683               	bsf	3,5	;RP0=1, select bank1
  4159  012A' 1303               	bcf	3,6	;RP1=0, select bank1
  4160  012B' 0800'              	movf	ADC_convert@mu^(0+128),w
  4161  012C' 1283               	bcf	3,5	;RP0=0, select bank0
  4162  012D' 1303               	bcf	3,6	;RP1=0, select bank0
  4163  012E' 0082'              	movwf	___wmul@multiplicand
  4164  012F' 1683               	bsf	3,5	;RP0=1, select bank1
  4165  0130' 1303               	bcf	3,6	;RP1=0, select bank1
  4166  0131' 0800'              	movf	(ADC_convert@x+3)^(0+128),w
  4167  0132' 0083'              	movwf	___fltol@f1+3
  4168  0133' 0800'              	movf	(ADC_convert@x+2)^(0+128),w
  4169  0134' 0082'              	movwf	___fltol@f1+2
  4170  0135' 0800'              	movf	(ADC_convert@x+1)^(0+128),w
  4171  0136' 0081'              	movwf	___fltol@f1+1
  4172  0137' 0800'              	movf	ADC_convert@x^(0+128),w
  4173  0138' 0080'              	movwf	___fltol@f1
  4174  0139' 120A' 118A' 2000' 120A' 118A' 	fcall	___fltol
  4175  013E' 0801'              	movf	?___fltol+1,w
  4176  013F' 1283               	bcf	3,5	;RP0=0, select bank0
  4177  0140' 1303               	bcf	3,6	;RP1=0, select bank0
  4178  0141' 0081'              	movwf	___wmul@multiplier+1
  4179  0142' 0800'              	movf	?___fltol,w
  4180  0143' 0080'              	movwf	___wmul@multiplier
  4181  0144' 120A' 118A' 2000' 120A' 118A' 	fcall	___wmul
  4182  0149' 1283               	bcf	3,5	;RP0=0, select bank0
  4183  014A' 1303               	bcf	3,6	;RP1=0, select bank0
  4184  014B' 0800'              	movf	?___wmul,w
  4185  014C' 0084'              	movwf	___xxtofl@val
  4186  014D' 0801'              	movf	?___wmul+1,w
  4187  014E' 0085'              	movwf	___xxtofl@val+1
  4188  014F' 3000               	movlw	0
  4189  0150' 1B85'              	btfsc	___xxtofl@val+1,7
  4190  0151' 30FF               	movlw	255
  4191  0152' 0086'              	movwf	___xxtofl@val+2
  4192  0153' 0087'              	movwf	___xxtofl@val+3
  4193  0154' 3001               	movlw	1
  4194  0155' 120A' 118A' 2000' 120A' 118A' 	fcall	___xxtofl
  4195  015A' 1283               	bcf	3,5	;RP0=0, select bank0
  4196  015B' 1303               	bcf	3,6	;RP1=0, select bank0
  4197  015C' 0807'              	movf	?___xxtofl+3,w
  4198  015D' 0095'              	movwf	___flsub@a+3
  4199  015E' 0806'              	movf	?___xxtofl+2,w
  4200  015F' 0094'              	movwf	___flsub@a+2
  4201  0160' 0805'              	movf	?___xxtofl+1,w
  4202  0161' 0093'              	movwf	___flsub@a+1
  4203  0162' 0804'              	movf	?___xxtofl,w
  4204  0163' 0092'              	movwf	___flsub@a
  4205  0164' 0849'              	movf	ADC_convert@a+3,w
  4206  0165' 0099'              	movwf	___flsub@b+3
  4207  0166' 0848'              	movf	ADC_convert@a+2,w
  4208  0167' 0098'              	movwf	___flsub@b+2
  4209  0168' 0847'              	movf	ADC_convert@a+1,w
  4210  0169' 0097'              	movwf	___flsub@b+1
  4211  016A' 0846'              	movf	ADC_convert@a,w
  4212  016B' 0096'              	movwf	___flsub@b
  4213  016C' 120A' 118A' 2000' 120A' 118A' 	fcall	___flsub
  4214  0171' 1283               	bcf	3,5	;RP0=0, select bank0
  4215  0172' 1303               	bcf	3,6	;RP1=0, select bank0
  4216  0173' 0815'              	movf	?___flsub+3,w
  4217  0174' 00C9'              	movwf	ADC_convert@a+3
  4218  0175' 0814'              	movf	?___flsub+2,w
  4219  0176' 00C8'              	movwf	ADC_convert@a+2
  4220  0177' 0813'              	movf	?___flsub+1,w
  4221  0178' 00C7'              	movwf	ADC_convert@a+1
  4222  0179' 0812'              	movf	?___flsub,w
  4223  017A' 00C6'              	movwf	ADC_convert@a
  4224  017B'                    l2960:
  4225                           
  4226                           ;configuraciones_pic.c: 166:          data[i]=0x30+((int)x);
  4227  017B' 1683               	bsf	3,5	;RP0=1, select bank1
  4228  017C' 1303               	bcf	3,6	;RP1=0, select bank1
  4229  017D' 0800'              	movf	(ADC_convert@x+3)^(0+128),w
  4230  017E' 0083'              	movwf	___fltol@f1+3
  4231  017F' 0800'              	movf	(ADC_convert@x+2)^(0+128),w
  4232  0180' 0082'              	movwf	___fltol@f1+2
  4233  0181' 0800'              	movf	(ADC_convert@x+1)^(0+128),w
  4234  0182' 0081'              	movwf	___fltol@f1+1
  4235  0183' 0800'              	movf	ADC_convert@x^(0+128),w
  4236  0184' 0080'              	movwf	___fltol@f1
  4237  0185' 120A' 118A' 2000' 120A' 118A' 	fcall	___fltol
  4238  018A' 0800'              	movf	?___fltol,w
  4239  018B' 3E30               	addlw	48
  4240  018C' 1283               	bcf	3,5	;RP0=0, select bank0
  4241  018D' 1303               	bcf	3,6	;RP1=0, select bank0
  4242  018E' 00CC'              	movwf	??_ADC_convert
  4243  018F' 1683               	bsf	3,5	;RP0=1, select bank1
  4244  0190' 1303               	bcf	3,6	;RP1=0, select bank1
  4245  0191' 0800'              	movf	ADC_convert@i^(0+128),w
  4246  0192' 0700'              	addwf	ADC_convert@data^(0+128),w
  4247  0193' 1283               	bcf	3,5	;RP0=0, select bank0
  4248  0194' 1303               	bcf	3,6	;RP1=0, select bank0
  4249  0195' 00CD'              	movwf	??_ADC_convert+1
  4250  0196' 084D'              	movf	??_ADC_convert+1,w
  4251  0197' 0084               	movwf	4
  4252  0198' 084C'              	movf	??_ADC_convert,w
  4253  0199' 1383               	bcf	3,7	;select IRP bank0
  4254  019A' 0080               	movwf	0
  4255  019B'                    l2962:
  4256                           
  4257                           ;configuraciones_pic.c: 167:          i++;
  4258  019B' 3001               	movlw	1
  4259  019C' 1683               	bsf	3,5	;RP0=1, select bank1
  4260  019D' 1303               	bcf	3,6	;RP1=0, select bank1
  4261  019E' 0780'              	addwf	ADC_convert@i^(0+128),f
  4262  019F' 1803               	skipnc
  4263  01A0' 0A80'              	incf	(ADC_convert@i+1)^(0+128),f
  4264  01A1' 3000               	movlw	0
  4265  01A2' 0780'              	addwf	(ADC_convert@i+1)^(0+128),f
  4266  01A3'                    l2964:
  4267                           
  4268                           ;configuraciones_pic.c: 168:          digits--;
  4269  01A3' 30FF               	movlw	255
  4270  01A4' 0780'              	addwf	ADC_convert@digits^(0+128),f
  4271  01A5' 1803               	skipnc
  4272  01A6' 0A80'              	incf	(ADC_convert@digits+1)^(0+128),f
  4273  01A7' 30FF               	movlw	255
  4274  01A8' 0780'              	addwf	(ADC_convert@digits+1)^(0+128),f
  4275  01A9'                    l2966:
  4276                           
  4277                           ;configuraciones_pic.c: 169:          mu=1;
  4278  01A9' 3001               	movlw	1
  4279  01AA' 0080'              	movwf	ADC_convert@mu^(0+128)
  4280  01AB' 3000               	movlw	0
  4281  01AC' 0081'              	movwf	(ADC_convert@mu^(0+128)+1)
  4282  01AD'                    l2968:
  4283                           
  4284                           ;configuraciones_pic.c: 159:      while(digits!=0)
  4285  01AD' 0800'              	movf	ADC_convert@digits^(0+128),w
  4286  01AE' 0400'              	iorwf	(ADC_convert@digits+1)^(0+128),w
  4287  01AF' 1D03               	btfss	3,2
  4288  01B0' 2800'              	goto	u3511
  4289  01B1' 2800'              	goto	u3510
  4290  01B2'                    u3511:
  4291  01B2' 2800'              	goto	l2946
  4292  01B3'                    u3510:
  4293  01B3'                    l2970:
  4294                           
  4295                           ;configuraciones_pic.c: 172:      data[i]='.';
  4296  01B3' 302E               	movlw	46
  4297  01B4' 1283               	bcf	3,5	;RP0=0, select bank0
  4298  01B5' 1303               	bcf	3,6	;RP1=0, select bank0
  4299  01B6' 00CC'              	movwf	??_ADC_convert
  4300  01B7' 1683               	bsf	3,5	;RP0=1, select bank1
  4301  01B8' 1303               	bcf	3,6	;RP1=0, select bank1
  4302  01B9' 0800'              	movf	ADC_convert@i^(0+128),w
  4303  01BA' 0700'              	addwf	ADC_convert@data^(0+128),w
  4304  01BB' 1283               	bcf	3,5	;RP0=0, select bank0
  4305  01BC' 1303               	bcf	3,6	;RP1=0, select bank0
  4306  01BD' 00CD'              	movwf	??_ADC_convert+1
  4307  01BE' 084D'              	movf	??_ADC_convert+1,w
  4308  01BF' 0084               	movwf	4
  4309  01C0' 084C'              	movf	??_ADC_convert,w
  4310  01C1' 1383               	bcf	3,7	;select IRP bank0
  4311  01C2' 0080               	movwf	0
  4312  01C3'                    l2972:
  4313                           
  4314                           ;configuraciones_pic.c: 173:      i++;
  4315  01C3' 3001               	movlw	1
  4316  01C4' 1683               	bsf	3,5	;RP0=1, select bank1
  4317  01C5' 1303               	bcf	3,6	;RP1=0, select bank1
  4318  01C6' 0780'              	addwf	ADC_convert@i^(0+128),f
  4319  01C7' 1803               	skipnc
  4320  01C8' 0A80'              	incf	(ADC_convert@i+1)^(0+128),f
  4321  01C9' 3000               	movlw	0
  4322  01CA' 0780'              	addwf	(ADC_convert@i+1)^(0+128),f
  4323  01CB'                    l2974:
  4324  01CB'                    l2976:
  4325                           
  4326                           ;configuraciones_pic.c: 175:      for(j=1;j<=place;j++)mu=mu*10;
  4327  01CB' 3001               	movlw	1
  4328  01CC' 0080'              	movwf	ADC_convert@j^(0+128)
  4329  01CD' 3000               	movlw	0
  4330  01CE' 0081'              	movwf	(ADC_convert@j^(0+128)+1)
  4331  01CF' 2800'              	goto	l2982
  4332  01D0'                    l2978:
  4333  01D0' 1683               	bsf	3,5	;RP0=1, select bank1
  4334  01D1' 1303               	bcf	3,6	;RP1=0, select bank1
  4335  01D2' 0800'              	movf	(ADC_convert@mu+1)^(0+128),w
  4336  01D3' 1283               	bcf	3,5	;RP0=0, select bank0
  4337  01D4' 1303               	bcf	3,6	;RP1=0, select bank0
  4338  01D5' 0081'              	movwf	___wmul@multiplier+1
  4339  01D6' 1683               	bsf	3,5	;RP0=1, select bank1
  4340  01D7' 1303               	bcf	3,6	;RP1=0, select bank1
  4341  01D8' 0800'              	movf	ADC_convert@mu^(0+128),w
  4342  01D9' 1283               	bcf	3,5	;RP0=0, select bank0
  4343  01DA' 1303               	bcf	3,6	;RP1=0, select bank0
  4344  01DB' 0080'              	movwf	___wmul@multiplier
  4345  01DC' 300A               	movlw	10
  4346  01DD' 0082'              	movwf	___wmul@multiplicand
  4347  01DE' 3000               	movlw	0
  4348  01DF' 0083'              	movwf	___wmul@multiplicand+1
  4349  01E0' 120A' 118A' 2000' 120A' 118A' 	fcall	___wmul
  4350  01E5' 1283               	bcf	3,5	;RP0=0, select bank0
  4351  01E6' 1303               	bcf	3,6	;RP1=0, select bank0
  4352  01E7' 0801'              	movf	?___wmul+1,w
  4353  01E8' 1683               	bsf	3,5	;RP0=1, select bank1
  4354  01E9' 1303               	bcf	3,6	;RP1=0, select bank1
  4355  01EA' 0080'              	movwf	(ADC_convert@mu+1)^(0+128)
  4356  01EB' 1283               	bcf	3,5	;RP0=0, select bank0
  4357  01EC' 1303               	bcf	3,6	;RP1=0, select bank0
  4358  01ED' 0800'              	movf	?___wmul,w
  4359  01EE' 1683               	bsf	3,5	;RP0=1, select bank1
  4360  01EF' 1303               	bcf	3,6	;RP1=0, select bank1
  4361  01F0' 0080'              	movwf	ADC_convert@mu^(0+128)
  4362  01F1'                    l2980:
  4363  01F1' 3001               	movlw	1
  4364  01F2' 0780'              	addwf	ADC_convert@j^(0+128),f
  4365  01F3' 1803               	skipnc
  4366  01F4' 0A80'              	incf	(ADC_convert@j+1)^(0+128),f
  4367  01F5' 3000               	movlw	0
  4368  01F6' 0780'              	addwf	(ADC_convert@j+1)^(0+128),f
  4369  01F7'                    l2982:
  4370  01F7' 1283               	bcf	3,5	;RP0=0, select bank0
  4371  01F8' 1303               	bcf	3,6	;RP1=0, select bank0
  4372  01F9' 084B'              	movf	ADC_convert@place+1,w
  4373  01FA' 3A80               	xorlw	128
  4374  01FB' 00CC'              	movwf	??_ADC_convert
  4375  01FC' 1683               	bsf	3,5	;RP0=1, select bank1
  4376  01FD' 1303               	bcf	3,6	;RP1=0, select bank1
  4377  01FE' 0800'              	movf	(ADC_convert@j+1)^(0+128),w
  4378  01FF' 3A80               	xorlw	128
  4379  0200' 1283               	bcf	3,5	;RP0=0, select bank0
  4380  0201' 1303               	bcf	3,6	;RP1=0, select bank0
  4381  0202' 024C'              	subwf	??_ADC_convert,w
  4382  0203' 1D03               	skipz
  4383  0204' 2800'              	goto	u3525
  4384  0205' 1683               	bsf	3,5	;RP0=1, select bank1
  4385  0206' 1303               	bcf	3,6	;RP1=0, select bank1
  4386  0207' 0800'              	movf	ADC_convert@j^(0+128),w
  4387  0208' 1283               	bcf	3,5	;RP0=0, select bank0
  4388  0209' 1303               	bcf	3,6	;RP1=0, select bank0
  4389  020A' 024A'              	subwf	ADC_convert@place,w
  4390  020B'                    u3525:
  4391  020B' 1803               	skipnc
  4392  020C' 2800'              	goto	u3521
  4393  020D' 2800'              	goto	u3520
  4394  020E'                    u3521:
  4395  020E' 2800'              	goto	l2978
  4396  020F'                    u3520:
  4397  020F'                    l2984:
  4398                           
  4399                           ;configuraciones_pic.c: 176:      x=(a-(int)a)*mu;
  4400  020F' 1683               	bsf	3,5	;RP0=1, select bank1
  4401  0210' 1303               	bcf	3,6	;RP1=0, select bank1
  4402  0211' 0800'              	movf	ADC_convert@mu^(0+128),w
  4403  0212' 1283               	bcf	3,5	;RP0=0, select bank0
  4404  0213' 1303               	bcf	3,6	;RP1=0, select bank0
  4405  0214' 0084'              	movwf	___xxtofl@val
  4406  0215' 1683               	bsf	3,5	;RP0=1, select bank1
  4407  0216' 1303               	bcf	3,6	;RP1=0, select bank1
  4408  0217' 0800'              	movf	(ADC_convert@mu+1)^(0+128),w
  4409  0218' 1283               	bcf	3,5	;RP0=0, select bank0
  4410  0219' 1303               	bcf	3,6	;RP1=0, select bank0
  4411  021A' 0085'              	movwf	___xxtofl@val+1
  4412  021B' 3000               	movlw	0
  4413  021C' 1B85'              	btfsc	___xxtofl@val+1,7
  4414  021D' 30FF               	movlw	255
  4415  021E' 0086'              	movwf	___xxtofl@val+2
  4416  021F' 0087'              	movwf	___xxtofl@val+3
  4417  0220' 3001               	movlw	1
  4418  0221' 120A' 118A' 2000' 120A' 118A' 	fcall	___xxtofl
  4419  0226' 1283               	bcf	3,5	;RP0=0, select bank0
  4420  0227' 1303               	bcf	3,6	;RP1=0, select bank0
  4421  0228' 0807'              	movf	?___xxtofl+3,w
  4422  0229' 00AF'              	movwf	___flmul@b+3
  4423  022A' 0806'              	movf	?___xxtofl+2,w
  4424  022B' 00AE'              	movwf	___flmul@b+2
  4425  022C' 0805'              	movf	?___xxtofl+1,w
  4426  022D' 00AD'              	movwf	___flmul@b+1
  4427  022E' 0804'              	movf	?___xxtofl,w
  4428  022F' 00AC'              	movwf	___flmul@b
  4429  0230' 0849'              	movf	ADC_convert@a+3,w
  4430  0231' 0083'              	movwf	___fltol@f1+3
  4431  0232' 0848'              	movf	ADC_convert@a+2,w
  4432  0233' 0082'              	movwf	___fltol@f1+2
  4433  0234' 0847'              	movf	ADC_convert@a+1,w
  4434  0235' 0081'              	movwf	___fltol@f1+1
  4435  0236' 0846'              	movf	ADC_convert@a,w
  4436  0237' 0080'              	movwf	___fltol@f1
  4437  0238' 120A' 118A' 2000' 120A' 118A' 	fcall	___fltol
  4438  023D' 0800'              	movf	?___fltol,w
  4439  023E' 1283               	bcf	3,5	;RP0=0, select bank0
  4440  023F' 1303               	bcf	3,6	;RP1=0, select bank0
  4441  0240' 0084'              	movwf	___xxtofl@val
  4442  0241' 0801'              	movf	?___fltol+1,w
  4443  0242' 0085'              	movwf	___xxtofl@val+1
  4444  0243' 3000               	movlw	0
  4445  0244' 1B85'              	btfsc	___xxtofl@val+1,7
  4446  0245' 30FF               	movlw	255
  4447  0246' 0086'              	movwf	___xxtofl@val+2
  4448  0247' 0087'              	movwf	___xxtofl@val+3
  4449  0248' 3001               	movlw	1
  4450  0249' 120A' 118A' 2000' 120A' 118A' 	fcall	___xxtofl
  4451  024E' 1283               	bcf	3,5	;RP0=0, select bank0
  4452  024F' 1303               	bcf	3,6	;RP1=0, select bank0
  4453  0250' 0807'              	movf	?___xxtofl+3,w
  4454  0251' 0095'              	movwf	___flsub@a+3
  4455  0252' 0806'              	movf	?___xxtofl+2,w
  4456  0253' 0094'              	movwf	___flsub@a+2
  4457  0254' 0805'              	movf	?___xxtofl+1,w
  4458  0255' 0093'              	movwf	___flsub@a+1
  4459  0256' 0804'              	movf	?___xxtofl,w
  4460  0257' 0092'              	movwf	___flsub@a
  4461  0258' 0849'              	movf	ADC_convert@a+3,w
  4462  0259' 0099'              	movwf	___flsub@b+3
  4463  025A' 0848'              	movf	ADC_convert@a+2,w
  4464  025B' 0098'              	movwf	___flsub@b+2
  4465  025C' 0847'              	movf	ADC_convert@a+1,w
  4466  025D' 0097'              	movwf	___flsub@b+1
  4467  025E' 0846'              	movf	ADC_convert@a,w
  4468  025F' 0096'              	movwf	___flsub@b
  4469  0260' 120A' 118A' 2000' 120A' 118A' 	fcall	___flsub
  4470  0265' 1283               	bcf	3,5	;RP0=0, select bank0
  4471  0266' 1303               	bcf	3,6	;RP1=0, select bank0
  4472  0267' 0815'              	movf	?___flsub+3,w
  4473  0268' 00B3'              	movwf	___flmul@a+3
  4474  0269' 0814'              	movf	?___flsub+2,w
  4475  026A' 00B2'              	movwf	___flmul@a+2
  4476  026B' 0813'              	movf	?___flsub+1,w
  4477  026C' 00B1'              	movwf	___flmul@a+1
  4478  026D' 0812'              	movf	?___flsub,w
  4479  026E' 00B0'              	movwf	___flmul@a
  4480  026F' 120A' 118A' 2000' 120A' 118A' 	fcall	___flmul
  4481  0274' 1283               	bcf	3,5	;RP0=0, select bank0
  4482  0275' 1303               	bcf	3,6	;RP1=0, select bank0
  4483  0276' 082F'              	movf	?___flmul+3,w
  4484  0277' 1683               	bsf	3,5	;RP0=1, select bank1
  4485  0278' 1303               	bcf	3,6	;RP1=0, select bank1
  4486  0279' 0080'              	movwf	(ADC_convert@x+3)^(0+128)
  4487  027A' 1283               	bcf	3,5	;RP0=0, select bank0
  4488  027B' 1303               	bcf	3,6	;RP1=0, select bank0
  4489  027C' 082E'              	movf	?___flmul+2,w
  4490  027D' 1683               	bsf	3,5	;RP0=1, select bank1
  4491  027E' 1303               	bcf	3,6	;RP1=0, select bank1
  4492  027F' 0080'              	movwf	(ADC_convert@x+2)^(0+128)
  4493  0280' 1283               	bcf	3,5	;RP0=0, select bank0
  4494  0281' 1303               	bcf	3,6	;RP1=0, select bank0
  4495  0282' 082D'              	movf	?___flmul+1,w
  4496  0283' 1683               	bsf	3,5	;RP0=1, select bank1
  4497  0284' 1303               	bcf	3,6	;RP1=0, select bank1
  4498  0285' 0080'              	movwf	(ADC_convert@x+1)^(0+128)
  4499  0286' 1283               	bcf	3,5	;RP0=0, select bank0
  4500  0287' 1303               	bcf	3,6	;RP1=0, select bank0
  4501  0288' 082C'              	movf	?___flmul,w
  4502  0289' 1683               	bsf	3,5	;RP0=1, select bank1
  4503  028A' 1303               	bcf	3,6	;RP1=0, select bank1
  4504  028B' 0080'              	movwf	ADC_convert@x^(0+128)
  4505  028C'                    l2986:
  4506                           
  4507                           ;configuraciones_pic.c: 177:      a=x;
  4508  028C' 0800'              	movf	(ADC_convert@x+3)^(0+128),w
  4509  028D' 1283               	bcf	3,5	;RP0=0, select bank0
  4510  028E' 1303               	bcf	3,6	;RP1=0, select bank0
  4511  028F' 00C9'              	movwf	ADC_convert@a+3
  4512  0290' 1683               	bsf	3,5	;RP0=1, select bank1
  4513  0291' 1303               	bcf	3,6	;RP1=0, select bank1
  4514  0292' 0800'              	movf	(ADC_convert@x+2)^(0+128),w
  4515  0293' 1283               	bcf	3,5	;RP0=0, select bank0
  4516  0294' 1303               	bcf	3,6	;RP1=0, select bank0
  4517  0295' 00C8'              	movwf	ADC_convert@a+2
  4518  0296' 1683               	bsf	3,5	;RP0=1, select bank1
  4519  0297' 1303               	bcf	3,6	;RP1=0, select bank1
  4520  0298' 0800'              	movf	(ADC_convert@x+1)^(0+128),w
  4521  0299' 1283               	bcf	3,5	;RP0=0, select bank0
  4522  029A' 1303               	bcf	3,6	;RP1=0, select bank0
  4523  029B' 00C7'              	movwf	ADC_convert@a+1
  4524  029C' 1683               	bsf	3,5	;RP0=1, select bank1
  4525  029D' 1303               	bcf	3,6	;RP1=0, select bank1
  4526  029E' 0800'              	movf	ADC_convert@x^(0+128),w
  4527  029F' 1283               	bcf	3,5	;RP0=0, select bank0
  4528  02A0' 1303               	bcf	3,6	;RP1=0, select bank0
  4529  02A1' 00C6'              	movwf	ADC_convert@a
  4530  02A2'                    l2988:
  4531  02A2' 0849'              	movf	ADC_convert@a+3,w
  4532  02A3' 0083'              	movwf	___fltol@f1+3
  4533  02A4' 0848'              	movf	ADC_convert@a+2,w
  4534  02A5' 0082'              	movwf	___fltol@f1+2
  4535  02A6' 0847'              	movf	ADC_convert@a+1,w
  4536  02A7' 0081'              	movwf	___fltol@f1+1
  4537  02A8' 0846'              	movf	ADC_convert@a,w
  4538  02A9' 0080'              	movwf	___fltol@f1
  4539  02AA' 120A' 118A' 2000' 120A' 118A' 	fcall	___fltol
  4540  02AF'                    l2990:
  4541  02AF'                    l2992:
  4542                           
  4543                           ;configuraciones_pic.c: 180:      mu=1;
  4544  02AF' 3001               	movlw	1
  4545  02B0' 1683               	bsf	3,5	;RP0=1, select bank1
  4546  02B1' 1303               	bcf	3,6	;RP1=0, select bank1
  4547  02B2' 0080'              	movwf	ADC_convert@mu^(0+128)
  4548  02B3' 3000               	movlw	0
  4549  02B4' 0081'              	movwf	(ADC_convert@mu^(0+128)+1)
  4550  02B5'                    l2994:
  4551                           
  4552                           ;configuraciones_pic.c: 181:      digits=place;
  4553  02B5' 1283               	bcf	3,5	;RP0=0, select bank0
  4554  02B6' 1303               	bcf	3,6	;RP1=0, select bank0
  4555  02B7' 084B'              	movf	ADC_convert@place+1,w
  4556  02B8' 1683               	bsf	3,5	;RP0=1, select bank1
  4557  02B9' 1303               	bcf	3,6	;RP1=0, select bank1
  4558  02BA' 0080'              	movwf	(ADC_convert@digits+1)^(0+128)
  4559  02BB' 1283               	bcf	3,5	;RP0=0, select bank0
  4560  02BC' 1303               	bcf	3,6	;RP1=0, select bank0
  4561  02BD' 084A'              	movf	ADC_convert@place,w
  4562  02BE' 1683               	bsf	3,5	;RP0=1, select bank1
  4563  02BF' 1303               	bcf	3,6	;RP1=0, select bank1
  4564  02C0' 0080'              	movwf	ADC_convert@digits^(0+128)
  4565                           
  4566                           ;configuraciones_pic.c: 182:      while(digits!=0)
  4567  02C1' 2800'              	goto	l3018
  4568  02C2'                    l2996:
  4569                           
  4570                           ;configuraciones_pic.c: 183:      {;configuraciones_pic.c: 184:          if(digits==1)mu
      +                          =1;
  4571  02C2' 0300'              	decf	ADC_convert@digits^(0+128),w
  4572  02C3' 0400'              	iorwf	(ADC_convert@digits+1)^(0+128),w
  4573  02C4' 1D03               	btfss	3,2
  4574  02C5' 2800'              	goto	u3531
  4575  02C6' 2800'              	goto	u3530
  4576  02C7'                    u3531:
  4577  02C7' 2800'              	goto	l3000
  4578  02C8'                    u3530:
  4579  02C8'                    l2998:
  4580  02C8' 3001               	movlw	1
  4581  02C9' 0080'              	movwf	ADC_convert@mu^(0+128)
  4582  02CA' 3000               	movlw	0
  4583  02CB' 0081'              	movwf	(ADC_convert@mu^(0+128)+1)
  4584  02CC' 2800'              	goto	l3008
  4585  02CD'                    l3000:
  4586  02CD' 3002               	movlw	2
  4587  02CE' 0080'              	movwf	ADC_convert@j^(0+128)
  4588  02CF' 3000               	movlw	0
  4589  02D0' 0081'              	movwf	(ADC_convert@j^(0+128)+1)
  4590  02D1' 2800'              	goto	l3006
  4591  02D2'                    l3002:
  4592  02D2' 1683               	bsf	3,5	;RP0=1, select bank1
  4593  02D3' 1303               	bcf	3,6	;RP1=0, select bank1
  4594  02D4' 0800'              	movf	(ADC_convert@mu+1)^(0+128),w
  4595  02D5' 1283               	bcf	3,5	;RP0=0, select bank0
  4596  02D6' 1303               	bcf	3,6	;RP1=0, select bank0
  4597  02D7' 0081'              	movwf	___wmul@multiplier+1
  4598  02D8' 1683               	bsf	3,5	;RP0=1, select bank1
  4599  02D9' 1303               	bcf	3,6	;RP1=0, select bank1
  4600  02DA' 0800'              	movf	ADC_convert@mu^(0+128),w
  4601  02DB' 1283               	bcf	3,5	;RP0=0, select bank0
  4602  02DC' 1303               	bcf	3,6	;RP1=0, select bank0
  4603  02DD' 0080'              	movwf	___wmul@multiplier
  4604  02DE' 300A               	movlw	10
  4605  02DF' 0082'              	movwf	___wmul@multiplicand
  4606  02E0' 3000               	movlw	0
  4607  02E1' 0083'              	movwf	___wmul@multiplicand+1
  4608  02E2' 120A' 118A' 2000' 120A' 118A' 	fcall	___wmul
  4609  02E7' 1283               	bcf	3,5	;RP0=0, select bank0
  4610  02E8' 1303               	bcf	3,6	;RP1=0, select bank0
  4611  02E9' 0801'              	movf	?___wmul+1,w
  4612  02EA' 1683               	bsf	3,5	;RP0=1, select bank1
  4613  02EB' 1303               	bcf	3,6	;RP1=0, select bank1
  4614  02EC' 0080'              	movwf	(ADC_convert@mu+1)^(0+128)
  4615  02ED' 1283               	bcf	3,5	;RP0=0, select bank0
  4616  02EE' 1303               	bcf	3,6	;RP1=0, select bank0
  4617  02EF' 0800'              	movf	?___wmul,w
  4618  02F0' 1683               	bsf	3,5	;RP0=1, select bank1
  4619  02F1' 1303               	bcf	3,6	;RP1=0, select bank1
  4620  02F2' 0080'              	movwf	ADC_convert@mu^(0+128)
  4621  02F3'                    l3004:
  4622  02F3' 3001               	movlw	1
  4623  02F4' 0780'              	addwf	ADC_convert@j^(0+128),f
  4624  02F5' 1803               	skipnc
  4625  02F6' 0A80'              	incf	(ADC_convert@j+1)^(0+128),f
  4626  02F7' 3000               	movlw	0
  4627  02F8' 0780'              	addwf	(ADC_convert@j+1)^(0+128),f
  4628  02F9'                    l3006:
  4629  02F9' 0800'              	movf	(ADC_convert@digits+1)^(0+128),w
  4630  02FA' 3A80               	xorlw	128
  4631  02FB' 1283               	bcf	3,5	;RP0=0, select bank0
  4632  02FC' 1303               	bcf	3,6	;RP1=0, select bank0
  4633  02FD' 00CC'              	movwf	??_ADC_convert
  4634  02FE' 1683               	bsf	3,5	;RP0=1, select bank1
  4635  02FF' 1303               	bcf	3,6	;RP1=0, select bank1
  4636  0300' 0800'              	movf	(ADC_convert@j+1)^(0+128),w
  4637  0301' 3A80               	xorlw	128
  4638  0302' 1283               	bcf	3,5	;RP0=0, select bank0
  4639  0303' 1303               	bcf	3,6	;RP1=0, select bank0
  4640  0304' 024C'              	subwf	??_ADC_convert,w
  4641  0305' 1D03               	skipz
  4642  0306' 2800'              	goto	u3545
  4643  0307' 1683               	bsf	3,5	;RP0=1, select bank1
  4644  0308' 1303               	bcf	3,6	;RP1=0, select bank1
  4645  0309' 0800'              	movf	ADC_convert@j^(0+128),w
  4646  030A' 0200'              	subwf	ADC_convert@digits^(0+128),w
  4647  030B'                    u3545:
  4648  030B' 1803               	skipnc
  4649  030C' 2800'              	goto	u3541
  4650  030D' 2800'              	goto	u3540
  4651  030E'                    u3541:
  4652  030E' 2800'              	goto	l3002
  4653  030F'                    u3540:
  4654  030F'                    l3008:
  4655                           
  4656                           ;configuraciones_pic.c: 187:          x=a/mu;
  4657  030F' 1683               	bsf	3,5	;RP0=1, select bank1
  4658  0310' 1303               	bcf	3,6	;RP1=0, select bank1
  4659  0311' 0800'              	movf	ADC_convert@mu^(0+128),w
  4660  0312' 1283               	bcf	3,5	;RP0=0, select bank0
  4661  0313' 1303               	bcf	3,6	;RP1=0, select bank0
  4662  0314' 0084'              	movwf	___xxtofl@val
  4663  0315' 1683               	bsf	3,5	;RP0=1, select bank1
  4664  0316' 1303               	bcf	3,6	;RP1=0, select bank1
  4665  0317' 0800'              	movf	(ADC_convert@mu+1)^(0+128),w
  4666  0318' 1283               	bcf	3,5	;RP0=0, select bank0
  4667  0319' 1303               	bcf	3,6	;RP1=0, select bank0
  4668  031A' 0085'              	movwf	___xxtofl@val+1
  4669  031B' 3000               	movlw	0
  4670  031C' 1B85'              	btfsc	___xxtofl@val+1,7
  4671  031D' 30FF               	movlw	255
  4672  031E' 0086'              	movwf	___xxtofl@val+2
  4673  031F' 0087'              	movwf	___xxtofl@val+3
  4674  0320' 3001               	movlw	1
  4675  0321' 120A' 118A' 2000' 120A' 118A' 	fcall	___xxtofl
  4676  0326' 1283               	bcf	3,5	;RP0=0, select bank0
  4677  0327' 1303               	bcf	3,6	;RP1=0, select bank0
  4678  0328' 0807'              	movf	?___xxtofl+3,w
  4679  0329' 0095'              	movwf	___fldiv@a+3
  4680  032A' 0806'              	movf	?___xxtofl+2,w
  4681  032B' 0094'              	movwf	___fldiv@a+2
  4682  032C' 0805'              	movf	?___xxtofl+1,w
  4683  032D' 0093'              	movwf	___fldiv@a+1
  4684  032E' 0804'              	movf	?___xxtofl,w
  4685  032F' 0092'              	movwf	___fldiv@a
  4686  0330' 0849'              	movf	ADC_convert@a+3,w
  4687  0331' 0099'              	movwf	___fldiv@b+3
  4688  0332' 0848'              	movf	ADC_convert@a+2,w
  4689  0333' 0098'              	movwf	___fldiv@b+2
  4690  0334' 0847'              	movf	ADC_convert@a+1,w
  4691  0335' 0097'              	movwf	___fldiv@b+1
  4692  0336' 0846'              	movf	ADC_convert@a,w
  4693  0337' 0096'              	movwf	___fldiv@b
  4694  0338' 120A' 118A' 2000' 120A' 118A' 	fcall	___fldiv
  4695  033D' 1283               	bcf	3,5	;RP0=0, select bank0
  4696  033E' 1303               	bcf	3,6	;RP1=0, select bank0
  4697  033F' 0815'              	movf	?___fldiv+3,w
  4698  0340' 1683               	bsf	3,5	;RP0=1, select bank1
  4699  0341' 1303               	bcf	3,6	;RP1=0, select bank1
  4700  0342' 0080'              	movwf	(ADC_convert@x+3)^(0+128)
  4701  0343' 1283               	bcf	3,5	;RP0=0, select bank0
  4702  0344' 1303               	bcf	3,6	;RP1=0, select bank0
  4703  0345' 0814'              	movf	?___fldiv+2,w
  4704  0346' 1683               	bsf	3,5	;RP0=1, select bank1
  4705  0347' 1303               	bcf	3,6	;RP1=0, select bank1
  4706  0348' 0080'              	movwf	(ADC_convert@x+2)^(0+128)
  4707  0349' 1283               	bcf	3,5	;RP0=0, select bank0
  4708  034A' 1303               	bcf	3,6	;RP1=0, select bank0
  4709  034B' 0813'              	movf	?___fldiv+1,w
  4710  034C' 1683               	bsf	3,5	;RP0=1, select bank1
  4711  034D' 1303               	bcf	3,6	;RP1=0, select bank1
  4712  034E' 0080'              	movwf	(ADC_convert@x+1)^(0+128)
  4713  034F' 1283               	bcf	3,5	;RP0=0, select bank0
  4714  0350' 1303               	bcf	3,6	;RP1=0, select bank0
  4715  0351' 0812'              	movf	?___fldiv,w
  4716  0352' 1683               	bsf	3,5	;RP0=1, select bank1
  4717  0353' 1303               	bcf	3,6	;RP1=0, select bank1
  4718  0354' 0080'              	movwf	ADC_convert@x^(0+128)
  4719                           
  4720                           ;configuraciones_pic.c: 188:          a=a-((int)x*mu);
  4721  0355' 0800'              	movf	(ADC_convert@mu+1)^(0+128),w
  4722  0356' 1283               	bcf	3,5	;RP0=0, select bank0
  4723  0357' 1303               	bcf	3,6	;RP1=0, select bank0
  4724  0358' 0083'              	movwf	___wmul@multiplicand+1
  4725  0359' 1683               	bsf	3,5	;RP0=1, select bank1
  4726  035A' 1303               	bcf	3,6	;RP1=0, select bank1
  4727  035B' 0800'              	movf	ADC_convert@mu^(0+128),w
  4728  035C' 1283               	bcf	3,5	;RP0=0, select bank0
  4729  035D' 1303               	bcf	3,6	;RP1=0, select bank0
  4730  035E' 0082'              	movwf	___wmul@multiplicand
  4731  035F' 1683               	bsf	3,5	;RP0=1, select bank1
  4732  0360' 1303               	bcf	3,6	;RP1=0, select bank1
  4733  0361' 0800'              	movf	(ADC_convert@x+3)^(0+128),w
  4734  0362' 0083'              	movwf	___fltol@f1+3
  4735  0363' 0800'              	movf	(ADC_convert@x+2)^(0+128),w
  4736  0364' 0082'              	movwf	___fltol@f1+2
  4737  0365' 0800'              	movf	(ADC_convert@x+1)^(0+128),w
  4738  0366' 0081'              	movwf	___fltol@f1+1
  4739  0367' 0800'              	movf	ADC_convert@x^(0+128),w
  4740  0368' 0080'              	movwf	___fltol@f1
  4741  0369' 120A' 118A' 2000' 120A' 118A' 	fcall	___fltol
  4742  036E' 0801'              	movf	?___fltol+1,w
  4743  036F' 1283               	bcf	3,5	;RP0=0, select bank0
  4744  0370' 1303               	bcf	3,6	;RP1=0, select bank0
  4745  0371' 0081'              	movwf	___wmul@multiplier+1
  4746  0372' 0800'              	movf	?___fltol,w
  4747  0373' 0080'              	movwf	___wmul@multiplier
  4748  0374' 120A' 118A' 2000' 120A' 118A' 	fcall	___wmul
  4749  0379' 1283               	bcf	3,5	;RP0=0, select bank0
  4750  037A' 1303               	bcf	3,6	;RP1=0, select bank0
  4751  037B' 0800'              	movf	?___wmul,w
  4752  037C' 0084'              	movwf	___xxtofl@val
  4753  037D' 0801'              	movf	?___wmul+1,w
  4754  037E' 0085'              	movwf	___xxtofl@val+1
  4755  037F' 3000               	movlw	0
  4756  0380' 1B85'              	btfsc	___xxtofl@val+1,7
  4757  0381' 30FF               	movlw	255
  4758  0382' 0086'              	movwf	___xxtofl@val+2
  4759  0383' 0087'              	movwf	___xxtofl@val+3
  4760  0384' 3001               	movlw	1
  4761  0385' 120A' 118A' 2000' 120A' 118A' 	fcall	___xxtofl
  4762  038A' 1283               	bcf	3,5	;RP0=0, select bank0
  4763  038B' 1303               	bcf	3,6	;RP1=0, select bank0
  4764  038C' 0807'              	movf	?___xxtofl+3,w
  4765  038D' 0095'              	movwf	___flsub@a+3
  4766  038E' 0806'              	movf	?___xxtofl+2,w
  4767  038F' 0094'              	movwf	___flsub@a+2
  4768  0390' 0805'              	movf	?___xxtofl+1,w
  4769  0391' 0093'              	movwf	___flsub@a+1
  4770  0392' 0804'              	movf	?___xxtofl,w
  4771  0393' 0092'              	movwf	___flsub@a
  4772  0394' 0849'              	movf	ADC_convert@a+3,w
  4773  0395' 0099'              	movwf	___flsub@b+3
  4774  0396' 0848'              	movf	ADC_convert@a+2,w
  4775  0397' 0098'              	movwf	___flsub@b+2
  4776  0398' 0847'              	movf	ADC_convert@a+1,w
  4777  0399' 0097'              	movwf	___flsub@b+1
  4778  039A' 0846'              	movf	ADC_convert@a,w
  4779  039B' 0096'              	movwf	___flsub@b
  4780  039C' 120A' 118A' 2000' 120A' 118A' 	fcall	___flsub
  4781  03A1' 1283               	bcf	3,5	;RP0=0, select bank0
  4782  03A2' 1303               	bcf	3,6	;RP1=0, select bank0
  4783  03A3' 0815'              	movf	?___flsub+3,w
  4784  03A4' 00C9'              	movwf	ADC_convert@a+3
  4785  03A5' 0814'              	movf	?___flsub+2,w
  4786  03A6' 00C8'              	movwf	ADC_convert@a+2
  4787  03A7' 0813'              	movf	?___flsub+1,w
  4788  03A8' 00C7'              	movwf	ADC_convert@a+1
  4789  03A9' 0812'              	movf	?___flsub,w
  4790  03AA' 00C6'              	movwf	ADC_convert@a
  4791  03AB'                    l3010:
  4792                           
  4793                           ;configuraciones_pic.c: 189:          data[i]=0x30+((int)x);
  4794  03AB' 1683               	bsf	3,5	;RP0=1, select bank1
  4795  03AC' 1303               	bcf	3,6	;RP1=0, select bank1
  4796  03AD' 0800'              	movf	(ADC_convert@x+3)^(0+128),w
  4797  03AE' 0083'              	movwf	___fltol@f1+3
  4798  03AF' 0800'              	movf	(ADC_convert@x+2)^(0+128),w
  4799  03B0' 0082'              	movwf	___fltol@f1+2
  4800  03B1' 0800'              	movf	(ADC_convert@x+1)^(0+128),w
  4801  03B2' 0081'              	movwf	___fltol@f1+1
  4802  03B3' 0800'              	movf	ADC_convert@x^(0+128),w
  4803  03B4' 0080'              	movwf	___fltol@f1
  4804  03B5' 120A' 118A' 2000' 120A' 118A' 	fcall	___fltol
  4805  03BA' 0800'              	movf	?___fltol,w
  4806  03BB' 3E30               	addlw	48
  4807  03BC' 1283               	bcf	3,5	;RP0=0, select bank0
  4808  03BD' 1303               	bcf	3,6	;RP1=0, select bank0
  4809  03BE' 00CC'              	movwf	??_ADC_convert
  4810  03BF' 1683               	bsf	3,5	;RP0=1, select bank1
  4811  03C0' 1303               	bcf	3,6	;RP1=0, select bank1
  4812  03C1' 0800'              	movf	ADC_convert@i^(0+128),w
  4813  03C2' 0700'              	addwf	ADC_convert@data^(0+128),w
  4814  03C3' 1283               	bcf	3,5	;RP0=0, select bank0
  4815  03C4' 1303               	bcf	3,6	;RP1=0, select bank0
  4816  03C5' 00CD'              	movwf	??_ADC_convert+1
  4817  03C6' 084D'              	movf	??_ADC_convert+1,w
  4818  03C7' 0084               	movwf	4
  4819  03C8' 084C'              	movf	??_ADC_convert,w
  4820  03C9' 1383               	bcf	3,7	;select IRP bank0
  4821  03CA' 0080               	movwf	0
  4822  03CB'                    l3012:
  4823                           
  4824                           ;configuraciones_pic.c: 190:          i++;
  4825  03CB' 3001               	movlw	1
  4826  03CC' 1683               	bsf	3,5	;RP0=1, select bank1
  4827  03CD' 1303               	bcf	3,6	;RP1=0, select bank1
  4828  03CE' 0780'              	addwf	ADC_convert@i^(0+128),f
  4829  03CF' 1803               	skipnc
  4830  03D0' 0A80'              	incf	(ADC_convert@i+1)^(0+128),f
  4831  03D1' 3000               	movlw	0
  4832  03D2' 0780'              	addwf	(ADC_convert@i+1)^(0+128),f
  4833  03D3'                    l3014:
  4834                           
  4835                           ;configuraciones_pic.c: 191:          digits--;
  4836  03D3' 30FF               	movlw	255
  4837  03D4' 0780'              	addwf	ADC_convert@digits^(0+128),f
  4838  03D5' 1803               	skipnc
  4839  03D6' 0A80'              	incf	(ADC_convert@digits+1)^(0+128),f
  4840  03D7' 30FF               	movlw	255
  4841  03D8' 0780'              	addwf	(ADC_convert@digits+1)^(0+128),f
  4842  03D9'                    l3016:
  4843                           
  4844                           ;configuraciones_pic.c: 192:          mu=1;
  4845  03D9' 3001               	movlw	1
  4846  03DA' 0080'              	movwf	ADC_convert@mu^(0+128)
  4847  03DB' 3000               	movlw	0
  4848  03DC' 0081'              	movwf	(ADC_convert@mu^(0+128)+1)
  4849  03DD'                    l3018:
  4850                           
  4851                           ;configuraciones_pic.c: 182:      while(digits!=0)
  4852  03DD' 0800'              	movf	ADC_convert@digits^(0+128),w
  4853  03DE' 0400'              	iorwf	(ADC_convert@digits+1)^(0+128),w
  4854  03DF' 1D03               	btfss	3,2
  4855  03E0' 2800'              	goto	u3551
  4856  03E1' 2800'              	goto	u3550
  4857  03E2'                    u3551:
  4858  03E2' 2800'              	goto	l2996
  4859  03E3'                    u3550:
  4860  03E3'                    l3020:
  4861                           
  4862                           ;configuraciones_pic.c: 195:     data[i]='\n';
  4863  03E3' 300A               	movlw	10
  4864  03E4' 1283               	bcf	3,5	;RP0=0, select bank0
  4865  03E5' 1303               	bcf	3,6	;RP1=0, select bank0
  4866  03E6' 00CC'              	movwf	??_ADC_convert
  4867  03E7' 1683               	bsf	3,5	;RP0=1, select bank1
  4868  03E8' 1303               	bcf	3,6	;RP1=0, select bank1
  4869  03E9' 0800'              	movf	ADC_convert@i^(0+128),w
  4870  03EA' 0700'              	addwf	ADC_convert@data^(0+128),w
  4871  03EB' 1283               	bcf	3,5	;RP0=0, select bank0
  4872  03EC' 1303               	bcf	3,6	;RP1=0, select bank0
  4873  03ED' 00CD'              	movwf	??_ADC_convert+1
  4874  03EE' 084D'              	movf	??_ADC_convert+1,w
  4875  03EF' 0084               	movwf	4
  4876  03F0' 084C'              	movf	??_ADC_convert,w
  4877  03F1' 1383               	bcf	3,7	;select IRP bank0
  4878  03F2' 0080               	movwf	0
  4879  03F3'                    l90:
  4880  03F3' 0008               	return
  4881  03F4'                    __end_of_ADC_convert:
  4882                           
  4883                           	psect	text17
  4884  0000'                    __ptext17:	
  4885 ;; *************** function ___xxtofl *****************
  4886 ;; Defined at:
  4887 ;;		line 10 in file "C:\Program Files\Microchip\xc8\v2.31\pic\sources\c90\common\xxtofl.c"
  4888 ;; Parameters:    Size  Location     Type
  4889 ;;  sign            1    wreg     unsigned char 
  4890 ;;  val             4    4[BANK0 ] long 
  4891 ;; Auto vars:     Size  Location     Type
  4892 ;;  sign            1   12[BANK0 ] unsigned char 
  4893 ;;  arg             4   14[BANK0 ] unsigned long 
  4894 ;;  exp             1   13[BANK0 ] unsigned char 
  4895 ;; Return value:  Size  Location     Type
  4896 ;;                  4    4[BANK0 ] unsigned char 
  4897 ;; Registers used:
  4898 ;;		wreg, status,2, status,0
  4899 ;; Tracked objects:
  4900 ;;		On entry : 0/0
  4901 ;;		On exit  : 0/0
  4902 ;;		Unchanged: 0/0
  4903 ;; Data sizes:     COMMON   BANK0   BANK1   BANK3   BANK2
  4904 ;;      Params:         0       4       0       0       0
  4905 ;;      Locals:         0       6       0       0       0
  4906 ;;      Temps:          0       4       0       0       0
  4907 ;;      Totals:         0      14       0       0       0
  4908 ;;Total ram usage:       14 bytes
  4909 ;; Hardware stack levels used:    1
  4910 ;; This function calls:
  4911 ;;		Nothing
  4912 ;; This function is called by:
  4913 ;;		_ADC_convert
  4914 ;;		_main
  4915 ;; This function uses a non-reentrant model
  4916 ;;
  4917                           
  4918                           
  4919                           ;psect for function ___xxtofl
  4920  0000'                    ___xxtofl:
  4921                           
  4922                           ;incstack = 0
  4923                           ; Regs used in ___xxtofl: [wreg+status,2+status,0]
  4924                           ;___xxtofl@sign stored from wreg
  4925  0000' 1283               	bcf	3,5	;RP0=0, select bank0
  4926  0001' 1303               	bcf	3,6	;RP1=0, select bank0
  4927  0002' 008C'              	movwf	___xxtofl@sign
  4928  0003'                    l2876:
  4929  0003' 080C'              	movf	___xxtofl@sign,w
  4930  0004' 1903               	btfsc	3,2
  4931  0005' 2800'              	goto	u3331
  4932  0006' 2800'              	goto	u3330
  4933  0007'                    u3331:
  4934  0007' 2800'              	goto	l2882
  4935  0008'                    u3330:
  4936  0008'                    l2878:
  4937  0008' 1F87'              	btfss	___xxtofl@val+3,7
  4938  0009' 2800'              	goto	u3341
  4939  000A' 2800'              	goto	u3340
  4940  000B'                    u3341:
  4941  000B' 2800'              	goto	l2882
  4942  000C'                    u3340:
  4943  000C'                    l2880:
  4944  000C' 0904'              	comf	___xxtofl@val,w
  4945  000D' 008E'              	movwf	___xxtofl@arg
  4946  000E' 0905'              	comf	___xxtofl@val+1,w
  4947  000F' 008F'              	movwf	___xxtofl@arg+1
  4948  0010' 0906'              	comf	___xxtofl@val+2,w
  4949  0011' 0090'              	movwf	___xxtofl@arg+2
  4950  0012' 0907'              	comf	___xxtofl@val+3,w
  4951  0013' 0091'              	movwf	___xxtofl@arg+3
  4952  0014' 0A8E'              	incf	___xxtofl@arg,f
  4953  0015' 1903               	skipnz
  4954  0016' 0A8F'              	incf	___xxtofl@arg+1,f
  4955  0017' 1903               	skipnz
  4956  0018' 0A90'              	incf	___xxtofl@arg+2,f
  4957  0019' 1903               	skipnz
  4958  001A' 0A91'              	incf	___xxtofl@arg+3,f
  4959  001B' 2800'              	goto	l819
  4960  001C'                    l2882:
  4961  001C' 0807'              	movf	___xxtofl@val+3,w
  4962  001D' 0091'              	movwf	___xxtofl@arg+3
  4963  001E' 0806'              	movf	___xxtofl@val+2,w
  4964  001F' 0090'              	movwf	___xxtofl@arg+2
  4965  0020' 0805'              	movf	___xxtofl@val+1,w
  4966  0021' 008F'              	movwf	___xxtofl@arg+1
  4967  0022' 0804'              	movf	___xxtofl@val,w
  4968  0023' 008E'              	movwf	___xxtofl@arg
  4969  0024'                    l819:
  4970  0024' 0807'              	movf	___xxtofl@val+3,w
  4971  0025' 0406'              	iorwf	___xxtofl@val+2,w
  4972  0026' 0405'              	iorwf	___xxtofl@val+1,w
  4973  0027' 0404'              	iorwf	___xxtofl@val,w
  4974  0028' 1D03               	skipz
  4975  0029' 2800'              	goto	u3351
  4976  002A' 2800'              	goto	u3350
  4977  002B'                    u3351:
  4978  002B' 2800'              	goto	l2888
  4979  002C'                    u3350:
  4980  002C'                    l2884:
  4981  002C' 3000               	movlw	0
  4982  002D' 0087'              	movwf	?___xxtofl+3
  4983  002E' 3000               	movlw	0
  4984  002F' 0086'              	movwf	?___xxtofl+2
  4985  0030' 3000               	movlw	0
  4986  0031' 0085'              	movwf	?___xxtofl+1
  4987  0032' 3000               	movlw	0
  4988  0033' 0084'              	movwf	?___xxtofl
  4989  0034' 2800'              	goto	l821
  4990  0035'                    l2888:
  4991  0035' 3096               	movlw	150
  4992  0036' 0088'              	movwf	??___xxtofl
  4993  0037' 0808'              	movf	??___xxtofl,w
  4994  0038' 008D'              	movwf	___xxtofl@exp
  4995  0039' 2800'              	goto	l2892
  4996  003A'                    l2890:
  4997  003A' 3001               	movlw	1
  4998  003B' 0088'              	movwf	??___xxtofl
  4999  003C' 0808'              	movf	??___xxtofl,w
  5000  003D' 078D'              	addwf	___xxtofl@exp,f
  5001  003E' 3001               	movlw	1
  5002  003F'                    u3365:
  5003  003F' 1003               	clrc
  5004  0040' 0C91'              	rrf	___xxtofl@arg+3,f
  5005  0041' 0C90'              	rrf	___xxtofl@arg+2,f
  5006  0042' 0C8F'              	rrf	___xxtofl@arg+1,f
  5007  0043' 0C8E'              	rrf	___xxtofl@arg,f
  5008  0044' 3EFF               	addlw	-1
  5009  0045' 1D03               	skipz
  5010  0046' 2800'              	goto	u3365
  5011  0047'                    l2892:
  5012  0047' 30FE               	movlw	254
  5013  0048' 0511'              	andwf	___xxtofl@arg+3,w
  5014  0049' 1D03               	btfss	3,2
  5015  004A' 2800'              	goto	u3371
  5016  004B' 2800'              	goto	u3370
  5017  004C'                    u3371:
  5018  004C' 2800'              	goto	l2890
  5019  004D'                    u3370:
  5020  004D' 2800'              	goto	l825
  5021  004E'                    l2894:
  5022  004E' 3001               	movlw	1
  5023  004F' 0088'              	movwf	??___xxtofl
  5024  0050' 0808'              	movf	??___xxtofl,w
  5025  0051' 078D'              	addwf	___xxtofl@exp,f
  5026  0052'                    l2896:
  5027  0052' 3001               	movlw	1
  5028  0053' 078E'              	addwf	___xxtofl@arg,f
  5029  0054' 3000               	movlw	0
  5030  0055' 1803               	skipnc
  5031  0056' 3001               	movlw	1
  5032  0057' 078F'              	addwf	___xxtofl@arg+1,f
  5033  0058' 3000               	movlw	0
  5034  0059' 1803               	skipnc
  5035  005A' 3001               	movlw	1
  5036  005B' 0790'              	addwf	___xxtofl@arg+2,f
  5037  005C' 3000               	movlw	0
  5038  005D' 1803               	skipnc
  5039  005E' 3001               	movlw	1
  5040  005F' 0791'              	addwf	___xxtofl@arg+3,f
  5041  0060'                    l2898:
  5042  0060' 3001               	movlw	1
  5043  0061'                    u3385:
  5044  0061' 1003               	clrc
  5045  0062' 0C91'              	rrf	___xxtofl@arg+3,f
  5046  0063' 0C90'              	rrf	___xxtofl@arg+2,f
  5047  0064' 0C8F'              	rrf	___xxtofl@arg+1,f
  5048  0065' 0C8E'              	rrf	___xxtofl@arg,f
  5049  0066' 3EFF               	addlw	-1
  5050  0067' 1D03               	skipz
  5051  0068' 2800'              	goto	u3385
  5052  0069'                    l825:
  5053  0069' 30FF               	movlw	255
  5054  006A' 0511'              	andwf	___xxtofl@arg+3,w
  5055  006B' 1D03               	btfss	3,2
  5056  006C' 2800'              	goto	u3391
  5057  006D' 2800'              	goto	u3390
  5058  006E'                    u3391:
  5059  006E' 2800'              	goto	l2894
  5060  006F'                    u3390:
  5061  006F' 2800'              	goto	l2902
  5062  0070'                    l2900:
  5063  0070' 3001               	movlw	1
  5064  0071' 028D'              	subwf	___xxtofl@exp,f
  5065  0072' 3001               	movlw	1
  5066  0073' 0088'              	movwf	??___xxtofl
  5067  0074'                    u3405:
  5068  0074' 1003               	clrc
  5069  0075' 0D8E'              	rlf	___xxtofl@arg,f
  5070  0076' 0D8F'              	rlf	___xxtofl@arg+1,f
  5071  0077' 0D90'              	rlf	___xxtofl@arg+2,f
  5072  0078' 0D91'              	rlf	___xxtofl@arg+3,f
  5073  0079' 0B88'              	decfsz	??___xxtofl,f
  5074  007A' 2800'              	goto	u3405
  5075  007B'                    l2902:
  5076  007B' 1B90'              	btfsc	___xxtofl@arg+2,7
  5077  007C' 2800'              	goto	u3411
  5078  007D' 2800'              	goto	u3410
  5079  007E'                    u3411:
  5080  007E' 2800'              	goto	l832
  5081  007F'                    u3410:
  5082  007F'                    l2904:
  5083  007F' 3002               	movlw	2
  5084  0080' 020D'              	subwf	___xxtofl@exp,w
  5085  0081' 1803               	skipnc
  5086  0082' 2800'              	goto	u3421
  5087  0083' 2800'              	goto	u3420
  5088  0084'                    u3421:
  5089  0084' 2800'              	goto	l2900
  5090  0085'                    u3420:
  5091  0085'                    l832:
  5092  0085' 180D'              	btfsc	___xxtofl@exp,0
  5093  0086' 2800'              	goto	u3431
  5094  0087' 2800'              	goto	u3430
  5095  0088'                    u3431:
  5096  0088' 2800'              	goto	l833
  5097  0089'                    u3430:
  5098  0089'                    l2906:
  5099  0089' 30FF               	movlw	255
  5100  008A' 058E'              	andwf	___xxtofl@arg,f
  5101  008B' 30FF               	movlw	255
  5102  008C' 058F'              	andwf	___xxtofl@arg+1,f
  5103  008D' 307F               	movlw	127
  5104  008E' 0590'              	andwf	___xxtofl@arg+2,f
  5105  008F' 30FF               	movlw	255
  5106  0090' 0591'              	andwf	___xxtofl@arg+3,f
  5107  0091'                    l833:
  5108  0091' 1003               	clrc
  5109  0092' 0C8D'              	rrf	___xxtofl@exp,f
  5110  0093'                    l2908:
  5111  0093' 080D'              	movf	___xxtofl@exp,w
  5112  0094' 0088'              	movwf	??___xxtofl
  5113  0095' 0189'              	clrf	??___xxtofl+1
  5114  0096' 018A'              	clrf	??___xxtofl+2
  5115  0097' 018B'              	clrf	??___xxtofl+3
  5116  0098' 3018               	movlw	24
  5117  0099'                    u3445:
  5118  0099' 1003               	clrc
  5119  009A' 0D88'              	rlf	??___xxtofl,f
  5120  009B' 0D89'              	rlf	??___xxtofl+1,f
  5121  009C' 0D8A'              	rlf	??___xxtofl+2,f
  5122  009D' 0D8B'              	rlf	??___xxtofl+3,f
  5123  009E'                    u3440:
  5124  009E' 3EFF               	addlw	-1
  5125  009F' 1D03               	skipz
  5126  00A0' 2800'              	goto	u3445
  5127  00A1' 0808'              	movf	??___xxtofl,w
  5128  00A2' 048E'              	iorwf	___xxtofl@arg,f
  5129  00A3' 0809'              	movf	??___xxtofl+1,w
  5130  00A4' 048F'              	iorwf	___xxtofl@arg+1,f
  5131  00A5' 080A'              	movf	??___xxtofl+2,w
  5132  00A6' 0490'              	iorwf	___xxtofl@arg+2,f
  5133  00A7' 080B'              	movf	??___xxtofl+3,w
  5134  00A8' 0491'              	iorwf	___xxtofl@arg+3,f
  5135  00A9'                    l2910:
  5136  00A9' 080C'              	movf	___xxtofl@sign,w
  5137  00AA' 1903               	btfsc	3,2
  5138  00AB' 2800'              	goto	u3451
  5139  00AC' 2800'              	goto	u3450
  5140  00AD'                    u3451:
  5141  00AD' 2800'              	goto	l2916
  5142  00AE'                    u3450:
  5143  00AE'                    l2912:
  5144  00AE' 1F87'              	btfss	___xxtofl@val+3,7
  5145  00AF' 2800'              	goto	u3461
  5146  00B0' 2800'              	goto	u3460
  5147  00B1'                    u3461:
  5148  00B1' 2800'              	goto	l2916
  5149  00B2'                    u3460:
  5150  00B2'                    l2914:
  5151  00B2' 1791'              	bsf	___xxtofl@arg+3,7
  5152  00B3'                    l2916:
  5153  00B3' 0811'              	movf	___xxtofl@arg+3,w
  5154  00B4' 0087'              	movwf	?___xxtofl+3
  5155  00B5' 0810'              	movf	___xxtofl@arg+2,w
  5156  00B6' 0086'              	movwf	?___xxtofl+2
  5157  00B7' 080F'              	movf	___xxtofl@arg+1,w
  5158  00B8' 0085'              	movwf	?___xxtofl+1
  5159  00B9' 080E'              	movf	___xxtofl@arg,w
  5160  00BA' 0084'              	movwf	?___xxtofl
  5161  00BB'                    l821:
  5162  00BB' 0008               	return
  5163  00BC'                    __end_of___xxtofl:
  5164                           
  5165                           	psect	text18
  5166  0000'                    __ptext18:	
  5167 ;; *************** function ___wmul *****************
  5168 ;; Defined at:
  5169 ;;		line 15 in file "C:\Program Files\Microchip\xc8\v2.31\pic\sources\c90\common\Umul16.c"
  5170 ;; Parameters:    Size  Location     Type
  5171 ;;  multiplier      2    0[BANK0 ] unsigned int 
  5172 ;;  multiplicand    2    2[BANK0 ] unsigned int 
  5173 ;; Auto vars:     Size  Location     Type
  5174 ;;  product         2   11[COMMON] unsigned int 
  5175 ;; Return value:  Size  Location     Type
  5176 ;;                  2    0[BANK0 ] unsigned int 
  5177 ;; Registers used:
  5178 ;;		wreg, status,2, status,0
  5179 ;; Tracked objects:
  5180 ;;		On entry : 0/0
  5181 ;;		On exit  : 0/0
  5182 ;;		Unchanged: 0/0
  5183 ;; Data sizes:     COMMON   BANK0   BANK1   BANK3   BANK2
  5184 ;;      Params:         0       4       0       0       0
  5185 ;;      Locals:         2       0       0       0       0
  5186 ;;      Temps:          0       0       0       0       0
  5187 ;;      Totals:         2       4       0       0       0
  5188 ;;Total ram usage:        6 bytes
  5189 ;; Hardware stack levels used:    1
  5190 ;; This function calls:
  5191 ;;		Nothing
  5192 ;; This function is called by:
  5193 ;;		_ADC_convert
  5194 ;; This function uses a non-reentrant model
  5195 ;;
  5196                           
  5197                           
  5198                           ;psect for function ___wmul
  5199  0000'                    ___wmul:
  5200  0000'                    l2474:	
  5201                           ;incstack = 0
  5202                           ; Regs used in ___wmul: [wreg+status,2+status,0]
  5203                           
  5204  0000' 018B'              	clrf	___wmul@product
  5205  0001' 018C'              	clrf	___wmul@product+1
  5206  0002'                    l2476:
  5207  0002' 1283               	bcf	3,5	;RP0=0, select bank0
  5208  0003' 1303               	bcf	3,6	;RP1=0, select bank0
  5209  0004' 1C00'              	btfss	___wmul@multiplier,0
  5210  0005' 2800'              	goto	u2361
  5211  0006' 2800'              	goto	u2360
  5212  0007'                    u2361:
  5213  0007' 2800'              	goto	l386
  5214  0008'                    u2360:
  5215  0008'                    l2478:
  5216  0008' 0802'              	movf	___wmul@multiplicand,w
  5217  0009' 078B'              	addwf	___wmul@product,f
  5218  000A' 1803               	skipnc
  5219  000B' 0A8C'              	incf	___wmul@product+1,f
  5220  000C' 0803'              	movf	___wmul@multiplicand+1,w
  5221  000D' 078C'              	addwf	___wmul@product+1,f
  5222  000E'                    l386:
  5223  000E' 3001               	movlw	1
  5224  000F'                    u2375:
  5225  000F' 1003               	clrc
  5226  0010' 0D82'              	rlf	___wmul@multiplicand,f
  5227  0011' 0D83'              	rlf	___wmul@multiplicand+1,f
  5228  0012' 3EFF               	addlw	-1
  5229  0013' 1D03               	skipz
  5230  0014' 2800'              	goto	u2375
  5231  0015'                    l2480:
  5232  0015' 3001               	movlw	1
  5233  0016'                    u2385:
  5234  0016' 1003               	clrc
  5235  0017' 0C81'              	rrf	___wmul@multiplier+1,f
  5236  0018' 0C80'              	rrf	___wmul@multiplier,f
  5237  0019' 3EFF               	addlw	-1
  5238  001A' 1D03               	skipz
  5239  001B' 2800'              	goto	u2385
  5240  001C'                    l2482:
  5241  001C' 0800'              	movf	___wmul@multiplier,w
  5242  001D' 0401'              	iorwf	___wmul@multiplier+1,w
  5243  001E' 1D03               	btfss	3,2
  5244  001F' 2800'              	goto	u2391
  5245  0020' 2800'              	goto	u2390
  5246  0021'                    u2391:
  5247  0021' 2800'              	goto	l2476
  5248  0022'                    u2390:
  5249  0022'                    l2484:
  5250  0022' 080C'              	movf	___wmul@product+1,w
  5251  0023' 0081'              	movwf	?___wmul+1
  5252  0024' 080B'              	movf	___wmul@product,w
  5253  0025' 0080'              	movwf	?___wmul
  5254  0026'                    l388:
  5255  0026' 0008               	return
  5256  0027'                    __end_of___wmul:
  5257                           
  5258                           	psect	text19
  5259  0000'                    __ptext19:	
  5260 ;; *************** function ___fltol *****************
  5261 ;; Defined at:
  5262 ;;		line 43 in file "C:\Program Files\Microchip\xc8\v2.31\pic\sources\c90\common\fltol.c"
  5263 ;; Parameters:    Size  Location     Type
  5264 ;;  f1              4    0[COMMON] unsigned int 
  5265 ;; Auto vars:     Size  Location     Type
  5266 ;;  exp1            1   10[COMMON] unsigned char 
  5267 ;;  sign1           1    9[COMMON] unsigned char 
  5268 ;; Return value:  Size  Location     Type
  5269 ;;                  4    0[COMMON] long 
  5270 ;; Registers used:
  5271 ;;		wreg, status,2, status,0
  5272 ;; Tracked objects:
  5273 ;;		On entry : 0/0
  5274 ;;		On exit  : 0/0
  5275 ;;		Unchanged: 0/0
  5276 ;; Data sizes:     COMMON   BANK0   BANK1   BANK3   BANK2
  5277 ;;      Params:         4       0       0       0       0
  5278 ;;      Locals:         2       0       0       0       0
  5279 ;;      Temps:          5       0       0       0       0
  5280 ;;      Totals:        11       0       0       0       0
  5281 ;;Total ram usage:       11 bytes
  5282 ;; Hardware stack levels used:    1
  5283 ;; This function calls:
  5284 ;;		Nothing
  5285 ;; This function is called by:
  5286 ;;		_ADC_convert
  5287 ;; This function uses a non-reentrant model
  5288 ;;
  5289                           
  5290                           
  5291                           ;psect for function ___fltol
  5292  0000'                    ___fltol:
  5293  0000'                    l2552:	
  5294                           ;incstack = 0
  5295                           ; Regs used in ___fltol: [wreg+status,2+status,0]
  5296                           
  5297  0000' 1003               	clrc
  5298  0001' 0D02'              	rlf	___fltol@f1+2,w
  5299  0002' 0D03'              	rlf	___fltol@f1+3,w
  5300  0003' 0084'              	movwf	??___fltol
  5301  0004' 0804'              	movf	??___fltol,w
  5302  0005' 008A'              	movwf	___fltol@exp1
  5303  0006' 080A'              	movf	___fltol@exp1,w
  5304  0007' 1D03               	btfss	3,2
  5305  0008' 2800'              	goto	u2571
  5306  0009' 2800'              	goto	u2570
  5307  000A'                    u2571:
  5308  000A' 2800'              	goto	l2558
  5309  000B'                    u2570:
  5310  000B'                    l2554:
  5311  000B' 3000               	movlw	0
  5312  000C' 0083'              	movwf	?___fltol+3
  5313  000D' 3000               	movlw	0
  5314  000E' 0082'              	movwf	?___fltol+2
  5315  000F' 3000               	movlw	0
  5316  0010' 0081'              	movwf	?___fltol+1
  5317  0011' 3000               	movlw	0
  5318  0012' 0080'              	movwf	?___fltol
  5319  0013' 2800'              	goto	l572
  5320  0014'                    l2558:
  5321  0014' 0800'              	movf	___fltol@f1,w
  5322  0015' 0084'              	movwf	??___fltol
  5323  0016' 0801'              	movf	___fltol@f1+1,w
  5324  0017' 0085'              	movwf	??___fltol+1
  5325  0018' 0802'              	movf	___fltol@f1+2,w
  5326  0019' 0086'              	movwf	??___fltol+2
  5327  001A' 0803'              	movf	___fltol@f1+3,w
  5328  001B' 0087'              	movwf	??___fltol+3
  5329  001C' 301F               	movlw	31
  5330  001D'                    u2585:
  5331  001D' 1003               	clrc
  5332  001E' 0C87'              	rrf	??___fltol+3,f
  5333  001F' 0C86'              	rrf	??___fltol+2,f
  5334  0020' 0C85'              	rrf	??___fltol+1,f
  5335  0021' 0C84'              	rrf	??___fltol,f
  5336  0022'                    u2580:
  5337  0022' 3EFF               	addlw	-1
  5338  0023' 1D03               	skipz
  5339  0024' 2800'              	goto	u2585
  5340  0025' 0804'              	movf	??___fltol,w
  5341  0026' 0088'              	movwf	??___fltol+4
  5342  0027' 0808'              	movf	??___fltol+4,w
  5343  0028' 0089'              	movwf	___fltol@sign1
  5344  0029'                    l2560:
  5345  0029' 1782'              	bsf	___fltol@f1+2,7
  5346  002A'                    l2562:
  5347  002A' 30FF               	movlw	255
  5348  002B' 0580'              	andwf	___fltol@f1,f
  5349  002C' 30FF               	movlw	255
  5350  002D' 0581'              	andwf	___fltol@f1+1,f
  5351  002E' 30FF               	movlw	255
  5352  002F' 0582'              	andwf	___fltol@f1+2,f
  5353  0030' 3000               	movlw	0
  5354  0031' 0583'              	andwf	___fltol@f1+3,f
  5355  0032'                    l2564:
  5356  0032' 3096               	movlw	150
  5357  0033' 028A'              	subwf	___fltol@exp1,f
  5358  0034'                    l2566:
  5359  0034' 1F8A'              	btfss	___fltol@exp1,7
  5360  0035' 2800'              	goto	u2591
  5361  0036' 2800'              	goto	u2590
  5362  0037'                    u2591:
  5363  0037' 2800'              	goto	l2576
  5364  0038'                    u2590:
  5365  0038'                    l2568:
  5366  0038' 080A'              	movf	___fltol@exp1,w
  5367  0039' 3A80               	xorlw	128
  5368  003A' 3E97               	addlw	151
  5369  003B' 1803               	skipnc
  5370  003C' 2800'              	goto	u2601
  5371  003D' 2800'              	goto	u2600
  5372  003E'                    u2601:
  5373  003E' 2800'              	goto	l2574
  5374  003F'                    u2600:
  5375  003F' 2800'              	goto	l2554
  5376  0040'                    l2574:
  5377  0040' 3001               	movlw	1
  5378  0041'                    u2615:
  5379  0041' 1003               	clrc
  5380  0042' 0C83'              	rrf	___fltol@f1+3,f
  5381  0043' 0C82'              	rrf	___fltol@f1+2,f
  5382  0044' 0C81'              	rrf	___fltol@f1+1,f
  5383  0045' 0C80'              	rrf	___fltol@f1,f
  5384  0046' 3EFF               	addlw	-1
  5385  0047' 1D03               	skipz
  5386  0048' 2800'              	goto	u2615
  5387  0049' 3001               	movlw	1
  5388  004A' 0084'              	movwf	??___fltol
  5389  004B' 0804'              	movf	??___fltol,w
  5390  004C' 078A'              	addwf	___fltol@exp1,f
  5391  004D' 1D03               	btfss	3,2
  5392  004E' 2800'              	goto	u2621
  5393  004F' 2800'              	goto	u2620
  5394  0050'                    u2621:
  5395  0050' 2800'              	goto	l2574
  5396  0051'                    u2620:
  5397  0051' 2800'              	goto	l2584
  5398  0052'                    l2576:
  5399  0052' 3020               	movlw	32
  5400  0053' 020A'              	subwf	___fltol@exp1,w
  5401  0054' 1C03               	skipc
  5402  0055' 2800'              	goto	u2631
  5403  0056' 2800'              	goto	u2630
  5404  0057'                    u2631:
  5405  0057' 2800'              	goto	l579
  5406  0058'                    u2630:
  5407  0058' 2800'              	goto	l2554
  5408  0059'                    l2582:
  5409  0059' 3001               	movlw	1
  5410  005A' 0084'              	movwf	??___fltol
  5411  005B'                    u2645:
  5412  005B' 1003               	clrc
  5413  005C' 0D80'              	rlf	___fltol@f1,f
  5414  005D' 0D81'              	rlf	___fltol@f1+1,f
  5415  005E' 0D82'              	rlf	___fltol@f1+2,f
  5416  005F' 0D83'              	rlf	___fltol@f1+3,f
  5417  0060' 0B84'              	decfsz	??___fltol,f
  5418  0061' 2800'              	goto	u2645
  5419  0062' 3001               	movlw	1
  5420  0063' 028A'              	subwf	___fltol@exp1,f
  5421  0064'                    l579:
  5422  0064' 080A'              	movf	___fltol@exp1,w
  5423  0065' 1D03               	btfss	3,2
  5424  0066' 2800'              	goto	u2651
  5425  0067' 2800'              	goto	u2650
  5426  0068'                    u2651:
  5427  0068' 2800'              	goto	l2582
  5428  0069'                    u2650:
  5429  0069'                    l2584:
  5430  0069' 0809'              	movf	___fltol@sign1,w
  5431  006A' 1903               	btfsc	3,2
  5432  006B' 2800'              	goto	u2661
  5433  006C' 2800'              	goto	u2660
  5434  006D'                    u2661:
  5435  006D' 2800'              	goto	l582
  5436  006E'                    u2660:
  5437  006E'                    l2586:
  5438  006E' 0980'              	comf	___fltol@f1,f
  5439  006F' 0981'              	comf	___fltol@f1+1,f
  5440  0070' 0982'              	comf	___fltol@f1+2,f
  5441  0071' 0983'              	comf	___fltol@f1+3,f
  5442  0072' 0A80'              	incf	___fltol@f1,f
  5443  0073' 1903               	skipnz
  5444  0074' 0A81'              	incf	___fltol@f1+1,f
  5445  0075' 1903               	skipnz
  5446  0076' 0A82'              	incf	___fltol@f1+2,f
  5447  0077' 1903               	skipnz
  5448  0078' 0A83'              	incf	___fltol@f1+3,f
  5449  0079'                    l582:
  5450  0079'                    l572:
  5451  0079' 0008               	return
  5452  007A'                    __end_of___fltol:
  5453                           
  5454                           	psect	text20
  5455  0000'                    __ptext20:	
  5456 ;; *************** function ___flsub *****************
  5457 ;; Defined at:
  5458 ;;		line 242 in file "C:\Program Files\Microchip\xc8\v2.31\pic\sources\c90\common\sprcadd.c"
  5459 ;; Parameters:    Size  Location     Type
  5460 ;;  a               4   18[BANK0 ] long 
  5461 ;;  b               4   22[BANK0 ] long 
  5462 ;; Auto vars:     Size  Location     Type
  5463 ;;		None
  5464 ;; Return value:  Size  Location     Type
  5465 ;;                  4   18[BANK0 ] long 
  5466 ;; Registers used:
  5467 ;;		wreg, status,2, status,0, btemp+1, pclath, cstack
  5468 ;; Tracked objects:
  5469 ;;		On entry : 0/0
  5470 ;;		On exit  : 0/0
  5471 ;;		Unchanged: 0/0
  5472 ;; Data sizes:     COMMON   BANK0   BANK1   BANK3   BANK2
  5473 ;;      Params:         0       8       0       0       0
  5474 ;;      Locals:         0       0       0       0       0
  5475 ;;      Temps:          0       0       0       0       0
  5476 ;;      Totals:         0       8       0       0       0
  5477 ;;Total ram usage:        8 bytes
  5478 ;; Hardware stack levels used:    1
  5479 ;; Hardware stack levels required when called:    1
  5480 ;; This function calls:
  5481 ;;		___fladd
  5482 ;; This function is called by:
  5483 ;;		_ADC_convert
  5484 ;; This function uses a non-reentrant model
  5485 ;;
  5486                           
  5487                           
  5488                           ;psect for function ___flsub
  5489  0000'                    ___flsub:
  5490  0000'                    l2588:	
  5491                           ;incstack = 0
  5492                           ; Regs used in ___flsub: [wreg+status,2+status,0+btemp+1+pclath+cstack]
  5493                           
  5494  0000' 3080               	movlw	128
  5495  0001' 1283               	bcf	3,5	;RP0=0, select bank0
  5496  0002' 1303               	bcf	3,6	;RP1=0, select bank0
  5497  0003' 0695'              	xorwf	___flsub@a+3,f
  5498  0004'                    l2590:
  5499  0004' 0819'              	movf	___flsub@b+3,w
  5500  0005' 0083'              	movwf	___fladd@b+3
  5501  0006' 0818'              	movf	___flsub@b+2,w
  5502  0007' 0082'              	movwf	___fladd@b+2
  5503  0008' 0817'              	movf	___flsub@b+1,w
  5504  0009' 0081'              	movwf	___fladd@b+1
  5505  000A' 0816'              	movf	___flsub@b,w
  5506  000B' 0080'              	movwf	___fladd@b
  5507  000C' 0815'              	movf	___flsub@a+3,w
  5508  000D' 0087'              	movwf	___fladd@a+3
  5509  000E' 0814'              	movf	___flsub@a+2,w
  5510  000F' 0086'              	movwf	___fladd@a+2
  5511  0010' 0813'              	movf	___flsub@a+1,w
  5512  0011' 0085'              	movwf	___fladd@a+1
  5513  0012' 0812'              	movf	___flsub@a,w
  5514  0013' 0084'              	movwf	___fladd@a
  5515  0014' 120A' 118A' 2000' 120A' 118A' 	fcall	___fladd
  5516  0019' 0803'              	movf	?___fladd+3,w
  5517  001A' 1283               	bcf	3,5	;RP0=0, select bank0
  5518  001B' 1303               	bcf	3,6	;RP1=0, select bank0
  5519  001C' 0095'              	movwf	?___flsub+3
  5520  001D' 0802'              	movf	?___fladd+2,w
  5521  001E' 0094'              	movwf	?___flsub+2
  5522  001F' 0801'              	movf	?___fladd+1,w
  5523  0020' 0093'              	movwf	?___flsub+1
  5524  0021' 0800'              	movf	?___fladd,w
  5525  0022' 0092'              	movwf	?___flsub
  5526  0023'                    l725:
  5527  0023' 0008               	return
  5528  0024'                    __end_of___flsub:
  5529                           
  5530                           	psect	text21
  5531  0000'                    __ptext21:	
  5532 ;; *************** function ___fladd *****************
  5533 ;; Defined at:
  5534 ;;		line 10 in file "C:\Program Files\Microchip\xc8\v2.31\pic\sources\c90\common\sprcadd.c"
  5535 ;; Parameters:    Size  Location     Type
  5536 ;;  b               4    0[COMMON] long 
  5537 ;;  a               4    4[COMMON] long 
  5538 ;; Auto vars:     Size  Location     Type
  5539 ;;  grs             1   11[COMMON] unsigned char 
  5540 ;;  bexp            1   10[COMMON] unsigned char 
  5541 ;;  aexp            1    9[COMMON] unsigned char 
  5542 ;;  signs           1    8[COMMON] unsigned char 
  5543 ;; Return value:  Size  Location     Type
  5544 ;;                  4    0[COMMON] unsigned char 
  5545 ;; Registers used:
  5546 ;;		wreg, status,2, status,0, btemp+1
  5547 ;; Tracked objects:
  5548 ;;		On entry : 0/0
  5549 ;;		On exit  : 0/0
  5550 ;;		Unchanged: 0/0
  5551 ;; Data sizes:     COMMON   BANK0   BANK1   BANK3   BANK2
  5552 ;;      Params:         8       0       0       0       0
  5553 ;;      Locals:         4       0       0       0       0
  5554 ;;      Temps:          0       8       0       0       0
  5555 ;;      Totals:        12       8       0       0       0
  5556 ;;Total ram usage:       20 bytes
  5557 ;; Hardware stack levels used:    1
  5558 ;; This function calls:
  5559 ;;		Nothing
  5560 ;; This function is called by:
  5561 ;;		___flsub
  5562 ;; This function uses a non-reentrant model
  5563 ;;
  5564                           
  5565                           
  5566                           ;psect for function ___fladd
  5567  0000'                    ___fladd:
  5568  0000'                    l2164:	
  5569                           ;incstack = 0
  5570                           ; Regs used in ___fladd: [wreg+status,2+status,0+btemp+1]
  5571                           
  5572  0000' 0803'              	movf	___fladd@b+3,w
  5573  0001' 3980               	andlw	128
  5574  0002' 1283               	bcf	3,5	;RP0=0, select bank0
  5575  0003' 1303               	bcf	3,6	;RP1=0, select bank0
  5576  0004' 0080'              	movwf	??___fladd
  5577  0005' 0800'              	movf	??___fladd,w
  5578  0006' 0088'              	movwf	___fladd@signs
  5579  0007'                    l2166:
  5580  0007' 0803'              	movf	___fladd@b+3,w
  5581  0008' 0080'              	movwf	??___fladd
  5582  0009' 0700'              	addwf	??___fladd,w
  5583  000A' 0081'              	movwf	??___fladd+1
  5584  000B' 0801'              	movf	??___fladd+1,w
  5585  000C' 008A'              	movwf	___fladd@bexp
  5586  000D'                    l2168:
  5587  000D' 1F82'              	btfss	___fladd@b+2,7
  5588  000E' 2800'              	goto	u1831
  5589  000F' 2800'              	goto	u1830
  5590  0010'                    u1831:
  5591  0010' 2800'              	goto	l2172
  5592  0011'                    u1830:
  5593  0011'                    l2170:
  5594  0011' 140A'              	bsf	___fladd@bexp,0
  5595  0012'                    l2172:
  5596  0012' 080A'              	movf	___fladd@bexp,w
  5597  0013' 1903               	btfsc	3,2
  5598  0014' 2800'              	goto	u1841
  5599  0015' 2800'              	goto	u1840
  5600  0016'                    u1841:
  5601  0016' 2800'              	goto	l2182
  5602  0017'                    u1840:
  5603  0017'                    l2174:
  5604  0017' 0A0A'              	incf	___fladd@bexp,w
  5605  0018' 1D03               	btfss	3,2
  5606  0019' 2800'              	goto	u1851
  5607  001A' 2800'              	goto	u1850
  5608  001B'                    u1851:
  5609  001B' 2800'              	goto	l2178
  5610  001C'                    u1850:
  5611  001C'                    l2176:
  5612  001C' 3000               	movlw	0
  5613  001D' 0083'              	movwf	___fladd@b+3
  5614  001E' 3000               	movlw	0
  5615  001F' 0082'              	movwf	___fladd@b+2
  5616  0020' 3000               	movlw	0
  5617  0021' 0081'              	movwf	___fladd@b+1
  5618  0022' 3000               	movlw	0
  5619  0023' 0080'              	movwf	___fladd@b
  5620  0024'                    l2178:
  5621  0024' 1782'              	bsf	___fladd@b+2,7
  5622  0025'                    l2180:
  5623  0025' 0183'              	clrf	___fladd@b+3
  5624  0026' 2800'              	goto	l2184
  5625  0027'                    l2182:
  5626  0027' 3000               	movlw	0
  5627  0028' 0083'              	movwf	___fladd@b+3
  5628  0029' 3000               	movlw	0
  5629  002A' 0082'              	movwf	___fladd@b+2
  5630  002B' 3000               	movlw	0
  5631  002C' 0081'              	movwf	___fladd@b+1
  5632  002D' 3000               	movlw	0
  5633  002E' 0080'              	movwf	___fladd@b
  5634  002F'                    l2184:
  5635  002F' 0807'              	movf	___fladd@a+3,w
  5636  0030' 3980               	andlw	128
  5637  0031' 0080'              	movwf	??___fladd
  5638  0032' 0800'              	movf	??___fladd,w
  5639  0033' 0089'              	movwf	___fladd@aexp
  5640  0034'                    l2186:
  5641  0034' 0809'              	movf	___fladd@aexp,w
  5642  0035' 0608'              	xorwf	___fladd@signs,w
  5643  0036' 1903               	skipnz
  5644  0037' 2800'              	goto	u1861
  5645  0038' 2800'              	goto	u1860
  5646  0039'                    u1861:
  5647  0039' 2800'              	goto	l2190
  5648  003A'                    u1860:
  5649  003A'                    l2188:
  5650  003A' 1708'              	bsf	___fladd@signs,6
  5651  003B'                    l2190:
  5652  003B' 0807'              	movf	___fladd@a+3,w
  5653  003C' 0080'              	movwf	??___fladd
  5654  003D' 0700'              	addwf	??___fladd,w
  5655  003E' 0081'              	movwf	??___fladd+1
  5656  003F' 0801'              	movf	??___fladd+1,w
  5657  0040' 0089'              	movwf	___fladd@aexp
  5658  0041'                    l2192:
  5659  0041' 1F86'              	btfss	___fladd@a+2,7
  5660  0042' 2800'              	goto	u1871
  5661  0043' 2800'              	goto	u1870
  5662  0044'                    u1871:
  5663  0044' 2800'              	goto	l2196
  5664  0045'                    u1870:
  5665  0045'                    l2194:
  5666  0045' 1409'              	bsf	___fladd@aexp,0
  5667  0046'                    l2196:
  5668  0046' 0809'              	movf	___fladd@aexp,w
  5669  0047' 1903               	btfsc	3,2
  5670  0048' 2800'              	goto	u1881
  5671  0049' 2800'              	goto	u1880
  5672  004A'                    u1881:
  5673  004A' 2800'              	goto	l2206
  5674  004B'                    u1880:
  5675  004B'                    l2198:
  5676  004B' 0A09'              	incf	___fladd@aexp,w
  5677  004C' 1D03               	btfss	3,2
  5678  004D' 2800'              	goto	u1891
  5679  004E' 2800'              	goto	u1890
  5680  004F'                    u1891:
  5681  004F' 2800'              	goto	l2202
  5682  0050'                    u1890:
  5683  0050'                    l2200:
  5684  0050' 3000               	movlw	0
  5685  0051' 0087'              	movwf	___fladd@a+3
  5686  0052' 3000               	movlw	0
  5687  0053' 0086'              	movwf	___fladd@a+2
  5688  0054' 3000               	movlw	0
  5689  0055' 0085'              	movwf	___fladd@a+1
  5690  0056' 3000               	movlw	0
  5691  0057' 0084'              	movwf	___fladd@a
  5692  0058'                    l2202:
  5693  0058' 1786'              	bsf	___fladd@a+2,7
  5694  0059'                    l2204:
  5695  0059' 0187'              	clrf	___fladd@a+3
  5696  005A' 2800'              	goto	l679
  5697  005B'                    l2206:
  5698  005B' 3000               	movlw	0
  5699  005C' 0087'              	movwf	___fladd@a+3
  5700  005D' 3000               	movlw	0
  5701  005E' 0086'              	movwf	___fladd@a+2
  5702  005F' 3000               	movlw	0
  5703  0060' 0085'              	movwf	___fladd@a+1
  5704  0061' 3000               	movlw	0
  5705  0062' 0084'              	movwf	___fladd@a
  5706  0063'                    l679:
  5707  0063' 080A'              	movf	___fladd@bexp,w
  5708  0064' 0209'              	subwf	___fladd@aexp,w
  5709  0065' 1803               	skipnc
  5710  0066' 2800'              	goto	u1901
  5711  0067' 2800'              	goto	u1900
  5712  0068'                    u1901:
  5713  0068' 2800'              	goto	l2242
  5714  0069'                    u1900:
  5715  0069'                    l2208:
  5716  0069' 1F08'              	btfss	___fladd@signs,6
  5717  006A' 2800'              	goto	u1911
  5718  006B' 2800'              	goto	u1910
  5719  006C'                    u1911:
  5720  006C' 2800'              	goto	l2212
  5721  006D'                    u1910:
  5722  006D'                    l2210:
  5723  006D' 3080               	movlw	128
  5724  006E' 0080'              	movwf	??___fladd
  5725  006F' 0800'              	movf	??___fladd,w
  5726  0070' 0688'              	xorwf	___fladd@signs,f
  5727  0071'                    l2212:
  5728  0071' 080A'              	movf	___fladd@bexp,w
  5729  0072' 0080'              	movwf	??___fladd
  5730  0073' 0800'              	movf	??___fladd,w
  5731  0074' 008B'              	movwf	___fladd@grs
  5732  0075'                    l2214:
  5733  0075' 0809'              	movf	___fladd@aexp,w
  5734  0076' 0080'              	movwf	??___fladd
  5735  0077' 0800'              	movf	??___fladd,w
  5736  0078' 008A'              	movwf	___fladd@bexp
  5737  0079'                    l2216:
  5738  0079' 080B'              	movf	___fladd@grs,w
  5739  007A' 0080'              	movwf	??___fladd
  5740  007B' 0800'              	movf	??___fladd,w
  5741  007C' 0089'              	movwf	___fladd@aexp
  5742  007D'                    l2218:
  5743  007D' 0800'              	movf	___fladd@b,w
  5744  007E' 0080'              	movwf	??___fladd
  5745  007F' 0800'              	movf	??___fladd,w
  5746  0080' 008B'              	movwf	___fladd@grs
  5747  0081'                    l2220:
  5748  0081' 0804'              	movf	___fladd@a,w
  5749  0082' 0080'              	movwf	??___fladd
  5750  0083' 0800'              	movf	??___fladd,w
  5751  0084' 0080'              	movwf	___fladd@b
  5752  0085'                    l2222:
  5753  0085' 080B'              	movf	___fladd@grs,w
  5754  0086' 0080'              	movwf	??___fladd
  5755  0087' 0800'              	movf	??___fladd,w
  5756  0088' 0084'              	movwf	___fladd@a
  5757  0089'                    l2224:
  5758  0089' 0801'              	movf	___fladd@b+1,w
  5759  008A' 0080'              	movwf	??___fladd
  5760  008B' 0800'              	movf	??___fladd,w
  5761  008C' 008B'              	movwf	___fladd@grs
  5762  008D'                    l2226:
  5763  008D' 0805'              	movf	___fladd@a+1,w
  5764  008E' 0080'              	movwf	??___fladd
  5765  008F' 0800'              	movf	??___fladd,w
  5766  0090' 0081'              	movwf	___fladd@b+1
  5767  0091'                    l2228:
  5768  0091' 080B'              	movf	___fladd@grs,w
  5769  0092' 0080'              	movwf	??___fladd
  5770  0093' 0800'              	movf	??___fladd,w
  5771  0094' 0085'              	movwf	___fladd@a+1
  5772  0095'                    l2230:
  5773  0095' 0802'              	movf	___fladd@b+2,w
  5774  0096' 0080'              	movwf	??___fladd
  5775  0097' 0800'              	movf	??___fladd,w
  5776  0098' 008B'              	movwf	___fladd@grs
  5777  0099'                    l2232:
  5778  0099' 0806'              	movf	___fladd@a+2,w
  5779  009A' 0080'              	movwf	??___fladd
  5780  009B' 0800'              	movf	??___fladd,w
  5781  009C' 0082'              	movwf	___fladd@b+2
  5782  009D'                    l2234:
  5783  009D' 080B'              	movf	___fladd@grs,w
  5784  009E' 0080'              	movwf	??___fladd
  5785  009F' 0800'              	movf	??___fladd,w
  5786  00A0' 0086'              	movwf	___fladd@a+2
  5787  00A1'                    l2236:
  5788  00A1' 0803'              	movf	___fladd@b+3,w
  5789  00A2' 0080'              	movwf	??___fladd
  5790  00A3' 0800'              	movf	??___fladd,w
  5791  00A4' 008B'              	movwf	___fladd@grs
  5792  00A5'                    l2238:
  5793  00A5' 0807'              	movf	___fladd@a+3,w
  5794  00A6' 0080'              	movwf	??___fladd
  5795  00A7' 0800'              	movf	??___fladd,w
  5796  00A8' 0083'              	movwf	___fladd@b+3
  5797  00A9'                    l2240:
  5798  00A9' 080B'              	movf	___fladd@grs,w
  5799  00AA' 0080'              	movwf	??___fladd
  5800  00AB' 0800'              	movf	??___fladd,w
  5801  00AC' 0087'              	movwf	___fladd@a+3
  5802  00AD'                    l2242:
  5803  00AD' 018B'              	clrf	___fladd@grs
  5804  00AE'                    l2244:
  5805  00AE' 0809'              	movf	___fladd@aexp,w
  5806  00AF' 0080'              	movwf	??___fladd
  5807  00B0' 0181'              	clrf	??___fladd+1
  5808  00B1' 0801'              	movf	??___fladd+1,w
  5809  00B2' 0083'              	movwf	??___fladd+3
  5810  00B3' 080A'              	movf	___fladd@bexp,w
  5811  00B4' 0200'              	subwf	??___fladd,w
  5812  00B5' 0082'              	movwf	??___fladd+2
  5813  00B6' 1C03               	skipc
  5814  00B7' 0383'              	decf	??___fladd+3,f
  5815  00B8' 0803'              	movf	??___fladd+3,w
  5816  00B9' 3A80               	xorlw	128
  5817  00BA' 00FF               	movwf	btemp+1
  5818  00BB' 3080               	movlw	128
  5819  00BC' 027F               	subwf	btemp+1,w
  5820  00BD' 1D03               	skipz
  5821  00BE' 2800'              	goto	u1925
  5822  00BF' 301A               	movlw	26
  5823  00C0' 0202'              	subwf	??___fladd+2,w
  5824  00C1'                    u1925:
  5825  00C1' 1C03               	skipc
  5826  00C2' 2800'              	goto	u1921
  5827  00C3' 2800'              	goto	u1920
  5828  00C4'                    u1921:
  5829  00C4' 2800'              	goto	l2260
  5830  00C5'                    u1920:
  5831  00C5'                    l2246:
  5832  00C5' 0803'              	movf	___fladd@b+3,w
  5833  00C6' 0402'              	iorwf	___fladd@b+2,w
  5834  00C7' 0401'              	iorwf	___fladd@b+1,w
  5835  00C8' 0400'              	iorwf	___fladd@b,w
  5836  00C9' 1D03               	skipz
  5837  00CA' 2800'              	goto	u1931
  5838  00CB' 2800'              	goto	u1930
  5839  00CC'                    u1931:
  5840  00CC' 3001               	movlw	1
  5841  00CD' 2800'              	goto	u1940
  5842  00CE'                    u1930:
  5843  00CE' 3000               	movlw	0
  5844  00CF'                    u1940:
  5845  00CF' 1283               	bcf	3,5	;RP0=0, select bank0
  5846  00D0' 1303               	bcf	3,6	;RP1=0, select bank0
  5847  00D1' 0080'              	movwf	??___fladd
  5848  00D2' 0800'              	movf	??___fladd,w
  5849  00D3' 008B'              	movwf	___fladd@grs
  5850  00D4' 3000               	movlw	0
  5851  00D5' 0083'              	movwf	___fladd@b+3
  5852  00D6' 3000               	movlw	0
  5853  00D7' 0082'              	movwf	___fladd@b+2
  5854  00D8' 3000               	movlw	0
  5855  00D9' 0081'              	movwf	___fladd@b+1
  5856  00DA' 3000               	movlw	0
  5857  00DB' 0080'              	movwf	___fladd@b
  5858  00DC' 0809'              	movf	___fladd@aexp,w
  5859  00DD' 0080'              	movwf	??___fladd
  5860  00DE' 0800'              	movf	??___fladd,w
  5861  00DF' 008A'              	movwf	___fladd@bexp
  5862  00E0' 2800'              	goto	l683
  5863  00E1'                    l685:
  5864  00E1' 1C0B'              	btfss	___fladd@grs,0
  5865  00E2' 2800'              	goto	u1951
  5866  00E3' 2800'              	goto	u1950
  5867  00E4'                    u1951:
  5868  00E4' 2800'              	goto	l2250
  5869  00E5'                    u1950:
  5870  00E5'                    l2248:
  5871  00E5' 080B'              	movf	___fladd@grs,w
  5872  00E6' 1283               	bcf	3,5	;RP0=0, select bank0
  5873  00E7' 1303               	bcf	3,6	;RP1=0, select bank0
  5874  00E8' 0080'              	movwf	??___fladd
  5875  00E9' 1003               	clrc
  5876  00EA' 0C00'              	rrf	??___fladd,w
  5877  00EB' 3801               	iorlw	1
  5878  00EC' 0081'              	movwf	??___fladd+1
  5879  00ED' 0801'              	movf	??___fladd+1,w
  5880  00EE' 008B'              	movwf	___fladd@grs
  5881  00EF' 2800'              	goto	l2252
  5882  00F0'                    l2250:
  5883  00F0' 1003               	clrc
  5884  00F1' 0C8B'              	rrf	___fladd@grs,f
  5885  00F2'                    l2252:
  5886  00F2' 1C00'              	btfss	___fladd@b,0
  5887  00F3' 2800'              	goto	u1961
  5888  00F4' 2800'              	goto	u1960
  5889  00F5'                    u1961:
  5890  00F5' 2800'              	goto	l2256
  5891  00F6'                    u1960:
  5892  00F6'                    l2254:
  5893  00F6' 178B'              	bsf	___fladd@grs,7
  5894  00F7'                    l2256:
  5895  00F7' 3001               	movlw	1
  5896  00F8' 1283               	bcf	3,5	;RP0=0, select bank0
  5897  00F9' 1303               	bcf	3,6	;RP1=0, select bank0
  5898  00FA' 0080'              	movwf	??___fladd
  5899  00FB'                    u1975:
  5900  00FB' 0D03'              	rlf	___fladd@b+3,w
  5901  00FC' 0C83'              	rrf	___fladd@b+3,f
  5902  00FD' 0C82'              	rrf	___fladd@b+2,f
  5903  00FE' 0C81'              	rrf	___fladd@b+1,f
  5904  00FF' 0C80'              	rrf	___fladd@b,f
  5905  0100' 0B80'              	decfsz	??___fladd& (0+127),f
  5906  0101' 2800'              	goto	u1975
  5907  0102'                    l2258:
  5908  0102' 3001               	movlw	1
  5909  0103' 0080'              	movwf	??___fladd
  5910  0104' 0800'              	movf	??___fladd,w
  5911  0105' 078A'              	addwf	___fladd@bexp,f
  5912  0106'                    l2260:
  5913  0106' 0809'              	movf	___fladd@aexp,w
  5914  0107' 020A'              	subwf	___fladd@bexp,w
  5915  0108' 1C03               	skipc
  5916  0109' 2800'              	goto	u1981
  5917  010A' 2800'              	goto	u1980
  5918  010B'                    u1981:
  5919  010B' 2800'              	goto	l685
  5920  010C'                    u1980:
  5921  010C'                    l683:
  5922  010C' 1B08'              	btfsc	___fladd@signs,6
  5923  010D' 2800'              	goto	u1991
  5924  010E' 2800'              	goto	u1990
  5925  010F'                    u1991:
  5926  010F' 2800'              	goto	l2286
  5927  0110'                    u1990:
  5928  0110'                    l2262:
  5929  0110' 080A'              	movf	___fladd@bexp,w
  5930  0111' 1D03               	btfss	3,2
  5931  0112' 2800'              	goto	u2001
  5932  0113' 2800'              	goto	u2000
  5933  0114'                    u2001:
  5934  0114' 2800'              	goto	l2268
  5935  0115'                    u2000:
  5936  0115'                    l2264:
  5937  0115' 3000               	movlw	0
  5938  0116' 0083'              	movwf	?___fladd+3
  5939  0117' 3000               	movlw	0
  5940  0118' 0082'              	movwf	?___fladd+2
  5941  0119' 3000               	movlw	0
  5942  011A' 0081'              	movwf	?___fladd+1
  5943  011B' 3000               	movlw	0
  5944  011C' 0080'              	movwf	?___fladd
  5945  011D' 2800'              	goto	l692
  5946  011E'                    l2268:
  5947  011E' 0804'              	movf	___fladd@a,w
  5948  011F' 0780'              	addwf	___fladd@b,f
  5949  0120' 0805'              	movf	___fladd@a+1,w
  5950  0121' 1103               	clrz
  5951  0122' 1803               	skipnc
  5952  0123' 3E01               	addlw	1
  5953  0124' 1903               	skipnz
  5954  0125' 2800'              	goto	u2011
  5955  0126' 0781'              	addwf	___fladd@b+1,f
  5956  0127'                    u2011:
  5957  0127' 0806'              	movf	___fladd@a+2,w
  5958  0128' 1103               	clrz
  5959  0129' 1803               	skipnc
  5960  012A' 3E01               	addlw	1
  5961  012B' 1903               	skipnz
  5962  012C' 2800'              	goto	u2012
  5963  012D' 0782'              	addwf	___fladd@b+2,f
  5964  012E'                    u2012:
  5965  012E' 0807'              	movf	___fladd@a+3,w
  5966  012F' 1103               	clrz
  5967  0130' 1803               	skipnc
  5968  0131' 3E01               	addlw	1
  5969  0132' 1903               	skipnz
  5970  0133' 2800'              	goto	u2013
  5971  0134' 0783'              	addwf	___fladd@b+3,f
  5972  0135'                    u2013:
  5973  0135'                    l2270:
  5974  0135' 1C03'              	btfss	___fladd@b+3,0
  5975  0136' 2800'              	goto	u2021
  5976  0137' 2800'              	goto	u2020
  5977  0138'                    u2021:
  5978  0138' 2800'              	goto	l2320
  5979  0139'                    u2020:
  5980  0139'                    l2272:
  5981  0139' 1C0B'              	btfss	___fladd@grs,0
  5982  013A' 2800'              	goto	u2031
  5983  013B' 2800'              	goto	u2030
  5984  013C'                    u2031:
  5985  013C' 2800'              	goto	l2276
  5986  013D'                    u2030:
  5987  013D'                    l2274:
  5988  013D' 080B'              	movf	___fladd@grs,w
  5989  013E' 1283               	bcf	3,5	;RP0=0, select bank0
  5990  013F' 1303               	bcf	3,6	;RP1=0, select bank0
  5991  0140' 0080'              	movwf	??___fladd
  5992  0141' 1003               	clrc
  5993  0142' 0C00'              	rrf	??___fladd,w
  5994  0143' 3801               	iorlw	1
  5995  0144' 0081'              	movwf	??___fladd+1
  5996  0145' 0801'              	movf	??___fladd+1,w
  5997  0146' 008B'              	movwf	___fladd@grs
  5998  0147' 2800'              	goto	l2278
  5999  0148'                    l2276:
  6000  0148' 1003               	clrc
  6001  0149' 0C8B'              	rrf	___fladd@grs,f
  6002  014A'                    l2278:
  6003  014A' 1C00'              	btfss	___fladd@b,0
  6004  014B' 2800'              	goto	u2041
  6005  014C' 2800'              	goto	u2040
  6006  014D'                    u2041:
  6007  014D' 2800'              	goto	l2282
  6008  014E'                    u2040:
  6009  014E'                    l2280:
  6010  014E' 178B'              	bsf	___fladd@grs,7
  6011  014F'                    l2282:
  6012  014F' 3001               	movlw	1
  6013  0150' 1283               	bcf	3,5	;RP0=0, select bank0
  6014  0151' 1303               	bcf	3,6	;RP1=0, select bank0
  6015  0152' 0080'              	movwf	??___fladd
  6016  0153'                    u2055:
  6017  0153' 0D03'              	rlf	___fladd@b+3,w
  6018  0154' 0C83'              	rrf	___fladd@b+3,f
  6019  0155' 0C82'              	rrf	___fladd@b+2,f
  6020  0156' 0C81'              	rrf	___fladd@b+1,f
  6021  0157' 0C80'              	rrf	___fladd@b,f
  6022  0158' 0B80'              	decfsz	??___fladd& (0+127),f
  6023  0159' 2800'              	goto	u2055
  6024  015A'                    l2284:
  6025  015A' 3001               	movlw	1
  6026  015B' 0080'              	movwf	??___fladd
  6027  015C' 0800'              	movf	??___fladd,w
  6028  015D' 078A'              	addwf	___fladd@bexp,f
  6029  015E' 2800'              	goto	l2320
  6030  015F'                    l2286:
  6031  015F' 0803'              	movf	___fladd@b+3,w
  6032  0160' 3A80               	xorlw	128
  6033  0161' 00FF               	movwf	btemp+1
  6034  0162' 0807'              	movf	___fladd@a+3,w
  6035  0163' 3A80               	xorlw	128
  6036  0164' 027F               	subwf	btemp+1,w
  6037  0165' 1D03               	skipz
  6038  0166' 2800'              	goto	u2063
  6039  0167' 0806'              	movf	___fladd@a+2,w
  6040  0168' 0202'              	subwf	___fladd@b+2,w
  6041  0169' 1D03               	skipz
  6042  016A' 2800'              	goto	u2063
  6043  016B' 0805'              	movf	___fladd@a+1,w
  6044  016C' 0201'              	subwf	___fladd@b+1,w
  6045  016D' 1D03               	skipz
  6046  016E' 2800'              	goto	u2063
  6047  016F' 0804'              	movf	___fladd@a,w
  6048  0170' 0200'              	subwf	___fladd@b,w
  6049  0171'                    u2063:
  6050  0171' 1803               	skipnc
  6051  0172' 2800'              	goto	u2061
  6052  0173' 2800'              	goto	u2060
  6053  0174'                    u2061:
  6054  0174' 2800'              	goto	l2296
  6055  0175'                    u2060:
  6056  0175'                    l2288:
  6057  0175' 30FF               	movlw	255
  6058  0176' 1283               	bcf	3,5	;RP0=0, select bank0
  6059  0177' 1303               	bcf	3,6	;RP1=0, select bank0
  6060  0178' 0080'              	movwf	??___fladd
  6061  0179' 30FF               	movlw	255
  6062  017A' 0081'              	movwf	??___fladd+1
  6063  017B' 30FF               	movlw	255
  6064  017C' 0082'              	movwf	??___fladd+2
  6065  017D' 30FF               	movlw	255
  6066  017E' 0083'              	movwf	??___fladd+3
  6067  017F' 0804'              	movf	___fladd@a,w
  6068  0180' 0084'              	movwf	??___fladd+4
  6069  0181' 0805'              	movf	___fladd@a+1,w
  6070  0182' 0085'              	movwf	??___fladd+5
  6071  0183' 0806'              	movf	___fladd@a+2,w
  6072  0184' 0086'              	movwf	??___fladd+6
  6073  0185' 0807'              	movf	___fladd@a+3,w
  6074  0186' 0087'              	movwf	??___fladd+7
  6075  0187' 0800'              	movf	___fladd@b,w
  6076  0188' 0284'              	subwf	??___fladd+4,f
  6077  0189' 0801'              	movf	___fladd@b+1,w
  6078  018A' 1C03               	skipc
  6079  018B' 0F01'              	incfsz	___fladd@b+1,w
  6080  018C' 2800'              	goto	u2071
  6081  018D' 2800'              	goto	u2072
  6082  018E'                    u2071:
  6083  018E' 0285'              	subwf	??___fladd+5,f
  6084  018F'                    u2072:
  6085  018F' 0802'              	movf	___fladd@b+2,w
  6086  0190' 1C03               	skipc
  6087  0191' 0F02'              	incfsz	___fladd@b+2,w
  6088  0192' 2800'              	goto	u2073
  6089  0193' 2800'              	goto	u2074
  6090  0194'                    u2073:
  6091  0194' 0286'              	subwf	??___fladd+6,f
  6092  0195'                    u2074:
  6093  0195' 0803'              	movf	___fladd@b+3,w
  6094  0196' 1C03               	skipc
  6095  0197' 0F03'              	incfsz	___fladd@b+3,w
  6096  0198' 2800'              	goto	u2075
  6097  0199' 2800'              	goto	u2076
  6098  019A'                    u2075:
  6099  019A' 0287'              	subwf	??___fladd+7,f
  6100  019B'                    u2076:
  6101  019B' 0804'              	movf	??___fladd+4,w
  6102  019C' 0780'              	addwf	??___fladd,f
  6103  019D' 0805'              	movf	??___fladd+5,w
  6104  019E' 1803               	skipnc
  6105  019F' 0F05'              	incfsz	??___fladd+5,w
  6106  01A0' 2800'              	goto	u2080
  6107  01A1' 2800'              	goto	u2081
  6108  01A2'                    u2080:
  6109  01A2' 0781'              	addwf	??___fladd+1,f
  6110  01A3'                    u2081:
  6111  01A3' 0806'              	movf	??___fladd+6,w
  6112  01A4' 1803               	skipnc
  6113  01A5' 0F06'              	incfsz	??___fladd+6,w
  6114  01A6' 2800'              	goto	u2082
  6115  01A7' 2800'              	goto	u2083
  6116  01A8'                    u2082:
  6117  01A8' 0782'              	addwf	??___fladd+2,f
  6118  01A9'                    u2083:
  6119  01A9' 0807'              	movf	??___fladd+7,w
  6120  01AA' 1803               	skipnc
  6121  01AB' 0A07'              	incf	??___fladd+7,w
  6122  01AC' 0783'              	addwf	??___fladd+3,f
  6123  01AD' 0803'              	movf	??___fladd+3,w
  6124  01AE' 0083'              	movwf	___fladd@b+3
  6125  01AF' 0802'              	movf	??___fladd+2,w
  6126  01B0' 0082'              	movwf	___fladd@b+2
  6127  01B1' 0801'              	movf	??___fladd+1,w
  6128  01B2' 0081'              	movwf	___fladd@b+1
  6129  01B3' 0800'              	movf	??___fladd,w
  6130  01B4' 0080'              	movwf	___fladd@b
  6131  01B5'                    l2290:
  6132  01B5' 3080               	movlw	128
  6133  01B6' 0080'              	movwf	??___fladd
  6134  01B7' 0800'              	movf	??___fladd,w
  6135  01B8' 0688'              	xorwf	___fladd@signs,f
  6136  01B9' 098B'              	comf	___fladd@grs,f
  6137  01BA' 0A8B'              	incf	___fladd@grs,f
  6138  01BB'                    l2292:
  6139  01BB' 080B'              	movf	___fladd@grs,w
  6140  01BC' 1D03               	btfss	3,2
  6141  01BD' 2800'              	goto	u2091
  6142  01BE' 2800'              	goto	u2090
  6143  01BF'                    u2091:
  6144  01BF' 2800'              	goto	l700
  6145  01C0'                    u2090:
  6146  01C0'                    l2294:
  6147  01C0' 3001               	movlw	1
  6148  01C1' 0780'              	addwf	___fladd@b,f
  6149  01C2' 3000               	movlw	0
  6150  01C3' 1803               	skipnc
  6151  01C4' 3001               	movlw	1
  6152  01C5' 0781'              	addwf	___fladd@b+1,f
  6153  01C6' 3000               	movlw	0
  6154  01C7' 1803               	skipnc
  6155  01C8' 3001               	movlw	1
  6156  01C9' 0782'              	addwf	___fladd@b+2,f
  6157  01CA' 3000               	movlw	0
  6158  01CB' 1803               	skipnc
  6159  01CC' 3001               	movlw	1
  6160  01CD' 0783'              	addwf	___fladd@b+3,f
  6161  01CE' 2800'              	goto	l700
  6162  01CF'                    l2296:
  6163  01CF' 0804'              	movf	___fladd@a,w
  6164  01D0' 0280'              	subwf	___fladd@b,f
  6165  01D1' 0805'              	movf	___fladd@a+1,w
  6166  01D2' 1C03               	skipc
  6167  01D3' 0F05'              	incfsz	___fladd@a+1,w
  6168  01D4' 0281'              	subwf	___fladd@b+1,f
  6169  01D5' 0806'              	movf	___fladd@a+2,w
  6170  01D6' 1C03               	skipc
  6171  01D7' 0F06'              	incfsz	___fladd@a+2,w
  6172  01D8' 0282'              	subwf	___fladd@b+2,f
  6173  01D9' 0807'              	movf	___fladd@a+3,w
  6174  01DA' 1C03               	skipc
  6175  01DB' 0F07'              	incfsz	___fladd@a+3,w
  6176  01DC' 0283'              	subwf	___fladd@b+3,f
  6177  01DD'                    l700:
  6178  01DD' 0803'              	movf	___fladd@b+3,w
  6179  01DE' 0402'              	iorwf	___fladd@b+2,w
  6180  01DF' 0401'              	iorwf	___fladd@b+1,w
  6181  01E0' 0400'              	iorwf	___fladd@b,w
  6182  01E1' 1D03               	skipz
  6183  01E2' 2800'              	goto	u2101
  6184  01E3' 2800'              	goto	u2100
  6185  01E4'                    u2101:
  6186  01E4' 2800'              	goto	l2318
  6187  01E5'                    u2100:
  6188  01E5'                    l2298:
  6189  01E5' 080B'              	movf	___fladd@grs,w
  6190  01E6' 1D03               	btfss	3,2
  6191  01E7' 2800'              	goto	u2111
  6192  01E8' 2800'              	goto	u2110
  6193  01E9'                    u2111:
  6194  01E9' 2800'              	goto	l2318
  6195  01EA'                    u2110:
  6196  01EA'                    l2300:
  6197  01EA' 3000               	movlw	0
  6198  01EB' 0083'              	movwf	?___fladd+3
  6199  01EC' 3000               	movlw	0
  6200  01ED' 0082'              	movwf	?___fladd+2
  6201  01EE' 3000               	movlw	0
  6202  01EF' 0081'              	movwf	?___fladd+1
  6203  01F0' 3000               	movlw	0
  6204  01F1' 0080'              	movwf	?___fladd
  6205  01F2' 2800'              	goto	l692
  6206  01F3'                    l2304:
  6207  01F3' 3001               	movlw	1
  6208  01F4' 1283               	bcf	3,5	;RP0=0, select bank0
  6209  01F5' 1303               	bcf	3,6	;RP1=0, select bank0
  6210  01F6' 0080'              	movwf	??___fladd
  6211  01F7'                    u2125:
  6212  01F7' 1003               	clrc
  6213  01F8' 0D80'              	rlf	___fladd@b,f
  6214  01F9' 0D81'              	rlf	___fladd@b+1,f
  6215  01FA' 0D82'              	rlf	___fladd@b+2,f
  6216  01FB' 0D83'              	rlf	___fladd@b+3,f
  6217  01FC' 0B80'              	decfsz	??___fladd,f
  6218  01FD' 2800'              	goto	u2125
  6219  01FE'                    l2306:
  6220  01FE' 1F8B'              	btfss	___fladd@grs,7
  6221  01FF' 2800'              	goto	u2131
  6222  0200' 2800'              	goto	u2130
  6223  0201'                    u2131:
  6224  0201' 2800'              	goto	l704
  6225  0202'                    u2130:
  6226  0202'                    l2308:
  6227  0202' 1400'              	bsf	___fladd@b,0
  6228  0203'                    l704:
  6229  0203' 1C0B'              	btfss	___fladd@grs,0
  6230  0204' 2800'              	goto	u2141
  6231  0205' 2800'              	goto	u2140
  6232  0206'                    u2141:
  6233  0206' 2800'              	goto	l2312
  6234  0207'                    u2140:
  6235  0207'                    l2310:
  6236  0207' 1403               	setc
  6237  0208' 0D8B'              	rlf	___fladd@grs,f
  6238  0209' 2800'              	goto	l2314
  6239  020A'                    l2312:
  6240  020A' 1003               	clrc
  6241  020B' 0D8B'              	rlf	___fladd@grs,f
  6242  020C'                    l2314:
  6243  020C' 080A'              	movf	___fladd@bexp,w
  6244  020D' 1903               	btfsc	3,2
  6245  020E' 2800'              	goto	u2151
  6246  020F' 2800'              	goto	u2150
  6247  0210'                    u2151:
  6248  0210' 2800'              	goto	l2318
  6249  0211'                    u2150:
  6250  0211'                    l2316:
  6251  0211' 3001               	movlw	1
  6252  0212' 028A'              	subwf	___fladd@bexp,f
  6253  0213'                    l2318:
  6254  0213' 1F82'              	btfss	___fladd@b+2,7
  6255  0214' 2800'              	goto	u2161
  6256  0215' 2800'              	goto	u2160
  6257  0216'                    u2161:
  6258  0216' 2800'              	goto	l2304
  6259  0217'                    u2160:
  6260  0217'                    l2320:
  6261  0217' 0189'              	clrf	___fladd@aexp
  6262  0218'                    l2322:
  6263  0218' 1F8B'              	btfss	___fladd@grs,7
  6264  0219' 2800'              	goto	u2171
  6265  021A' 2800'              	goto	u2170
  6266  021B'                    u2171:
  6267  021B' 2800'              	goto	l2330
  6268  021C'                    u2170:
  6269  021C'                    l2324:
  6270  021C' 080B'              	movf	___fladd@grs,w
  6271  021D' 397F               	andlw	127
  6272  021E' 1903               	btfsc	3,2
  6273  021F' 2800'              	goto	u2181
  6274  0220' 2800'              	goto	u2180
  6275  0221'                    u2181:
  6276  0221' 2800'              	goto	l710
  6277  0222'                    u2180:
  6278  0222'                    l2326:
  6279  0222' 0189'              	clrf	___fladd@aexp
  6280  0223' 0A89'              	incf	___fladd@aexp,f
  6281  0224' 2800'              	goto	l2330
  6282  0225'                    l710:
  6283  0225' 1C00'              	btfss	___fladd@b,0
  6284  0226' 2800'              	goto	u2191
  6285  0227' 2800'              	goto	u2190
  6286  0228'                    u2191:
  6287  0228' 2800'              	goto	l2330
  6288  0229'                    u2190:
  6289  0229' 2800'              	goto	l2326
  6290  022A'                    l2330:
  6291  022A' 0809'              	movf	___fladd@aexp,w
  6292  022B' 1903               	btfsc	3,2
  6293  022C' 2800'              	goto	u2201
  6294  022D' 2800'              	goto	u2200
  6295  022E'                    u2201:
  6296  022E' 2800'              	goto	l713
  6297  022F'                    u2200:
  6298  022F'                    l2332:
  6299  022F' 3001               	movlw	1
  6300  0230' 0780'              	addwf	___fladd@b,f
  6301  0231' 3000               	movlw	0
  6302  0232' 1803               	skipnc
  6303  0233' 3001               	movlw	1
  6304  0234' 0781'              	addwf	___fladd@b+1,f
  6305  0235' 3000               	movlw	0
  6306  0236' 1803               	skipnc
  6307  0237' 3001               	movlw	1
  6308  0238' 0782'              	addwf	___fladd@b+2,f
  6309  0239' 3000               	movlw	0
  6310  023A' 1803               	skipnc
  6311  023B' 3001               	movlw	1
  6312  023C' 0783'              	addwf	___fladd@b+3,f
  6313  023D'                    l2334:
  6314  023D' 1C03'              	btfss	___fladd@b+3,0
  6315  023E' 2800'              	goto	u2211
  6316  023F' 2800'              	goto	u2210
  6317  0240'                    u2211:
  6318  0240' 2800'              	goto	l713
  6319  0241'                    u2210:
  6320  0241'                    l2336:
  6321  0241' 0800'              	movf	___fladd@b,w
  6322  0242' 1283               	bcf	3,5	;RP0=0, select bank0
  6323  0243' 1303               	bcf	3,6	;RP1=0, select bank0
  6324  0244' 0080'              	movwf	??___fladd
  6325  0245' 0801'              	movf	___fladd@b+1,w
  6326  0246' 0081'              	movwf	??___fladd+1
  6327  0247' 0802'              	movf	___fladd@b+2,w
  6328  0248' 0082'              	movwf	??___fladd+2
  6329  0249' 0803'              	movf	___fladd@b+3,w
  6330  024A' 0083'              	movwf	??___fladd+3
  6331  024B' 3001               	movlw	1
  6332  024C' 0084'              	movwf	??___fladd+4
  6333  024D'                    u2225:
  6334  024D' 0D03'              	rlf	??___fladd+3,w
  6335  024E' 0C83'              	rrf	??___fladd+3,f
  6336  024F' 0C82'              	rrf	??___fladd+2,f
  6337  0250' 0C81'              	rrf	??___fladd+1,f
  6338  0251' 0C80'              	rrf	??___fladd,f
  6339  0252'                    u2220:
  6340  0252' 0B84'              	decfsz	??___fladd+4,f
  6341  0253' 2800'              	goto	u2225
  6342  0254' 0803'              	movf	??___fladd+3,w
  6343  0255' 0083'              	movwf	___fladd@b+3
  6344  0256' 0802'              	movf	??___fladd+2,w
  6345  0257' 0082'              	movwf	___fladd@b+2
  6346  0258' 0801'              	movf	??___fladd+1,w
  6347  0259' 0081'              	movwf	___fladd@b+1
  6348  025A' 0800'              	movf	??___fladd,w
  6349  025B' 0080'              	movwf	___fladd@b
  6350  025C' 0A0A'              	incf	___fladd@bexp,w
  6351  025D' 1903               	btfsc	3,2
  6352  025E' 2800'              	goto	u2231
  6353  025F' 2800'              	goto	u2230
  6354  0260'                    u2231:
  6355  0260' 2800'              	goto	l713
  6356  0261'                    u2230:
  6357  0261'                    l2338:
  6358  0261' 3001               	movlw	1
  6359  0262' 0080'              	movwf	??___fladd
  6360  0263' 0800'              	movf	??___fladd,w
  6361  0264' 078A'              	addwf	___fladd@bexp,f
  6362  0265'                    l713:
  6363  0265' 0A0A'              	incf	___fladd@bexp,w
  6364  0266' 1903               	btfsc	3,2
  6365  0267' 2800'              	goto	u2241
  6366  0268' 2800'              	goto	u2240
  6367  0269'                    u2241:
  6368  0269' 2800'              	goto	l2342
  6369  026A'                    u2240:
  6370  026A'                    l2340:
  6371  026A' 080A'              	movf	___fladd@bexp,w
  6372  026B' 1D03               	btfss	3,2
  6373  026C' 2800'              	goto	u2251
  6374  026D' 2800'              	goto	u2250
  6375  026E'                    u2251:
  6376  026E' 2800'              	goto	l2348
  6377  026F'                    u2250:
  6378  026F'                    l2342:
  6379  026F' 3000               	movlw	0
  6380  0270' 0083'              	movwf	___fladd@b+3
  6381  0271' 3000               	movlw	0
  6382  0272' 0082'              	movwf	___fladd@b+2
  6383  0273' 3000               	movlw	0
  6384  0274' 0081'              	movwf	___fladd@b+1
  6385  0275' 3000               	movlw	0
  6386  0276' 0080'              	movwf	___fladd@b
  6387  0277'                    l2344:
  6388  0277' 080A'              	movf	___fladd@bexp,w
  6389  0278' 1D03               	btfss	3,2
  6390  0279' 2800'              	goto	u2261
  6391  027A' 2800'              	goto	u2260
  6392  027B'                    u2261:
  6393  027B' 2800'              	goto	l2348
  6394  027C'                    u2260:
  6395  027C'                    l2346:
  6396  027C' 0188'              	clrf	___fladd@signs
  6397  027D'                    l2348:
  6398  027D' 1C0A'              	btfss	___fladd@bexp,0
  6399  027E' 2800'              	goto	u2271
  6400  027F' 2800'              	goto	u2270
  6401  0280'                    u2271:
  6402  0280' 2800'              	goto	l2352
  6403  0281'                    u2270:
  6404  0281'                    l2350:
  6405  0281' 1782'              	bsf	___fladd@b+2,7
  6406  0282' 2800'              	goto	l721
  6407  0283'                    l2352:
  6408  0283' 307F               	movlw	127
  6409  0284' 1283               	bcf	3,5	;RP0=0, select bank0
  6410  0285' 1303               	bcf	3,6	;RP1=0, select bank0
  6411  0286' 0080'              	movwf	??___fladd
  6412  0287' 0800'              	movf	??___fladd,w
  6413  0288' 0582'              	andwf	___fladd@b+2,f
  6414  0289'                    l721:
  6415  0289' 080A'              	movf	___fladd@bexp,w
  6416  028A' 1283               	bcf	3,5	;RP0=0, select bank0
  6417  028B' 1303               	bcf	3,6	;RP1=0, select bank0
  6418  028C' 0080'              	movwf	??___fladd
  6419  028D' 1003               	clrc
  6420  028E' 0C00'              	rrf	??___fladd,w
  6421  028F' 0081'              	movwf	??___fladd+1
  6422  0290' 0801'              	movf	??___fladd+1,w
  6423  0291' 0083'              	movwf	___fladd@b+3
  6424  0292'                    l2354:
  6425  0292' 1F88'              	btfss	___fladd@signs,7
  6426  0293' 2800'              	goto	u2281
  6427  0294' 2800'              	goto	u2280
  6428  0295'                    u2281:
  6429  0295' 2800'              	goto	l722
  6430  0296'                    u2280:
  6431  0296'                    l2356:
  6432  0296' 1783'              	bsf	___fladd@b+3,7
  6433  0297'                    l722:
  6434  0297'                    l692:
  6435  0297' 0008               	return
  6436  0298'                    __end_of___fladd:
  6437                           
  6438                           	psect	text22
  6439  0000'                    __ptext22:	
  6440 ;; *************** function ___flmul *****************
  6441 ;; Defined at:
  6442 ;;		line 8 in file "C:\Program Files\Microchip\xc8\v2.31\pic\sources\c90\common\sprcmul.c"
  6443 ;; Parameters:    Size  Location     Type
  6444 ;;  b               4   44[BANK0 ] unsigned char 
  6445 ;;  a               4   48[BANK0 ] unsigned char 
  6446 ;; Auto vars:     Size  Location     Type
  6447 ;;  prod            4   64[BANK0 ] struct .
  6448 ;;  grs             4   58[BANK0 ] unsigned long 
  6449 ;;  temp            2   68[BANK0 ] struct .
  6450 ;;  bexp            1   63[BANK0 ] unsigned char 
  6451 ;;  aexp            1   62[BANK0 ] unsigned char 
  6452 ;;  sign            1   57[BANK0 ] unsigned char 
  6453 ;; Return value:  Size  Location     Type
  6454 ;;                  4   44[BANK0 ] unsigned char 
  6455 ;; Registers used:
  6456 ;;		wreg, status,2, status,0, btemp+1, pclath, cstack
  6457 ;; Tracked objects:
  6458 ;;		On entry : 0/0
  6459 ;;		On exit  : 0/0
  6460 ;;		Unchanged: 0/0
  6461 ;; Data sizes:     COMMON   BANK0   BANK1   BANK3   BANK2
  6462 ;;      Params:         0       8       0       0       0
  6463 ;;      Locals:         0      13       0       0       0
  6464 ;;      Temps:          0       5       0       0       0
  6465 ;;      Totals:         0      26       0       0       0
  6466 ;;Total ram usage:       26 bytes
  6467 ;; Hardware stack levels used:    1
  6468 ;; Hardware stack levels required when called:    1
  6469 ;; This function calls:
  6470 ;;		__Umul8_16
  6471 ;; This function is called by:
  6472 ;;		_ADC_convert
  6473 ;;		_main
  6474 ;; This function uses a non-reentrant model
  6475 ;;
  6476                           
  6477                           
  6478                           ;psect for function ___flmul
  6479  0000'                    ___flmul:
  6480  0000'                    l2736:	
  6481                           ;incstack = 0
  6482                           ; Regs used in ___flmul: [wreg+status,2+status,0+btemp+1+pclath+cstack]
  6483                           
  6484  0000' 1283               	bcf	3,5	;RP0=0, select bank0
  6485  0001' 1303               	bcf	3,6	;RP1=0, select bank0
  6486  0002' 082F'              	movf	___flmul@b+3,w
  6487  0003' 3980               	andlw	128
  6488  0004' 00B4'              	movwf	??___flmul
  6489  0005' 0834'              	movf	??___flmul,w
  6490  0006' 00B9'              	movwf	___flmul@sign
  6491  0007'                    l2738:
  6492  0007' 082F'              	movf	___flmul@b+3,w
  6493  0008' 00B4'              	movwf	??___flmul
  6494  0009' 0734'              	addwf	??___flmul,w
  6495  000A' 00B5'              	movwf	??___flmul+1
  6496  000B' 0835'              	movf	??___flmul+1,w
  6497  000C' 00BF'              	movwf	___flmul@bexp
  6498  000D'                    l2740:
  6499  000D' 1FAE'              	btfss	___flmul@b+2,7
  6500  000E' 2800'              	goto	u2961
  6501  000F' 2800'              	goto	u2960
  6502  0010'                    u2961:
  6503  0010' 2800'              	goto	l2744
  6504  0011'                    u2960:
  6505  0011'                    l2742:
  6506  0011' 143F'              	bsf	___flmul@bexp,0
  6507  0012'                    l2744:
  6508  0012' 083F'              	movf	___flmul@bexp,w
  6509  0013' 1903               	btfsc	3,2
  6510  0014' 2800'              	goto	u2971
  6511  0015' 2800'              	goto	u2970
  6512  0016'                    u2971:
  6513  0016' 2800'              	goto	l2752
  6514  0017'                    u2970:
  6515  0017'                    l2746:
  6516  0017' 0A3F'              	incf	___flmul@bexp,w
  6517  0018' 1D03               	btfss	3,2
  6518  0019' 2800'              	goto	u2981
  6519  001A' 2800'              	goto	u2980
  6520  001B'                    u2981:
  6521  001B' 2800'              	goto	l2750
  6522  001C'                    u2980:
  6523  001C'                    l2748:
  6524  001C' 3000               	movlw	0
  6525  001D' 00AF'              	movwf	___flmul@b+3
  6526  001E' 3000               	movlw	0
  6527  001F' 00AE'              	movwf	___flmul@b+2
  6528  0020' 3000               	movlw	0
  6529  0021' 00AD'              	movwf	___flmul@b+1
  6530  0022' 3000               	movlw	0
  6531  0023' 00AC'              	movwf	___flmul@b
  6532  0024'                    l2750:
  6533  0024' 17AE'              	bsf	___flmul@b+2,7
  6534  0025' 2800'              	goto	l2754
  6535  0026'                    l2752:
  6536  0026' 3000               	movlw	0
  6537  0027' 00AF'              	movwf	___flmul@b+3
  6538  0028' 3000               	movlw	0
  6539  0029' 00AE'              	movwf	___flmul@b+2
  6540  002A' 3000               	movlw	0
  6541  002B' 00AD'              	movwf	___flmul@b+1
  6542  002C' 3000               	movlw	0
  6543  002D' 00AC'              	movwf	___flmul@b
  6544  002E'                    l2754:
  6545  002E' 0833'              	movf	___flmul@a+3,w
  6546  002F' 3980               	andlw	128
  6547  0030' 00B4'              	movwf	??___flmul
  6548  0031' 0834'              	movf	??___flmul,w
  6549  0032' 06B9'              	xorwf	___flmul@sign,f
  6550  0033'                    l2756:
  6551  0033' 0833'              	movf	___flmul@a+3,w
  6552  0034' 00B4'              	movwf	??___flmul
  6553  0035' 0734'              	addwf	??___flmul,w
  6554  0036' 00B5'              	movwf	??___flmul+1
  6555  0037' 0835'              	movf	??___flmul+1,w
  6556  0038' 00BE'              	movwf	___flmul@aexp
  6557  0039'                    l2758:
  6558  0039' 1FB2'              	btfss	___flmul@a+2,7
  6559  003A' 2800'              	goto	u2991
  6560  003B' 2800'              	goto	u2990
  6561  003C'                    u2991:
  6562  003C' 2800'              	goto	l2762
  6563  003D'                    u2990:
  6564  003D'                    l2760:
  6565  003D' 143E'              	bsf	___flmul@aexp,0
  6566  003E'                    l2762:
  6567  003E' 083E'              	movf	___flmul@aexp,w
  6568  003F' 1903               	btfsc	3,2
  6569  0040' 2800'              	goto	u3001
  6570  0041' 2800'              	goto	u3000
  6571  0042'                    u3001:
  6572  0042' 2800'              	goto	l2770
  6573  0043'                    u3000:
  6574  0043'                    l2764:
  6575  0043' 0A3E'              	incf	___flmul@aexp,w
  6576  0044' 1D03               	btfss	3,2
  6577  0045' 2800'              	goto	u3011
  6578  0046' 2800'              	goto	u3010
  6579  0047'                    u3011:
  6580  0047' 2800'              	goto	l2768
  6581  0048'                    u3010:
  6582  0048'                    l2766:
  6583  0048' 3000               	movlw	0
  6584  0049' 00B3'              	movwf	___flmul@a+3
  6585  004A' 3000               	movlw	0
  6586  004B' 00B2'              	movwf	___flmul@a+2
  6587  004C' 3000               	movlw	0
  6588  004D' 00B1'              	movwf	___flmul@a+1
  6589  004E' 3000               	movlw	0
  6590  004F' 00B0'              	movwf	___flmul@a
  6591  0050'                    l2768:
  6592  0050' 17B2'              	bsf	___flmul@a+2,7
  6593  0051' 2800'              	goto	l2772
  6594  0052'                    l2770:
  6595  0052' 3000               	movlw	0
  6596  0053' 00B3'              	movwf	___flmul@a+3
  6597  0054' 3000               	movlw	0
  6598  0055' 00B2'              	movwf	___flmul@a+2
  6599  0056' 3000               	movlw	0
  6600  0057' 00B1'              	movwf	___flmul@a+1
  6601  0058' 3000               	movlw	0
  6602  0059' 00B0'              	movwf	___flmul@a
  6603  005A'                    l2772:
  6604  005A' 083E'              	movf	___flmul@aexp,w
  6605  005B' 1903               	btfsc	3,2
  6606  005C' 2800'              	goto	u3021
  6607  005D' 2800'              	goto	u3020
  6608  005E'                    u3021:
  6609  005E' 2800'              	goto	l2776
  6610  005F'                    u3020:
  6611  005F'                    l2774:
  6612  005F' 083F'              	movf	___flmul@bexp,w
  6613  0060' 1D03               	btfss	3,2
  6614  0061' 2800'              	goto	u3031
  6615  0062' 2800'              	goto	u3030
  6616  0063'                    u3031:
  6617  0063' 2800'              	goto	l2780
  6618  0064'                    u3030:
  6619  0064'                    l2776:
  6620  0064' 3000               	movlw	0
  6621  0065' 00AF'              	movwf	?___flmul+3
  6622  0066' 3000               	movlw	0
  6623  0067' 00AE'              	movwf	?___flmul+2
  6624  0068' 3000               	movlw	0
  6625  0069' 00AD'              	movwf	?___flmul+1
  6626  006A' 3000               	movlw	0
  6627  006B' 00AC'              	movwf	?___flmul
  6628  006C' 2800'              	goto	l775
  6629  006D'                    l2780:
  6630  006D' 082C'              	movf	___flmul@b,w
  6631  006E' 00B4'              	movwf	??___flmul
  6632  006F' 0834'              	movf	??___flmul,w
  6633  0070' 0080'              	movwf	__Umul8_16@multiplicand
  6634  0071' 0832'              	movf	___flmul@a+2,w
  6635  0072' 120A' 118A' 2000' 120A' 118A' 	fcall	__Umul8_16
  6636  0077' 0801'              	movf	?__Umul8_16+1,w
  6637  0078' 1283               	bcf	3,5	;RP0=0, select bank0
  6638  0079' 1303               	bcf	3,6	;RP1=0, select bank0
  6639  007A' 00C5'              	movwf	___flmul@temp+1
  6640  007B' 0800'              	movf	?__Umul8_16,w
  6641  007C' 00C4'              	movwf	___flmul@temp
  6642  007D'                    l2782:
  6643  007D' 0844'              	movf	___flmul@temp,w
  6644  007E' 00B4'              	movwf	??___flmul
  6645  007F' 01B5'              	clrf	??___flmul+1
  6646  0080' 01B6'              	clrf	??___flmul+2
  6647  0081' 01B7'              	clrf	??___flmul+3
  6648  0082' 0837'              	movf	??___flmul+3,w
  6649  0083' 00BD'              	movwf	___flmul@grs+3
  6650  0084' 0836'              	movf	??___flmul+2,w
  6651  0085' 00BC'              	movwf	___flmul@grs+2
  6652  0086' 0835'              	movf	??___flmul+1,w
  6653  0087' 00BB'              	movwf	___flmul@grs+1
  6654  0088' 0834'              	movf	??___flmul,w
  6655  0089' 00BA'              	movwf	___flmul@grs
  6656  008A'                    l2784:
  6657  008A' 0845'              	movf	___flmul@temp+1,w
  6658  008B' 00B4'              	movwf	??___flmul
  6659  008C' 01B5'              	clrf	??___flmul+1
  6660  008D' 01B6'              	clrf	??___flmul+2
  6661  008E' 01B7'              	clrf	??___flmul+3
  6662  008F' 0837'              	movf	??___flmul+3,w
  6663  0090' 00C3'              	movwf	___flmul@prod+3
  6664  0091' 0836'              	movf	??___flmul+2,w
  6665  0092' 00C2'              	movwf	___flmul@prod+2
  6666  0093' 0835'              	movf	??___flmul+1,w
  6667  0094' 00C1'              	movwf	___flmul@prod+1
  6668  0095' 0834'              	movf	??___flmul,w
  6669  0096' 00C0'              	movwf	___flmul@prod
  6670  0097' 082D'              	movf	___flmul@b+1,w
  6671  0098' 00B4'              	movwf	??___flmul
  6672  0099' 0834'              	movf	??___flmul,w
  6673  009A' 0080'              	movwf	__Umul8_16@multiplicand
  6674  009B' 0831'              	movf	___flmul@a+1,w
  6675  009C' 120A' 118A' 2000' 120A' 118A' 	fcall	__Umul8_16
  6676  00A1' 0801'              	movf	?__Umul8_16+1,w
  6677  00A2' 1283               	bcf	3,5	;RP0=0, select bank0
  6678  00A3' 1303               	bcf	3,6	;RP1=0, select bank0
  6679  00A4' 00C5'              	movwf	___flmul@temp+1
  6680  00A5' 0800'              	movf	?__Umul8_16,w
  6681  00A6' 00C4'              	movwf	___flmul@temp
  6682  00A7'                    l2786:
  6683  00A7' 0844'              	movf	___flmul@temp,w
  6684  00A8' 00B4'              	movwf	??___flmul
  6685  00A9' 01B5'              	clrf	??___flmul+1
  6686  00AA' 01B6'              	clrf	??___flmul+2
  6687  00AB' 01B7'              	clrf	??___flmul+3
  6688  00AC' 0834'              	movf	??___flmul,w
  6689  00AD' 07BA'              	addwf	___flmul@grs,f
  6690  00AE' 0835'              	movf	??___flmul+1,w
  6691  00AF' 1103               	clrz
  6692  00B0' 1803               	skipnc
  6693  00B1' 3E01               	addlw	1
  6694  00B2' 1903               	skipnz
  6695  00B3' 2800'              	goto	u3041
  6696  00B4' 07BB'              	addwf	___flmul@grs+1,f
  6697  00B5'                    u3041:
  6698  00B5' 0836'              	movf	??___flmul+2,w
  6699  00B6' 1103               	clrz
  6700  00B7' 1803               	skipnc
  6701  00B8' 3E01               	addlw	1
  6702  00B9' 1903               	skipnz
  6703  00BA' 2800'              	goto	u3042
  6704  00BB' 07BC'              	addwf	___flmul@grs+2,f
  6705  00BC'                    u3042:
  6706  00BC' 0837'              	movf	??___flmul+3,w
  6707  00BD' 1103               	clrz
  6708  00BE' 1803               	skipnc
  6709  00BF' 3E01               	addlw	1
  6710  00C0' 1903               	skipnz
  6711  00C1' 2800'              	goto	u3043
  6712  00C2' 07BD'              	addwf	___flmul@grs+3,f
  6713  00C3'                    u3043:
  6714  00C3'                    l2788:
  6715  00C3' 0845'              	movf	___flmul@temp+1,w
  6716  00C4' 00B4'              	movwf	??___flmul
  6717  00C5' 01B5'              	clrf	??___flmul+1
  6718  00C6' 01B6'              	clrf	??___flmul+2
  6719  00C7' 01B7'              	clrf	??___flmul+3
  6720  00C8' 0834'              	movf	??___flmul,w
  6721  00C9' 07C0'              	addwf	___flmul@prod,f
  6722  00CA' 0835'              	movf	??___flmul+1,w
  6723  00CB' 1103               	clrz
  6724  00CC' 1803               	skipnc
  6725  00CD' 3E01               	addlw	1
  6726  00CE' 1903               	skipnz
  6727  00CF' 2800'              	goto	u3051
  6728  00D0' 07C1'              	addwf	___flmul@prod+1,f
  6729  00D1'                    u3051:
  6730  00D1' 0836'              	movf	??___flmul+2,w
  6731  00D2' 1103               	clrz
  6732  00D3' 1803               	skipnc
  6733  00D4' 3E01               	addlw	1
  6734  00D5' 1903               	skipnz
  6735  00D6' 2800'              	goto	u3052
  6736  00D7' 07C2'              	addwf	___flmul@prod+2,f
  6737  00D8'                    u3052:
  6738  00D8' 0837'              	movf	??___flmul+3,w
  6739  00D9' 1103               	clrz
  6740  00DA' 1803               	skipnc
  6741  00DB' 3E01               	addlw	1
  6742  00DC' 1903               	skipnz
  6743  00DD' 2800'              	goto	u3053
  6744  00DE' 07C3'              	addwf	___flmul@prod+3,f
  6745  00DF'                    u3053:
  6746  00DF' 082E'              	movf	___flmul@b+2,w
  6747  00E0' 00B4'              	movwf	??___flmul
  6748  00E1' 0834'              	movf	??___flmul,w
  6749  00E2' 0080'              	movwf	__Umul8_16@multiplicand
  6750  00E3' 0830'              	movf	___flmul@a,w
  6751  00E4' 120A' 118A' 2000' 120A' 118A' 	fcall	__Umul8_16
  6752  00E9' 0801'              	movf	?__Umul8_16+1,w
  6753  00EA' 1283               	bcf	3,5	;RP0=0, select bank0
  6754  00EB' 1303               	bcf	3,6	;RP1=0, select bank0
  6755  00EC' 00C5'              	movwf	___flmul@temp+1
  6756  00ED' 0800'              	movf	?__Umul8_16,w
  6757  00EE' 00C4'              	movwf	___flmul@temp
  6758  00EF'                    l2790:
  6759  00EF' 0844'              	movf	___flmul@temp,w
  6760  00F0' 00B4'              	movwf	??___flmul
  6761  00F1' 01B5'              	clrf	??___flmul+1
  6762  00F2' 01B6'              	clrf	??___flmul+2
  6763  00F3' 01B7'              	clrf	??___flmul+3
  6764  00F4' 0834'              	movf	??___flmul,w
  6765  00F5' 07BA'              	addwf	___flmul@grs,f
  6766  00F6' 0835'              	movf	??___flmul+1,w
  6767  00F7' 1103               	clrz
  6768  00F8' 1803               	skipnc
  6769  00F9' 3E01               	addlw	1
  6770  00FA' 1903               	skipnz
  6771  00FB' 2800'              	goto	u3061
  6772  00FC' 07BB'              	addwf	___flmul@grs+1,f
  6773  00FD'                    u3061:
  6774  00FD' 0836'              	movf	??___flmul+2,w
  6775  00FE' 1103               	clrz
  6776  00FF' 1803               	skipnc
  6777  0100' 3E01               	addlw	1
  6778  0101' 1903               	skipnz
  6779  0102' 2800'              	goto	u3062
  6780  0103' 07BC'              	addwf	___flmul@grs+2,f
  6781  0104'                    u3062:
  6782  0104' 0837'              	movf	??___flmul+3,w
  6783  0105' 1103               	clrz
  6784  0106' 1803               	skipnc
  6785  0107' 3E01               	addlw	1
  6786  0108' 1903               	skipnz
  6787  0109' 2800'              	goto	u3063
  6788  010A' 07BD'              	addwf	___flmul@grs+3,f
  6789  010B'                    u3063:
  6790  010B'                    l2792:
  6791  010B' 0845'              	movf	___flmul@temp+1,w
  6792  010C' 00B4'              	movwf	??___flmul
  6793  010D' 01B5'              	clrf	??___flmul+1
  6794  010E' 01B6'              	clrf	??___flmul+2
  6795  010F' 01B7'              	clrf	??___flmul+3
  6796  0110' 0834'              	movf	??___flmul,w
  6797  0111' 07C0'              	addwf	___flmul@prod,f
  6798  0112' 0835'              	movf	??___flmul+1,w
  6799  0113' 1103               	clrz
  6800  0114' 1803               	skipnc
  6801  0115' 3E01               	addlw	1
  6802  0116' 1903               	skipnz
  6803  0117' 2800'              	goto	u3071
  6804  0118' 07C1'              	addwf	___flmul@prod+1,f
  6805  0119'                    u3071:
  6806  0119' 0836'              	movf	??___flmul+2,w
  6807  011A' 1103               	clrz
  6808  011B' 1803               	skipnc
  6809  011C' 3E01               	addlw	1
  6810  011D' 1903               	skipnz
  6811  011E' 2800'              	goto	u3072
  6812  011F' 07C2'              	addwf	___flmul@prod+2,f
  6813  0120'                    u3072:
  6814  0120' 0837'              	movf	??___flmul+3,w
  6815  0121' 1103               	clrz
  6816  0122' 1803               	skipnc
  6817  0123' 3E01               	addlw	1
  6818  0124' 1903               	skipnz
  6819  0125' 2800'              	goto	u3073
  6820  0126' 07C3'              	addwf	___flmul@prod+3,f
  6821  0127'                    u3073:
  6822  0127'                    l2794:
  6823  0127' 3008               	movlw	8
  6824  0128' 00B4'              	movwf	??___flmul
  6825  0129'                    u3085:
  6826  0129' 1003               	clrc
  6827  012A' 0DBA'              	rlf	___flmul@grs,f
  6828  012B' 0DBB'              	rlf	___flmul@grs+1,f
  6829  012C' 0DBC'              	rlf	___flmul@grs+2,f
  6830  012D' 0DBD'              	rlf	___flmul@grs+3,f
  6831  012E' 0BB4'              	decfsz	??___flmul,f
  6832  012F' 2800'              	goto	u3085
  6833  0130'                    l2796:
  6834  0130' 082D'              	movf	___flmul@b+1,w
  6835  0131' 00B4'              	movwf	??___flmul
  6836  0132' 0834'              	movf	??___flmul,w
  6837  0133' 0080'              	movwf	__Umul8_16@multiplicand
  6838  0134' 0830'              	movf	___flmul@a,w
  6839  0135' 120A' 118A' 2000' 120A' 118A' 	fcall	__Umul8_16
  6840  013A' 0801'              	movf	?__Umul8_16+1,w
  6841  013B' 1283               	bcf	3,5	;RP0=0, select bank0
  6842  013C' 1303               	bcf	3,6	;RP1=0, select bank0
  6843  013D' 00C5'              	movwf	___flmul@temp+1
  6844  013E' 0800'              	movf	?__Umul8_16,w
  6845  013F' 00C4'              	movwf	___flmul@temp
  6846  0140'                    l2798:
  6847  0140' 0844'              	movf	___flmul@temp,w
  6848  0141' 00B4'              	movwf	??___flmul
  6849  0142' 0845'              	movf	___flmul@temp+1,w
  6850  0143' 00B5'              	movwf	??___flmul+1
  6851  0144' 01B6'              	clrf	??___flmul+2
  6852  0145' 01B7'              	clrf	??___flmul+3
  6853  0146' 0834'              	movf	??___flmul,w
  6854  0147' 07BA'              	addwf	___flmul@grs,f
  6855  0148' 0835'              	movf	??___flmul+1,w
  6856  0149' 1103               	clrz
  6857  014A' 1803               	skipnc
  6858  014B' 3E01               	addlw	1
  6859  014C' 1903               	skipnz
  6860  014D' 2800'              	goto	u3091
  6861  014E' 07BB'              	addwf	___flmul@grs+1,f
  6862  014F'                    u3091:
  6863  014F' 0836'              	movf	??___flmul+2,w
  6864  0150' 1103               	clrz
  6865  0151' 1803               	skipnc
  6866  0152' 3E01               	addlw	1
  6867  0153' 1903               	skipnz
  6868  0154' 2800'              	goto	u3092
  6869  0155' 07BC'              	addwf	___flmul@grs+2,f
  6870  0156'                    u3092:
  6871  0156' 0837'              	movf	??___flmul+3,w
  6872  0157' 1103               	clrz
  6873  0158' 1803               	skipnc
  6874  0159' 3E01               	addlw	1
  6875  015A' 1903               	skipnz
  6876  015B' 2800'              	goto	u3093
  6877  015C' 07BD'              	addwf	___flmul@grs+3,f
  6878  015D'                    u3093:
  6879  015D'                    l2800:
  6880  015D' 082C'              	movf	___flmul@b,w
  6881  015E' 00B4'              	movwf	??___flmul
  6882  015F' 0834'              	movf	??___flmul,w
  6883  0160' 0080'              	movwf	__Umul8_16@multiplicand
  6884  0161' 0831'              	movf	___flmul@a+1,w
  6885  0162' 120A' 118A' 2000' 120A' 118A' 	fcall	__Umul8_16
  6886  0167' 0801'              	movf	?__Umul8_16+1,w
  6887  0168' 1283               	bcf	3,5	;RP0=0, select bank0
  6888  0169' 1303               	bcf	3,6	;RP1=0, select bank0
  6889  016A' 00C5'              	movwf	___flmul@temp+1
  6890  016B' 0800'              	movf	?__Umul8_16,w
  6891  016C' 00C4'              	movwf	___flmul@temp
  6892  016D'                    l2802:
  6893  016D' 0844'              	movf	___flmul@temp,w
  6894  016E' 00B4'              	movwf	??___flmul
  6895  016F' 0845'              	movf	___flmul@temp+1,w
  6896  0170' 00B5'              	movwf	??___flmul+1
  6897  0171' 01B6'              	clrf	??___flmul+2
  6898  0172' 01B7'              	clrf	??___flmul+3
  6899  0173' 0834'              	movf	??___flmul,w
  6900  0174' 07BA'              	addwf	___flmul@grs,f
  6901  0175' 0835'              	movf	??___flmul+1,w
  6902  0176' 1103               	clrz
  6903  0177' 1803               	skipnc
  6904  0178' 3E01               	addlw	1
  6905  0179' 1903               	skipnz
  6906  017A' 2800'              	goto	u3101
  6907  017B' 07BB'              	addwf	___flmul@grs+1,f
  6908  017C'                    u3101:
  6909  017C' 0836'              	movf	??___flmul+2,w
  6910  017D' 1103               	clrz
  6911  017E' 1803               	skipnc
  6912  017F' 3E01               	addlw	1
  6913  0180' 1903               	skipnz
  6914  0181' 2800'              	goto	u3102
  6915  0182' 07BC'              	addwf	___flmul@grs+2,f
  6916  0183'                    u3102:
  6917  0183' 0837'              	movf	??___flmul+3,w
  6918  0184' 1103               	clrz
  6919  0185' 1803               	skipnc
  6920  0186' 3E01               	addlw	1
  6921  0187' 1903               	skipnz
  6922  0188' 2800'              	goto	u3103
  6923  0189' 07BD'              	addwf	___flmul@grs+3,f
  6924  018A'                    u3103:
  6925  018A'                    l2804:
  6926  018A' 3008               	movlw	8
  6927  018B' 00B4'              	movwf	??___flmul
  6928  018C'                    u3115:
  6929  018C' 1003               	clrc
  6930  018D' 0DBA'              	rlf	___flmul@grs,f
  6931  018E' 0DBB'              	rlf	___flmul@grs+1,f
  6932  018F' 0DBC'              	rlf	___flmul@grs+2,f
  6933  0190' 0DBD'              	rlf	___flmul@grs+3,f
  6934  0191' 0BB4'              	decfsz	??___flmul,f
  6935  0192' 2800'              	goto	u3115
  6936  0193' 082C'              	movf	___flmul@b,w
  6937  0194' 00B4'              	movwf	??___flmul
  6938  0195' 0834'              	movf	??___flmul,w
  6939  0196' 0080'              	movwf	__Umul8_16@multiplicand
  6940  0197' 0830'              	movf	___flmul@a,w
  6941  0198' 120A' 118A' 2000' 120A' 118A' 	fcall	__Umul8_16
  6942  019D' 0801'              	movf	?__Umul8_16+1,w
  6943  019E' 1283               	bcf	3,5	;RP0=0, select bank0
  6944  019F' 1303               	bcf	3,6	;RP1=0, select bank0
  6945  01A0' 00C5'              	movwf	___flmul@temp+1
  6946  01A1' 0800'              	movf	?__Umul8_16,w
  6947  01A2' 00C4'              	movwf	___flmul@temp
  6948  01A3'                    l2806:
  6949  01A3' 0844'              	movf	___flmul@temp,w
  6950  01A4' 00B4'              	movwf	??___flmul
  6951  01A5' 0845'              	movf	___flmul@temp+1,w
  6952  01A6' 00B5'              	movwf	??___flmul+1
  6953  01A7' 01B6'              	clrf	??___flmul+2
  6954  01A8' 01B7'              	clrf	??___flmul+3
  6955  01A9' 0834'              	movf	??___flmul,w
  6956  01AA' 07BA'              	addwf	___flmul@grs,f
  6957  01AB' 0835'              	movf	??___flmul+1,w
  6958  01AC' 1103               	clrz
  6959  01AD' 1803               	skipnc
  6960  01AE' 3E01               	addlw	1
  6961  01AF' 1903               	skipnz
  6962  01B0' 2800'              	goto	u3121
  6963  01B1' 07BB'              	addwf	___flmul@grs+1,f
  6964  01B2'                    u3121:
  6965  01B2' 0836'              	movf	??___flmul+2,w
  6966  01B3' 1103               	clrz
  6967  01B4' 1803               	skipnc
  6968  01B5' 3E01               	addlw	1
  6969  01B6' 1903               	skipnz
  6970  01B7' 2800'              	goto	u3122
  6971  01B8' 07BC'              	addwf	___flmul@grs+2,f
  6972  01B9'                    u3122:
  6973  01B9' 0837'              	movf	??___flmul+3,w
  6974  01BA' 1103               	clrz
  6975  01BB' 1803               	skipnc
  6976  01BC' 3E01               	addlw	1
  6977  01BD' 1903               	skipnz
  6978  01BE' 2800'              	goto	u3123
  6979  01BF' 07BD'              	addwf	___flmul@grs+3,f
  6980  01C0'                    u3123:
  6981  01C0'                    l2808:
  6982  01C0' 082D'              	movf	___flmul@b+1,w
  6983  01C1' 00B4'              	movwf	??___flmul
  6984  01C2' 0834'              	movf	??___flmul,w
  6985  01C3' 0080'              	movwf	__Umul8_16@multiplicand
  6986  01C4' 0832'              	movf	___flmul@a+2,w
  6987  01C5' 120A' 118A' 2000' 120A' 118A' 	fcall	__Umul8_16
  6988  01CA' 0801'              	movf	?__Umul8_16+1,w
  6989  01CB' 1283               	bcf	3,5	;RP0=0, select bank0
  6990  01CC' 1303               	bcf	3,6	;RP1=0, select bank0
  6991  01CD' 00C5'              	movwf	___flmul@temp+1
  6992  01CE' 0800'              	movf	?__Umul8_16,w
  6993  01CF' 00C4'              	movwf	___flmul@temp
  6994  01D0' 0844'              	movf	___flmul@temp,w
  6995  01D1' 00B4'              	movwf	??___flmul
  6996  01D2' 0845'              	movf	___flmul@temp+1,w
  6997  01D3' 00B5'              	movwf	??___flmul+1
  6998  01D4' 01B6'              	clrf	??___flmul+2
  6999  01D5' 01B7'              	clrf	??___flmul+3
  7000  01D6' 0834'              	movf	??___flmul,w
  7001  01D7' 07C0'              	addwf	___flmul@prod,f
  7002  01D8' 0835'              	movf	??___flmul+1,w
  7003  01D9' 1103               	clrz
  7004  01DA' 1803               	skipnc
  7005  01DB' 3E01               	addlw	1
  7006  01DC' 1903               	skipnz
  7007  01DD' 2800'              	goto	u3131
  7008  01DE' 07C1'              	addwf	___flmul@prod+1,f
  7009  01DF'                    u3131:
  7010  01DF' 0836'              	movf	??___flmul+2,w
  7011  01E0' 1103               	clrz
  7012  01E1' 1803               	skipnc
  7013  01E2' 3E01               	addlw	1
  7014  01E3' 1903               	skipnz
  7015  01E4' 2800'              	goto	u3132
  7016  01E5' 07C2'              	addwf	___flmul@prod+2,f
  7017  01E6'                    u3132:
  7018  01E6' 0837'              	movf	??___flmul+3,w
  7019  01E7' 1103               	clrz
  7020  01E8' 1803               	skipnc
  7021  01E9' 3E01               	addlw	1
  7022  01EA' 1903               	skipnz
  7023  01EB' 2800'              	goto	u3133
  7024  01EC' 07C3'              	addwf	___flmul@prod+3,f
  7025  01ED'                    u3133:
  7026  01ED'                    l2810:
  7027  01ED' 082E'              	movf	___flmul@b+2,w
  7028  01EE' 00B4'              	movwf	??___flmul
  7029  01EF' 0834'              	movf	??___flmul,w
  7030  01F0' 0080'              	movwf	__Umul8_16@multiplicand
  7031  01F1' 0831'              	movf	___flmul@a+1,w
  7032  01F2' 120A' 118A' 2000' 120A' 118A' 	fcall	__Umul8_16
  7033  01F7' 0801'              	movf	?__Umul8_16+1,w
  7034  01F8' 1283               	bcf	3,5	;RP0=0, select bank0
  7035  01F9' 1303               	bcf	3,6	;RP1=0, select bank0
  7036  01FA' 00C5'              	movwf	___flmul@temp+1
  7037  01FB' 0800'              	movf	?__Umul8_16,w
  7038  01FC' 00C4'              	movwf	___flmul@temp
  7039  01FD'                    l2812:
  7040  01FD' 0844'              	movf	___flmul@temp,w
  7041  01FE' 00B4'              	movwf	??___flmul
  7042  01FF' 0845'              	movf	___flmul@temp+1,w
  7043  0200' 00B5'              	movwf	??___flmul+1
  7044  0201' 01B6'              	clrf	??___flmul+2
  7045  0202' 01B7'              	clrf	??___flmul+3
  7046  0203' 0834'              	movf	??___flmul,w
  7047  0204' 07C0'              	addwf	___flmul@prod,f
  7048  0205' 0835'              	movf	??___flmul+1,w
  7049  0206' 1103               	clrz
  7050  0207' 1803               	skipnc
  7051  0208' 3E01               	addlw	1
  7052  0209' 1903               	skipnz
  7053  020A' 2800'              	goto	u3141
  7054  020B' 07C1'              	addwf	___flmul@prod+1,f
  7055  020C'                    u3141:
  7056  020C' 0836'              	movf	??___flmul+2,w
  7057  020D' 1103               	clrz
  7058  020E' 1803               	skipnc
  7059  020F' 3E01               	addlw	1
  7060  0210' 1903               	skipnz
  7061  0211' 2800'              	goto	u3142
  7062  0212' 07C2'              	addwf	___flmul@prod+2,f
  7063  0213'                    u3142:
  7064  0213' 0837'              	movf	??___flmul+3,w
  7065  0214' 1103               	clrz
  7066  0215' 1803               	skipnc
  7067  0216' 3E01               	addlw	1
  7068  0217' 1903               	skipnz
  7069  0218' 2800'              	goto	u3143
  7070  0219' 07C3'              	addwf	___flmul@prod+3,f
  7071  021A'                    u3143:
  7072  021A' 082E'              	movf	___flmul@b+2,w
  7073  021B' 00B4'              	movwf	??___flmul
  7074  021C' 0834'              	movf	??___flmul,w
  7075  021D' 0080'              	movwf	__Umul8_16@multiplicand
  7076  021E' 0832'              	movf	___flmul@a+2,w
  7077  021F' 120A' 118A' 2000' 120A' 118A' 	fcall	__Umul8_16
  7078  0224' 0801'              	movf	?__Umul8_16+1,w
  7079  0225' 1283               	bcf	3,5	;RP0=0, select bank0
  7080  0226' 1303               	bcf	3,6	;RP1=0, select bank0
  7081  0227' 00C5'              	movwf	___flmul@temp+1
  7082  0228' 0800'              	movf	?__Umul8_16,w
  7083  0229' 00C4'              	movwf	___flmul@temp
  7084  022A'                    l2814:
  7085  022A' 0844'              	movf	___flmul@temp,w
  7086  022B' 00B4'              	movwf	??___flmul
  7087  022C' 0845'              	movf	___flmul@temp+1,w
  7088  022D' 00B5'              	movwf	??___flmul+1
  7089  022E' 01B6'              	clrf	??___flmul+2
  7090  022F' 01B7'              	clrf	??___flmul+3
  7091  0230' 3008               	movlw	8
  7092  0231'                    u3155:
  7093  0231' 1003               	clrc
  7094  0232' 0DB4'              	rlf	??___flmul,f
  7095  0233' 0DB5'              	rlf	??___flmul+1,f
  7096  0234' 0DB6'              	rlf	??___flmul+2,f
  7097  0235' 0DB7'              	rlf	??___flmul+3,f
  7098  0236'                    u3150:
  7099  0236' 3EFF               	addlw	-1
  7100  0237' 1D03               	skipz
  7101  0238' 2800'              	goto	u3155
  7102  0239' 0834'              	movf	??___flmul,w
  7103  023A' 07C0'              	addwf	___flmul@prod,f
  7104  023B' 0835'              	movf	??___flmul+1,w
  7105  023C' 1103               	clrz
  7106  023D' 1803               	skipnc
  7107  023E' 3E01               	addlw	1
  7108  023F' 1903               	skipnz
  7109  0240' 2800'              	goto	u3161
  7110  0241' 07C1'              	addwf	___flmul@prod+1,f
  7111  0242'                    u3161:
  7112  0242' 0836'              	movf	??___flmul+2,w
  7113  0243' 1103               	clrz
  7114  0244' 1803               	skipnc
  7115  0245' 3E01               	addlw	1
  7116  0246' 1903               	skipnz
  7117  0247' 2800'              	goto	u3162
  7118  0248' 07C2'              	addwf	___flmul@prod+2,f
  7119  0249'                    u3162:
  7120  0249' 0837'              	movf	??___flmul+3,w
  7121  024A' 1103               	clrz
  7122  024B' 1803               	skipnc
  7123  024C' 3E01               	addlw	1
  7124  024D' 1903               	skipnz
  7125  024E' 2800'              	goto	u3163
  7126  024F' 07C3'              	addwf	___flmul@prod+3,f
  7127  0250'                    u3163:
  7128  0250'                    l2816:
  7129  0250' 083A'              	movf	___flmul@grs,w
  7130  0251' 00B4'              	movwf	??___flmul
  7131  0252' 083B'              	movf	___flmul@grs+1,w
  7132  0253' 00B5'              	movwf	??___flmul+1
  7133  0254' 083C'              	movf	___flmul@grs+2,w
  7134  0255' 00B6'              	movwf	??___flmul+2
  7135  0256' 083D'              	movf	___flmul@grs+3,w
  7136  0257' 00B7'              	movwf	??___flmul+3
  7137  0258' 3018               	movlw	24
  7138  0259'                    u3175:
  7139  0259' 1003               	clrc
  7140  025A' 0CB7'              	rrf	??___flmul+3,f
  7141  025B' 0CB6'              	rrf	??___flmul+2,f
  7142  025C' 0CB5'              	rrf	??___flmul+1,f
  7143  025D' 0CB4'              	rrf	??___flmul,f
  7144  025E'                    u3170:
  7145  025E' 3EFF               	addlw	-1
  7146  025F' 1D03               	skipz
  7147  0260' 2800'              	goto	u3175
  7148  0261' 0834'              	movf	??___flmul,w
  7149  0262' 07C0'              	addwf	___flmul@prod,f
  7150  0263' 0835'              	movf	??___flmul+1,w
  7151  0264' 1103               	clrz
  7152  0265' 1803               	skipnc
  7153  0266' 3E01               	addlw	1
  7154  0267' 1903               	skipnz
  7155  0268' 2800'              	goto	u3181
  7156  0269' 07C1'              	addwf	___flmul@prod+1,f
  7157  026A'                    u3181:
  7158  026A' 0836'              	movf	??___flmul+2,w
  7159  026B' 1103               	clrz
  7160  026C' 1803               	skipnc
  7161  026D' 3E01               	addlw	1
  7162  026E' 1903               	skipnz
  7163  026F' 2800'              	goto	u3182
  7164  0270' 07C2'              	addwf	___flmul@prod+2,f
  7165  0271'                    u3182:
  7166  0271' 0837'              	movf	??___flmul+3,w
  7167  0272' 1103               	clrz
  7168  0273' 1803               	skipnc
  7169  0274' 3E01               	addlw	1
  7170  0275' 1903               	skipnz
  7171  0276' 2800'              	goto	u3183
  7172  0277' 07C3'              	addwf	___flmul@prod+3,f
  7173  0278'                    u3183:
  7174  0278'                    l2818:
  7175  0278' 3008               	movlw	8
  7176  0279' 00B4'              	movwf	??___flmul
  7177  027A'                    u3195:
  7178  027A' 1003               	clrc
  7179  027B' 0DBA'              	rlf	___flmul@grs,f
  7180  027C' 0DBB'              	rlf	___flmul@grs+1,f
  7181  027D' 0DBC'              	rlf	___flmul@grs+2,f
  7182  027E' 0DBD'              	rlf	___flmul@grs+3,f
  7183  027F' 0BB4'              	decfsz	??___flmul,f
  7184  0280' 2800'              	goto	u3195
  7185  0281'                    l2820:
  7186  0281' 083F'              	movf	___flmul@bexp,w
  7187  0282' 073E'              	addwf	___flmul@aexp,w
  7188  0283' 00B4'              	movwf	??___flmul
  7189  0284' 01B5'              	clrf	??___flmul+1
  7190  0285' 0DB5'              	rlf	??___flmul+1,f
  7191  0286' 0834'              	movf	??___flmul,w
  7192  0287' 3E82               	addlw	130
  7193  0288' 00C4'              	movwf	___flmul@temp
  7194  0289' 0835'              	movf	??___flmul+1,w
  7195  028A' 1803               	skipnc
  7196  028B' 3E01               	addlw	1
  7197  028C' 3EFF               	addlw	255
  7198  028D' 00C5'              	movwf	___flmul@temp+1
  7199  028E' 2800'              	goto	l2832
  7200  028F'                    l2822:
  7201  028F' 3001               	movlw	1
  7202  0290' 00B4'              	movwf	??___flmul
  7203  0291'                    u3205:
  7204  0291' 1003               	clrc
  7205  0292' 0DC0'              	rlf	___flmul@prod,f
  7206  0293' 0DC1'              	rlf	___flmul@prod+1,f
  7207  0294' 0DC2'              	rlf	___flmul@prod+2,f
  7208  0295' 0DC3'              	rlf	___flmul@prod+3,f
  7209  0296' 0BB4'              	decfsz	??___flmul,f
  7210  0297' 2800'              	goto	u3205
  7211  0298'                    l2824:
  7212  0298' 1FBD'              	btfss	___flmul@grs+3,7
  7213  0299' 2800'              	goto	u3211
  7214  029A' 2800'              	goto	u3210
  7215  029B'                    u3211:
  7216  029B' 2800'              	goto	l2828
  7217  029C'                    u3210:
  7218  029C'                    l2826:
  7219  029C' 1440'              	bsf	___flmul@prod,0
  7220  029D'                    l2828:
  7221  029D' 3001               	movlw	1
  7222  029E' 00B4'              	movwf	??___flmul
  7223  029F'                    u3225:
  7224  029F' 1003               	clrc
  7225  02A0' 0DBA'              	rlf	___flmul@grs,f
  7226  02A1' 0DBB'              	rlf	___flmul@grs+1,f
  7227  02A2' 0DBC'              	rlf	___flmul@grs+2,f
  7228  02A3' 0DBD'              	rlf	___flmul@grs+3,f
  7229  02A4' 0BB4'              	decfsz	??___flmul,f
  7230  02A5' 2800'              	goto	u3225
  7231  02A6'                    l2830:
  7232  02A6' 30FF               	movlw	255
  7233  02A7' 07C4'              	addwf	___flmul@temp,f
  7234  02A8' 1803               	skipnc
  7235  02A9' 0AC5'              	incf	___flmul@temp+1,f
  7236  02AA' 30FF               	movlw	255
  7237  02AB' 07C5'              	addwf	___flmul@temp+1,f
  7238  02AC'                    l2832:
  7239  02AC' 1FC2'              	btfss	___flmul@prod+2,7
  7240  02AD' 2800'              	goto	u3231
  7241  02AE' 2800'              	goto	u3230
  7242  02AF'                    u3231:
  7243  02AF' 2800'              	goto	l2822
  7244  02B0'                    u3230:
  7245  02B0'                    l2834:
  7246  02B0' 01BE'              	clrf	___flmul@aexp
  7247  02B1'                    l2836:
  7248  02B1' 1FBD'              	btfss	___flmul@grs+3,7
  7249  02B2' 2800'              	goto	u3241
  7250  02B3' 2800'              	goto	u3240
  7251  02B4'                    u3241:
  7252  02B4' 2800'              	goto	l2844
  7253  02B5'                    u3240:
  7254  02B5'                    l2838:
  7255  02B5' 30FF               	movlw	255
  7256  02B6' 053A'              	andwf	___flmul@grs,w
  7257  02B7' 00B4'              	movwf	??___flmul
  7258  02B8' 30FF               	movlw	255
  7259  02B9' 053B'              	andwf	___flmul@grs+1,w
  7260  02BA' 00B5'              	movwf	??___flmul+1
  7261  02BB' 30FF               	movlw	255
  7262  02BC' 053C'              	andwf	___flmul@grs+2,w
  7263  02BD' 00B6'              	movwf	??___flmul+2
  7264  02BE' 307F               	movlw	127
  7265  02BF' 053D'              	andwf	___flmul@grs+3,w
  7266  02C0' 00B7'              	movwf	??___flmul+3
  7267  02C1' 0837'              	movf	??___flmul+3,w
  7268  02C2' 0436'              	iorwf	??___flmul+2,w
  7269  02C3' 0435'              	iorwf	??___flmul+1,w
  7270  02C4' 0434'              	iorwf	??___flmul,w
  7271  02C5' 1903               	skipnz
  7272  02C6' 2800'              	goto	u3251
  7273  02C7' 2800'              	goto	u3250
  7274  02C8'                    u3251:
  7275  02C8' 2800'              	goto	l781
  7276  02C9'                    u3250:
  7277  02C9'                    l2840:
  7278  02C9' 01BE'              	clrf	___flmul@aexp
  7279  02CA' 0ABE'              	incf	___flmul@aexp,f
  7280  02CB' 2800'              	goto	l2844
  7281  02CC'                    l781:
  7282  02CC' 1C40'              	btfss	___flmul@prod,0
  7283  02CD' 2800'              	goto	u3261
  7284  02CE' 2800'              	goto	u3260
  7285  02CF'                    u3261:
  7286  02CF' 2800'              	goto	l2844
  7287  02D0'                    u3260:
  7288  02D0' 2800'              	goto	l2840
  7289  02D1'                    l2844:
  7290  02D1' 083E'              	movf	___flmul@aexp,w
  7291  02D2' 1903               	btfsc	3,2
  7292  02D3' 2800'              	goto	u3271
  7293  02D4' 2800'              	goto	u3270
  7294  02D5'                    u3271:
  7295  02D5' 2800'              	goto	l2854
  7296  02D6'                    u3270:
  7297  02D6'                    l2846:
  7298  02D6' 3001               	movlw	1
  7299  02D7' 07C0'              	addwf	___flmul@prod,f
  7300  02D8' 3000               	movlw	0
  7301  02D9' 1803               	skipnc
  7302  02DA' 3001               	movlw	1
  7303  02DB' 07C1'              	addwf	___flmul@prod+1,f
  7304  02DC' 3000               	movlw	0
  7305  02DD' 1803               	skipnc
  7306  02DE' 3001               	movlw	1
  7307  02DF' 07C2'              	addwf	___flmul@prod+2,f
  7308  02E0' 3000               	movlw	0
  7309  02E1' 1803               	skipnc
  7310  02E2' 3001               	movlw	1
  7311  02E3' 07C3'              	addwf	___flmul@prod+3,f
  7312  02E4'                    l2848:
  7313  02E4' 1C43'              	btfss	___flmul@prod+3,0
  7314  02E5' 2800'              	goto	u3281
  7315  02E6' 2800'              	goto	u3280
  7316  02E7'                    u3281:
  7317  02E7' 2800'              	goto	l2854
  7318  02E8'                    u3280:
  7319  02E8'                    l2850:
  7320  02E8' 0840'              	movf	___flmul@prod,w
  7321  02E9' 00B4'              	movwf	??___flmul
  7322  02EA' 0841'              	movf	___flmul@prod+1,w
  7323  02EB' 00B5'              	movwf	??___flmul+1
  7324  02EC' 0842'              	movf	___flmul@prod+2,w
  7325  02ED' 00B6'              	movwf	??___flmul+2
  7326  02EE' 0843'              	movf	___flmul@prod+3,w
  7327  02EF' 00B7'              	movwf	??___flmul+3
  7328  02F0' 3001               	movlw	1
  7329  02F1' 00B8'              	movwf	??___flmul+4
  7330  02F2'                    u3295:
  7331  02F2' 0D37'              	rlf	??___flmul+3,w
  7332  02F3' 0CB7'              	rrf	??___flmul+3,f
  7333  02F4' 0CB6'              	rrf	??___flmul+2,f
  7334  02F5' 0CB5'              	rrf	??___flmul+1,f
  7335  02F6' 0CB4'              	rrf	??___flmul,f
  7336  02F7'                    u3290:
  7337  02F7' 0BB8'              	decfsz	??___flmul+4,f
  7338  02F8' 2800'              	goto	u3295
  7339  02F9' 0837'              	movf	??___flmul+3,w
  7340  02FA' 00C3'              	movwf	___flmul@prod+3
  7341  02FB' 0836'              	movf	??___flmul+2,w
  7342  02FC' 00C2'              	movwf	___flmul@prod+2
  7343  02FD' 0835'              	movf	??___flmul+1,w
  7344  02FE' 00C1'              	movwf	___flmul@prod+1
  7345  02FF' 0834'              	movf	??___flmul,w
  7346  0300' 00C0'              	movwf	___flmul@prod
  7347  0301'                    l2852:
  7348  0301' 3001               	movlw	1
  7349  0302' 07C4'              	addwf	___flmul@temp,f
  7350  0303' 1803               	skipnc
  7351  0304' 0AC5'              	incf	___flmul@temp+1,f
  7352  0305' 3000               	movlw	0
  7353  0306' 07C5'              	addwf	___flmul@temp+1,f
  7354  0307'                    l2854:
  7355  0307' 0845'              	movf	___flmul@temp+1,w
  7356  0308' 3A80               	xorlw	128
  7357  0309' 00FF               	movwf	btemp+1
  7358  030A' 3080               	movlw	128
  7359  030B' 027F               	subwf	btemp+1,w
  7360  030C' 1D03               	skipz
  7361  030D' 2800'              	goto	u3305
  7362  030E' 30FF               	movlw	255
  7363  030F' 0244'              	subwf	___flmul@temp,w
  7364  0310'                    u3305:
  7365  0310' 1C03               	skipc
  7366  0311' 2800'              	goto	u3301
  7367  0312' 2800'              	goto	u3300
  7368  0313'                    u3301:
  7369  0313' 2800'              	goto	l2858
  7370  0314'                    u3300:
  7371  0314'                    l2856:
  7372  0314' 307F               	movlw	127
  7373  0315' 1283               	bcf	3,5	;RP0=0, select bank0
  7374  0316' 1303               	bcf	3,6	;RP1=0, select bank0
  7375  0317' 00C3'              	movwf	___flmul@prod+3
  7376  0318' 3080               	movlw	128
  7377  0319' 00C2'              	movwf	___flmul@prod+2
  7378  031A' 3000               	movlw	0
  7379  031B' 00C1'              	movwf	___flmul@prod+1
  7380  031C' 3000               	movlw	0
  7381  031D' 00C0'              	movwf	___flmul@prod
  7382  031E' 2800'              	goto	l787
  7383  031F'                    l2858:
  7384  031F' 1283               	bcf	3,5	;RP0=0, select bank0
  7385  0320' 1303               	bcf	3,6	;RP1=0, select bank0
  7386  0321' 0845'              	movf	___flmul@temp+1,w
  7387  0322' 3A80               	xorlw	128
  7388  0323' 00FF               	movwf	btemp+1
  7389  0324' 3080               	movlw	128
  7390  0325' 027F               	subwf	btemp+1,w
  7391  0326' 1D03               	skipz
  7392  0327' 2800'              	goto	u3315
  7393  0328' 3001               	movlw	1
  7394  0329' 0244'              	subwf	___flmul@temp,w
  7395  032A'                    u3315:
  7396  032A' 1803               	skipnc
  7397  032B' 2800'              	goto	u3311
  7398  032C' 2800'              	goto	u3310
  7399  032D'                    u3311:
  7400  032D' 2800'              	goto	l2864
  7401  032E'                    u3310:
  7402  032E'                    l2860:
  7403  032E' 3000               	movlw	0
  7404  032F' 1283               	bcf	3,5	;RP0=0, select bank0
  7405  0330' 1303               	bcf	3,6	;RP1=0, select bank0
  7406  0331' 00C3'              	movwf	___flmul@prod+3
  7407  0332' 3000               	movlw	0
  7408  0333' 00C2'              	movwf	___flmul@prod+2
  7409  0334' 3000               	movlw	0
  7410  0335' 00C1'              	movwf	___flmul@prod+1
  7411  0336' 3000               	movlw	0
  7412  0337' 00C0'              	movwf	___flmul@prod
  7413  0338'                    l2862:
  7414  0338' 01B9'              	clrf	___flmul@sign
  7415  0339' 2800'              	goto	l787
  7416  033A'                    l2864:
  7417  033A' 1283               	bcf	3,5	;RP0=0, select bank0
  7418  033B' 1303               	bcf	3,6	;RP1=0, select bank0
  7419  033C' 0844'              	movf	___flmul@temp,w
  7420  033D' 00B4'              	movwf	??___flmul
  7421  033E' 0834'              	movf	??___flmul,w
  7422  033F' 00BF'              	movwf	___flmul@bexp
  7423  0340' 30FF               	movlw	255
  7424  0341' 05C0'              	andwf	___flmul@prod,f
  7425  0342' 30FF               	movlw	255
  7426  0343' 05C1'              	andwf	___flmul@prod+1,f
  7427  0344' 307F               	movlw	127
  7428  0345' 05C2'              	andwf	___flmul@prod+2,f
  7429  0346' 3000               	movlw	0
  7430  0347' 05C3'              	andwf	___flmul@prod+3,f
  7431  0348'                    l2866:
  7432  0348' 1C3F'              	btfss	___flmul@bexp,0
  7433  0349' 2800'              	goto	u3321
  7434  034A' 2800'              	goto	u3320
  7435  034B'                    u3321:
  7436  034B' 2800'              	goto	l2870
  7437  034C'                    u3320:
  7438  034C'                    l2868:
  7439  034C' 17C2'              	bsf	___flmul@prod+2,7
  7440  034D'                    l2870:
  7441  034D' 083F'              	movf	___flmul@bexp,w
  7442  034E' 00B4'              	movwf	??___flmul
  7443  034F' 1003               	clrc
  7444  0350' 0C34'              	rrf	??___flmul,w
  7445  0351' 00B5'              	movwf	??___flmul+1
  7446  0352' 0835'              	movf	??___flmul+1,w
  7447  0353' 00C3'              	movwf	___flmul@prod+3
  7448  0354'                    l787:
  7449  0354' 0839'              	movf	___flmul@sign,w
  7450  0355' 00B4'              	movwf	??___flmul
  7451  0356' 0834'              	movf	??___flmul,w
  7452  0357' 04C3'              	iorwf	___flmul@prod+3,f
  7453  0358'                    l2872:
  7454  0358' 0843'              	movf	___flmul@prod+3,w
  7455  0359' 00AF'              	movwf	?___flmul+3
  7456  035A' 0842'              	movf	___flmul@prod+2,w
  7457  035B' 00AE'              	movwf	?___flmul+2
  7458  035C' 0841'              	movf	___flmul@prod+1,w
  7459  035D' 00AD'              	movwf	?___flmul+1
  7460  035E' 0840'              	movf	___flmul@prod,w
  7461  035F' 00AC'              	movwf	?___flmul
  7462  0360'                    l775:
  7463  0360' 0008               	return
  7464  0361'                    __end_of___flmul:
  7465                           
  7466                           	psect	text23
  7467  0000'                    __ptext23:	
  7468 ;; *************** function __Umul8_16 *****************
  7469 ;; Defined at:
  7470 ;;		line 4 in file "C:\Program Files\Microchip\xc8\v2.31\pic\sources\c90\common\Umul8_16.c"
  7471 ;; Parameters:    Size  Location     Type
  7472 ;;  multiplier      1    wreg     unsigned char 
  7473 ;;  multiplicand    1    0[COMMON] unsigned char 
  7474 ;; Auto vars:     Size  Location     Type
  7475 ;;  multiplier      1    8[COMMON] unsigned char 
  7476 ;;  word_mpld       2    6[COMMON] unsigned int 
  7477 ;;  product         2    4[COMMON] unsigned int 
  7478 ;; Return value:  Size  Location     Type
  7479 ;;                  2    0[COMMON] unsigned int 
  7480 ;; Registers used:
  7481 ;;		wreg, status,2, status,0
  7482 ;; Tracked objects:
  7483 ;;		On entry : 0/0
  7484 ;;		On exit  : 0/0
  7485 ;;		Unchanged: 0/0
  7486 ;; Data sizes:     COMMON   BANK0   BANK1   BANK3   BANK2
  7487 ;;      Params:         2       0       0       0       0
  7488 ;;      Locals:         5       0       0       0       0
  7489 ;;      Temps:          2       0       0       0       0
  7490 ;;      Totals:         9       0       0       0       0
  7491 ;;Total ram usage:        9 bytes
  7492 ;; Hardware stack levels used:    1
  7493 ;; This function calls:
  7494 ;;		Nothing
  7495 ;; This function is called by:
  7496 ;;		___flmul
  7497 ;; This function uses a non-reentrant model
  7498 ;;
  7499                           
  7500                           
  7501                           ;psect for function __Umul8_16
  7502  0000'                    __Umul8_16:
  7503                           
  7504                           ;incstack = 0
  7505                           ; Regs used in __Umul8_16: [wreg+status,2+status,0]
  7506                           ;__Umul8_16@multiplier stored from wreg
  7507  0000' 0088'              	movwf	__Umul8_16@multiplier
  7508  0001'                    l2358:
  7509  0001' 0184'              	clrf	__Umul8_16@product
  7510  0002' 0185'              	clrf	__Umul8_16@product+1
  7511  0003'                    l2360:
  7512  0003' 0800'              	movf	__Umul8_16@multiplicand,w
  7513  0004' 0082'              	movwf	??__Umul8_16
  7514  0005' 0183'              	clrf	??__Umul8_16+1
  7515  0006' 0802'              	movf	??__Umul8_16,w
  7516  0007' 0086'              	movwf	__Umul8_16@word_mpld
  7517  0008' 0803'              	movf	??__Umul8_16+1,w
  7518  0009' 0087'              	movwf	__Umul8_16@word_mpld+1
  7519  000A'                    l2362:
  7520  000A' 1C08'              	btfss	__Umul8_16@multiplier,0
  7521  000B' 2800'              	goto	u2291
  7522  000C' 2800'              	goto	u2290
  7523  000D'                    u2291:
  7524  000D' 2800'              	goto	l794
  7525  000E'                    u2290:
  7526  000E'                    l2364:
  7527  000E' 0806'              	movf	__Umul8_16@word_mpld,w
  7528  000F' 0784'              	addwf	__Umul8_16@product,f
  7529  0010' 1803               	skipnc
  7530  0011' 0A85'              	incf	__Umul8_16@product+1,f
  7531  0012' 0807'              	movf	__Umul8_16@word_mpld+1,w
  7532  0013' 0785'              	addwf	__Umul8_16@product+1,f
  7533  0014'                    l794:
  7534  0014' 3001               	movlw	1
  7535  0015'                    u2305:
  7536  0015' 1003               	clrc
  7537  0016' 0D86'              	rlf	__Umul8_16@word_mpld,f
  7538  0017' 0D87'              	rlf	__Umul8_16@word_mpld+1,f
  7539  0018' 3EFF               	addlw	-1
  7540  0019' 1D03               	skipz
  7541  001A' 2800'              	goto	u2305
  7542  001B' 1003               	clrc
  7543  001C' 0C88'              	rrf	__Umul8_16@multiplier,f
  7544  001D'                    l2366:
  7545  001D' 0808'              	movf	__Umul8_16@multiplier,w
  7546  001E' 1D03               	btfss	3,2
  7547  001F' 2800'              	goto	u2311
  7548  0020' 2800'              	goto	u2310
  7549  0021'                    u2311:
  7550  0021' 2800'              	goto	l2362
  7551  0022'                    u2310:
  7552  0022'                    l2368:
  7553  0022' 0805'              	movf	__Umul8_16@product+1,w
  7554  0023' 0081'              	movwf	?__Umul8_16+1
  7555  0024' 0804'              	movf	__Umul8_16@product,w
  7556  0025' 0080'              	movwf	?__Umul8_16
  7557  0026'                    l796:
  7558  0026' 0008               	return
  7559  0027'                    __end_of__Umul8_16:
  7560                           
  7561                           	psect	text24
  7562  0000'                    __ptext24:	
  7563 ;; *************** function ___flge *****************
  7564 ;; Defined at:
  7565 ;;		line 4 in file "C:\Program Files\Microchip\xc8\v2.31\pic\sources\c90\common\flge.c"
  7566 ;; Parameters:    Size  Location     Type
  7567 ;;  ff1             4    0[COMMON] unsigned int 
  7568 ;;  ff2             4    4[COMMON] unsigned int 
  7569 ;; Auto vars:     Size  Location     Type
  7570 ;;		None
  7571 ;; Return value:  Size  Location     Type
  7572 ;;		None               void
  7573 ;; Registers used:
  7574 ;;		wreg, status,2, status,0
  7575 ;; Tracked objects:
  7576 ;;		On entry : 0/0
  7577 ;;		On exit  : 0/0
  7578 ;;		Unchanged: 0/0
  7579 ;; Data sizes:     COMMON   BANK0   BANK1   BANK3   BANK2
  7580 ;;      Params:         8       0       0       0       0
  7581 ;;      Locals:         0       0       0       0       0
  7582 ;;      Temps:          4       0       0       0       0
  7583 ;;      Totals:        12       0       0       0       0
  7584 ;;Total ram usage:       12 bytes
  7585 ;; Hardware stack levels used:    1
  7586 ;; This function calls:
  7587 ;;		Nothing
  7588 ;; This function is called by:
  7589 ;;		_ADC_convert
  7590 ;; This function uses a non-reentrant model
  7591 ;;
  7592                           
  7593                           
  7594                           ;psect for function ___flge
  7595  0000'                    ___flge:
  7596  0000'                    l2532:	
  7597                           ;incstack = 0
  7598                           ; Regs used in ___flge: [wreg+status,2+status,0]
  7599                           
  7600  0000' 3000               	movlw	0
  7601  0001' 0500'              	andwf	___flge@ff1,w
  7602  0002' 0088'              	movwf	??___flge
  7603  0003' 3000               	movlw	0
  7604  0004' 0501'              	andwf	___flge@ff1+1,w
  7605  0005' 0089'              	movwf	??___flge+1
  7606  0006' 3080               	movlw	128
  7607  0007' 0502'              	andwf	___flge@ff1+2,w
  7608  0008' 008A'              	movwf	??___flge+2
  7609  0009' 307F               	movlw	127
  7610  000A' 0503'              	andwf	___flge@ff1+3,w
  7611  000B' 008B'              	movwf	??___flge+3
  7612  000C' 080B'              	movf	??___flge+3,w
  7613  000D' 040A'              	iorwf	??___flge+2,w
  7614  000E' 0409'              	iorwf	??___flge+1,w
  7615  000F' 0408'              	iorwf	??___flge,w
  7616  0010' 1D03               	skipz
  7617  0011' 2800'              	goto	u2501
  7618  0012' 2800'              	goto	u2500
  7619  0013'                    u2501:
  7620  0013' 2800'              	goto	l560
  7621  0014'                    u2500:
  7622  0014'                    l2534:
  7623  0014' 3000               	movlw	0
  7624  0015' 0083'              	movwf	___flge@ff1+3
  7625  0016' 3000               	movlw	0
  7626  0017' 0082'              	movwf	___flge@ff1+2
  7627  0018' 3000               	movlw	0
  7628  0019' 0081'              	movwf	___flge@ff1+1
  7629  001A' 3000               	movlw	0
  7630  001B' 0080'              	movwf	___flge@ff1
  7631  001C'                    l560:
  7632  001C' 3000               	movlw	0
  7633  001D' 0504'              	andwf	___flge@ff2,w
  7634  001E' 0088'              	movwf	??___flge
  7635  001F' 3000               	movlw	0
  7636  0020' 0505'              	andwf	___flge@ff2+1,w
  7637  0021' 0089'              	movwf	??___flge+1
  7638  0022' 3080               	movlw	128
  7639  0023' 0506'              	andwf	___flge@ff2+2,w
  7640  0024' 008A'              	movwf	??___flge+2
  7641  0025' 307F               	movlw	127
  7642  0026' 0507'              	andwf	___flge@ff2+3,w
  7643  0027' 008B'              	movwf	??___flge+3
  7644  0028' 080B'              	movf	??___flge+3,w
  7645  0029' 040A'              	iorwf	??___flge+2,w
  7646  002A' 0409'              	iorwf	??___flge+1,w
  7647  002B' 0408'              	iorwf	??___flge,w
  7648  002C' 1D03               	skipz
  7649  002D' 2800'              	goto	u2511
  7650  002E' 2800'              	goto	u2510
  7651  002F'                    u2511:
  7652  002F' 2800'              	goto	l2538
  7653  0030'                    u2510:
  7654  0030'                    l2536:
  7655  0030' 3000               	movlw	0
  7656  0031' 0087'              	movwf	___flge@ff2+3
  7657  0032' 3000               	movlw	0
  7658  0033' 0086'              	movwf	___flge@ff2+2
  7659  0034' 3000               	movlw	0
  7660  0035' 0085'              	movwf	___flge@ff2+1
  7661  0036' 3000               	movlw	0
  7662  0037' 0084'              	movwf	___flge@ff2
  7663  0038'                    l2538:
  7664  0038' 1F83'              	btfss	___flge@ff1+3,7
  7665  0039' 2800'              	goto	u2521
  7666  003A' 2800'              	goto	u2520
  7667  003B'                    u2521:
  7668  003B' 2800'              	goto	l2542
  7669  003C'                    u2520:
  7670  003C'                    l2540:
  7671  003C' 3000               	movlw	0
  7672  003D' 0088'              	movwf	??___flge
  7673  003E' 3000               	movlw	0
  7674  003F' 0089'              	movwf	??___flge+1
  7675  0040' 3000               	movlw	0
  7676  0041' 008A'              	movwf	??___flge+2
  7677  0042' 3080               	movlw	128
  7678  0043' 008B'              	movwf	??___flge+3
  7679  0044' 0800'              	movf	___flge@ff1,w
  7680  0045' 0288'              	subwf	??___flge,f
  7681  0046' 0801'              	movf	___flge@ff1+1,w
  7682  0047' 1C03               	skipc
  7683  0048' 0F01'              	incfsz	___flge@ff1+1,w
  7684  0049' 2800'              	goto	u2531
  7685  004A' 2800'              	goto	u2532
  7686  004B'                    u2531:
  7687  004B' 0289'              	subwf	??___flge+1,f
  7688  004C'                    u2532:
  7689  004C' 0802'              	movf	___flge@ff1+2,w
  7690  004D' 1C03               	skipc
  7691  004E' 0F02'              	incfsz	___flge@ff1+2,w
  7692  004F' 2800'              	goto	u2533
  7693  0050' 2800'              	goto	u2534
  7694  0051'                    u2533:
  7695  0051' 028A'              	subwf	??___flge+2,f
  7696  0052'                    u2534:
  7697  0052' 0803'              	movf	___flge@ff1+3,w
  7698  0053' 1C03               	skipc
  7699  0054' 0F03'              	incfsz	___flge@ff1+3,w
  7700  0055' 2800'              	goto	u2535
  7701  0056' 2800'              	goto	u2536
  7702  0057'                    u2535:
  7703  0057' 028B'              	subwf	??___flge+3,f
  7704  0058'                    u2536:
  7705  0058' 080B'              	movf	??___flge+3,w
  7706  0059' 0083'              	movwf	___flge@ff1+3
  7707  005A' 080A'              	movf	??___flge+2,w
  7708  005B' 0082'              	movwf	___flge@ff1+2
  7709  005C' 0809'              	movf	??___flge+1,w
  7710  005D' 0081'              	movwf	___flge@ff1+1
  7711  005E' 0808'              	movf	??___flge,w
  7712  005F' 0080'              	movwf	___flge@ff1
  7713  0060'                    l2542:
  7714  0060' 1F87'              	btfss	___flge@ff2+3,7
  7715  0061' 2800'              	goto	u2541
  7716  0062' 2800'              	goto	u2540
  7717  0063'                    u2541:
  7718  0063' 2800'              	goto	l563
  7719  0064'                    u2540:
  7720  0064'                    l2544:
  7721  0064' 3000               	movlw	0
  7722  0065' 0088'              	movwf	??___flge
  7723  0066' 3000               	movlw	0
  7724  0067' 0089'              	movwf	??___flge+1
  7725  0068' 3000               	movlw	0
  7726  0069' 008A'              	movwf	??___flge+2
  7727  006A' 3080               	movlw	128
  7728  006B' 008B'              	movwf	??___flge+3
  7729  006C' 0804'              	movf	___flge@ff2,w
  7730  006D' 0288'              	subwf	??___flge,f
  7731  006E' 0805'              	movf	___flge@ff2+1,w
  7732  006F' 1C03               	skipc
  7733  0070' 0F05'              	incfsz	___flge@ff2+1,w
  7734  0071' 2800'              	goto	u2551
  7735  0072' 2800'              	goto	u2552
  7736  0073'                    u2551:
  7737  0073' 0289'              	subwf	??___flge+1,f
  7738  0074'                    u2552:
  7739  0074' 0806'              	movf	___flge@ff2+2,w
  7740  0075' 1C03               	skipc
  7741  0076' 0F06'              	incfsz	___flge@ff2+2,w
  7742  0077' 2800'              	goto	u2553
  7743  0078' 2800'              	goto	u2554
  7744  0079'                    u2553:
  7745  0079' 028A'              	subwf	??___flge+2,f
  7746  007A'                    u2554:
  7747  007A' 0807'              	movf	___flge@ff2+3,w
  7748  007B' 1C03               	skipc
  7749  007C' 0F07'              	incfsz	___flge@ff2+3,w
  7750  007D' 2800'              	goto	u2555
  7751  007E' 2800'              	goto	u2556
  7752  007F'                    u2555:
  7753  007F' 028B'              	subwf	??___flge+3,f
  7754  0080'                    u2556:
  7755  0080' 080B'              	movf	??___flge+3,w
  7756  0081' 0087'              	movwf	___flge@ff2+3
  7757  0082' 080A'              	movf	??___flge+2,w
  7758  0083' 0086'              	movwf	___flge@ff2+2
  7759  0084' 0809'              	movf	??___flge+1,w
  7760  0085' 0085'              	movwf	___flge@ff2+1
  7761  0086' 0808'              	movf	??___flge,w
  7762  0087' 0084'              	movwf	___flge@ff2
  7763  0088'                    l563:
  7764  0088' 3080               	movlw	128
  7765  0089' 0683'              	xorwf	___flge@ff1+3,f
  7766  008A' 3080               	movlw	128
  7767  008B' 0687'              	xorwf	___flge@ff2+3,f
  7768  008C' 0807'              	movf	___flge@ff2+3,w
  7769  008D' 0203'              	subwf	___flge@ff1+3,w
  7770  008E' 1D03               	skipz
  7771  008F' 2800'              	goto	u2565
  7772  0090' 0806'              	movf	___flge@ff2+2,w
  7773  0091' 0202'              	subwf	___flge@ff1+2,w
  7774  0092' 1D03               	skipz
  7775  0093' 2800'              	goto	u2565
  7776  0094' 0805'              	movf	___flge@ff2+1,w
  7777  0095' 0201'              	subwf	___flge@ff1+1,w
  7778  0096' 1D03               	skipz
  7779  0097' 2800'              	goto	u2565
  7780  0098' 0804'              	movf	___flge@ff2,w
  7781  0099' 0200'              	subwf	___flge@ff1,w
  7782  009A'                    u2565:
  7783  009A' 1803               	skipnc
  7784  009B' 2800'              	goto	u2561
  7785  009C' 2800'              	goto	u2560
  7786  009D'                    u2561:
  7787  009D' 2800'              	goto	l2548
  7788  009E'                    u2560:
  7789  009E'                    l2546:
  7790  009E' 1003               	clrc
  7791  009F' 2800'              	goto	l564
  7792  00A0'                    l2548:
  7793  00A0' 1403               	setc
  7794  00A1'                    l564:
  7795  00A1' 0008               	return
  7796  00A2'                    __end_of___flge:
  7797                           
  7798                           	psect	text25
  7799  0000'                    __ptext25:	
  7800 ;; *************** function ___fldiv *****************
  7801 ;; Defined at:
  7802 ;;		line 8 in file "C:\Program Files\Microchip\xc8\v2.31\pic\sources\c90\common\sprcdiv.c"
  7803 ;; Parameters:    Size  Location     Type
  7804 ;;  a               4   18[BANK0 ] unsigned int 
  7805 ;;  b               4   22[BANK0 ] unsigned int 
  7806 ;; Auto vars:     Size  Location     Type
  7807 ;;  grs             4   38[BANK0 ] unsigned long 
  7808 ;;  rem             4   31[BANK0 ] unsigned long 
  7809 ;;  new_exp         2   36[BANK0 ] int 
  7810 ;;  aexp            1   43[BANK0 ] unsigned char 
  7811 ;;  bexp            1   42[BANK0 ] unsigned char 
  7812 ;;  sign            1   35[BANK0 ] unsigned char 
  7813 ;; Return value:  Size  Location     Type
  7814 ;;                  4   18[BANK0 ] unsigned char 
  7815 ;; Registers used:
  7816 ;;		wreg, status,2, status,0, btemp+1
  7817 ;; Tracked objects:
  7818 ;;		On entry : 0/0
  7819 ;;		On exit  : 0/0
  7820 ;;		Unchanged: 0/0
  7821 ;; Data sizes:     COMMON   BANK0   BANK1   BANK3   BANK2
  7822 ;;      Params:         0       8       0       0       0
  7823 ;;      Locals:         0      13       0       0       0
  7824 ;;      Temps:          0       5       0       0       0
  7825 ;;      Totals:         0      26       0       0       0
  7826 ;;Total ram usage:       26 bytes
  7827 ;; Hardware stack levels used:    1
  7828 ;; This function calls:
  7829 ;;		Nothing
  7830 ;; This function is called by:
  7831 ;;		_ADC_convert
  7832 ;;		_main
  7833 ;; This function uses a non-reentrant model
  7834 ;;
  7835                           
  7836                           
  7837                           ;psect for function ___fldiv
  7838  0000'                    ___fldiv:
  7839  0000'                    l2594:	
  7840                           ;incstack = 0
  7841                           ; Regs used in ___fldiv: [wreg+status,2+status,0+btemp+1]
  7842                           
  7843  0000' 1283               	bcf	3,5	;RP0=0, select bank0
  7844  0001' 1303               	bcf	3,6	;RP1=0, select bank0
  7845  0002' 0819'              	movf	___fldiv@b+3,w
  7846  0003' 3980               	andlw	128
  7847  0004' 009A'              	movwf	??___fldiv
  7848  0005' 081A'              	movf	??___fldiv,w
  7849  0006' 00A3'              	movwf	___fldiv@sign
  7850  0007'                    l2596:
  7851  0007' 0819'              	movf	___fldiv@b+3,w
  7852  0008' 009A'              	movwf	??___fldiv
  7853  0009' 071A'              	addwf	??___fldiv,w
  7854  000A' 009B'              	movwf	??___fldiv+1
  7855  000B' 081B'              	movf	??___fldiv+1,w
  7856  000C' 00AA'              	movwf	___fldiv@bexp
  7857  000D'                    l2598:
  7858  000D' 1F98'              	btfss	___fldiv@b+2,7
  7859  000E' 2800'              	goto	u2671
  7860  000F' 2800'              	goto	u2670
  7861  0010'                    u2671:
  7862  0010' 2800'              	goto	l2602
  7863  0011'                    u2670:
  7864  0011'                    l2600:
  7865  0011' 142A'              	bsf	___fldiv@bexp,0
  7866  0012'                    l2602:
  7867  0012' 082A'              	movf	___fldiv@bexp,w
  7868  0013' 1903               	btfsc	3,2
  7869  0014' 2800'              	goto	u2681
  7870  0015' 2800'              	goto	u2680
  7871  0016'                    u2681:
  7872  0016' 2800'              	goto	l2612
  7873  0017'                    u2680:
  7874  0017'                    l2604:
  7875  0017' 0A2A'              	incf	___fldiv@bexp,w
  7876  0018' 1D03               	btfss	3,2
  7877  0019' 2800'              	goto	u2691
  7878  001A' 2800'              	goto	u2690
  7879  001B'                    u2691:
  7880  001B' 2800'              	goto	l2608
  7881  001C'                    u2690:
  7882  001C'                    l2606:
  7883  001C' 3000               	movlw	0
  7884  001D' 0099'              	movwf	___fldiv@b+3
  7885  001E' 3000               	movlw	0
  7886  001F' 0098'              	movwf	___fldiv@b+2
  7887  0020' 3000               	movlw	0
  7888  0021' 0097'              	movwf	___fldiv@b+1
  7889  0022' 3000               	movlw	0
  7890  0023' 0096'              	movwf	___fldiv@b
  7891  0024'                    l2608:
  7892  0024' 1798'              	bsf	___fldiv@b+2,7
  7893  0025'                    l2610:
  7894  0025' 0199'              	clrf	___fldiv@b+3
  7895  0026' 2800'              	goto	l2614
  7896  0027'                    l2612:
  7897  0027' 3000               	movlw	0
  7898  0028' 0099'              	movwf	___fldiv@b+3
  7899  0029' 3000               	movlw	0
  7900  002A' 0098'              	movwf	___fldiv@b+2
  7901  002B' 3000               	movlw	0
  7902  002C' 0097'              	movwf	___fldiv@b+1
  7903  002D' 3000               	movlw	0
  7904  002E' 0096'              	movwf	___fldiv@b
  7905  002F'                    l2614:
  7906  002F' 0815'              	movf	___fldiv@a+3,w
  7907  0030' 3980               	andlw	128
  7908  0031' 009A'              	movwf	??___fldiv
  7909  0032' 081A'              	movf	??___fldiv,w
  7910  0033' 06A3'              	xorwf	___fldiv@sign,f
  7911  0034'                    l2616:
  7912  0034' 0815'              	movf	___fldiv@a+3,w
  7913  0035' 009A'              	movwf	??___fldiv
  7914  0036' 071A'              	addwf	??___fldiv,w
  7915  0037' 009B'              	movwf	??___fldiv+1
  7916  0038' 081B'              	movf	??___fldiv+1,w
  7917  0039' 00AB'              	movwf	___fldiv@aexp
  7918  003A'                    l2618:
  7919  003A' 1F94'              	btfss	___fldiv@a+2,7
  7920  003B' 2800'              	goto	u2701
  7921  003C' 2800'              	goto	u2700
  7922  003D'                    u2701:
  7923  003D' 2800'              	goto	l2622
  7924  003E'                    u2700:
  7925  003E'                    l2620:
  7926  003E' 142B'              	bsf	___fldiv@aexp,0
  7927  003F'                    l2622:
  7928  003F' 082B'              	movf	___fldiv@aexp,w
  7929  0040' 1903               	btfsc	3,2
  7930  0041' 2800'              	goto	u2711
  7931  0042' 2800'              	goto	u2710
  7932  0043'                    u2711:
  7933  0043' 2800'              	goto	l2632
  7934  0044'                    u2710:
  7935  0044'                    l2624:
  7936  0044' 0A2B'              	incf	___fldiv@aexp,w
  7937  0045' 1D03               	btfss	3,2
  7938  0046' 2800'              	goto	u2721
  7939  0047' 2800'              	goto	u2720
  7940  0048'                    u2721:
  7941  0048' 2800'              	goto	l2628
  7942  0049'                    u2720:
  7943  0049'                    l2626:
  7944  0049' 3000               	movlw	0
  7945  004A' 0095'              	movwf	___fldiv@a+3
  7946  004B' 3000               	movlw	0
  7947  004C' 0094'              	movwf	___fldiv@a+2
  7948  004D' 3000               	movlw	0
  7949  004E' 0093'              	movwf	___fldiv@a+1
  7950  004F' 3000               	movlw	0
  7951  0050' 0092'              	movwf	___fldiv@a
  7952  0051'                    l2628:
  7953  0051' 1794'              	bsf	___fldiv@a+2,7
  7954  0052'                    l2630:
  7955  0052' 0195'              	clrf	___fldiv@a+3
  7956  0053' 2800'              	goto	l735
  7957  0054'                    l2632:
  7958  0054' 3000               	movlw	0
  7959  0055' 0095'              	movwf	___fldiv@a+3
  7960  0056' 3000               	movlw	0
  7961  0057' 0094'              	movwf	___fldiv@a+2
  7962  0058' 3000               	movlw	0
  7963  0059' 0093'              	movwf	___fldiv@a+1
  7964  005A' 3000               	movlw	0
  7965  005B' 0092'              	movwf	___fldiv@a
  7966  005C'                    l735:
  7967  005C' 0815'              	movf	___fldiv@a+3,w
  7968  005D' 0414'              	iorwf	___fldiv@a+2,w
  7969  005E' 0413'              	iorwf	___fldiv@a+1,w
  7970  005F' 0412'              	iorwf	___fldiv@a,w
  7971  0060' 1D03               	skipz
  7972  0061' 2800'              	goto	u2731
  7973  0062' 2800'              	goto	u2730
  7974  0063'                    u2731:
  7975  0063' 2800'              	goto	l2642
  7976  0064'                    u2730:
  7977  0064'                    l2634:
  7978  0064' 3000               	movlw	0
  7979  0065' 0099'              	movwf	___fldiv@b+3
  7980  0066' 3000               	movlw	0
  7981  0067' 0098'              	movwf	___fldiv@b+2
  7982  0068' 3000               	movlw	0
  7983  0069' 0097'              	movwf	___fldiv@b+1
  7984  006A' 3000               	movlw	0
  7985  006B' 0096'              	movwf	___fldiv@b
  7986  006C' 3080               	movlw	128
  7987  006D' 0498'              	iorwf	___fldiv@b+2,f
  7988  006E' 307F               	movlw	127
  7989  006F' 0499'              	iorwf	___fldiv@b+3,f
  7990  0070'                    l2636:
  7991  0070' 0823'              	movf	___fldiv@sign,w
  7992  0071' 009A'              	movwf	??___fldiv
  7993  0072' 081A'              	movf	??___fldiv,w
  7994  0073' 0499'              	iorwf	___fldiv@b+3,f
  7995  0074'                    l2638:
  7996  0074' 0819'              	movf	___fldiv@b+3,w
  7997  0075' 0095'              	movwf	?___fldiv+3
  7998  0076' 0818'              	movf	___fldiv@b+2,w
  7999  0077' 0094'              	movwf	?___fldiv+2
  8000  0078' 0817'              	movf	___fldiv@b+1,w
  8001  0079' 0093'              	movwf	?___fldiv+1
  8002  007A' 0816'              	movf	___fldiv@b,w
  8003  007B' 0092'              	movwf	?___fldiv
  8004  007C' 2800'              	goto	l737
  8005  007D'                    l2642:
  8006  007D' 082A'              	movf	___fldiv@bexp,w
  8007  007E' 1D03               	btfss	3,2
  8008  007F' 2800'              	goto	u2741
  8009  0080' 2800'              	goto	u2740
  8010  0081'                    u2741:
  8011  0081' 2800'              	goto	l2648
  8012  0082'                    u2740:
  8013  0082'                    l2644:
  8014  0082' 3000               	movlw	0
  8015  0083' 0095'              	movwf	?___fldiv+3
  8016  0084' 3000               	movlw	0
  8017  0085' 0094'              	movwf	?___fldiv+2
  8018  0086' 3000               	movlw	0
  8019  0087' 0093'              	movwf	?___fldiv+1
  8020  0088' 3000               	movlw	0
  8021  0089' 0092'              	movwf	?___fldiv
  8022  008A' 2800'              	goto	l737
  8023  008B'                    l2648:
  8024  008B' 082A'              	movf	___fldiv@bexp,w
  8025  008C' 009A'              	movwf	??___fldiv
  8026  008D' 019B'              	clrf	??___fldiv+1
  8027  008E' 081B'              	movf	??___fldiv+1,w
  8028  008F' 009D'              	movwf	??___fldiv+3
  8029  0090' 082B'              	movf	___fldiv@aexp,w
  8030  0091' 021A'              	subwf	??___fldiv,w
  8031  0092' 009C'              	movwf	??___fldiv+2
  8032  0093' 1C03               	skipc
  8033  0094' 039D'              	decf	??___fldiv+3,f
  8034  0095' 081C'              	movf	??___fldiv+2,w
  8035  0096' 3E7F               	addlw	127
  8036  0097' 00A4'              	movwf	___fldiv@new_exp
  8037  0098' 081D'              	movf	??___fldiv+3,w
  8038  0099' 1803               	skipnc
  8039  009A' 3E01               	addlw	1
  8040  009B' 3E00               	addlw	0
  8041  009C' 00A5'              	movwf	___fldiv@new_exp+1
  8042  009D'                    l2650:
  8043  009D' 0819'              	movf	___fldiv@b+3,w
  8044  009E' 00A2'              	movwf	___fldiv@rem+3
  8045  009F' 0818'              	movf	___fldiv@b+2,w
  8046  00A0' 00A1'              	movwf	___fldiv@rem+2
  8047  00A1' 0817'              	movf	___fldiv@b+1,w
  8048  00A2' 00A0'              	movwf	___fldiv@rem+1
  8049  00A3' 0816'              	movf	___fldiv@b,w
  8050  00A4' 009F'              	movwf	___fldiv@rem
  8051  00A5'                    l2652:
  8052  00A5' 3000               	movlw	0
  8053  00A6' 0099'              	movwf	___fldiv@b+3
  8054  00A7' 3000               	movlw	0
  8055  00A8' 0098'              	movwf	___fldiv@b+2
  8056  00A9' 3000               	movlw	0
  8057  00AA' 0097'              	movwf	___fldiv@b+1
  8058  00AB' 3000               	movlw	0
  8059  00AC' 0096'              	movwf	___fldiv@b
  8060  00AD'                    l2654:
  8061  00AD' 3000               	movlw	0
  8062  00AE' 00A9'              	movwf	___fldiv@grs+3
  8063  00AF' 3000               	movlw	0
  8064  00B0' 00A8'              	movwf	___fldiv@grs+2
  8065  00B1' 3000               	movlw	0
  8066  00B2' 00A7'              	movwf	___fldiv@grs+1
  8067  00B3' 3000               	movlw	0
  8068  00B4' 00A6'              	movwf	___fldiv@grs
  8069  00B5'                    l2656:
  8070  00B5' 01AB'              	clrf	___fldiv@aexp
  8071  00B6' 2800'              	goto	l2676
  8072  00B7'                    l2658:
  8073  00B7' 082B'              	movf	___fldiv@aexp,w
  8074  00B8' 1903               	btfsc	3,2
  8075  00B9' 2800'              	goto	u2751
  8076  00BA' 2800'              	goto	u2750
  8077  00BB'                    u2751:
  8078  00BB' 2800'              	goto	l2668
  8079  00BC'                    u2750:
  8080  00BC'                    l2660:
  8081  00BC' 3001               	movlw	1
  8082  00BD' 009A'              	movwf	??___fldiv
  8083  00BE'                    u2765:
  8084  00BE' 1003               	clrc
  8085  00BF' 0D9F'              	rlf	___fldiv@rem,f
  8086  00C0' 0DA0'              	rlf	___fldiv@rem+1,f
  8087  00C1' 0DA1'              	rlf	___fldiv@rem+2,f
  8088  00C2' 0DA2'              	rlf	___fldiv@rem+3,f
  8089  00C3' 0B9A'              	decfsz	??___fldiv,f
  8090  00C4' 2800'              	goto	u2765
  8091  00C5' 3001               	movlw	1
  8092  00C6' 009A'              	movwf	??___fldiv
  8093  00C7'                    u2775:
  8094  00C7' 1003               	clrc
  8095  00C8' 0D96'              	rlf	___fldiv@b,f
  8096  00C9' 0D97'              	rlf	___fldiv@b+1,f
  8097  00CA' 0D98'              	rlf	___fldiv@b+2,f
  8098  00CB' 0D99'              	rlf	___fldiv@b+3,f
  8099  00CC' 0B9A'              	decfsz	??___fldiv,f
  8100  00CD' 2800'              	goto	u2775
  8101  00CE'                    l2662:
  8102  00CE' 1FA9'              	btfss	___fldiv@grs+3,7
  8103  00CF' 2800'              	goto	u2781
  8104  00D0' 2800'              	goto	u2780
  8105  00D1'                    u2781:
  8106  00D1' 2800'              	goto	l2666
  8107  00D2'                    u2780:
  8108  00D2'                    l2664:
  8109  00D2' 1416'              	bsf	___fldiv@b,0
  8110  00D3'                    l2666:
  8111  00D3' 3001               	movlw	1
  8112  00D4' 009A'              	movwf	??___fldiv
  8113  00D5'                    u2795:
  8114  00D5' 1003               	clrc
  8115  00D6' 0DA6'              	rlf	___fldiv@grs,f
  8116  00D7' 0DA7'              	rlf	___fldiv@grs+1,f
  8117  00D8' 0DA8'              	rlf	___fldiv@grs+2,f
  8118  00D9' 0DA9'              	rlf	___fldiv@grs+3,f
  8119  00DA' 0B9A'              	decfsz	??___fldiv,f
  8120  00DB' 2800'              	goto	u2795
  8121  00DC'                    l2668:
  8122  00DC' 0815'              	movf	___fldiv@a+3,w
  8123  00DD' 0222'              	subwf	___fldiv@rem+3,w
  8124  00DE' 1D03               	skipz
  8125  00DF' 2800'              	goto	u2805
  8126  00E0' 0814'              	movf	___fldiv@a+2,w
  8127  00E1' 0221'              	subwf	___fldiv@rem+2,w
  8128  00E2' 1D03               	skipz
  8129  00E3' 2800'              	goto	u2805
  8130  00E4' 0813'              	movf	___fldiv@a+1,w
  8131  00E5' 0220'              	subwf	___fldiv@rem+1,w
  8132  00E6' 1D03               	skipz
  8133  00E7' 2800'              	goto	u2805
  8134  00E8' 0812'              	movf	___fldiv@a,w
  8135  00E9' 021F'              	subwf	___fldiv@rem,w
  8136  00EA'                    u2805:
  8137  00EA' 1C03               	skipc
  8138  00EB' 2800'              	goto	u2801
  8139  00EC' 2800'              	goto	u2800
  8140  00ED'                    u2801:
  8141  00ED' 2800'              	goto	l2674
  8142  00EE'                    u2800:
  8143  00EE'                    l2670:
  8144  00EE' 1729'              	bsf	___fldiv@grs+3,6
  8145  00EF'                    l2672:
  8146  00EF' 0812'              	movf	___fldiv@a,w
  8147  00F0' 029F'              	subwf	___fldiv@rem,f
  8148  00F1' 0813'              	movf	___fldiv@a+1,w
  8149  00F2' 1C03               	skipc
  8150  00F3' 0F13'              	incfsz	___fldiv@a+1,w
  8151  00F4' 02A0'              	subwf	___fldiv@rem+1,f
  8152  00F5' 0814'              	movf	___fldiv@a+2,w
  8153  00F6' 1C03               	skipc
  8154  00F7' 0F14'              	incfsz	___fldiv@a+2,w
  8155  00F8' 02A1'              	subwf	___fldiv@rem+2,f
  8156  00F9' 0815'              	movf	___fldiv@a+3,w
  8157  00FA' 1C03               	skipc
  8158  00FB' 0F15'              	incfsz	___fldiv@a+3,w
  8159  00FC' 02A2'              	subwf	___fldiv@rem+3,f
  8160  00FD'                    l2674:
  8161  00FD' 3001               	movlw	1
  8162  00FE' 009A'              	movwf	??___fldiv
  8163  00FF' 081A'              	movf	??___fldiv,w
  8164  0100' 07AB'              	addwf	___fldiv@aexp,f
  8165  0101'                    l2676:
  8166  0101' 301A               	movlw	26
  8167  0102' 022B'              	subwf	___fldiv@aexp,w
  8168  0103' 1C03               	skipc
  8169  0104' 2800'              	goto	u2811
  8170  0105' 2800'              	goto	u2810
  8171  0106'                    u2811:
  8172  0106' 2800'              	goto	l2658
  8173  0107'                    u2810:
  8174  0107'                    l2678:
  8175  0107' 0822'              	movf	___fldiv@rem+3,w
  8176  0108' 0421'              	iorwf	___fldiv@rem+2,w
  8177  0109' 0420'              	iorwf	___fldiv@rem+1,w
  8178  010A' 041F'              	iorwf	___fldiv@rem,w
  8179  010B' 1903               	skipnz
  8180  010C' 2800'              	goto	u2821
  8181  010D' 2800'              	goto	u2820
  8182  010E'                    u2821:
  8183  010E' 2800'              	goto	l2692
  8184  010F'                    u2820:
  8185  010F'                    l2680:
  8186  010F' 1426'              	bsf	___fldiv@grs,0
  8187  0110' 2800'              	goto	l2692
  8188  0111'                    l2682:
  8189  0111' 3001               	movlw	1
  8190  0112' 009A'              	movwf	??___fldiv
  8191  0113'                    u2835:
  8192  0113' 1003               	clrc
  8193  0114' 0D96'              	rlf	___fldiv@b,f
  8194  0115' 0D97'              	rlf	___fldiv@b+1,f
  8195  0116' 0D98'              	rlf	___fldiv@b+2,f
  8196  0117' 0D99'              	rlf	___fldiv@b+3,f
  8197  0118' 0B9A'              	decfsz	??___fldiv,f
  8198  0119' 2800'              	goto	u2835
  8199  011A'                    l2684:
  8200  011A' 1FA9'              	btfss	___fldiv@grs+3,7
  8201  011B' 2800'              	goto	u2841
  8202  011C' 2800'              	goto	u2840
  8203  011D'                    u2841:
  8204  011D' 2800'              	goto	l2688
  8205  011E'                    u2840:
  8206  011E'                    l2686:
  8207  011E' 1416'              	bsf	___fldiv@b,0
  8208  011F'                    l2688:
  8209  011F' 3001               	movlw	1
  8210  0120' 009A'              	movwf	??___fldiv
  8211  0121'                    u2855:
  8212  0121' 1003               	clrc
  8213  0122' 0DA6'              	rlf	___fldiv@grs,f
  8214  0123' 0DA7'              	rlf	___fldiv@grs+1,f
  8215  0124' 0DA8'              	rlf	___fldiv@grs+2,f
  8216  0125' 0DA9'              	rlf	___fldiv@grs+3,f
  8217  0126' 0B9A'              	decfsz	??___fldiv,f
  8218  0127' 2800'              	goto	u2855
  8219  0128'                    l2690:
  8220  0128' 30FF               	movlw	255
  8221  0129' 07A4'              	addwf	___fldiv@new_exp,f
  8222  012A' 1803               	skipnc
  8223  012B' 0AA5'              	incf	___fldiv@new_exp+1,f
  8224  012C' 30FF               	movlw	255
  8225  012D' 07A5'              	addwf	___fldiv@new_exp+1,f
  8226  012E'                    l2692:
  8227  012E' 1F98'              	btfss	___fldiv@b+2,7
  8228  012F' 2800'              	goto	u2861
  8229  0130' 2800'              	goto	u2860
  8230  0131'                    u2861:
  8231  0131' 2800'              	goto	l2682
  8232  0132'                    u2860:
  8233  0132'                    l2694:
  8234  0132' 01AB'              	clrf	___fldiv@aexp
  8235  0133'                    l2696:
  8236  0133' 1FA9'              	btfss	___fldiv@grs+3,7
  8237  0134' 2800'              	goto	u2871
  8238  0135' 2800'              	goto	u2870
  8239  0136'                    u2871:
  8240  0136' 2800'              	goto	l2704
  8241  0137'                    u2870:
  8242  0137'                    l2698:
  8243  0137' 30FF               	movlw	255
  8244  0138' 0526'              	andwf	___fldiv@grs,w
  8245  0139' 009A'              	movwf	??___fldiv
  8246  013A' 30FF               	movlw	255
  8247  013B' 0527'              	andwf	___fldiv@grs+1,w
  8248  013C' 009B'              	movwf	??___fldiv+1
  8249  013D' 30FF               	movlw	255
  8250  013E' 0528'              	andwf	___fldiv@grs+2,w
  8251  013F' 009C'              	movwf	??___fldiv+2
  8252  0140' 307F               	movlw	127
  8253  0141' 0529'              	andwf	___fldiv@grs+3,w
  8254  0142' 009D'              	movwf	??___fldiv+3
  8255  0143' 081D'              	movf	??___fldiv+3,w
  8256  0144' 041C'              	iorwf	??___fldiv+2,w
  8257  0145' 041B'              	iorwf	??___fldiv+1,w
  8258  0146' 041A'              	iorwf	??___fldiv,w
  8259  0147' 1903               	skipnz
  8260  0148' 2800'              	goto	u2881
  8261  0149' 2800'              	goto	u2880
  8262  014A'                    u2881:
  8263  014A' 2800'              	goto	l751
  8264  014B'                    u2880:
  8265  014B'                    l2700:
  8266  014B' 01AB'              	clrf	___fldiv@aexp
  8267  014C' 0AAB'              	incf	___fldiv@aexp,f
  8268  014D' 2800'              	goto	l2704
  8269  014E'                    l751:
  8270  014E' 1C16'              	btfss	___fldiv@b,0
  8271  014F' 2800'              	goto	u2891
  8272  0150' 2800'              	goto	u2890
  8273  0151'                    u2891:
  8274  0151' 2800'              	goto	l2704
  8275  0152'                    u2890:
  8276  0152' 2800'              	goto	l2700
  8277  0153'                    l2704:
  8278  0153' 082B'              	movf	___fldiv@aexp,w
  8279  0154' 1903               	btfsc	3,2
  8280  0155' 2800'              	goto	u2901
  8281  0156' 2800'              	goto	u2900
  8282  0157'                    u2901:
  8283  0157' 2800'              	goto	l2714
  8284  0158'                    u2900:
  8285  0158'                    l2706:
  8286  0158' 3001               	movlw	1
  8287  0159' 0796'              	addwf	___fldiv@b,f
  8288  015A' 3000               	movlw	0
  8289  015B' 1803               	skipnc
  8290  015C' 3001               	movlw	1
  8291  015D' 0797'              	addwf	___fldiv@b+1,f
  8292  015E' 3000               	movlw	0
  8293  015F' 1803               	skipnc
  8294  0160' 3001               	movlw	1
  8295  0161' 0798'              	addwf	___fldiv@b+2,f
  8296  0162' 3000               	movlw	0
  8297  0163' 1803               	skipnc
  8298  0164' 3001               	movlw	1
  8299  0165' 0799'              	addwf	___fldiv@b+3,f
  8300  0166'                    l2708:
  8301  0166' 1C19'              	btfss	___fldiv@b+3,0
  8302  0167' 2800'              	goto	u2911
  8303  0168' 2800'              	goto	u2910
  8304  0169'                    u2911:
  8305  0169' 2800'              	goto	l2714
  8306  016A'                    u2910:
  8307  016A'                    l2710:
  8308  016A' 0816'              	movf	___fldiv@b,w
  8309  016B' 009A'              	movwf	??___fldiv
  8310  016C' 0817'              	movf	___fldiv@b+1,w
  8311  016D' 009B'              	movwf	??___fldiv+1
  8312  016E' 0818'              	movf	___fldiv@b+2,w
  8313  016F' 009C'              	movwf	??___fldiv+2
  8314  0170' 0819'              	movf	___fldiv@b+3,w
  8315  0171' 009D'              	movwf	??___fldiv+3
  8316  0172' 3001               	movlw	1
  8317  0173' 009E'              	movwf	??___fldiv+4
  8318  0174'                    u2925:
  8319  0174' 0D1D'              	rlf	??___fldiv+3,w
  8320  0175' 0C9D'              	rrf	??___fldiv+3,f
  8321  0176' 0C9C'              	rrf	??___fldiv+2,f
  8322  0177' 0C9B'              	rrf	??___fldiv+1,f
  8323  0178' 0C9A'              	rrf	??___fldiv,f
  8324  0179'                    u2920:
  8325  0179' 0B9E'              	decfsz	??___fldiv+4,f
  8326  017A' 2800'              	goto	u2925
  8327  017B' 081D'              	movf	??___fldiv+3,w
  8328  017C' 0099'              	movwf	___fldiv@b+3
  8329  017D' 081C'              	movf	??___fldiv+2,w
  8330  017E' 0098'              	movwf	___fldiv@b+2
  8331  017F' 081B'              	movf	??___fldiv+1,w
  8332  0180' 0097'              	movwf	___fldiv@b+1
  8333  0181' 081A'              	movf	??___fldiv,w
  8334  0182' 0096'              	movwf	___fldiv@b
  8335  0183'                    l2712:
  8336  0183' 3001               	movlw	1
  8337  0184' 07A4'              	addwf	___fldiv@new_exp,f
  8338  0185' 1803               	skipnc
  8339  0186' 0AA5'              	incf	___fldiv@new_exp+1,f
  8340  0187' 3000               	movlw	0
  8341  0188' 07A5'              	addwf	___fldiv@new_exp+1,f
  8342  0189'                    l2714:
  8343  0189' 0825'              	movf	___fldiv@new_exp+1,w
  8344  018A' 3A80               	xorlw	128
  8345  018B' 00FF               	movwf	btemp+1
  8346  018C' 3080               	movlw	128
  8347  018D' 027F               	subwf	btemp+1,w
  8348  018E' 1D03               	skipz
  8349  018F' 2800'              	goto	u2935
  8350  0190' 30FF               	movlw	255
  8351  0191' 0224'              	subwf	___fldiv@new_exp,w
  8352  0192'                    u2935:
  8353  0192' 1C03               	skipc
  8354  0193' 2800'              	goto	u2931
  8355  0194' 2800'              	goto	u2930
  8356  0195'                    u2931:
  8357  0195' 2800'              	goto	l2718
  8358  0196'                    u2930:
  8359  0196'                    l2716:
  8360  0196' 30FF               	movlw	255
  8361  0197' 1283               	bcf	3,5	;RP0=0, select bank0
  8362  0198' 1303               	bcf	3,6	;RP1=0, select bank0
  8363  0199' 00A4'              	movwf	___fldiv@new_exp
  8364  019A' 3000               	movlw	0
  8365  019B' 00A5'              	movwf	___fldiv@new_exp+1
  8366  019C' 3000               	movlw	0
  8367  019D' 0099'              	movwf	___fldiv@b+3
  8368  019E' 3000               	movlw	0
  8369  019F' 0098'              	movwf	___fldiv@b+2
  8370  01A0' 3000               	movlw	0
  8371  01A1' 0097'              	movwf	___fldiv@b+1
  8372  01A2' 3000               	movlw	0
  8373  01A3' 0096'              	movwf	___fldiv@b
  8374  01A4'                    l2718:
  8375  01A4' 1283               	bcf	3,5	;RP0=0, select bank0
  8376  01A5' 1303               	bcf	3,6	;RP1=0, select bank0
  8377  01A6' 0825'              	movf	___fldiv@new_exp+1,w
  8378  01A7' 3A80               	xorlw	128
  8379  01A8' 00FF               	movwf	btemp+1
  8380  01A9' 3080               	movlw	128
  8381  01AA' 027F               	subwf	btemp+1,w
  8382  01AB' 1D03               	skipz
  8383  01AC' 2800'              	goto	u2945
  8384  01AD' 3001               	movlw	1
  8385  01AE' 0224'              	subwf	___fldiv@new_exp,w
  8386  01AF'                    u2945:
  8387  01AF' 1803               	skipnc
  8388  01B0' 2800'              	goto	u2941
  8389  01B1' 2800'              	goto	u2940
  8390  01B2'                    u2941:
  8391  01B2' 2800'              	goto	l757
  8392  01B3'                    u2940:
  8393  01B3'                    l2720:
  8394  01B3' 1283               	bcf	3,5	;RP0=0, select bank0
  8395  01B4' 1303               	bcf	3,6	;RP1=0, select bank0
  8396  01B5' 01A4'              	clrf	___fldiv@new_exp
  8397  01B6' 01A5'              	clrf	___fldiv@new_exp+1
  8398  01B7'                    l2722:
  8399  01B7' 3000               	movlw	0
  8400  01B8' 0099'              	movwf	___fldiv@b+3
  8401  01B9' 3000               	movlw	0
  8402  01BA' 0098'              	movwf	___fldiv@b+2
  8403  01BB' 3000               	movlw	0
  8404  01BC' 0097'              	movwf	___fldiv@b+1
  8405  01BD' 3000               	movlw	0
  8406  01BE' 0096'              	movwf	___fldiv@b
  8407  01BF'                    l2724:
  8408  01BF' 01A3'              	clrf	___fldiv@sign
  8409  01C0'                    l757:
  8410  01C0' 1283               	bcf	3,5	;RP0=0, select bank0
  8411  01C1' 1303               	bcf	3,6	;RP1=0, select bank0
  8412  01C2' 0824'              	movf	___fldiv@new_exp,w
  8413  01C3' 009A'              	movwf	??___fldiv
  8414  01C4' 081A'              	movf	??___fldiv,w
  8415  01C5' 00AA'              	movwf	___fldiv@bexp
  8416  01C6'                    l2726:
  8417  01C6' 1C2A'              	btfss	___fldiv@bexp,0
  8418  01C7' 2800'              	goto	u2951
  8419  01C8' 2800'              	goto	u2950
  8420  01C9'                    u2951:
  8421  01C9' 2800'              	goto	l2730
  8422  01CA'                    u2950:
  8423  01CA'                    l2728:
  8424  01CA' 1798'              	bsf	___fldiv@b+2,7
  8425  01CB' 2800'              	goto	l759
  8426  01CC'                    l2730:
  8427  01CC' 307F               	movlw	127
  8428  01CD' 009A'              	movwf	??___fldiv
  8429  01CE' 081A'              	movf	??___fldiv,w
  8430  01CF' 0598'              	andwf	___fldiv@b+2,f
  8431  01D0'                    l759:
  8432  01D0' 082A'              	movf	___fldiv@bexp,w
  8433  01D1' 009A'              	movwf	??___fldiv
  8434  01D2' 1003               	clrc
  8435  01D3' 0C1A'              	rrf	??___fldiv,w
  8436  01D4' 009B'              	movwf	??___fldiv+1
  8437  01D5' 081B'              	movf	??___fldiv+1,w
  8438  01D6' 0099'              	movwf	___fldiv@b+3
  8439  01D7' 0823'              	movf	___fldiv@sign,w
  8440  01D8' 009A'              	movwf	??___fldiv
  8441  01D9' 081A'              	movf	??___fldiv,w
  8442  01DA' 0499'              	iorwf	___fldiv@b+3,f
  8443  01DB' 2800'              	goto	l2638
  8444  01DC'                    l737:
  8445  01DC' 0008               	return
  8446  01DD'                    __end_of___fldiv:
  8447                           
  8448                           	psect	text26
  8449  0000'                    __ptext26:	
  8450 ;; *************** function ___awdiv *****************
  8451 ;; Defined at:
  8452 ;;		line 5 in file "C:\Program Files\Microchip\xc8\v2.31\pic\sources\c90\common\awdiv.c"
  8453 ;; Parameters:    Size  Location     Type
  8454 ;;  divisor         2    0[COMMON] int 
  8455 ;;  dividend        2    2[COMMON] int 
  8456 ;; Auto vars:     Size  Location     Type
  8457 ;;  quotient        2    7[COMMON] int 
  8458 ;;  sign            1    6[COMMON] unsigned char 
  8459 ;;  counter         1    5[COMMON] unsigned char 
  8460 ;; Return value:  Size  Location     Type
  8461 ;;                  2    0[COMMON] int 
  8462 ;; Registers used:
  8463 ;;		wreg, status,2, status,0
  8464 ;; Tracked objects:
  8465 ;;		On entry : 0/0
  8466 ;;		On exit  : 0/0
  8467 ;;		Unchanged: 0/0
  8468 ;; Data sizes:     COMMON   BANK0   BANK1   BANK3   BANK2
  8469 ;;      Params:         4       0       0       0       0
  8470 ;;      Locals:         4       0       0       0       0
  8471 ;;      Temps:          1       0       0       0       0
  8472 ;;      Totals:         9       0       0       0       0
  8473 ;;Total ram usage:        9 bytes
  8474 ;; Hardware stack levels used:    1
  8475 ;; This function calls:
  8476 ;;		Nothing
  8477 ;; This function is called by:
  8478 ;;		_ADC_convert
  8479 ;; This function uses a non-reentrant model
  8480 ;;
  8481                           
  8482                           
  8483                           ;psect for function ___awdiv
  8484  0000'                    ___awdiv:
  8485  0000'                    l2488:	
  8486                           ;incstack = 0
  8487                           ; Regs used in ___awdiv: [wreg+status,2+status,0]
  8488                           
  8489  0000' 0186'              	clrf	___awdiv@sign
  8490  0001'                    l2490:
  8491  0001' 1F81'              	btfss	___awdiv@divisor+1,7
  8492  0002' 2800'              	goto	u2401
  8493  0003' 2800'              	goto	u2400
  8494  0004'                    u2401:
  8495  0004' 2800'              	goto	l2496
  8496  0005'                    u2400:
  8497  0005'                    l2492:
  8498  0005' 0980'              	comf	___awdiv@divisor,f
  8499  0006' 0981'              	comf	___awdiv@divisor+1,f
  8500  0007' 0A80'              	incf	___awdiv@divisor,f
  8501  0008' 1903               	skipnz
  8502  0009' 0A81'              	incf	___awdiv@divisor+1,f
  8503  000A'                    l2494:
  8504  000A' 0186'              	clrf	___awdiv@sign
  8505  000B' 0A86'              	incf	___awdiv@sign,f
  8506  000C'                    l2496:
  8507  000C' 1F83'              	btfss	___awdiv@dividend+1,7
  8508  000D' 2800'              	goto	u2411
  8509  000E' 2800'              	goto	u2410
  8510  000F'                    u2411:
  8511  000F' 2800'              	goto	l2502
  8512  0010'                    u2410:
  8513  0010'                    l2498:
  8514  0010' 0982'              	comf	___awdiv@dividend,f
  8515  0011' 0983'              	comf	___awdiv@dividend+1,f
  8516  0012' 0A82'              	incf	___awdiv@dividend,f
  8517  0013' 1903               	skipnz
  8518  0014' 0A83'              	incf	___awdiv@dividend+1,f
  8519  0015'                    l2500:
  8520  0015' 3001               	movlw	1
  8521  0016' 0084'              	movwf	??___awdiv
  8522  0017' 0804'              	movf	??___awdiv,w
  8523  0018' 0686'              	xorwf	___awdiv@sign,f
  8524  0019'                    l2502:
  8525  0019' 0187'              	clrf	___awdiv@quotient
  8526  001A' 0188'              	clrf	___awdiv@quotient+1
  8527  001B'                    l2504:
  8528  001B' 0800'              	movf	___awdiv@divisor,w
  8529  001C' 0401'              	iorwf	___awdiv@divisor+1,w
  8530  001D' 1903               	btfsc	3,2
  8531  001E' 2800'              	goto	u2421
  8532  001F' 2800'              	goto	u2420
  8533  0020'                    u2421:
  8534  0020' 2800'              	goto	l2524
  8535  0021'                    u2420:
  8536  0021'                    l2506:
  8537  0021' 0185'              	clrf	___awdiv@counter
  8538  0022' 0A85'              	incf	___awdiv@counter,f
  8539  0023' 2800'              	goto	l2512
  8540  0024'                    l2508:
  8541  0024' 3001               	movlw	1
  8542  0025'                    u2435:
  8543  0025' 1003               	clrc
  8544  0026' 0D80'              	rlf	___awdiv@divisor,f
  8545  0027' 0D81'              	rlf	___awdiv@divisor+1,f
  8546  0028' 3EFF               	addlw	-1
  8547  0029' 1D03               	skipz
  8548  002A' 2800'              	goto	u2435
  8549  002B'                    l2510:
  8550  002B' 3001               	movlw	1
  8551  002C' 0084'              	movwf	??___awdiv
  8552  002D' 0804'              	movf	??___awdiv,w
  8553  002E' 0785'              	addwf	___awdiv@counter,f
  8554  002F'                    l2512:
  8555  002F' 1F81'              	btfss	___awdiv@divisor+1,7
  8556  0030' 2800'              	goto	u2441
  8557  0031' 2800'              	goto	u2440
  8558  0032'                    u2441:
  8559  0032' 2800'              	goto	l2508
  8560  0033'                    u2440:
  8561  0033'                    l2514:
  8562  0033' 3001               	movlw	1
  8563  0034'                    u2455:
  8564  0034' 1003               	clrc
  8565  0035' 0D87'              	rlf	___awdiv@quotient,f
  8566  0036' 0D88'              	rlf	___awdiv@quotient+1,f
  8567  0037' 3EFF               	addlw	-1
  8568  0038' 1D03               	skipz
  8569  0039' 2800'              	goto	u2455
  8570  003A' 0801'              	movf	___awdiv@divisor+1,w
  8571  003B' 0203'              	subwf	___awdiv@dividend+1,w
  8572  003C' 1D03               	skipz
  8573  003D' 2800'              	goto	u2465
  8574  003E' 0800'              	movf	___awdiv@divisor,w
  8575  003F' 0202'              	subwf	___awdiv@dividend,w
  8576  0040'                    u2465:
  8577  0040' 1C03               	skipc
  8578  0041' 2800'              	goto	u2461
  8579  0042' 2800'              	goto	u2460
  8580  0043'                    u2461:
  8581  0043' 2800'              	goto	l2520
  8582  0044'                    u2460:
  8583  0044'                    l2516:
  8584  0044' 0800'              	movf	___awdiv@divisor,w
  8585  0045' 0282'              	subwf	___awdiv@dividend,f
  8586  0046' 0801'              	movf	___awdiv@divisor+1,w
  8587  0047' 1C03               	skipc
  8588  0048' 0383'              	decf	___awdiv@dividend+1,f
  8589  0049' 0283'              	subwf	___awdiv@dividend+1,f
  8590  004A'                    l2518:
  8591  004A' 1407'              	bsf	___awdiv@quotient,0
  8592  004B'                    l2520:
  8593  004B' 3001               	movlw	1
  8594  004C'                    u2475:
  8595  004C' 1003               	clrc
  8596  004D' 0C81'              	rrf	___awdiv@divisor+1,f
  8597  004E' 0C80'              	rrf	___awdiv@divisor,f
  8598  004F' 3EFF               	addlw	-1
  8599  0050' 1D03               	skipz
  8600  0051' 2800'              	goto	u2475
  8601  0052'                    l2522:
  8602  0052' 3001               	movlw	1
  8603  0053' 0285'              	subwf	___awdiv@counter,f
  8604  0054' 1D03               	btfss	3,2
  8605  0055' 2800'              	goto	u2481
  8606  0056' 2800'              	goto	u2480
  8607  0057'                    u2481:
  8608  0057' 2800'              	goto	l2514
  8609  0058'                    u2480:
  8610  0058'                    l2524:
  8611  0058' 0806'              	movf	___awdiv@sign,w
  8612  0059' 1903               	btfsc	3,2
  8613  005A' 2800'              	goto	u2491
  8614  005B' 2800'              	goto	u2490
  8615  005C'                    u2491:
  8616  005C' 2800'              	goto	l2528
  8617  005D'                    u2490:
  8618  005D'                    l2526:
  8619  005D' 0987'              	comf	___awdiv@quotient,f
  8620  005E' 0988'              	comf	___awdiv@quotient+1,f
  8621  005F' 0A87'              	incf	___awdiv@quotient,f
  8622  0060' 1903               	skipnz
  8623  0061' 0A88'              	incf	___awdiv@quotient+1,f
  8624  0062'                    l2528:
  8625  0062' 0808'              	movf	___awdiv@quotient+1,w
  8626  0063' 0081'              	movwf	?___awdiv+1
  8627  0064' 0807'              	movf	___awdiv@quotient,w
  8628  0065' 0080'              	movwf	?___awdiv
  8629  0066'                    l539:
  8630  0066' 0008               	return
  8631  0067'                    __end_of___awdiv:
  8632  007E                     btemp	set	126	;btemp
  8633  007E                     wtemp0	set	126
  8634                           
  8635                           	psect	config
  8636                           
  8637                           ;Config register CONFIG1 @ 0x2007
  8638                           ;	Oscillator Selection bits
  8639                           ;	FOSC = INTRC_NOCLKOUT, INTOSCIO oscillator: I/O function on RA6/OSC2/CLKOUT pin, I/O f
      +                          unction on RA7/OSC1/CLKIN
  8640                           ;	Watchdog Timer Enable bit
  8641                           ;	WDTE = OFF, WDT disabled and can be enabled by SWDTEN bit of the WDTCON register
  8642                           ;	Power-up Timer Enable bit
  8643                           ;	PWRTE = ON, PWRT enabled
  8644                           ;	RE3/MCLR pin function select bit
  8645                           ;	MCLRE = OFF, RE3/MCLR pin function is digital input, MCLR internally tied to VDD
  8646                           ;	Code Protection bit
  8647                           ;	CP = OFF, Program memory code protection is disabled
  8648                           ;	Data Code Protection bit
  8649                           ;	CPD = OFF, Data memory code protection is disabled
  8650                           ;	Brown Out Reset Selection bits
  8651                           ;	BOREN = OFF, BOR disabled
  8652                           ;	Internal External Switchover bit
  8653                           ;	IESO = OFF, Internal/External Switchover mode is disabled
  8654                           ;	Fail-Safe Clock Monitor Enabled bit
  8655                           ;	FCMEN = OFF, Fail-Safe Clock Monitor is disabled
  8656                           ;	Low Voltage Programming Enable bit
  8657                           ;	LVP = ON, RB3/PGM pin has PGM function, low voltage programming enabled
  8658                           ;	In-Circuit Debugger Mode bit
  8659                           ;	DEBUG = 0x1, unprogrammed default
  8660  2007                     	org	8199
  8661  2007  30C4               	dw	12484
  8662                           
  8663                           ;Config register CONFIG2 @ 0x2008
  8664                           ;	Brown-out Reset Selection bit
  8665                           ;	BOR4V = BOR40V, Brown-out Reset set to 4.0V
  8666                           ;	Flash Program Memory Self Write Enable bits
  8667                           ;	WRT = OFF, Write protection off
  8668  2008                     	org	8200
  8669  2008  3FFF               	dw	16383

Data Sizes:
    Strings     44
    Constant    0
    Data        16
    BSS         46
    Persistent  0
    Stack       0

Auto Spaces:
    Space          Size  Autos    Used
    COMMON           14     13      14
    BANK0            80     78      80
    BANK1            80     19      78
    BANK3            96      0       0
    BANK2            96      0       0

Pointer List with Targets:

    printf@f	PTR const unsigned char  size(2) Largest target is 15
		 -> STR_7(CODE[15]), STR_6(CODE[15]), adc1(BANK1[10]), adc0(BANK1[10]), 

    printf@ap	PTR void [1] size(1) Largest target is 2
		 -> ?_printf(COMMON[2]), 

    Lcd_Write_String@a	PTR unsigned char  size(2) Largest target is 10
		 -> STR_5(CODE[2]), adc1(BANK1[10]), STR_4(CODE[2]), adc0(BANK1[10]), 
		 -> STR_3(CODE[4]), STR_2(CODE[4]), STR_1(CODE[4]), 

    ADC_convert@data	PTR unsigned char  size(1) Largest target is 10
		 -> adc1(BANK1[10]), adc0(BANK1[10]), 


Critical Paths under _main in COMMON

    _setup->_conf_ADC
    _mensaje->_printf
    _printf->_putch
    _Lcd_Write_String->_Lcd_Write_Char
    _Lcd_Write_Char->_Lcd_Port
    _Lcd_Set_Cursor->_Lcd_Cmd
    _Lcd_Init->_Lcd_Cmd
    _Lcd_Clear->_Lcd_Cmd
    _Lcd_Cmd->_Lcd_Port
    _ADC_convert->___wmul
    ___xxtofl->___wmul
    ___wmul->___fltol
    ___flsub->___wmul

Critical Paths under _main in BANK0

    _main->_ADC_convert
    _ADC_convert->___flmul
    ___xxtofl->___wmul
    ___flsub->___xxtofl
    ___flmul->___fldiv
    ___fldiv->___xxtofl

Critical Paths under _main in BANK1

    _main->_ADC_convert

Critical Paths under _main in BANK3

    None.

Critical Paths under _main in BANK2

    None.

Call Graph Tables:

 ---------------------------------------------------------------------------------
 (Depth) Function   	        Calls       Base Space   Used Autos Params    Refs
 ---------------------------------------------------------------------------------
 (0) _main                                                 4     4      0   19829
                                             15 BANK1      4     4      0
                        _ADC_convert
                          _Lcd_Clear
                           _Lcd_Init
                     _Lcd_Set_Cursor
                   _Lcd_Write_String
                          _Select_ch
                            ___fldiv
                            ___flmul
                           ___xxtofl
                          _canal_ADC
                            _mensaje
                              _setup
 ---------------------------------------------------------------------------------
 (1) _setup                                                1     1      0     338
                                              6 COMMON     1     1      0
                           _conf_ADC
                           _conf_osc
 ---------------------------------------------------------------------------------
 (2) _conf_osc                                             3     3      0      22
                                              0 COMMON     3     3      0
 ---------------------------------------------------------------------------------
 (2) _conf_ADC                                             6     3      3     316
                                              0 COMMON     6     3      3
 ---------------------------------------------------------------------------------
 (1) _mensaje                                              2     2      0     440
                                             10 COMMON     2     2      0
                           ___delay_
                             _printf
 ---------------------------------------------------------------------------------
 (2) _printf                                              20    18      2     440
                                              1 COMMON     9     7      2
                              _putch
 ---------------------------------------------------------------------------------
 (3) _putch                                                1     1      0      22
                                              0 COMMON     1     1      0
 ---------------------------------------------------------------------------------
 (2) ___delay_                                             2     0      2       0
 ---------------------------------------------------------------------------------
 (1) _canal_ADC                                            3     3      0      22
                                              0 COMMON     3     3      0
 ---------------------------------------------------------------------------------
 (1) _Select_ch                                            3     3      0      22
                                              0 COMMON     3     3      0
 ---------------------------------------------------------------------------------
 (1) _Lcd_Write_String                                     7     5      2     666
                                              3 COMMON     7     5      2
                     _Lcd_Write_Char
 ---------------------------------------------------------------------------------
 (2) _Lcd_Write_Char                                       2     2      0      44
                                              1 COMMON     2     2      0
                           _Lcd_Port
 ---------------------------------------------------------------------------------
 (1) _Lcd_Set_Cursor                                       4     3      1     710
                                              4 COMMON     4     3      1
                            _Lcd_Cmd
 ---------------------------------------------------------------------------------
 (1) _Lcd_Init                                             2     2      0      66
                                              4 COMMON     2     2      0
                            _Lcd_Cmd
                           _Lcd_Port
 ---------------------------------------------------------------------------------
 (1) _Lcd_Clear                                            0     0      0      44
                            _Lcd_Cmd
 ---------------------------------------------------------------------------------
 (2) _Lcd_Cmd                                              3     3      0      44
                                              1 COMMON     3     3      0
                           _Lcd_Port
 ---------------------------------------------------------------------------------
 (3) _Lcd_Port                                             1     1      0      22
                                              0 COMMON     1     1      0
 ---------------------------------------------------------------------------------
 (1) _ADC_convert                                         23    17      6   11989
                                             70 BANK0      8     2      6
                                              0 BANK1     15    15      0
                            ___awdiv
                            ___fldiv
                             ___flge
                            ___flmul
                            ___flsub
                            ___fltol
                             ___wmul
                           ___xxtofl
 ---------------------------------------------------------------------------------
 (1) ___xxtofl                                            14    10      4     930
                                              4 BANK0     14    10      4
                            ___fltol (ARG)
                             ___wmul (ARG)
 ---------------------------------------------------------------------------------
 (2) ___wmul                                               6     2      4     852
                                             11 COMMON     2     2      0
                                              0 BANK0      4     0      4
                            ___fltol (ARG)
 ---------------------------------------------------------------------------------
 (2) ___fltol                                             11     7      4     761
                                              0 COMMON    11     7      4
 ---------------------------------------------------------------------------------
 (2) ___flsub                                              8     0      8    2637
                                             18 BANK0      8     0      8
                            ___fladd
                            ___fltol (ARG)
                             ___wmul (ARG)
                           ___xxtofl (ARG)
 ---------------------------------------------------------------------------------
 (3) ___fladd                                             20    12      8    2136
                                              0 COMMON    12     4      8
                                              0 BANK0      8     8      0
 ---------------------------------------------------------------------------------
 (1) ___flmul                                             26    18      8    2873
                                             44 BANK0     26    18      8
                          __Umul8_16
                            ___fldiv (ARG)
                            ___flsub (ARG)
                            ___fltol (ARG)
                           ___xxtofl (ARG)
 ---------------------------------------------------------------------------------
 (2) __Umul8_16                                            9     7      2     799
                                              0 COMMON     9     7      2
 ---------------------------------------------------------------------------------
 (2) ___flge                                              12     4      8     334
                                              0 COMMON    12     4      8
 ---------------------------------------------------------------------------------
 (1) ___fldiv                                             26    18      8    1729
                                             18 BANK0     26    18      8
                           ___xxtofl (ARG)
 ---------------------------------------------------------------------------------
 (2) ___awdiv                                              9     5      4     452
                                              0 COMMON     9     5      4
 ---------------------------------------------------------------------------------
 Estimated maximum stack depth 3
 ---------------------------------------------------------------------------------

 Call Graph Graphs:

 _main (ROOT)
   _ADC_convert
     ___awdiv
     ___fldiv
       ___xxtofl (ARG)
         ___fltol (ARG)
         ___wmul (ARG)
           ___fltol (ARG)
     ___flge
     ___flmul
       __Umul8_16
       ___fldiv (ARG)
         ___xxtofl (ARG)
           ___fltol (ARG)
           ___wmul (ARG)
             ___fltol (ARG)
       ___flsub (ARG)
         ___fladd
         ___fltol (ARG)
         ___wmul (ARG)
           ___fltol (ARG)
         ___xxtofl (ARG)
           ___fltol (ARG)
           ___wmul (ARG)
             ___fltol (ARG)
       ___fltol (ARG)
       ___xxtofl (ARG)
         ___fltol (ARG)
         ___wmul (ARG)
           ___fltol (ARG)
     ___flsub
       ___fladd
       ___fltol (ARG)
       ___wmul (ARG)
         ___fltol (ARG)
       ___xxtofl (ARG)
         ___fltol (ARG)
         ___wmul (ARG)
           ___fltol (ARG)
     ___fltol
     ___wmul
       ___fltol (ARG)
     ___xxtofl
       ___fltol (ARG)
       ___wmul (ARG)
         ___fltol (ARG)
   _Lcd_Clear
     _Lcd_Cmd
       _Lcd_Port
   _Lcd_Init
     _Lcd_Cmd
       _Lcd_Port
     _Lcd_Port
   _Lcd_Set_Cursor
     _Lcd_Cmd
       _Lcd_Port
   _Lcd_Write_String
     _Lcd_Write_Char
       _Lcd_Port
   _Select_ch
   ___fldiv
     ___xxtofl (ARG)
       ___fltol (ARG)
       ___wmul (ARG)
         ___fltol (ARG)
   ___flmul
     __Umul8_16
     ___fldiv (ARG)
       ___xxtofl (ARG)
         ___fltol (ARG)
         ___wmul (ARG)
           ___fltol (ARG)
     ___flsub (ARG)
       ___fladd
       ___fltol (ARG)
       ___wmul (ARG)
         ___fltol (ARG)
       ___xxtofl (ARG)
         ___fltol (ARG)
         ___wmul (ARG)
           ___fltol (ARG)
     ___fltol (ARG)
     ___xxtofl (ARG)
       ___fltol (ARG)
       ___wmul (ARG)
         ___fltol (ARG)
   ___xxtofl
     ___fltol (ARG)
     ___wmul (ARG)
       ___fltol (ARG)
   _canal_ADC
   _mensaje
     ___delay_
     _printf
       _putch
   _setup
     _conf_ADC
     _conf_osc

 Address spaces:
Name               Size   Autos  Total    Cost      Usage
BANK3               60      0       0       9        0.0%
BITBANK3            60      0       0       8        0.0%
SFR3                 0      0       0       4        0.0%
BITSFR3              0      0       0       4        0.0%
BANK2               60      0       0      11        0.0%
BITBANK2            60      0       0      10        0.0%
SFR2                 0      0       0       5        0.0%
BITSFR2              0      0       0       5        0.0%
BANK1               50     13      4E       7       97.5%
BITBANK1            50      0       0       6        0.0%
SFR1                 0      0       0       2        0.0%
BITSFR1              0      0       0       2        0.0%
BANK0               50     4E      50       5      100.0%
BITBANK0            50      0       0       4        0.0%
SFR0                 0      0       0       1        0.0%
BITSFR0              0      0       0       1        0.0%
COMMON               E      D       E       1      100.0%
BITCOMMON            E      0       0       0        0.0%
CODE                 0      0       0       0        0.0%
DATA                 0      0      AC      12        0.0%
ABS                  0      0      AC       3        0.0%
NULL                 0      0       0       0        0.0%
STACK                0      0       0       2        0.0%
EEDATA             100      0       0       0        0.0%


Microchip Technology PIC Macro Assembler V2.31 build 20201012212115 
Symbol Table                                                                                   Mon Jul 26 20:37:30 2021

             ___fldiv@aexp 002B               ___fldiv@bexp 002A                          pc 0002  
             ___fldiv@sign 0023            conf_ADC@adcFrec 0005                         l33 0054  
                       l25 0053                         l61 0046                         l62 004B  
                       l63 0050                         l55 0034                         l64 0068  
                       l90 03F3                         l59 0041                         l94 0002  
                       l96 0006                         l97 000A                         l98 000E  
                       l99 0012               ___awdiv@sign 0006                         fsr 0004  
      ___wmul@multiplicand 0002        __Umul8_16@word_mpld 0006                        l100 0016  
                      l101 001A                        l102 001E                        l103 0022  
                      l104 0026                        l105 002A                        l130 00AF  
                      l106 002E                        l107 0032                        l108 0036  
                      l109 006E                        l242 0009                        l227 0021  
                      l260 000C                        l236 0045                        l245 0040  
                      l254 0005                        l239 0001                        l272 0015  
                      l257 0019                        l266 0023                        l700 01DD  
                      l269 0044                        l710 0225                        l278 0041  
                      l382 0051                        l560 001C                        l704 0203  
                      l721 0289                        l713 0265                        l722 0297  
                      l386 000E                        l539 0066                        l563 0088  
                      l564 00A1                        l572 0079                        l388 0026  
                      l725 0023                        l821 00BB                        l582 0079  
                      l751 014E                        l735 005C                        l832 0085  
                      l737 01DC                        l833 0091                        l825 0069  
                      l683 010C                        l579 0064                        l819 0024  
                      l692 0297                        l757 01C0                        l781 02CC  
                      l685 00E1                        l759 01D0                        l775 0360  
                      l679 0063                        l794 0014                        l787 0354  
                      l796 0026                        fsr0 0004                        indf 0000  
             ___flmul@aexp 003E               ___flmul@bexp 003F               ___flmul@sign 0039  
             ___flmul@temp 0044               ___flmul@prod 0040               ___fltol@exp1 000A  
             conf_osc@frec 0002                       l2200 0050                       l3000 02CD  
                     l2210 006D                       l2202 0058                       l3010 03AB  
                     l3002 02D2                       l2300 01EA                       l2220 0081  
                     l2212 0071                       l2204 0059                       l3020 03E3  
                     l3012 03CB                       l3004 02F3                       l3100 0018  
                     l2310 0207                       l2230 0095                       l2222 0085  
                     l2214 0075                       l2206 005B                       l3014 03D3  
                     l3006 02F9                       l3022 0001                       l3110 0030  
                     l3102 0024                       l2312 020A                       l2304 01F3  
                     l2320 0217                       l2240 00A9                       l2232 0099  
                     l2224 0089                       l2216 0079                       l2208 0069  
                     l3016 03D9                       l3008 030F                       l3040 0015  
                     l3032 0001                       l2400 0005                       l3120 0039  
                     l3112 0033                       l3104 0027                       l3200 0067  
                     l2330 022A                       l2322 0218                       l2314 020C  
                     l2306 01FE                       l2250 00F0                       l2234 009D  
                     l2226 008D                       l2218 007D                       l2242 00AD  
                     l2170 0011                       l3018 03DD                       l2162 0001  
                     l3130 0000                       l3050 0036                       l3042 001C  
                     l3034 0002                       l3026 003A                       l2402 0008  
                     l2410 0015                       l3122 003A                       l3114 0034  
                     l3106 0028                       l3210 0089                       l3202 006C  
                     l2500 0015                       l2340 026A                       l2332 022F  
                     l2324 021C                       l2316 0211                       l2308 0202  
                     l2252 00F2                       l2260 0106                       l2244 00AE  
                     l2236 00A1                       l2228 0091                       l2180 0025  
                     l2172 0012                       l2164 0000                       l3140 0000  
                     l3132 0006                       l3060 0059                       l3052 003D  
                     l3044 0021                       l3036 0007                       l2156 0001  
                     l2404 000D                       l2412 002B                       l3124 003B  
                     l3116 0035                       l3108 002B                       l3220 00A5  
                     l3212 008F                       l3204 0072                       l2510 002B  
                     l2502 0019                       l2350 0281                       l2342 026F  
                     l2334 023D                       l2326 0222                       l2318 0213  
                     l2270 0135                       l2262 0110                       l2254 00F6  
                     l2246 00C5                       l2238 00A5                       l2190 003B  
                     l2174 0017                       l2182 0027                       l2166 0007  
                     l3134 000F                       l3150 0018                       l3142 0001  
                     l3062 0060                       l3054 0044                       l3046 0028  
                     l3038 000E                       l3070 00A8                       l2158 0007  
                     l2422 0055                       l2414 0030                       l2406 0012  
                     l3126 003C                       l3118 0038                       l3230 00DB  
                     l3222 00B1                       l3214 0093                       l3206 0078  
                     l2520 004B                       l2512 002F                       l2504 001B  
                     l2600 0011                       l2360 0003                       l2352 0283  
                     l2344 0277                       l2336 0241                       l2280 014E  
                     l2272 0139                       l2264 0115                       l2256 00F7  
                     l2248 00E5                       l2192 0041                       l2184 002F  
                     l2176 001C                       l2168 000D                       l3136 001E  
                     l3152 001D                       l3144 0006                       l3160 0025  
                     l3072 00AC                       l3064 0067                       l3056 004B  
                     l3048 002F                       l2440 0013                       l2432 0000  
                     l2416 0037                       l3128 003F                       l3080 0004  
                     l3240 0181                       l3232 00E4                       l3224 00BA  
                     l3208 0081                       l3216 0094                       l2522 0052  
                     l2514 0033                       l2506 0021                       l2610 0025  
                     l2602 0012                       l2362 000A                       l2354 0292  
                     l2346 027C                       l2338 0261                       l2290 01B5  
                     l2282 014F                       l2274 013D                       l2258 0102  
                     l2194 0045                       l2186 0034                       l2178 0024  
                     l3138 0024                       l3146 000B                       l3154 0000  
                     l3058 0052                       l2434 0005                       l3170 0023  
                     l3162 0000                       l2418 003C                       l3090 000C  
                     l3082 0008                       l3242 01EC                       l3234 00EE  
                     l3226 00C6                       l3218 009C                       l2516 0044  
                     l2508 0024                       l2524 0058                       l2700 014B  
                     l2620 003E                       l2604 0017                       l2612 0027  
                     l2540 003C                       l2532 0000                       l2364 000E  
                     l2356 0296                       l2348 027D                       l2292 01BB  
                     l2284 015A                       l2276 0148                       l2268 011E  
                     l2196 0046                       l2188 003A                       l2460 000D  
                     l3148 0012                       l3156 0003                       l3068 006E  
                     l2444 001A                       l2436 000B                       l3172 002B  
                     l3164 0009                       l2380 0013                       l2372 0001  
                     l3092 000F                       l3084 0009                       l3236 00F6  
                     l3228 00CF                       l3180 0005                       l2526 005D  
                     l2518 004A                       l2710 016A                       l2630 0052  
                     l2622 003F                       l2614 002F                       l2606 001C  
                     l2542 0060                       l2534 0014                       l2366 001D  
                     l2358 0001                       l2294 01C0                       l2278 014A  
                     l2286 015F                       l2198 004B                       l2462 0016  
                     l2454 0001                       l2470 000D                       l3158 001F  
                     l2438 0012                       l2446 0037                       l3174 0034  
                     l3166 0012                       l2382 001A                       l2374 0002  
                     l3094 0010                       l3086 000A                       l3078 0000  
                     l3238 0161                       l3190 0032                       l3182 000A  
                     l2528 0062                       l2720 01B3                       l2712 0183  
                     l2704 0153                       l2624 0044                       l2632 0054  
                     l2616 0034                       l2608 0024                       l2544 0064  
                     l2536 0030                       l2368 0022                       l2800 015D  
                     l2288 0175                       l2296 01CF                       l2560 0029  
                     l2552 0000                       l2480 0015                       l2456 0004  
                     l2472 0012                       l2464 0001                       l3176 003C  
                     l3168 001A                       l2384 0021                       l2376 0007  
                     l2392 0034                       l3096 0011                       l3088 000B  
                     l3192 0047                       l3184 0010                       l2490 0001  
                     l2730 01CC                       l2722 01B7                       l2706 0158  
                     l2714 0189                       l2650 009D                       l2634 0064  
                     l2642 007D                       l2626 0049                       l2618 003A  
                     l2546 009E                       l2538 0038                       l2810 01ED  
                     l2802 016D                       l2298 01E5                       l2562 002A  
                     l2554 000B                       l2482 001C                       l2474 0000  
                     l2458 000A                       l2466 0004                       l2386 0028  
                     l2378 000E                       l3098 0012                       l3194 0053  
                     l3186 0016                       l3178 0000                       l2492 0005  
                     l2724 01BF                       l2716 0196                       l2708 0166  
                     l2660 00BC                       l2652 00A5                       l2644 0082  
                     l2636 0070                       l2628 0051                       l2548 00A0  
                     l2820 0281                       l2812 01FD                       l2804 018A  
                     l2740 000D                       l2564 0032                       l2484 0022  
                     l2476 0002                       l2900 0070                       l2468 000A  
                     l3380 001D                       l2388 002D                       l3196 005C  
                     l3188 0029                       l2494 000A                       l2726 01C6  
                     l2718 01A4                       l2670 00EE                       l2662 00CE  
                     l2654 00AD                       l2638 0074                       l2830 02A6  
                     l2822 028F                       l2814 022A                       l2806 01A3  
                     l2750 0024                       l2742 0011                       l2590 0004  
                     l2582 0059                       l2574 0040                       l2566 0034  
                     l2558 0014                       l2478 0008                       l2910 00A9  
                     l2902 007B                       l3382 005D                       l2398 0001  
                     l3198 0061                       l2496 000C                       l2488 0000  
                     l2728 01CA                       l2680 010F                       l2672 00EF  
                     l2664 00D2                       l2656 00B5                       l2648 008B  
                     l2840 02C9                       l2824 0298                       l2832 02AC  
                     l2816 0250                       l2808 01C0                       l2760 003D  
                     l2752 0026                       l2744 0012                       l2736 0000  
                     l2584 0069                       l2568 0038                       l2576 0052  
                     l2912 00AE                       l2904 007F                       l2920 0003  
                     l3384 0032                       l2498 0010                       l2690 0128  
                     l2682 0111                       l2674 00FD                       l2666 00D3  
                     l2658 00B7                       l2594 0000                       l2850 02E8  
                     l2834 02B0                       l2826 029C                       l2818 0278  
                     l2770 0052                       l2762 003E                       l2754 002E  
                     l2746 0017                       l2738 0007                       l2586 006E  
                     l2914 00B2                       l2906 0089                       l2930 0020  
                     l2922 0018                       l3386 0042                       l3378 003C  
                     l2684 011A                       l2692 012E                       l2668 00DC  
                     l2676 0101                       l2596 0007                       l2860 032E  
                     l2852 0301                       l2844 02D1                       l2836 02B1  
                     l2828 029D                       l2780 006D                       l2772 005A  
                     l2764 0043                       l2756 0033                       l2748 001C  
                     l2588 0000                       l2916 00B3                       l2908 0093  
                     l2940 0070                       l2932 0020                       l2924 0018  
                     l3388 0076                       l2694 0132                       l2686 011E  
                     l2678 0107                       l2598 000D                       l2870 034D  
                     l2862 0338                       l2846 02D6                       l2854 0307  
                     l2838 02B5                       l2790 00EF                       l2782 007D  
                     l2774 005F                       l2766 0048                       l2758 0039  
                     l2950 009D                       l2942 0083                       l2934 003B  
                     l2926 001A                       l2696 0133                       l2688 011F  
                     l2872 0358                       l2864 033A                       l2856 0314  
                     l2848 02E4                       l2792 010B                       l2784 008A  
                     l2776 0064                       l2768 0050                       l2880 000C  
                     l2960 017B                       l2952 00A2                       l2936 005C  
                     l2944 0089                       l2928 001C                       l2698 0137  
                     l2866 0348                       l2858 031F                       l2794 0127  
                     l2786 00A7                       l2890 003A                       l2882 001C  
                     l2970 01B3                       l2962 019B                       l2954 00C3  
                     l2946 0092                       l2938 0067                       l2868 034C  
                     l2796 0130                       l2788 00C3                       l2892 0047  
                     l2884 002C                       l2876 0003                       l2980 01F1  
                     l2972 01C3                       l2964 01A3                       l2956 00C9  
                     l2948 0098                       l2798 0140                       l2894 004E  
                     l2878 0008                       l2990 02AF                       l2982 01F7  
                     l2974 01CB                       l2966 01A9                       l2958 00DF  
                     l2896 0052                       l2888 0035                       l2992 02AF  
                     l2984 020F                       l2976 01CB                       l2968 01AD  
                     l2898 0060                       l2994 02B5                       l2986 028C  
                     l2978 01D0                       l2996 02C2                       l2988 02A2  
                     l2998 02C8                       STR_1 002E                       STR_2 0032  
                     STR_3 0036                       STR_4 003A                       STR_5 003A  
                     STR_6 0010                       STR_7 001F                       u2000 0115  
                     u2001 0114                       u2011 0127                       u2100 01E5  
                     u2020 0139                       u2012 012E                       u2101 01E4  
                     u2021 0138                       u2013 0135                       u2110 01EA  
                     u2030 013D                       u2111 01E9                       u2031 013C  
                     u3000 0043                       u2200 022F                       u2040 014E  
                     u3001 0042                       u2201 022E                       u2041 014D  
                     u3010 0048                       u2210 0241                       u2130 0202  
                     u3011 0047                       u2211 0240                       u2131 0201  
                     u3020 005F                       u2220 0252                       u2140 0207  
                     u2060 0175                       u3101 017C                       u3021 005E  
                     u2141 0206                       u2125 01F7                       u2061 0174  
                     u2310 0022                       u3102 0183                       u3030 0064  
                     u2230 0261                       u2150 0211                       u2311 0021  
                     u3103 018A                       u3031 0063                       u2231 0260  
                     u2151 0210                       u2071 018E                       u2063 0171  
                     u2055 0153                       u2400 0005                       u2240 026A  
                     u2160 0217                       u2080 01A2                       u2072 018F  
                     u2320 0030                       u2401 0004                       u2305 0015  
                     u3121 01B2                       u3041 00B5                       u2241 0269  
                     u2225 024D                       u2161 0216                       u2081 01A3  
                     u2073 0194                       u2321 002F                       u2410 0010  
                     u3210 029C                       u3122 01B9                       u3042 00BC  
                     u2250 026F                       u2170 021C                       u2090 01C0  
                     u2082 01A8                       u2074 0195                       u2330 003C  
                     u2411 000F                       u3211 029B                       u3131 01DF  
                     u3123 01C0                       u3115 018C                       u3051 00D1  
                     u3043 00C3                       u2251 026E                       u2171 021B  
                     u2091 01BF                       u2083 01A9                       u2075 019A  
                     u2331 003B                       u2420 0021                       u2500 0014  
                     u3300 0314                       u3132 01E6                       u3052 00D8  
                     u2260 027C                       u2180 0222                       u2076 019B  
                     u2340 000B                       u2421 0020                       u2501 0013  
                     u3301 0313                       u3205 0291                       u3141 020C  
                     u3133 01ED                       u3061 00FD                       u3053 00DF  
                     u2261 027B                       u2181 0221                       u2341 000A  
                     u2510 0030                       u3310 032E                       u3230 02B0  
                     u3150 0236                       u3142 0213                       u3062 0104  
                     u2270 0281                       u2190 0229                       u2350 0051  
                     u2511 002F                       u3311 032D                       u3231 02AF  
                     u3143 021A                       u3071 0119                       u3063 010B  
                     u2271 0280                       u2191 0228                       u2351 0050  
                     u2440 0033                       u2520 003C                       u3320 034C  
                     u3240 02B5                       u3072 0120                       u2280 0296  
                     u2600 003F                       u2360 0008                       u2441 0032  
                     u2521 003B                       u3321 034B                       u3305 0310  
                     u3241 02B4                       u3225 029F                       u3161 0242  
                     u3073 0127                       u2281 0295                       u2601 003E  
                     u2361 0007                       u2290 000E                       u3250 02C9  
                     u3170 025E                       u3162 0249                       u3410 007F  
                     u3330 0008                       u2435 0025                       u2531 004B  
                     u2291 000D                       u3315 032A                       u3251 02C8  
                     u3163 0250                       u3155 0231                       u3091 014F  
                     u3411 007E                       u3331 0007                       u2460 0044  
                     u2700 003E                       u2540 0064                       u2532 004C  
                     u3260 02D0                       u3092 0156                       u1900 0069  
                     u2620 0051                       u3420 0085                       u3340 000C  
                     u3500 00DF                       u1820 0007                       u2461 0043  
                     u2701 003D                       u2541 0063                       u2533 0051  
                     u3261 02CF                       u3181 026A                       u3093 015D  
                     u3085 0129                       u1901 0068                       u2621 0050  
                     u3421 0084                       u3405 0074                       u3341 000B  
                     u3501 00DE                       u1821 0006                       u2710 0044  
                     u2534 0052                       u3270 02D6                       u3182 0271  
                     u1910 006D                       u1830 0011                       u2630 0058  
                     u2390 0022                       u3430 0089                       u3350 002C  
                     u3510 01B3                       u2455 0034                       u2711 0043  
                     u2551 0073                       u2535 0057                       u3271 02D5  
                     u3183 0278                       u3175 0259                       u1911 006C  
                     u1831 0010                       u2631 0057                       u2615 0041  
                     u2391 0021                       u2375 000F                       u3431 0088  
                     u3351 002B                       u3511 01B2                       u2480 0058  
                     u2800 00EE                       u2720 0049                       u2560 009E  
                     u2552 0074                       u2536 0058                       u3280 02E8  
                     u1920 00C5                       u1840 0017                       u3440 009E  
                     u3520 020F                       u3600 0041                       u2481 0057  
                     u2465 0040                       u2801 00ED                       u2721 0048  
                     u2561 009D                       u2553 0079                       u3281 02E7  
                     u1921 00C4                       u1841 0016                       u2385 0016  
                     u3521 020E                       u3505 00DB                       u3601 0040  
                     u2490 005D                       u2810 0107                       u2730 0064  
                     u2554 007A                       u3290 02F7                       u1930 00CE  
                     u1850 001C                       u2650 0069                       u2570 000B  
                     u3450 00AE                       u3370 004D                       u3530 02C8  
                     u3610 0067                       u2491 005C                       u2475 004C  
                     u2811 0106                       u2731 0063                       u2555 007F  
                     u3195 027A                       u1931 00CC                       u1851 001B  
                     u2651 0068                       u2571 000A                       u3451 00AD  
                     u3371 004C                       u3531 02C7                       u3611 0066  
                     u2900 0158                       u2820 010F                       u2740 0082  
                     u2556 0080                       u1940 00CF                       u1860 003A  
                     u2660 006E                       u2580 0022                       u3460 00B2  
                     u3540 030F                       u3620 006C                       u2901 0157  
                     u2821 010E                       u2805 00EA                       u2741 0081  
                     u2565 009A                       u1925 00C1                       u1861 0039  
                     u2661 006D                       u2645 005B                       u3461 00B1  
                     u3445 0099                       u3365 003F                       u3541 030E  
                     u3525 020B                       u3621 006B                       u2910 016A  
                     u2750 00BC                       u2670 0011                       u1950 00E5  
                     u1870 0045                       u2590 0038                       u3390 006F  
                     u3550 03E3                       u3470 003B                       u2911 0169  
                     u2751 00BB                       u2671 0010                       u3295 02F2  
                     u1951 00E4                       u1871 0044                       u2591 0037  
                     u3391 006E                       u3551 03E2                       u3471 003A  
                     u2920 0179                       u2840 011E                       u2680 0017  
                     u1960 00F6                       u1880 004B                       u3480 0091  
                     u3560 0006                       u2841 011D                       u2681 0016  
                     u1961 00F5                       u1881 004A                       u2585 001D  
                     u3385 0061                       u3545 030B                       u3481 0090  
                     u3561 0005                       u2930 0196                       u2690 001C  
                     u1890 0050                       u3490 0098                       u3570 0018  
                     u2931 0195                       u2835 0113                       u2691 001B  
                     u1891 004F                       u3491 0097                       u3707 0028  
                     u3571 0017                       u2940 01B3                       u2860 0132  
                     u2780 00D2                       u1980 010C                       u3580 000D  
                     u2941 01B2                       u2925 0174                       u2861 0131  
                     u2781 00D1                       u2765 00BE                       u1981 010B  
                     u3717 0011                       u3637 0016                       u2950 01CA  
                     u2870 0137                       u1990 0110                       u3590 002F  
                     u2951 01C9                       u2935 0192                       u2871 0136  
                     u2855 0121                       u2775 00C7                       u1991 010F  
                     u1975 00FB                       u3647 0027                       u2880 014B  
                     u2960 0011                       u2945 01AF                       u2881 014A  
                     u2961 0010                       u3657 0038                       u2890 0152  
                     u2970 0017                       u2891 0151                       u2795 00D5  
                     u2971 0016                       u3667 00AA                       u2980 001C  
                     u2981 001B                       u3677 000F                       u2990 003D  
                     u2991 003C                       u3687 000A                       u3697 0019  
                     _TXIF 0064                       _adc0 0021                       _adc1 0017  
        ?_Lcd_Write_String 0003                       _main 0000                       btemp 007E  
            ADC_convert@mu 000D                       start 0000*        ??_Lcd_Write_String 0005  
          ___fldiv@new_exp 0024            __end_of_Lcd_Cmd 001A       __size_of_ADC_convert 03F4  
              _string_uart 0000              ___fltol@sign1 0009            __end_of___fladd 0298  
                    ?_main 0000            __end_of___fldiv 01DD            __end_of___awdiv 0067  
          __end_of___flmul 0361            __end_of___flsub 0024            __end_of___fltol 007A  
                    _ANSEL 0188            ___awdiv@divisor 0000            ___awdiv@counter 0005  
                    _SPBRG 0099                      _PORTA 0005                      _PORTB 0006  
                    _PORTC 0007                      _PORTD 0008    __size_of_Lcd_Set_Cursor 0024  
                    _TRISA 0085                      _TRISB 0086                      _TRISC 0087  
                    _TRISD 0088                      _TRISE 0089                      _TXREG 0019  
                    _conv0 000E                      _conv1 000A                      _tabla 0000  
          __end_of_mensaje 0046                      _setup 0000                      _putch 0000  
                    pclath 000A                      status 0003                      wtemp0 007E  
         __end_of_Lcd_Init 0045           __end_of_Lcd_Port 0006            __initialization 0000  
             __end_of_main 0210                     ??_main 000F         __size_of_Lcd_Clear 000D  
                   _ADRESH 001E           ___awdiv@dividend 0002                     ?_setup 0000  
                   ?_putch 0000                     _ANSELH 0189                  ??_Lcd_Cmd 0001  
                   _SPBRGH 009A    __size_of_Lcd_Write_Char 0016           __end_of___xxtofl 00BC  
         __end_of_conf_ADC 0069           __end_of_conf_osc 0055                     ___flge 0000  
                ??___fladd 0000                     ___wmul 0000                  ??___fldiv 001A  
                ??___awdiv 0004                  ??___flmul 0034                  ??___flsub 000D  
                ??___fltol 0004         __size_of_Select_ch 00B0           ___awdiv@quotient 0007  
                   _printf 0000                  ??_mensaje 000A         __size_of__Umul8_16 0027  
          ADC_convert@data 0004            ADC_convert@temp 0000            Lcd_Set_Cursor@a 0006  
          Lcd_Set_Cursor@b 0004                 ___flge@ff1 0000                 ___flge@ff2 0004  
             ___xxtofl@arg 000E               ___xxtofl@exp 000D               ___xxtofl@val 0004  
  __end_of__initialization 0019          __end_of_Lcd_Clear 000D                 ___fltol@f1 0000  
       __size_of_canal_ADC 006F             __pcstackCOMMON 0000               __pidataBANK1 0000  
            __end_of_setup 0041              __end_of_putch 000A             _Lcd_Set_Cursor 0000  
           _OPTION_REGbits 0081                 _canal_flag 0001                  ?_Lcd_Init 0000  
                ?_Lcd_Port 0000                    ??_setup 0006                    ??_putch 0000  
        __end_of_Select_ch 00B0                 __pbssBANK0 0000                 __pbssBANK1 0000  
        __end_of__Umul8_16 0027                 __pmaintext 0000                    ?___flge 0000  
                  ?___wmul 0000                  ?___delay_ 0000  __size_of_Lcd_Write_String 0042  
   __end_of_Lcd_Set_Cursor 0024                    ?_printf 0001                  ?___xxtofl 0004  
        __end_of_canal_ADC 006F                  ?_conf_ADC 0000                 ??_Lcd_Init 0004  
               ??_Lcd_Port 0000                  ?_conf_osc 0000                 __stringtab 0000  
           _Lcd_Write_Char 0000                    _Lcd_Cmd 0000              ??_ADC_convert 004C  
          __size_of___flge 00A2                    ___fladd 0000                    ___fldiv 0000  
                  ___awdiv 0000                    ___flmul 0000                    ___flsub 0000  
                  ___fltol 0000            __size_of___wmul 0027                 ??___delay_ 0000  
                _ANSELbits 0188            ?_Lcd_Set_Cursor 0004                    __ptext1 0000  
                  __ptext2 0000                    __ptext3 0000                    __ptext4 0000  
                  __ptext5 0000                    __ptext6 0000                    __ptext7 0000  
                  __ptext8 0000                    __ptext9 0000            __size_of_printf 0052  
         Select_ch@channel 0002                    _mensaje 0000                 ??___xxtofl 0008  
               ??_conf_ADC 0003                 ??_conf_osc 0000                    clrloop0 0001  
   __end_of_Lcd_Write_Char 0016       end_of_initialization 0019           ADC_convert@place 004A  
                _RCSTAbits 0018                    printf@c 0009                    printf@f 0001  
                Lcd_Port@a 0000                 _valor_uart 0016        __end_of_ADC_convert 03F4  
                _PORTEbits 0009                ___fladd@grs 000B              ___xxtofl@sign 000C  
              ___fldiv@grs 0026                ___fldiv@rem 001F            ?_Lcd_Write_Char 0000  
        Lcd_Write_String@a 0003          Lcd_Write_String@i 0008                ___flmul@grs 003A  
           conf_ADC@justRL 0002                  _TXSTAbits 0098               ADC_convert@a 0046  
             ADC_convert@i 0009               ADC_convert@j 0002               ADC_convert@x 0005  
                _Lcd_Clear 0000             __end_of___flge 00A2             __end_of___wmul 0027  
         _Lcd_Write_String 0000                _BAUDCTLbits 0187             __end_of_printf 0052  
         canal_ADC@channel 0002        start_initialization 0000          __size_of_Lcd_Init 0045  
        __size_of_Lcd_Port 0006                  _Select_ch 0000                _ADC_convert 0000  
               ?_Lcd_Clear 0000                   ??___flge 0008                   ??___wmul 000B  
               init_fetch0 0000                  __Umul8_16 0000                __pdataBANK1 0000  
          Lcd_Write_Char@a 0002                   ??_printf 0003                  ___fladd@a 0004  
                ___fladd@b 0000                  ___fldiv@a 0012                  ___fldiv@b 0016  
                ___flmul@a 0030                  ___flmul@b 002C                __pbssCOMMON 0000  
                ___flsub@a 0012                  ___flsub@b 0016                  ___latbits 0002  
            __pcstackBANK0 0000              __pcstackBANK1 0000          __size_of___xxtofl 00BC  
        __size_of_conf_ADC 0069                  _canal_ADC 0000          __size_of_conf_osc 0055  
                 ?_Lcd_Cmd 0000                 ?_Select_ch 0000           ??_Lcd_Set_Cursor 0005  
                 ?___fladd 0000                   ?___fldiv 0012                   ?___awdiv 0000  
                 ?___flmul 002C                   ?___flsub 0012                   ?___fltol 0000  
               ?__Umul8_16 0000                  __pstrings 0000                  _cont_uart 0012  
                 ?_mensaje 0000             __size_of_setup 0041             __size_of_putch 000A  
               ?_canal_ADC 0000             ___wmul@product 000B                  clear_ram0 0000  
                 _PIE1bits 008C                   Lcd_Cmd@a 0003                   _PIR1bits 000C  
              ??_Lcd_Clear 0004                 _ADCON0bits 001F                __stringbase 000F  
               _ADCON1bits 009F          ___wmul@multiplier 0000           ??_Lcd_Write_Char 0001  
                 _Lcd_Init 0000                   _Lcd_Port 0000   __end_of_Lcd_Write_String 0042  
         __size_of_Lcd_Cmd 001A                ??_Select_ch 0000                ??__Umul8_16 0002  
         __size_of___fladd 0298                   ___delay_ 0000*          __size_of___fldiv 01DD  
         __size_of___awdiv 0067           __size_of___flmul 0361           __size_of___flsub 0024  
         __size_of___fltol 007A         __end_of__stringtab 0010                 _ANSELHbits 0189  
                 ___xxtofl 0000           __size_of_mensaje 0046                   _conf_ADC 0000  
                 __ptext10 0000                   __ptext11 0000                   __ptext20 0000  
                 __ptext12 0000                   __ptext21 0000                   __ptext13 0000  
                 __ptext22 0000                   __ptext14 0000                   __ptext23 0000  
                 __ptext15 0000                   __ptext24 0000                   __ptext16 0000  
                 __ptext25 0000                   __ptext17 0000                   __ptext26 0000  
                 __ptext18 0000                   __ptext19 0000                   _conf_osc 0000  
              ??_canal_ADC 0000              __size_of_main 0210               ?_ADC_convert 0046  
                 _var_adc0 0000                   _var_adc1 0000               conf_ADC@Vref 0001  
                putch@dato 0000                 _INTCONbits 000B                   init_ram0 0004  
                stringcode 000A                 _OSCCONbits 008F          ADC_convert@digits 000B  
              conf_ADC@isr 0000                   printf@ap 0007         Lcd_Set_Cursor@temp 0007  
   __Umul8_16@multiplicand 0000                   stringdir 000A                   stringtab 0000  
            ___fladd@signs 0008               ___fladd@aexp 0009               ___fladd@bexp 000A  
     __Umul8_16@multiplier 0008          __Umul8_16@product 0004  
