

Microchip MPLAB XC8 Assembler V2.31 build 20201012212115 
                                                                                               Mon Aug 09 19:49:44 2021

Microchip MPLAB XC8 C Compiler v2.31 (Free license) build 20201012212115 Og1 
     1                           	processor	16F887
     2                           	pagewidth 120
     3                           	opt	flic
     4                           	psect	idataBANK1,global,class=CODE,delta=2,noexec
     5                           	psect	strings,global,class=STRING,delta=2,noexec
     6                           	psect	cinit,global,class=CODE,merge=1,delta=2
     7                           	psect	bssBANK0,global,class=BANK0,space=1,delta=1,noexec
     8                           	psect	bssBANK1,global,class=BANK1,space=1,delta=1,noexec
     9                           	psect	dataBANK1,global,class=BANK1,space=1,delta=1,noexec
    10                           	psect	inittext,global,class=CODE,delta=2
    11                           	psect	clrtext,global,class=CODE,delta=2
    12                           	psect	cstackBANK1,global,class=BANK1,space=1,delta=1,noexec
    13                           	psect	cstackCOMMON,global,class=COMMON,space=1,delta=1,noexec
    14                           	psect	cstackBANK0,global,class=BANK0,space=1,delta=1,noexec
    15                           	psect	maintext,global,class=CODE,split=1,delta=2
    16                           	psect	text1,local,class=CODE,merge=1,delta=2
    17                           	psect	text2,local,class=CODE,merge=1,delta=2
    18                           	psect	text3,local,class=CODE,merge=1,delta=2
    19                           	psect	text4,local,class=CODE,merge=1,delta=2,group=1
    20                           	psect	text5,local,class=CODE,merge=1,delta=2
    21                           	psect	text6,local,class=CODE,merge=1,delta=2
    22                           	psect	text7,local,class=CODE,merge=1,delta=2
    23                           	psect	text8,local,class=CODE,merge=1,delta=2
    24                           	psect	text9,local,class=CODE,merge=1,delta=2
    25                           	psect	text10,local,class=CODE,merge=1,delta=2
    26                           	psect	text11,local,class=CODE,merge=1,delta=2
    27                           	psect	text12,local,class=CODE,merge=1,delta=2
    28                           	psect	text13,local,class=CODE,merge=1,delta=2
    29                           	psect	text14,local,class=CODE,merge=1,delta=2
    30                           	psect	text15,local,class=CODE,merge=1,delta=2
    31                           	psect	text16,local,class=CODE,merge=1,delta=2
    32                           	psect	text17,local,class=CODE,merge=1,delta=2
    33                           	psect	text18,local,class=CODE,merge=1,delta=2,group=1
    34                           	psect	text19,local,class=CODE,merge=1,delta=2,group=1
    35                           	psect	text20,local,class=CODE,merge=1,delta=2,group=1
    36                           	psect	text21,local,class=CODE,merge=1,delta=2,group=1
    37                           	psect	text22,local,class=CODE,merge=1,delta=2,group=1
    38                           	psect	text23,local,class=CODE,merge=1,delta=2,group=1
    39                           	psect	text24,local,class=CODE,merge=1,delta=2,group=1
    40                           	psect	text25,local,class=CODE,merge=1,delta=2,group=1
    41                           	psect	text26,local,class=CODE,merge=1,delta=2,group=1
    42                           	psect	text27,local,class=CODE,merge=1,delta=2,group=1
    43                           	psect	config,global,abs,ovrld,class=CONFIG,space=4,delta=2,noexec
    44                           	dabs	1,0x7E,2
    45  0000                     
    46                           ; Version 2.20
    47                           ; Generated 12/02/2020 GMT
    48                           ; 
    49                           ; Copyright © 2020, Microchip Technology Inc. and its subsidiaries ("Microchip")
    50                           ; All rights reserved.
    51                           ; 
    52                           ; This software is developed by Microchip Technology Inc. and its subsidiaries ("Microch
      +                          ip").
    53                           ; 
    54                           ; Redistribution and use in source and binary forms, with or without modification, are
    55                           ; permitted provided that the following conditions are met:
    56                           ; 
    57                           ;     1. Redistributions of source code must retain the above copyright notice, this lis
      +                          t of
    58                           ;        conditions and the following disclaimer.
    59                           ; 
    60                           ;     2. Redistributions in binary form must reproduce the above copyright notice, this 
      +                          list
    61                           ;        of conditions and the following disclaimer in the documentation and/or other
    62                           ;        materials provided with the distribution.
    63                           ; 
    64                           ;     3. Microchip's name may not be used to endorse or promote products derived from th
      +                          is
    65                           ;        software without specific prior written permission.
    66                           ; 
    67                           ; THIS SOFTWARE IS PROVIDED BY MICROCHIP "AS IS" AND ANY EXPRESS OR IMPLIED WARRANTIES,
    68                           ; INCLUDING, BUT NOT LIMITED TO, THE IMPLIED WARRANTIES OF MERCHANTABILITY AND FITNESS F
      +                          OR
    69                           ; PURPOSE ARE DISCLAIMED.  IN NO EVENT SHALL MICROCHIP BE LIABLE FOR ANY DIRECT, INDIREC
      +                          T,
    70                           ; INCIDENTAL, SPECIAL, EXEMPLARY, OR CONSEQUENTIAL DAMAGES (INCLUDING BUT NOT LIMITED TO
    71                           ; PROCUREMENT OF SUBSTITUTE GOODS OR SERVICES; LOSS OF USE, DATA OR PROFITS; OR BUSINESS
    72                           ; INTERRUPTION) HOWSOEVER CAUSED AND ON ANY THEORY OF LIABILITY, WHETHER IN CONTRACT, ST
      +                          RICT
    73                           ; LIABILITY, OR TORT (INCLUDING NEGLIGENCE OR OTHERWISE) ARISING IN ANY WAY OUT OF THE U
      +                          SE OF
    74                           ; THIS SOFTWARE, EVEN IF ADVISED OF THE POSSIBILITY OF SUCH DAMAGE.
    75                           ; 
    76                           ; 
    77                           ; Code-generator required, PIC16F887 Definitions
    78                           ; 
    79                           ; SFR Addresses
    80  0000                     	;# 
    81  0001                     	;# 
    82  0002                     	;# 
    83  0003                     	;# 
    84  0004                     	;# 
    85  0005                     	;# 
    86  0006                     	;# 
    87  0007                     	;# 
    88  0008                     	;# 
    89  0009                     	;# 
    90  000A                     	;# 
    91  000B                     	;# 
    92  000C                     	;# 
    93  000D                     	;# 
    94  000E                     	;# 
    95  000E                     	;# 
    96  000F                     	;# 
    97  0010                     	;# 
    98  0011                     	;# 
    99  0012                     	;# 
   100  0013                     	;# 
   101  0014                     	;# 
   102  0015                     	;# 
   103  0015                     	;# 
   104  0016                     	;# 
   105  0017                     	;# 
   106  0018                     	;# 
   107  0019                     	;# 
   108  001A                     	;# 
   109  001B                     	;# 
   110  001B                     	;# 
   111  001C                     	;# 
   112  001D                     	;# 
   113  001E                     	;# 
   114  001F                     	;# 
   115  0081                     	;# 
   116  0085                     	;# 
   117  0086                     	;# 
   118  0087                     	;# 
   119  0088                     	;# 
   120  0089                     	;# 
   121  008C                     	;# 
   122  008D                     	;# 
   123  008E                     	;# 
   124  008F                     	;# 
   125  0090                     	;# 
   126  0091                     	;# 
   127  0092                     	;# 
   128  0093                     	;# 
   129  0093                     	;# 
   130  0093                     	;# 
   131  0094                     	;# 
   132  0095                     	;# 
   133  0096                     	;# 
   134  0097                     	;# 
   135  0098                     	;# 
   136  0099                     	;# 
   137  009A                     	;# 
   138  009B                     	;# 
   139  009C                     	;# 
   140  009D                     	;# 
   141  009E                     	;# 
   142  009F                     	;# 
   143  0105                     	;# 
   144  0107                     	;# 
   145  0108                     	;# 
   146  0109                     	;# 
   147  010C                     	;# 
   148  010C                     	;# 
   149  010D                     	;# 
   150  010E                     	;# 
   151  010F                     	;# 
   152  0185                     	;# 
   153  0187                     	;# 
   154  0188                     	;# 
   155  0189                     	;# 
   156  018C                     	;# 
   157  018D                     	;# 
   158  0000                     	;# 
   159  0001                     	;# 
   160  0002                     	;# 
   161  0003                     	;# 
   162  0004                     	;# 
   163  0005                     	;# 
   164  0006                     	;# 
   165  0007                     	;# 
   166  0008                     	;# 
   167  0009                     	;# 
   168  000A                     	;# 
   169  000B                     	;# 
   170  000C                     	;# 
   171  000D                     	;# 
   172  000E                     	;# 
   173  000E                     	;# 
   174  000F                     	;# 
   175  0010                     	;# 
   176  0011                     	;# 
   177  0012                     	;# 
   178  0013                     	;# 
   179  0014                     	;# 
   180  0015                     	;# 
   181  0015                     	;# 
   182  0016                     	;# 
   183  0017                     	;# 
   184  0018                     	;# 
   185  0019                     	;# 
   186  001A                     	;# 
   187  001B                     	;# 
   188  001B                     	;# 
   189  001C                     	;# 
   190  001D                     	;# 
   191  001E                     	;# 
   192  001F                     	;# 
   193  0081                     	;# 
   194  0085                     	;# 
   195  0086                     	;# 
   196  0087                     	;# 
   197  0088                     	;# 
   198  0089                     	;# 
   199  008C                     	;# 
   200  008D                     	;# 
   201  008E                     	;# 
   202  008F                     	;# 
   203  0090                     	;# 
   204  0091                     	;# 
   205  0092                     	;# 
   206  0093                     	;# 
   207  0093                     	;# 
   208  0093                     	;# 
   209  0094                     	;# 
   210  0095                     	;# 
   211  0096                     	;# 
   212  0097                     	;# 
   213  0098                     	;# 
   214  0099                     	;# 
   215  009A                     	;# 
   216  009B                     	;# 
   217  009C                     	;# 
   218  009D                     	;# 
   219  009E                     	;# 
   220  009F                     	;# 
   221  0105                     	;# 
   222  0107                     	;# 
   223  0108                     	;# 
   224  0109                     	;# 
   225  010C                     	;# 
   226  010C                     	;# 
   227  010D                     	;# 
   228  010E                     	;# 
   229  010F                     	;# 
   230  0185                     	;# 
   231  0187                     	;# 
   232  0188                     	;# 
   233  0189                     	;# 
   234  018C                     	;# 
   235  018D                     	;# 
   236  0000                     	;# 
   237  0001                     	;# 
   238  0002                     	;# 
   239  0003                     	;# 
   240  0004                     	;# 
   241  0005                     	;# 
   242  0006                     	;# 
   243  0007                     	;# 
   244  0008                     	;# 
   245  0009                     	;# 
   246  000A                     	;# 
   247  000B                     	;# 
   248  000C                     	;# 
   249  000D                     	;# 
   250  000E                     	;# 
   251  000E                     	;# 
   252  000F                     	;# 
   253  0010                     	;# 
   254  0011                     	;# 
   255  0012                     	;# 
   256  0013                     	;# 
   257  0014                     	;# 
   258  0015                     	;# 
   259  0015                     	;# 
   260  0016                     	;# 
   261  0017                     	;# 
   262  0018                     	;# 
   263  0019                     	;# 
   264  001A                     	;# 
   265  001B                     	;# 
   266  001B                     	;# 
   267  001C                     	;# 
   268  001D                     	;# 
   269  001E                     	;# 
   270  001F                     	;# 
   271  0081                     	;# 
   272  0085                     	;# 
   273  0086                     	;# 
   274  0087                     	;# 
   275  0088                     	;# 
   276  0089                     	;# 
   277  008C                     	;# 
   278  008D                     	;# 
   279  008E                     	;# 
   280  008F                     	;# 
   281  0090                     	;# 
   282  0091                     	;# 
   283  0092                     	;# 
   284  0093                     	;# 
   285  0093                     	;# 
   286  0093                     	;# 
   287  0094                     	;# 
   288  0095                     	;# 
   289  0096                     	;# 
   290  0097                     	;# 
   291  0098                     	;# 
   292  0099                     	;# 
   293  009A                     	;# 
   294  009B                     	;# 
   295  009C                     	;# 
   296  009D                     	;# 
   297  009E                     	;# 
   298  009F                     	;# 
   299  0105                     	;# 
   300  0107                     	;# 
   301  0108                     	;# 
   302  0109                     	;# 
   303  010C                     	;# 
   304  010C                     	;# 
   305  010D                     	;# 
   306  010E                     	;# 
   307  010F                     	;# 
   308  0185                     	;# 
   309  0187                     	;# 
   310  0188                     	;# 
   311  0189                     	;# 
   312  018C                     	;# 
   313  018D                     	;# 
   314  0000                     	;# 
   315  0001                     	;# 
   316  0002                     	;# 
   317  0003                     	;# 
   318  0004                     	;# 
   319  0005                     	;# 
   320  0006                     	;# 
   321  0007                     	;# 
   322  0008                     	;# 
   323  0009                     	;# 
   324  000A                     	;# 
   325  000B                     	;# 
   326  000C                     	;# 
   327  000D                     	;# 
   328  000E                     	;# 
   329  000E                     	;# 
   330  000F                     	;# 
   331  0010                     	;# 
   332  0011                     	;# 
   333  0012                     	;# 
   334  0013                     	;# 
   335  0014                     	;# 
   336  0015                     	;# 
   337  0015                     	;# 
   338  0016                     	;# 
   339  0017                     	;# 
   340  0018                     	;# 
   341  0019                     	;# 
   342  001A                     	;# 
   343  001B                     	;# 
   344  001B                     	;# 
   345  001C                     	;# 
   346  001D                     	;# 
   347  001E                     	;# 
   348  001F                     	;# 
   349  0081                     	;# 
   350  0085                     	;# 
   351  0086                     	;# 
   352  0087                     	;# 
   353  0088                     	;# 
   354  0089                     	;# 
   355  008C                     	;# 
   356  008D                     	;# 
   357  008E                     	;# 
   358  008F                     	;# 
   359  0090                     	;# 
   360  0091                     	;# 
   361  0092                     	;# 
   362  0093                     	;# 
   363  0093                     	;# 
   364  0093                     	;# 
   365  0094                     	;# 
   366  0095                     	;# 
   367  0096                     	;# 
   368  0097                     	;# 
   369  0098                     	;# 
   370  0099                     	;# 
   371  009A                     	;# 
   372  009B                     	;# 
   373  009C                     	;# 
   374  009D                     	;# 
   375  009E                     	;# 
   376  009F                     	;# 
   377  0105                     	;# 
   378  0107                     	;# 
   379  0108                     	;# 
   380  0109                     	;# 
   381  010C                     	;# 
   382  010C                     	;# 
   383  010D                     	;# 
   384  010E                     	;# 
   385  010F                     	;# 
   386  0185                     	;# 
   387  0187                     	;# 
   388  0188                     	;# 
   389  0189                     	;# 
   390  018C                     	;# 
   391  018D                     	;# 
   392  0000                     	;# 
   393  0001                     	;# 
   394  0002                     	;# 
   395  0003                     	;# 
   396  0004                     	;# 
   397  0005                     	;# 
   398  0006                     	;# 
   399  0007                     	;# 
   400  0008                     	;# 
   401  0009                     	;# 
   402  000A                     	;# 
   403  000B                     	;# 
   404  000C                     	;# 
   405  000D                     	;# 
   406  000E                     	;# 
   407  000E                     	;# 
   408  000F                     	;# 
   409  0010                     	;# 
   410  0011                     	;# 
   411  0012                     	;# 
   412  0013                     	;# 
   413  0014                     	;# 
   414  0015                     	;# 
   415  0015                     	;# 
   416  0016                     	;# 
   417  0017                     	;# 
   418  0018                     	;# 
   419  0019                     	;# 
   420  001A                     	;# 
   421  001B                     	;# 
   422  001B                     	;# 
   423  001C                     	;# 
   424  001D                     	;# 
   425  001E                     	;# 
   426  001F                     	;# 
   427  0081                     	;# 
   428  0085                     	;# 
   429  0086                     	;# 
   430  0087                     	;# 
   431  0088                     	;# 
   432  0089                     	;# 
   433  008C                     	;# 
   434  008D                     	;# 
   435  008E                     	;# 
   436  008F                     	;# 
   437  0090                     	;# 
   438  0091                     	;# 
   439  0092                     	;# 
   440  0093                     	;# 
   441  0093                     	;# 
   442  0093                     	;# 
   443  0094                     	;# 
   444  0095                     	;# 
   445  0096                     	;# 
   446  0097                     	;# 
   447  0098                     	;# 
   448  0099                     	;# 
   449  009A                     	;# 
   450  009B                     	;# 
   451  009C                     	;# 
   452  009D                     	;# 
   453  009E                     	;# 
   454  009F                     	;# 
   455  0105                     	;# 
   456  0107                     	;# 
   457  0108                     	;# 
   458  0109                     	;# 
   459  010C                     	;# 
   460  010C                     	;# 
   461  010D                     	;# 
   462  010E                     	;# 
   463  010F                     	;# 
   464  0185                     	;# 
   465  0187                     	;# 
   466  0188                     	;# 
   467  0189                     	;# 
   468  018C                     	;# 
   469  018D                     	;# 
   470  0000                     	;# 
   471  0001                     	;# 
   472  0002                     	;# 
   473  0003                     	;# 
   474  0004                     	;# 
   475  0005                     	;# 
   476  0006                     	;# 
   477  0007                     	;# 
   478  0008                     	;# 
   479  0009                     	;# 
   480  000A                     	;# 
   481  000B                     	;# 
   482  000C                     	;# 
   483  000D                     	;# 
   484  000E                     	;# 
   485  000E                     	;# 
   486  000F                     	;# 
   487  0010                     	;# 
   488  0011                     	;# 
   489  0012                     	;# 
   490  0013                     	;# 
   491  0014                     	;# 
   492  0015                     	;# 
   493  0015                     	;# 
   494  0016                     	;# 
   495  0017                     	;# 
   496  0018                     	;# 
   497  0019                     	;# 
   498  001A                     	;# 
   499  001B                     	;# 
   500  001B                     	;# 
   501  001C                     	;# 
   502  001D                     	;# 
   503  001E                     	;# 
   504  001F                     	;# 
   505  0081                     	;# 
   506  0085                     	;# 
   507  0086                     	;# 
   508  0087                     	;# 
   509  0088                     	;# 
   510  0089                     	;# 
   511  008C                     	;# 
   512  008D                     	;# 
   513  008E                     	;# 
   514  008F                     	;# 
   515  0090                     	;# 
   516  0091                     	;# 
   517  0092                     	;# 
   518  0093                     	;# 
   519  0093                     	;# 
   520  0093                     	;# 
   521  0094                     	;# 
   522  0095                     	;# 
   523  0096                     	;# 
   524  0097                     	;# 
   525  0098                     	;# 
   526  0099                     	;# 
   527  009A                     	;# 
   528  009B                     	;# 
   529  009C                     	;# 
   530  009D                     	;# 
   531  009E                     	;# 
   532  009F                     	;# 
   533  0105                     	;# 
   534  0107                     	;# 
   535  0108                     	;# 
   536  0109                     	;# 
   537  010C                     	;# 
   538  010C                     	;# 
   539  010D                     	;# 
   540  010E                     	;# 
   541  010F                     	;# 
   542  0185                     	;# 
   543  0187                     	;# 
   544  0188                     	;# 
   545  0189                     	;# 
   546  018C                     	;# 
   547  018D                     	;# 
   548                           
   549                           	psect	idataBANK1
   550  153E                     __pidataBANK1:
   551                           
   552                           ;initializer for _tabla
   553  153E  343F               	retlw	63
   554  153F  3406               	retlw	6
   555  1540  345B               	retlw	91
   556  1541  344F               	retlw	79
   557  1542  3466               	retlw	102
   558  1543  346D               	retlw	109
   559  1544  347D               	retlw	125
   560  1545  3407               	retlw	7
   561  1546  347F               	retlw	127
   562  1547  3467               	retlw	103
   563  1548  3477               	retlw	119
   564  1549  347C               	retlw	124
   565  154A  3439               	retlw	57
   566  154B  345E               	retlw	94
   567  154C  3479               	retlw	121
   568  154D  3471               	retlw	113
   569  0009                     _PORTE	set	9
   570  0005                     _PORTA	set	5
   571  0013                     _SSPBUF	set	19
   572  0014                     _SSPCON	set	20
   573  000C                     _PIR1bits	set	12
   574  001F                     _ADCON0bits	set	31
   575  0009                     _PORTEbits	set	9
   576  0006                     _PORTB	set	6
   577  0063                     _SSPIF	set	99
   578  005E                     _PEIE	set	94
   579  005F                     _GIE	set	95
   580  0089                     _TRISE	set	137
   581  0086                     _TRISB	set	134
   582  0085                     _TRISA	set	133
   583  0091                     _SSPCON2bits	set	145
   584  0087                     _TRISCbits	set	135
   585  0094                     _SSPSTAT	set	148
   586  0093                     _SSPADD	set	147
   587  0091                     _SSPCON2	set	145
   588  009F                     _ADCON1bits	set	159
   589  008C                     _PIE1bits	set	140
   590  0081                     _OPTION_REGbits	set	129
   591  008F                     _OSCCONbits	set	143
   592  0463                     _SSPIE	set	1123
   593  043C                     _TRISC4	set	1084
   594  043B                     _TRISC3	set	1083
   595  0189                     _ANSELH	set	393
   596  0188                     _ANSEL	set	392
   597  0189                     _ANSELHbits	set	393
   598  0188                     _ANSELbits	set	392
   599                           
   600                           	psect	strings
   601  1000                     __pstrings:
   602  1000                     stringtab:
   603  1000                     __stringtab:
   604                           
   605                           ;	String table - string pointers are 1 byte each
   606  1000  1BFF               	btfsc	btemp+1,7
   607  1001  280A               	ljmp	stringcode
   608  1002  1383               	bcf	3,7
   609  1003  187F               	btfsc	btemp+1,0
   610  1004  1783               	bsf	3,7
   611  1005  0800               	movf	0,w
   612  1006  0A84               	incf	4,f
   613  1007  1903               	skipnz
   614  1008  0AFF               	incf	btemp+1,f
   615  1009  0008               	return
   616  100A                     stringcode:
   617  100A                     stringdir:
   618  100A  3010               	movlw	high stringdir
   619  100B  008A               	movwf	10
   620  100C  0804               	movf	4,w
   621  100D  0A84               	incf	4,f
   622  100E  0782               	addwf	2,f
   623  100F                     __stringbase:
   624  100F  3400               	retlw	0
   625  1010                     __end_of__stringtab:
   626  1010                     STR_1:
   627  1010  3453               	retlw	83	;'S'
   628  1011  3431               	retlw	49	;'1'
   629  1012  343A               	retlw	58	;':'
   630  1013  3400               	retlw	0
   631  1014                     STR_2:
   632  1014  3453               	retlw	83	;'S'
   633  1015  3432               	retlw	50	;'2'
   634  1016  343A               	retlw	58	;':'
   635  1017  3400               	retlw	0
   636  1018                     STR_3:
   637  1018  3453               	retlw	83	;'S'
   638  1019  3433               	retlw	51	;'3'
   639  101A  343A               	retlw	58	;':'
   640  101B  3400               	retlw	0
   641  101C                     STR_5:
   642  101C  3455               	retlw	85	;'U'
   643  101D  3400               	retlw	0
   644  101E                     STR_4:
   645  101E  3456               	retlw	86	;'V'
   646  101F  3400               	retlw	0
   647                           
   648                           	psect	cinit
   649  07E5                     start_initialization:	
   650                           ; #config settings
   651                           
   652  07E5                     __initialization:
   653                           
   654                           ; Initialize objects allocated to BANK1
   655  07E5  1383               	bcf	3,7	;select IRP bank0
   656  07E6  30EF               	movlw	low (__pdataBANK1+16)
   657  07E7  00FD               	movwf	btemp+-1
   658  07E8  3015               	movlw	high __pidataBANK1
   659  07E9  00FE               	movwf	btemp
   660  07EA  303E               	movlw	low __pidataBANK1
   661  07EB  00FF               	movwf	btemp+1
   662  07EC  30DF               	movlw	low __pdataBANK1
   663  07ED  0084               	movwf	4
   664  07EE  120A  118A  2007  120A  118A  	fcall	init_ram0
   665                           
   666                           ; Clear objects allocated to BANK1
   667  07F3  30A0               	movlw	low __pbssBANK1
   668  07F4  0084               	movwf	4
   669  07F5  30C8               	movlw	low (__pbssBANK1+40)
   670  07F6  160A  118A  250A  120A  118A  	fcall	clear_ram0
   671                           
   672                           ; Clear objects allocated to BANK0
   673  07FB  01EE               	clrf	__pbssBANK0& (0+127)
   674  07FC                     end_of_initialization:	
   675                           ;End of C runtime variable initialization code
   676                           
   677  07FC                     __end_of__initialization:
   678  07FC  0183               	clrf	3
   679  07FD  120A  158A  2B8A   	ljmp	_main	;jump to C main() function
   680                           
   681                           	psect	bssBANK0
   682  006E                     __pbssBANK0:
   683  006E                     _valor_uart:
   684  006E                     	ds	1
   685                           
   686                           	psect	bssBANK1
   687  00A0                     __pbssBANK1:
   688  00A0                     _string_uart:
   689  00A0                     	ds	10
   690  00AA                     _conv0:
   691  00AA                     	ds	4
   692  00AE                     _cont_uart:
   693  00AE                     	ds	4
   694  00B2                     _contador:
   695  00B2                     	ds	1
   696  00B3                     _var_adc0:
   697  00B3                     	ds	1
   698  00B4                     _contador_lcd:
   699  00B4                     	ds	10
   700  00BE                     _adc0:
   701  00BE                     	ds	10
   702                           
   703                           	psect	dataBANK1
   704  00DF                     __pdataBANK1:
   705  00DF                     _tabla:
   706  00DF                     	ds	16
   707                           
   708                           	psect	inittext
   709  0003                     init_fetch0:	
   710                           ;	Called with low address in FSR and high address in W
   711                           
   712  0003  087E               	movf	btemp,w
   713  0004  008A               	movwf	10
   714  0005  087F               	movf	btemp+1,w
   715  0006  0082               	movwf	2
   716  0007                     init_ram0:	
   717                           ;Called with:
   718                           ;	high address of idata address in btemp 
   719                           ;	low address of idata address in btemp+1 
   720                           ;	low address of data in FSR
   721                           ;	high address + 1 of data in btemp-1
   722                           
   723  0007  120A  118A  2003  120A  118A  	fcall	init_fetch0
   724  000C  0080               	movwf	0
   725  000D  0A84               	incf	4,f
   726  000E  0804               	movf	4,w
   727  000F  067D               	xorwf	btemp+-1,w
   728  0010  1903               	btfsc	3,2
   729  0011  3400               	retlw	0
   730  0012  0AFF               	incf	btemp+1,f
   731  0013  1903               	btfsc	3,2
   732  0014  0AFE               	incf	btemp,f
   733  0015  2807               	goto	init_ram0
   734                           
   735                           	psect	clrtext
   736  150A                     clear_ram0:	
   737                           ;	Called with FSR containing the base address, and
   738                           ;	W with the last address+1
   739                           
   740  150A  0064               	clrwdt	;clear the watchdog before getting into this loop
   741  150B                     clrloop0:
   742  150B  0180               	clrf	0	;clear RAM location pointed to by FSR
   743  150C  0A84               	incf	4,f	;increment pointer
   744  150D  0604               	xorwf	4,w	;XOR with final address
   745  150E  1903               	btfsc	3,2	;have we reached the end yet?
   746  150F  3400               	retlw	0	;all done for this memory range, return
   747  1510  0604               	xorwf	4,w	;XOR again to restore value
   748  1511  2D0B               	goto	clrloop0	;do the next byte
   749                           
   750                           	psect	cstackBANK1
   751  00C8                     __pcstackBANK1:
   752  00C8                     ADC_convert@temp:
   753                           
   754                           ; 2 bytes @ 0x0
   755  00C8                     	ds	2
   756  00CA                     ADC_convert@j:
   757                           
   758                           ; 2 bytes @ 0x2
   759  00CA                     	ds	2
   760  00CC                     ADC_convert@data:
   761                           
   762                           ; 1 bytes @ 0x4
   763  00CC                     	ds	1
   764  00CD                     ADC_convert@x:
   765                           
   766                           ; 4 bytes @ 0x5
   767  00CD                     	ds	4
   768  00D1                     ADC_convert@i:
   769                           
   770                           ; 2 bytes @ 0x9
   771  00D1                     	ds	2
   772  00D3                     ADC_convert@digits:
   773                           
   774                           ; 2 bytes @ 0xB
   775  00D3                     	ds	2
   776  00D5                     ADC_convert@mu:
   777                           
   778                           ; 2 bytes @ 0xD
   779  00D5                     	ds	2
   780  00D7                     ??_main:
   781                           
   782                           ; 1 bytes @ 0xF
   783  00D7                     	ds	4
   784  00DB                     _main$1129:
   785                           
   786                           ; 4 bytes @ 0x13
   787  00DB                     	ds	4
   788                           
   789                           	psect	cstackCOMMON
   790  0070                     __pcstackCOMMON:
   791  0070                     ?___flge:
   792  0070                     ?_setup:	
   793                           ; 1 bit 
   794                           
   795  0070                     ?_conf_osc:	
   796                           ; 1 bytes @ 0x0
   797                           
   798  0070                     ??_conf_osc:	
   799                           ; 1 bytes @ 0x0
   800                           
   801  0070                     ?_Lcd_Port:	
   802                           ; 1 bytes @ 0x0
   803                           
   804  0070                     ??_Lcd_Port:	
   805                           ; 1 bytes @ 0x0
   806                           
   807  0070                     ?_Lcd_Cmd:	
   808                           ; 1 bytes @ 0x0
   809                           
   810  0070                     ?_Lcd_Clear:	
   811                           ; 1 bytes @ 0x0
   812                           
   813  0070                     ?_Lcd_Init:	
   814                           ; 1 bytes @ 0x0
   815                           
   816  0070                     ?_Lcd_Write_Char:	
   817                           ; 1 bytes @ 0x0
   818                           
   819  0070                     ?_I2C_Master_Wait:	
   820                           ; 1 bytes @ 0x0
   821                           
   822  0070                     ??_I2C_Master_Wait:	
   823                           ; 1 bytes @ 0x0
   824                           
   825  0070                     ?_I2C_Master_Start:	
   826                           ; 1 bytes @ 0x0
   827                           
   828  0070                     ??_I2C_Master_Start:	
   829                           ; 1 bytes @ 0x0
   830                           
   831  0070                     ?_I2C_Master_Stop:	
   832                           ; 1 bytes @ 0x0
   833                           
   834  0070                     ??_I2C_Master_Stop:	
   835                           ; 1 bytes @ 0x0
   836                           
   837  0070                     ?_I2C_Master_Write:	
   838                           ; 1 bytes @ 0x0
   839                           
   840  0070                     ?_main:	
   841                           ; 1 bytes @ 0x0
   842                           
   843  0070                     ?__Umul8_16:	
   844                           ; 1 bytes @ 0x0
   845                           
   846  0070                     ?_I2C_Master_Read:	
   847                           ; 2 bytes @ 0x0
   848                           
   849  0070                     ?___awdiv:	
   850                           ; 2 bytes @ 0x0
   851                           
   852  0070                     ?___lldiv:	
   853                           ; 2 bytes @ 0x0
   854                           
   855  0070                     ?___fltol:	
   856                           ; 4 bytes @ 0x0
   857                           
   858  0070                     ?___fladd:	
   859                           ; 4 bytes @ 0x0
   860                           
   861  0070                     Lcd_Port@a:	
   862                           ; 4 bytes @ 0x0
   863                           
   864  0070                     __Umul8_16@multiplicand:	
   865                           ; 1 bytes @ 0x0
   866                           
   867  0070                     I2C_Master_Write@d:	
   868                           ; 1 bytes @ 0x0
   869                           
   870  0070                     I2C_Master_Read@a:	
   871                           ; 2 bytes @ 0x0
   872                           
   873  0070                     ___awdiv@divisor:	
   874                           ; 2 bytes @ 0x0
   875                           
   876  0070                     ___lldiv@divisor:	
   877                           ; 2 bytes @ 0x0
   878                           
   879  0070                     ___flge@ff1:	
   880                           ; 4 bytes @ 0x0
   881                           
   882  0070                     ___fltol@f1:	
   883                           ; 4 bytes @ 0x0
   884                           
   885  0070                     ___fladd@b:	
   886                           ; 4 bytes @ 0x0
   887                           
   888                           
   889                           ; 4 bytes @ 0x0
   890  0070                     	ds	1
   891  0071                     ??_Lcd_Cmd:
   892  0071                     ??_Lcd_Write_Char:	
   893                           ; 1 bytes @ 0x1
   894                           
   895                           
   896                           ; 1 bytes @ 0x1
   897  0071                     	ds	1
   898  0072                     ??__Umul8_16:
   899  0072                     ??_I2C_Master_Write:	
   900                           ; 1 bytes @ 0x2
   901                           
   902  0072                     ??_I2C_Master_Read:	
   903                           ; 1 bytes @ 0x2
   904                           
   905  0072                     conf_osc@frec:	
   906                           ; 1 bytes @ 0x2
   907                           
   908  0072                     Lcd_Write_Char@a:	
   909                           ; 1 bytes @ 0x2
   910                           
   911  0072                     ___awdiv@dividend:	
   912                           ; 1 bytes @ 0x2
   913                           
   914                           
   915                           ; 2 bytes @ 0x2
   916  0072                     	ds	1
   917  0073                     ?_Lcd_Write_String:
   918  0073                     Lcd_Cmd@a:	
   919                           ; 1 bytes @ 0x3
   920                           
   921  0073                     Lcd_Write_String@a:	
   922                           ; 1 bytes @ 0x3
   923                           
   924                           
   925                           ; 2 bytes @ 0x3
   926  0073                     	ds	1
   927  0074                     ??_Lcd_Clear:
   928  0074                     ?_Lcd_Set_Cursor:	
   929                           ; 1 bytes @ 0x4
   930                           
   931  0074                     ??_Lcd_Init:	
   932                           ; 1 bytes @ 0x4
   933                           
   934  0074                     ??___awdiv:	
   935                           ; 1 bytes @ 0x4
   936                           
   937  0074                     ??___fltol:	
   938                           ; 1 bytes @ 0x4
   939                           
   940  0074                     Lcd_Set_Cursor@b:	
   941                           ; 1 bytes @ 0x4
   942                           
   943  0074                     I2C_Master_Read@temp:	
   944                           ; 1 bytes @ 0x4
   945                           
   946  0074                     __Umul8_16@product:	
   947                           ; 2 bytes @ 0x4
   948                           
   949  0074                     ___lldiv@dividend:	
   950                           ; 2 bytes @ 0x4
   951                           
   952  0074                     ___flge@ff2:	
   953                           ; 4 bytes @ 0x4
   954                           
   955  0074                     ___fladd@a:	
   956                           ; 4 bytes @ 0x4
   957                           
   958                           
   959                           ; 4 bytes @ 0x4
   960  0074                     	ds	1
   961  0075                     ??_Lcd_Set_Cursor:
   962  0075                     ??_Lcd_Write_String:	
   963                           ; 1 bytes @ 0x5
   964                           
   965  0075                     ___awdiv@counter:	
   966                           ; 1 bytes @ 0x5
   967                           
   968                           
   969                           ; 1 bytes @ 0x5
   970  0075                     	ds	1
   971  0076                     Lcd_Set_Cursor@a:
   972  0076                     ___awdiv@sign:	
   973                           ; 1 bytes @ 0x6
   974                           
   975  0076                     __Umul8_16@word_mpld:	
   976                           ; 1 bytes @ 0x6
   977                           
   978                           
   979                           ; 2 bytes @ 0x6
   980  0076                     	ds	1
   981  0077                     Lcd_Set_Cursor@temp:
   982  0077                     ___awdiv@quotient:	
   983                           ; 1 bytes @ 0x7
   984                           
   985                           
   986                           ; 2 bytes @ 0x7
   987  0077                     	ds	1
   988  0078                     ??___lldiv:
   989  0078                     ??___flge:	
   990                           ; 1 bytes @ 0x8
   991                           
   992  0078                     ___fladd@signs:	
   993                           ; 1 bytes @ 0x8
   994                           
   995  0078                     __Umul8_16@multiplier:	
   996                           ; 1 bytes @ 0x8
   997                           
   998  0078                     Lcd_Write_String@i:	
   999                           ; 1 bytes @ 0x8
  1000                           
  1001                           
  1002                           ; 2 bytes @ 0x8
  1003  0078                     	ds	1
  1004  0079                     ___fltol@sign1:
  1005  0079                     ___fladd@aexp:	
  1006                           ; 1 bytes @ 0x9
  1007                           
  1008  0079                     ___lldiv@quotient:	
  1009                           ; 1 bytes @ 0x9
  1010                           
  1011                           
  1012                           ; 4 bytes @ 0x9
  1013  0079                     	ds	1
  1014  007A                     ___fltol@exp1:
  1015  007A                     ___fladd@bexp:	
  1016                           ; 1 bytes @ 0xA
  1017                           
  1018                           
  1019                           ; 1 bytes @ 0xA
  1020  007A                     	ds	1
  1021  007B                     ??___wmul:
  1022  007B                     ___fladd@grs:	
  1023                           ; 1 bytes @ 0xB
  1024                           
  1025  007B                     ___wmul@product:	
  1026                           ; 1 bytes @ 0xB
  1027                           
  1028                           
  1029                           ; 2 bytes @ 0xB
  1030  007B                     	ds	2
  1031  007D                     ??___flsub:
  1032  007D                     ___lldiv@counter:	
  1033                           ; 1 bytes @ 0xD
  1034                           
  1035                           
  1036                           ; 1 bytes @ 0xD
  1037  007D                     	ds	1
  1038  007E                     ??_setup:
  1039                           
  1040                           	psect	cstackBANK0
  1041  0020                     __pcstackBANK0:	
  1042                           ; 1 bytes @ 0xE
  1043                           
  1044  0020                     ?_I2C_Master_Init:
  1045  0020                     ??___fladd:	
  1046                           ; 1 bytes @ 0x0
  1047                           
  1048  0020                     ?___wmul:	
  1049                           ; 1 bytes @ 0x0
  1050                           
  1051  0020                     ___wmul@multiplier:	
  1052                           ; 2 bytes @ 0x0
  1053                           
  1054  0020                     I2C_Master_Init@c:	
  1055                           ; 2 bytes @ 0x0
  1056                           
  1057                           
  1058                           ; 4 bytes @ 0x0
  1059  0020                     	ds	2
  1060  0022                     ___wmul@multiplicand:
  1061                           
  1062                           ; 2 bytes @ 0x2
  1063  0022                     	ds	2
  1064  0024                     ??_I2C_Master_Init:
  1065  0024                     ?___xxtofl:	
  1066                           ; 1 bytes @ 0x4
  1067                           
  1068  0024                     ___xxtofl@val:	
  1069                           ; 4 bytes @ 0x4
  1070                           
  1071                           
  1072                           ; 4 bytes @ 0x4
  1073  0024                     	ds	4
  1074  0028                     ??___xxtofl:
  1075                           
  1076                           ; 1 bytes @ 0x8
  1077  0028                     	ds	4
  1078  002C                     ___xxtofl@sign:
  1079                           
  1080                           ; 1 bytes @ 0xC
  1081  002C                     	ds	1
  1082  002D                     ___xxtofl@exp:
  1083                           
  1084                           ; 1 bytes @ 0xD
  1085  002D                     	ds	1
  1086  002E                     ___xxtofl@arg:
  1087                           
  1088                           ; 4 bytes @ 0xE
  1089  002E                     	ds	4
  1090  0032                     ?___flsub:
  1091  0032                     ?___fldiv:	
  1092                           ; 4 bytes @ 0x12
  1093                           
  1094  0032                     ___flsub@a:	
  1095                           ; 4 bytes @ 0x12
  1096                           
  1097  0032                     ___fldiv@a:	
  1098                           ; 4 bytes @ 0x12
  1099                           
  1100                           
  1101                           ; 4 bytes @ 0x12
  1102  0032                     	ds	4
  1103  0036                     ___flsub@b:
  1104  0036                     ___fldiv@b:	
  1105                           ; 4 bytes @ 0x16
  1106                           
  1107                           
  1108                           ; 4 bytes @ 0x16
  1109  0036                     	ds	4
  1110  003A                     ??___fldiv:
  1111                           
  1112                           ; 1 bytes @ 0x1A
  1113  003A                     	ds	5
  1114  003F                     ___fldiv@rem:
  1115                           
  1116                           ; 4 bytes @ 0x1F
  1117  003F                     	ds	4
  1118  0043                     ___fldiv@sign:
  1119                           
  1120                           ; 1 bytes @ 0x23
  1121  0043                     	ds	1
  1122  0044                     ___fldiv@new_exp:
  1123                           
  1124                           ; 2 bytes @ 0x24
  1125  0044                     	ds	2
  1126  0046                     ___fldiv@grs:
  1127                           
  1128                           ; 4 bytes @ 0x26
  1129  0046                     	ds	4
  1130  004A                     ___fldiv@bexp:
  1131                           
  1132                           ; 1 bytes @ 0x2A
  1133  004A                     	ds	1
  1134  004B                     ___fldiv@aexp:
  1135                           
  1136                           ; 1 bytes @ 0x2B
  1137  004B                     	ds	1
  1138  004C                     ?___flmul:
  1139  004C                     ___flmul@b:	
  1140                           ; 4 bytes @ 0x2C
  1141                           
  1142                           
  1143                           ; 4 bytes @ 0x2C
  1144  004C                     	ds	4
  1145  0050                     ___flmul@a:
  1146                           
  1147                           ; 4 bytes @ 0x30
  1148  0050                     	ds	4
  1149  0054                     ??___flmul:
  1150                           
  1151                           ; 1 bytes @ 0x34
  1152  0054                     	ds	5
  1153  0059                     ___flmul@sign:
  1154                           
  1155                           ; 1 bytes @ 0x39
  1156  0059                     	ds	1
  1157  005A                     ___flmul@grs:
  1158                           
  1159                           ; 4 bytes @ 0x3A
  1160  005A                     	ds	4
  1161  005E                     ___flmul@aexp:
  1162                           
  1163                           ; 1 bytes @ 0x3E
  1164  005E                     	ds	1
  1165  005F                     ___flmul@bexp:
  1166                           
  1167                           ; 1 bytes @ 0x3F
  1168  005F                     	ds	1
  1169  0060                     ___flmul@prod:
  1170                           
  1171                           ; 4 bytes @ 0x40
  1172  0060                     	ds	4
  1173  0064                     ___flmul@temp:
  1174                           
  1175                           ; 2 bytes @ 0x44
  1176  0064                     	ds	2
  1177  0066                     ?_ADC_convert:
  1178  0066                     ADC_convert@a:	
  1179                           ; 1 bytes @ 0x46
  1180                           
  1181                           
  1182                           ; 4 bytes @ 0x46
  1183  0066                     	ds	4
  1184  006A                     ADC_convert@place:
  1185                           
  1186                           ; 2 bytes @ 0x4A
  1187  006A                     	ds	2
  1188  006C                     ??_ADC_convert:
  1189                           
  1190                           ; 1 bytes @ 0x4C
  1191  006C                     	ds	2
  1192                           
  1193                           	psect	maintext
  1194  0B8A                     __pmaintext:	
  1195 ;;
  1196 ;;Main: autosize = 0, tempsize = 4, incstack = 0, save=0
  1197 ;;
  1198 ;; *************** function _main *****************
  1199 ;; Defined at:
  1200 ;;		line 52 in file "Lab04_master.c"
  1201 ;; Parameters:    Size  Location     Type
  1202 ;;		None
  1203 ;; Auto vars:     Size  Location     Type
  1204 ;;		None
  1205 ;; Return value:  Size  Location     Type
  1206 ;;                  1    wreg      void 
  1207 ;; Registers used:
  1208 ;;		wreg, fsr0l, fsr0h, status,2, status,0, btemp+1, pclath, cstack
  1209 ;; Tracked objects:
  1210 ;;		On entry : B00/0
  1211 ;;		On exit  : 0/0
  1212 ;;		Unchanged: 0/0
  1213 ;; Data sizes:     COMMON   BANK0   BANK1   BANK3   BANK2
  1214 ;;      Params:         0       0       0       0       0
  1215 ;;      Locals:         0       0       4       0       0
  1216 ;;      Temps:          0       0       4       0       0
  1217 ;;      Totals:         0       0       8       0       0
  1218 ;;Total ram usage:        8 bytes
  1219 ;; Hardware stack levels required when called:    3
  1220 ;; This function calls:
  1221 ;;		_ADC_convert
  1222 ;;		_I2C_Master_Read
  1223 ;;		_I2C_Master_Start
  1224 ;;		_I2C_Master_Stop
  1225 ;;		_I2C_Master_Write
  1226 ;;		_Lcd_Clear
  1227 ;;		_Lcd_Init
  1228 ;;		_Lcd_Set_Cursor
  1229 ;;		_Lcd_Write_String
  1230 ;;		___fldiv
  1231 ;;		___flmul
  1232 ;;		___xxtofl
  1233 ;;		_setup
  1234 ;; This function is called by:
  1235 ;;		Startup code after reset
  1236 ;; This function uses a non-reentrant model
  1237 ;;
  1238                           
  1239                           
  1240                           ;psect for function _main
  1241  0B8A                     _main:
  1242  0B8A                     l2951:	
  1243                           ;incstack = 0
  1244                           ; Regs used in _main: [wreg-fsr0h+status,2+status,0+btemp+1+pclath+cstack]
  1245                           
  1246                           
  1247                           ;Lab04_master.c: 53:     setup();
  1248  0B8A  160A  118A  257E  120A  158A  	fcall	_setup
  1249  0B8F                     l2953:
  1250                           
  1251                           ;Lab04_master.c: 54:     Lcd_Init();
  1252  0B8F  120A  158A  200A  120A  158A  	fcall	_Lcd_Init
  1253  0B94                     l2955:
  1254                           
  1255                           ;Lab04_master.c: 55:     Lcd_Clear();
  1256  0B94  160A  118A  2531  120A  158A  	fcall	_Lcd_Clear
  1257  0B99                     l2957:
  1258                           
  1259                           ;Lab04_master.c: 58:         Lcd_Set_Cursor(1, 1);
  1260  0B99  01F4               	clrf	Lcd_Set_Cursor@b
  1261  0B9A  0AF4               	incf	Lcd_Set_Cursor@b,f
  1262  0B9B  3001               	movlw	1
  1263  0B9C  160A  118A  25C4  120A  158A  	fcall	_Lcd_Set_Cursor
  1264  0BA1                     l2959:
  1265                           
  1266                           ;Lab04_master.c: 59:         Lcd_Write_String("S1:");
  1267  0BA1  3001               	movlw	(low ((STR_1-__stringbase)| (0+32768)))& (0+255)
  1268  0BA2  00F3               	movwf	Lcd_Write_String@a
  1269  0BA3  3080               	movlw	128
  1270  0BA4  00F4               	movwf	Lcd_Write_String@a+1
  1271  0BA5  160A  118A  269C  120A  158A  	fcall	_Lcd_Write_String
  1272  0BAA                     l2961:
  1273                           
  1274                           ;Lab04_master.c: 60:         Lcd_Set_Cursor(1, 8);
  1275  0BAA  3008               	movlw	8
  1276  0BAB  1683               	bsf	3,5	;RP0=1, select bank1
  1277  0BAC  1303               	bcf	3,6	;RP1=0, select bank1
  1278  0BAD  00D7               	movwf	??_main^(0+128)
  1279  0BAE  0857               	movf	??_main^(0+128),w
  1280  0BAF  00F4               	movwf	Lcd_Set_Cursor@b
  1281  0BB0  3001               	movlw	1
  1282  0BB1  160A  118A  25C4  120A  158A  	fcall	_Lcd_Set_Cursor
  1283  0BB6                     l2963:
  1284                           
  1285                           ;Lab04_master.c: 61:         Lcd_Write_String("S2:");
  1286  0BB6  3005               	movlw	(low ((STR_2-__stringbase)| (0+32768)))& (0+255)
  1287  0BB7  00F3               	movwf	Lcd_Write_String@a
  1288  0BB8  3080               	movlw	128
  1289  0BB9  00F4               	movwf	Lcd_Write_String@a+1
  1290  0BBA  160A  118A  269C  120A  158A  	fcall	_Lcd_Write_String
  1291  0BBF                     l2965:
  1292                           
  1293                           ;Lab04_master.c: 62:         Lcd_Set_Cursor(1, 15);
  1294  0BBF  300F               	movlw	15
  1295  0BC0  1683               	bsf	3,5	;RP0=1, select bank1
  1296  0BC1  1303               	bcf	3,6	;RP1=0, select bank1
  1297  0BC2  00D7               	movwf	??_main^(0+128)
  1298  0BC3  0857               	movf	??_main^(0+128),w
  1299  0BC4  00F4               	movwf	Lcd_Set_Cursor@b
  1300  0BC5  3001               	movlw	1
  1301  0BC6  160A  118A  25C4  120A  158A  	fcall	_Lcd_Set_Cursor
  1302  0BCB                     l2967:
  1303                           
  1304                           ;Lab04_master.c: 63:         Lcd_Write_String("S3:");
  1305  0BCB  3009               	movlw	(low ((STR_3-__stringbase)| (0+32768)))& (0+255)
  1306  0BCC  00F3               	movwf	Lcd_Write_String@a
  1307  0BCD  3080               	movlw	128
  1308  0BCE  00F4               	movwf	Lcd_Write_String@a+1
  1309  0BCF  160A  118A  269C  120A  158A  	fcall	_Lcd_Write_String
  1310  0BD4                     l2969:
  1311                           
  1312                           ;Lab04_master.c: 65:          I2C_Master_Start();
  1313  0BD4  160A  118A  2512  120A  158A  	fcall	_I2C_Master_Start
  1314  0BD9                     l2971:
  1315                           
  1316                           ;Lab04_master.c: 66:          I2C_Master_Write(0x11);
  1317  0BD9  3011               	movlw	17
  1318  0BDA  00F0               	movwf	I2C_Master_Write@d
  1319  0BDB  3000               	movlw	0
  1320  0BDC  00F1               	movwf	I2C_Master_Write@d+1
  1321  0BDD  120A  158A  2000  120A  158A  	fcall	_I2C_Master_Write
  1322  0BE2                     l2973:
  1323                           
  1324                           ;Lab04_master.c: 68:          var_adc0 = I2C_Master_Read(0);
  1325  0BE2  3000               	movlw	0
  1326  0BE3  00F0               	movwf	I2C_Master_Read@a
  1327  0BE4  00F1               	movwf	I2C_Master_Read@a+1
  1328  0BE5  160A  118A  2636  120A  158A  	fcall	_I2C_Master_Read
  1329  0BEA  0870               	movf	?_I2C_Master_Read,w
  1330  0BEB  1683               	bsf	3,5	;RP0=1, select bank1
  1331  0BEC  1303               	bcf	3,6	;RP1=0, select bank1
  1332  0BED  00D7               	movwf	??_main^(0+128)
  1333  0BEE  0857               	movf	??_main^(0+128),w
  1334  0BEF  00B3               	movwf	_var_adc0^(0+128)	;volatile
  1335  0BF0                     l2975:
  1336                           
  1337                           ;Lab04_master.c: 69:          I2C_Master_Stop();
  1338  0BF0  160A  118A  251B  120A  158A  	fcall	_I2C_Master_Stop
  1339  0BF5                     l2977:
  1340                           
  1341                           ;Lab04_master.c: 70:          _delay((unsigned long)((200)*(8000000/4000000.0)));
  1342  0BF5  3084               	movlw	132
  1343  0BF6  1683               	bsf	3,5	;RP0=1, select bank1
  1344  0BF7  1303               	bcf	3,6	;RP1=0, select bank1
  1345  0BF8  00D7               	movwf	??_main^(0+128)
  1346  0BF9                     u3737:
  1347  0BF9  0BD7               	decfsz	??_main^(0+128),f
  1348  0BFA  2BF9               	goto	u3737
  1349  0BFB  0000               	nop
  1350  0BFC                     l2979:
  1351                           
  1352                           ;Lab04_master.c: 72:          I2C_Master_Start();
  1353  0BFC  160A  118A  2512  120A  158A  	fcall	_I2C_Master_Start
  1354  0C01                     l2981:
  1355                           
  1356                           ;Lab04_master.c: 73:          I2C_Master_Write(0x21);
  1357  0C01  3021               	movlw	33
  1358  0C02  00F0               	movwf	I2C_Master_Write@d
  1359  0C03  3000               	movlw	0
  1360  0C04  00F1               	movwf	I2C_Master_Write@d+1
  1361  0C05  120A  158A  2000  120A  158A  	fcall	_I2C_Master_Write
  1362  0C0A                     l2983:
  1363                           
  1364                           ;Lab04_master.c: 75:          contador = I2C_Master_Read(0);
  1365  0C0A  3000               	movlw	0
  1366  0C0B  00F0               	movwf	I2C_Master_Read@a
  1367  0C0C  00F1               	movwf	I2C_Master_Read@a+1
  1368  0C0D  160A  118A  2636  120A  158A  	fcall	_I2C_Master_Read
  1369  0C12  0870               	movf	?_I2C_Master_Read,w
  1370  0C13  1683               	bsf	3,5	;RP0=1, select bank1
  1371  0C14  1303               	bcf	3,6	;RP1=0, select bank1
  1372  0C15  00D7               	movwf	??_main^(0+128)
  1373  0C16  0857               	movf	??_main^(0+128),w
  1374  0C17  00B2               	movwf	_contador^(0+128)
  1375  0C18                     l2985:
  1376                           
  1377                           ;Lab04_master.c: 76:          I2C_Master_Stop();
  1378  0C18  160A  118A  251B  120A  158A  	fcall	_I2C_Master_Stop
  1379  0C1D                     l2987:
  1380                           
  1381                           ;Lab04_master.c: 77:          _delay((unsigned long)((200)*(8000000/4000000.0)));
  1382  0C1D  3084               	movlw	132
  1383  0C1E  1683               	bsf	3,5	;RP0=1, select bank1
  1384  0C1F  1303               	bcf	3,6	;RP1=0, select bank1
  1385  0C20  00D7               	movwf	??_main^(0+128)
  1386  0C21                     u3747:
  1387  0C21  0BD7               	decfsz	??_main^(0+128),f
  1388  0C22  2C21               	goto	u3747
  1389  0C23  0000               	nop
  1390  0C24                     l2989:
  1391                           
  1392                           ;Lab04_master.c: 81:         Lcd_Set_Cursor(2, 1);
  1393  0C24  01F4               	clrf	Lcd_Set_Cursor@b
  1394  0C25  0AF4               	incf	Lcd_Set_Cursor@b,f
  1395  0C26  3002               	movlw	2
  1396  0C27  160A  118A  25C4  120A  158A  	fcall	_Lcd_Set_Cursor
  1397  0C2C                     l2991:
  1398                           
  1399                           ;Lab04_master.c: 82:         Lcd_Write_String(adc0);
  1400  0C2C  30BE               	movlw	(low (_adc0| 0))& (0+255)
  1401  0C2D  00F3               	movwf	Lcd_Write_String@a
  1402  0C2E  3000               	movlw	0
  1403  0C2F  00F4               	movwf	Lcd_Write_String@a+1
  1404  0C30  160A  118A  269C  120A  158A  	fcall	_Lcd_Write_String
  1405  0C35                     l2993:
  1406                           
  1407                           ;Lab04_master.c: 83:         Lcd_Set_Cursor(2, 5);
  1408  0C35  3005               	movlw	5
  1409  0C36  1683               	bsf	3,5	;RP0=1, select bank1
  1410  0C37  1303               	bcf	3,6	;RP1=0, select bank1
  1411  0C38  00D7               	movwf	??_main^(0+128)
  1412  0C39  0857               	movf	??_main^(0+128),w
  1413  0C3A  00F4               	movwf	Lcd_Set_Cursor@b
  1414  0C3B  3002               	movlw	2
  1415  0C3C  160A  118A  25C4  120A  158A  	fcall	_Lcd_Set_Cursor
  1416  0C41                     l2995:
  1417                           
  1418                           ;Lab04_master.c: 84:         Lcd_Write_String("V");
  1419  0C41  300F               	movlw	(low ((STR_4-__stringbase)| (0+32768)))& (0+255)
  1420  0C42  00F3               	movwf	Lcd_Write_String@a
  1421  0C43  3080               	movlw	128
  1422  0C44  00F4               	movwf	Lcd_Write_String@a+1
  1423  0C45  160A  118A  269C  120A  158A  	fcall	_Lcd_Write_String
  1424  0C4A                     l2997:
  1425                           
  1426                           ;Lab04_master.c: 86:         Lcd_Set_Cursor(2, 7);
  1427  0C4A  3007               	movlw	7
  1428  0C4B  1683               	bsf	3,5	;RP0=1, select bank1
  1429  0C4C  1303               	bcf	3,6	;RP1=0, select bank1
  1430  0C4D  00D7               	movwf	??_main^(0+128)
  1431  0C4E  0857               	movf	??_main^(0+128),w
  1432  0C4F  00F4               	movwf	Lcd_Set_Cursor@b
  1433  0C50  3002               	movlw	2
  1434  0C51  160A  118A  25C4  120A  158A  	fcall	_Lcd_Set_Cursor
  1435  0C56                     l2999:
  1436                           
  1437                           ;Lab04_master.c: 87:         Lcd_Write_String(contador_lcd);
  1438  0C56  30B4               	movlw	(low (_contador_lcd| 0))& (0+255)
  1439  0C57  00F3               	movwf	Lcd_Write_String@a
  1440  0C58  3000               	movlw	0
  1441  0C59  00F4               	movwf	Lcd_Write_String@a+1
  1442  0C5A  160A  118A  269C  120A  158A  	fcall	_Lcd_Write_String
  1443  0C5F                     l3001:
  1444                           
  1445                           ;Lab04_master.c: 88:         Lcd_Set_Cursor(2, 11);
  1446  0C5F  300B               	movlw	11
  1447  0C60  1683               	bsf	3,5	;RP0=1, select bank1
  1448  0C61  1303               	bcf	3,6	;RP1=0, select bank1
  1449  0C62  00D7               	movwf	??_main^(0+128)
  1450  0C63  0857               	movf	??_main^(0+128),w
  1451  0C64  00F4               	movwf	Lcd_Set_Cursor@b
  1452  0C65  3002               	movlw	2
  1453  0C66  160A  118A  25C4  120A  158A  	fcall	_Lcd_Set_Cursor
  1454  0C6B                     l3003:
  1455                           
  1456                           ;Lab04_master.c: 89:         Lcd_Write_String("U");
  1457  0C6B  300D               	movlw	(low ((STR_5-__stringbase)| (0+32768)))& (0+255)
  1458  0C6C  00F3               	movwf	Lcd_Write_String@a
  1459  0C6D  3080               	movlw	128
  1460  0C6E  00F4               	movwf	Lcd_Write_String@a+1
  1461  0C6F  160A  118A  269C  120A  158A  	fcall	_Lcd_Write_String
  1462  0C74                     l3005:
  1463                           
  1464                           ;Lab04_master.c: 94:         conv0 = 0;
  1465  0C74  3000               	movlw	0
  1466  0C75  1683               	bsf	3,5	;RP0=1, select bank1
  1467  0C76  1303               	bcf	3,6	;RP1=0, select bank1
  1468  0C77  00AD               	movwf	(_conv0+3)^(0+128)
  1469  0C78  3000               	movlw	0
  1470  0C79  00AC               	movwf	(_conv0+2)^(0+128)
  1471  0C7A  3000               	movlw	0
  1472  0C7B  00AB               	movwf	(_conv0+1)^(0+128)
  1473  0C7C  3000               	movlw	0
  1474  0C7D  00AA               	movwf	_conv0^(0+128)
  1475  0C7E                     l3007:
  1476                           
  1477                           ;Lab04_master.c: 95:         conv0 = (var_adc0 / (float) 255)*5;
  1478  0C7E  3040               	movlw	64
  1479  0C7F  1283               	bcf	3,5	;RP0=0, select bank0
  1480  0C80  1303               	bcf	3,6	;RP1=0, select bank0
  1481  0C81  00CF               	movwf	___flmul@b+3
  1482  0C82  30A0               	movlw	160
  1483  0C83  00CE               	movwf	___flmul@b+2
  1484  0C84  3000               	movlw	0
  1485  0C85  00CD               	movwf	___flmul@b+1
  1486  0C86  3000               	movlw	0
  1487  0C87  00CC               	movwf	___flmul@b
  1488  0C88  3043               	movlw	67
  1489  0C89  00B5               	movwf	___fldiv@a+3
  1490  0C8A  307F               	movlw	127
  1491  0C8B  00B4               	movwf	___fldiv@a+2
  1492  0C8C  3000               	movlw	0
  1493  0C8D  00B3               	movwf	___fldiv@a+1
  1494  0C8E  3000               	movlw	0
  1495  0C8F  00B2               	movwf	___fldiv@a
  1496  0C90  1683               	bsf	3,5	;RP0=1, select bank1
  1497  0C91  1303               	bcf	3,6	;RP1=0, select bank1
  1498  0C92  0833               	movf	_var_adc0^(0+128),w	;volatile
  1499  0C93  00D7               	movwf	??_main^(0+128)
  1500  0C94  01D8               	clrf	(??_main^(0+128)+1)
  1501  0C95  01D9               	clrf	(??_main^(0+128)+2)
  1502  0C96  01DA               	clrf	(??_main^(0+128)+3)
  1503  0C97  085A               	movf	(??_main+3)^(0+128),w
  1504  0C98  1283               	bcf	3,5	;RP0=0, select bank0
  1505  0C99  1303               	bcf	3,6	;RP1=0, select bank0
  1506  0C9A  00A7               	movwf	___xxtofl@val+3
  1507  0C9B  1683               	bsf	3,5	;RP0=1, select bank1
  1508  0C9C  1303               	bcf	3,6	;RP1=0, select bank1
  1509  0C9D  0859               	movf	(??_main+2)^(0+128),w
  1510  0C9E  1283               	bcf	3,5	;RP0=0, select bank0
  1511  0C9F  1303               	bcf	3,6	;RP1=0, select bank0
  1512  0CA0  00A6               	movwf	___xxtofl@val+2
  1513  0CA1  1683               	bsf	3,5	;RP0=1, select bank1
  1514  0CA2  1303               	bcf	3,6	;RP1=0, select bank1
  1515  0CA3  0858               	movf	(??_main+1)^(0+128),w
  1516  0CA4  1283               	bcf	3,5	;RP0=0, select bank0
  1517  0CA5  1303               	bcf	3,6	;RP1=0, select bank0
  1518  0CA6  00A5               	movwf	___xxtofl@val+1
  1519  0CA7  1683               	bsf	3,5	;RP0=1, select bank1
  1520  0CA8  1303               	bcf	3,6	;RP1=0, select bank1
  1521  0CA9  0857               	movf	??_main^(0+128),w
  1522  0CAA  1283               	bcf	3,5	;RP0=0, select bank0
  1523  0CAB  1303               	bcf	3,6	;RP1=0, select bank0
  1524  0CAC  00A4               	movwf	___xxtofl@val
  1525  0CAD  3001               	movlw	1
  1526  0CAE  120A  158A  20F1  120A  158A  	fcall	___xxtofl
  1527  0CB3  1283               	bcf	3,5	;RP0=0, select bank0
  1528  0CB4  1303               	bcf	3,6	;RP1=0, select bank0
  1529  0CB5  0827               	movf	?___xxtofl+3,w
  1530  0CB6  00B9               	movwf	___fldiv@b+3
  1531  0CB7  0826               	movf	?___xxtofl+2,w
  1532  0CB8  00B8               	movwf	___fldiv@b+2
  1533  0CB9  0825               	movf	?___xxtofl+1,w
  1534  0CBA  00B7               	movwf	___fldiv@b+1
  1535  0CBB  0824               	movf	?___xxtofl,w
  1536  0CBC  00B6               	movwf	___fldiv@b
  1537  0CBD  120A  158A  21AD  120A  158A  	fcall	___fldiv
  1538  0CC2  1283               	bcf	3,5	;RP0=0, select bank0
  1539  0CC3  1303               	bcf	3,6	;RP1=0, select bank0
  1540  0CC4  0835               	movf	?___fldiv+3,w
  1541  0CC5  00D3               	movwf	___flmul@a+3
  1542  0CC6  0834               	movf	?___fldiv+2,w
  1543  0CC7  00D2               	movwf	___flmul@a+2
  1544  0CC8  0833               	movf	?___fldiv+1,w
  1545  0CC9  00D1               	movwf	___flmul@a+1
  1546  0CCA  0832               	movf	?___fldiv,w
  1547  0CCB  00D0               	movwf	___flmul@a
  1548  0CCC  120A  118A  2090  120A  158A  	fcall	___flmul
  1549  0CD1  1283               	bcf	3,5	;RP0=0, select bank0
  1550  0CD2  1303               	bcf	3,6	;RP1=0, select bank0
  1551  0CD3  084F               	movf	?___flmul+3,w
  1552  0CD4  1683               	bsf	3,5	;RP0=1, select bank1
  1553  0CD5  1303               	bcf	3,6	;RP1=0, select bank1
  1554  0CD6  00AD               	movwf	(_conv0+3)^(0+128)
  1555  0CD7  1283               	bcf	3,5	;RP0=0, select bank0
  1556  0CD8  1303               	bcf	3,6	;RP1=0, select bank0
  1557  0CD9  084E               	movf	?___flmul+2,w
  1558  0CDA  1683               	bsf	3,5	;RP0=1, select bank1
  1559  0CDB  1303               	bcf	3,6	;RP1=0, select bank1
  1560  0CDC  00AC               	movwf	(_conv0+2)^(0+128)
  1561  0CDD  1283               	bcf	3,5	;RP0=0, select bank0
  1562  0CDE  1303               	bcf	3,6	;RP1=0, select bank0
  1563  0CDF  084D               	movf	?___flmul+1,w
  1564  0CE0  1683               	bsf	3,5	;RP0=1, select bank1
  1565  0CE1  1303               	bcf	3,6	;RP1=0, select bank1
  1566  0CE2  00AB               	movwf	(_conv0+1)^(0+128)
  1567  0CE3  1283               	bcf	3,5	;RP0=0, select bank0
  1568  0CE4  1303               	bcf	3,6	;RP1=0, select bank0
  1569  0CE5  084C               	movf	?___flmul,w
  1570  0CE6  1683               	bsf	3,5	;RP0=1, select bank1
  1571  0CE7  1303               	bcf	3,6	;RP1=0, select bank1
  1572  0CE8  00AA               	movwf	_conv0^(0+128)
  1573  0CE9                     l3009:
  1574                           
  1575                           ;Lab04_master.c: 98:         ADC_convert(adc0, conv0, 2);
  1576  0CE9  082D               	movf	(_conv0+3)^(0+128),w
  1577  0CEA  1283               	bcf	3,5	;RP0=0, select bank0
  1578  0CEB  1303               	bcf	3,6	;RP1=0, select bank0
  1579  0CEC  00E9               	movwf	ADC_convert@a+3
  1580  0CED  1683               	bsf	3,5	;RP0=1, select bank1
  1581  0CEE  1303               	bcf	3,6	;RP1=0, select bank1
  1582  0CEF  082C               	movf	(_conv0+2)^(0+128),w
  1583  0CF0  1283               	bcf	3,5	;RP0=0, select bank0
  1584  0CF1  1303               	bcf	3,6	;RP1=0, select bank0
  1585  0CF2  00E8               	movwf	ADC_convert@a+2
  1586  0CF3  1683               	bsf	3,5	;RP0=1, select bank1
  1587  0CF4  1303               	bcf	3,6	;RP1=0, select bank1
  1588  0CF5  082B               	movf	(_conv0+1)^(0+128),w
  1589  0CF6  1283               	bcf	3,5	;RP0=0, select bank0
  1590  0CF7  1303               	bcf	3,6	;RP1=0, select bank0
  1591  0CF8  00E7               	movwf	ADC_convert@a+1
  1592  0CF9  1683               	bsf	3,5	;RP0=1, select bank1
  1593  0CFA  1303               	bcf	3,6	;RP1=0, select bank1
  1594  0CFB  082A               	movf	_conv0^(0+128),w
  1595  0CFC  1283               	bcf	3,5	;RP0=0, select bank0
  1596  0CFD  1303               	bcf	3,6	;RP1=0, select bank0
  1597  0CFE  00E6               	movwf	ADC_convert@a
  1598  0CFF  3002               	movlw	2
  1599  0D00  00EA               	movwf	ADC_convert@place
  1600  0D01  3000               	movlw	0
  1601  0D02  00EB               	movwf	ADC_convert@place+1
  1602  0D03  30BE               	movlw	(low (_adc0| 0))& (0+255)
  1603  0D04  120A  118A  23F1  120A  158A  	fcall	_ADC_convert
  1604  0D09                     l3011:
  1605                           
  1606                           ;Lab04_master.c: 100:         ADC_convert(contador_lcd, contador, 2);
  1607  0D09  1683               	bsf	3,5	;RP0=1, select bank1
  1608  0D0A  1303               	bcf	3,6	;RP1=0, select bank1
  1609  0D0B  0832               	movf	_contador^(0+128),w
  1610  0D0C  00D7               	movwf	??_main^(0+128)
  1611  0D0D  01D8               	clrf	(??_main^(0+128)+1)
  1612  0D0E  01D9               	clrf	(??_main^(0+128)+2)
  1613  0D0F  01DA               	clrf	(??_main^(0+128)+3)
  1614  0D10  085A               	movf	(??_main+3)^(0+128),w
  1615  0D11  1283               	bcf	3,5	;RP0=0, select bank0
  1616  0D12  1303               	bcf	3,6	;RP1=0, select bank0
  1617  0D13  00A7               	movwf	___xxtofl@val+3
  1618  0D14  1683               	bsf	3,5	;RP0=1, select bank1
  1619  0D15  1303               	bcf	3,6	;RP1=0, select bank1
  1620  0D16  0859               	movf	(??_main+2)^(0+128),w
  1621  0D17  1283               	bcf	3,5	;RP0=0, select bank0
  1622  0D18  1303               	bcf	3,6	;RP1=0, select bank0
  1623  0D19  00A6               	movwf	___xxtofl@val+2
  1624  0D1A  1683               	bsf	3,5	;RP0=1, select bank1
  1625  0D1B  1303               	bcf	3,6	;RP1=0, select bank1
  1626  0D1C  0858               	movf	(??_main+1)^(0+128),w
  1627  0D1D  1283               	bcf	3,5	;RP0=0, select bank0
  1628  0D1E  1303               	bcf	3,6	;RP1=0, select bank0
  1629  0D1F  00A5               	movwf	___xxtofl@val+1
  1630  0D20  1683               	bsf	3,5	;RP0=1, select bank1
  1631  0D21  1303               	bcf	3,6	;RP1=0, select bank1
  1632  0D22  0857               	movf	??_main^(0+128),w
  1633  0D23  1283               	bcf	3,5	;RP0=0, select bank0
  1634  0D24  1303               	bcf	3,6	;RP1=0, select bank0
  1635  0D25  00A4               	movwf	___xxtofl@val
  1636  0D26  3000               	movlw	0
  1637  0D27  120A  158A  20F1  120A  158A  	fcall	___xxtofl
  1638  0D2C  1283               	bcf	3,5	;RP0=0, select bank0
  1639  0D2D  1303               	bcf	3,6	;RP1=0, select bank0
  1640  0D2E  0827               	movf	?___xxtofl+3,w
  1641  0D2F  1683               	bsf	3,5	;RP0=1, select bank1
  1642  0D30  1303               	bcf	3,6	;RP1=0, select bank1
  1643  0D31  00DE               	movwf	(_main$1129+3)^(0+128)
  1644  0D32  1283               	bcf	3,5	;RP0=0, select bank0
  1645  0D33  1303               	bcf	3,6	;RP1=0, select bank0
  1646  0D34  0826               	movf	?___xxtofl+2,w
  1647  0D35  1683               	bsf	3,5	;RP0=1, select bank1
  1648  0D36  1303               	bcf	3,6	;RP1=0, select bank1
  1649  0D37  00DD               	movwf	(_main$1129+2)^(0+128)
  1650  0D38  1283               	bcf	3,5	;RP0=0, select bank0
  1651  0D39  1303               	bcf	3,6	;RP1=0, select bank0
  1652  0D3A  0825               	movf	?___xxtofl+1,w
  1653  0D3B  1683               	bsf	3,5	;RP0=1, select bank1
  1654  0D3C  1303               	bcf	3,6	;RP1=0, select bank1
  1655  0D3D  00DC               	movwf	(_main$1129+1)^(0+128)
  1656  0D3E  1283               	bcf	3,5	;RP0=0, select bank0
  1657  0D3F  1303               	bcf	3,6	;RP1=0, select bank0
  1658  0D40  0824               	movf	?___xxtofl,w
  1659  0D41  1683               	bsf	3,5	;RP0=1, select bank1
  1660  0D42  1303               	bcf	3,6	;RP1=0, select bank1
  1661  0D43  00DB               	movwf	_main$1129^(0+128)
  1662  0D44                     l3013:
  1663                           
  1664                           ;Lab04_master.c: 100:         ADC_convert(contador_lcd, contador, 2);
  1665  0D44  085E               	movf	(_main$1129+3)^(0+128),w
  1666  0D45  1283               	bcf	3,5	;RP0=0, select bank0
  1667  0D46  1303               	bcf	3,6	;RP1=0, select bank0
  1668  0D47  00E9               	movwf	ADC_convert@a+3
  1669  0D48  1683               	bsf	3,5	;RP0=1, select bank1
  1670  0D49  1303               	bcf	3,6	;RP1=0, select bank1
  1671  0D4A  085D               	movf	(_main$1129+2)^(0+128),w
  1672  0D4B  1283               	bcf	3,5	;RP0=0, select bank0
  1673  0D4C  1303               	bcf	3,6	;RP1=0, select bank0
  1674  0D4D  00E8               	movwf	ADC_convert@a+2
  1675  0D4E  1683               	bsf	3,5	;RP0=1, select bank1
  1676  0D4F  1303               	bcf	3,6	;RP1=0, select bank1
  1677  0D50  085C               	movf	(_main$1129+1)^(0+128),w
  1678  0D51  1283               	bcf	3,5	;RP0=0, select bank0
  1679  0D52  1303               	bcf	3,6	;RP1=0, select bank0
  1680  0D53  00E7               	movwf	ADC_convert@a+1
  1681  0D54  1683               	bsf	3,5	;RP0=1, select bank1
  1682  0D55  1303               	bcf	3,6	;RP1=0, select bank1
  1683  0D56  085B               	movf	_main$1129^(0+128),w
  1684  0D57  1283               	bcf	3,5	;RP0=0, select bank0
  1685  0D58  1303               	bcf	3,6	;RP1=0, select bank0
  1686  0D59  00E6               	movwf	ADC_convert@a
  1687  0D5A  3002               	movlw	2
  1688  0D5B  00EA               	movwf	ADC_convert@place
  1689  0D5C  3000               	movlw	0
  1690  0D5D  00EB               	movwf	ADC_convert@place+1
  1691  0D5E  30B4               	movlw	(low (_contador_lcd| 0))& (0+255)
  1692  0D5F  120A  118A  23F1  120A  158A  	fcall	_ADC_convert
  1693  0D64  2B99               	goto	l2957
  1694  0D65  120A  118A  2800   	ljmp	start
  1695  0D68                     __end_of_main:
  1696                           
  1697                           	psect	text1
  1698  157E                     __ptext1:	
  1699 ;; *************** function _setup *****************
  1700 ;; Defined at:
  1701 ;;		line 104 in file "Lab04_master.c"
  1702 ;; Parameters:    Size  Location     Type
  1703 ;;		None
  1704 ;; Auto vars:     Size  Location     Type
  1705 ;;		None
  1706 ;; Return value:  Size  Location     Type
  1707 ;;                  1    wreg      void 
  1708 ;; Registers used:
  1709 ;;		wreg, fsr0l, fsr0h, status,2, status,0, pclath, cstack
  1710 ;; Tracked objects:
  1711 ;;		On entry : 0/0
  1712 ;;		On exit  : 0/0
  1713 ;;		Unchanged: 0/0
  1714 ;; Data sizes:     COMMON   BANK0   BANK1   BANK3   BANK2
  1715 ;;      Params:         0       0       0       0       0
  1716 ;;      Locals:         0       0       0       0       0
  1717 ;;      Temps:          0       0       0       0       0
  1718 ;;      Totals:         0       0       0       0       0
  1719 ;;Total ram usage:        0 bytes
  1720 ;; Hardware stack levels used:    1
  1721 ;; Hardware stack levels required when called:    2
  1722 ;; This function calls:
  1723 ;;		_I2C_Master_Init
  1724 ;;		_conf_osc
  1725 ;; This function is called by:
  1726 ;;		_main
  1727 ;; This function uses a non-reentrant model
  1728 ;;
  1729                           
  1730                           
  1731                           ;psect for function _setup
  1732  157E                     _setup:
  1733  157E                     l2937:	
  1734                           ;incstack = 0
  1735                           ; Regs used in _setup: [wreg-fsr0h+status,2+status,0+pclath+cstack]
  1736                           
  1737                           
  1738                           ;Lab04_master.c: 105:     ANSEL = 0x00;
  1739  157E  1683               	bsf	3,5	;RP0=1, select bank3
  1740  157F  1703               	bsf	3,6	;RP1=1, select bank3
  1741  1580  0188               	clrf	8	;volatile
  1742                           
  1743                           ;Lab04_master.c: 106:     ANSELH = 0x00;
  1744  1581  0189               	clrf	9	;volatile
  1745                           
  1746                           ;Lab04_master.c: 108:     TRISA = 0x00;
  1747  1582  1683               	bsf	3,5	;RP0=1, select bank1
  1748  1583  1303               	bcf	3,6	;RP1=0, select bank1
  1749  1584  0185               	clrf	5	;volatile
  1750                           
  1751                           ;Lab04_master.c: 109:     TRISB = 0x00;
  1752  1585  0186               	clrf	6	;volatile
  1753                           
  1754                           ;Lab04_master.c: 110:     TRISE = 0x00;
  1755  1586  0189               	clrf	9	;volatile
  1756                           
  1757                           ;Lab04_master.c: 112:     PORTA = 0X00;
  1758  1587  1283               	bcf	3,5	;RP0=0, select bank0
  1759  1588  1303               	bcf	3,6	;RP1=0, select bank0
  1760  1589  0185               	clrf	5	;volatile
  1761                           
  1762                           ;Lab04_master.c: 113:     PORTB = 0x00;
  1763  158A  0186               	clrf	6	;volatile
  1764                           
  1765                           ;Lab04_master.c: 114:     PORTE = 0x00;
  1766  158B  0189               	clrf	9	;volatile
  1767  158C                     l2939:
  1768                           
  1769                           ;Lab04_master.c: 116:     I2C_Master_Init(100000);
  1770  158C  3000               	movlw	0
  1771  158D  00A3               	movwf	I2C_Master_Init@c+3
  1772  158E  3001               	movlw	1
  1773  158F  00A2               	movwf	I2C_Master_Init@c+2
  1774  1590  3086               	movlw	134
  1775  1591  00A1               	movwf	I2C_Master_Init@c+1
  1776  1592  30A0               	movlw	160
  1777  1593  00A0               	movwf	I2C_Master_Init@c
  1778  1594  160A  118A  2664  160A  118A  	fcall	_I2C_Master_Init
  1779  1599                     l2941:
  1780                           
  1781                           ;Lab04_master.c: 119:     conf_osc(7);
  1782  1599  3007               	movlw	7
  1783  159A  160A  118A  26DE  160A  118A  	fcall	_conf_osc
  1784  159F                     l293:
  1785  159F  0008               	return
  1786  15A0                     __end_of_setup:
  1787                           
  1788                           	psect	text2
  1789  16DE                     __ptext2:	
  1790 ;; *************** function _conf_osc *****************
  1791 ;; Defined at:
  1792 ;;		line 23 in file "configuraciones_pic.c"
  1793 ;; Parameters:    Size  Location     Type
  1794 ;;  frec            1    wreg     unsigned char 
  1795 ;; Auto vars:     Size  Location     Type
  1796 ;;  frec            1    2[COMMON] unsigned char 
  1797 ;; Return value:  Size  Location     Type
  1798 ;;                  1    wreg      void 
  1799 ;; Registers used:
  1800 ;;		wreg, fsr0l, fsr0h, status,2, status,0
  1801 ;; Tracked objects:
  1802 ;;		On entry : 0/0
  1803 ;;		On exit  : 0/0
  1804 ;;		Unchanged: 0/0
  1805 ;; Data sizes:     COMMON   BANK0   BANK1   BANK3   BANK2
  1806 ;;      Params:         0       0       0       0       0
  1807 ;;      Locals:         1       0       0       0       0
  1808 ;;      Temps:          2       0       0       0       0
  1809 ;;      Totals:         3       0       0       0       0
  1810 ;;Total ram usage:        3 bytes
  1811 ;; Hardware stack levels used:    1
  1812 ;; This function calls:
  1813 ;;		Nothing
  1814 ;; This function is called by:
  1815 ;;		_setup
  1816 ;; This function uses a non-reentrant model
  1817 ;;
  1818                           
  1819                           
  1820                           ;psect for function _conf_osc
  1821  16DE                     _conf_osc:
  1822                           
  1823                           ;incstack = 0
  1824                           ; Regs used in _conf_osc: [wreg-fsr0h+status,2+status,0]
  1825                           ;conf_osc@frec stored from wreg
  1826  16DE  00F2               	movwf	conf_osc@frec
  1827  16DF                     l2267:
  1828                           
  1829                           ;configuraciones_pic.c: 24:     switch(frec){
  1830  16DF  2F12               	goto	l2287
  1831  16E0                     l2269:
  1832                           
  1833                           ;configuraciones_pic.c: 26:             OSCCONbits.IRCF = 000;
  1834  16E0  308F               	movlw	-113
  1835  16E1  1683               	bsf	3,5	;RP0=1, select bank1
  1836  16E2  1303               	bcf	3,6	;RP1=0, select bank1
  1837  16E3  058F               	andwf	15,f	;volatile
  1838                           
  1839                           ;configuraciones_pic.c: 27:             break;
  1840  16E4  2F31               	goto	l11
  1841  16E5                     l2271:
  1842                           
  1843                           ;configuraciones_pic.c: 29:             OSCCONbits.IRCF = 001;
  1844  16E5  1683               	bsf	3,5	;RP0=1, select bank1
  1845  16E6  1303               	bcf	3,6	;RP1=0, select bank1
  1846  16E7  080F               	movf	15,w	;volatile
  1847  16E8  398F               	andlw	-113
  1848  16E9  3810               	iorlw	16
  1849  16EA  008F               	movwf	15	;volatile
  1850                           
  1851                           ;configuraciones_pic.c: 30:             break;
  1852  16EB  2F31               	goto	l11
  1853  16EC                     l2273:
  1854                           
  1855                           ;configuraciones_pic.c: 32:             OSCCONbits.IRCF = 010;
  1856  16EC  308F               	movlw	-113
  1857  16ED  1683               	bsf	3,5	;RP0=1, select bank1
  1858  16EE  1303               	bcf	3,6	;RP1=0, select bank1
  1859  16EF  058F               	andwf	15,f	;volatile
  1860                           
  1861                           ;configuraciones_pic.c: 33:             break;
  1862  16F0  2F31               	goto	l11
  1863  16F1                     l2275:
  1864                           
  1865                           ;configuraciones_pic.c: 35:             OSCCONbits.IRCF = 011;
  1866  16F1  1683               	bsf	3,5	;RP0=1, select bank1
  1867  16F2  1303               	bcf	3,6	;RP1=0, select bank1
  1868  16F3  080F               	movf	15,w	;volatile
  1869  16F4  398F               	andlw	-113
  1870  16F5  3810               	iorlw	16
  1871  16F6  008F               	movwf	15	;volatile
  1872                           
  1873                           ;configuraciones_pic.c: 36:             break;
  1874  16F7  2F31               	goto	l11
  1875  16F8                     l2277:
  1876                           
  1877                           ;configuraciones_pic.c: 38:             OSCCONbits.IRCF = 100;
  1878  16F8  1683               	bsf	3,5	;RP0=1, select bank1
  1879  16F9  1303               	bcf	3,6	;RP1=0, select bank1
  1880  16FA  080F               	movf	15,w	;volatile
  1881  16FB  398F               	andlw	-113
  1882  16FC  3840               	iorlw	64
  1883  16FD  008F               	movwf	15	;volatile
  1884                           
  1885                           ;configuraciones_pic.c: 39:             break;
  1886  16FE  2F31               	goto	l11
  1887  16FF                     l2279:
  1888                           
  1889                           ;configuraciones_pic.c: 41:             OSCCONbits.IRCF = 101;
  1890  16FF  1683               	bsf	3,5	;RP0=1, select bank1
  1891  1700  1303               	bcf	3,6	;RP1=0, select bank1
  1892  1701  080F               	movf	15,w	;volatile
  1893  1702  398F               	andlw	-113
  1894  1703  3850               	iorlw	80
  1895  1704  008F               	movwf	15	;volatile
  1896                           
  1897                           ;configuraciones_pic.c: 42:             break;
  1898  1705  2F31               	goto	l11
  1899  1706                     l2281:
  1900                           
  1901                           ;configuraciones_pic.c: 44:             OSCCONbits.IRCF = 111;
  1902  1706  3070               	movlw	112
  1903  1707  1683               	bsf	3,5	;RP0=1, select bank1
  1904  1708  1303               	bcf	3,6	;RP1=0, select bank1
  1905  1709  048F               	iorwf	15,f	;volatile
  1906                           
  1907                           ;configuraciones_pic.c: 45:             break;
  1908  170A  2F31               	goto	l11
  1909  170B                     l2283:
  1910                           
  1911                           ;configuraciones_pic.c: 47:             OSCCONbits.IRCF = 110;
  1912  170B  1683               	bsf	3,5	;RP0=1, select bank1
  1913  170C  1303               	bcf	3,6	;RP1=0, select bank1
  1914  170D  080F               	movf	15,w	;volatile
  1915  170E  398F               	andlw	-113
  1916  170F  3860               	iorlw	96
  1917  1710  008F               	movwf	15	;volatile
  1918                           
  1919                           ;configuraciones_pic.c: 48:             break;
  1920  1711  2F31               	goto	l11
  1921  1712                     l2287:
  1922  1712  0872               	movf	conf_osc@frec,w
  1923  1713  00F0               	movwf	??_conf_osc
  1924  1714  01F1               	clrf	??_conf_osc+1
  1925                           
  1926                           ; Switch on 2 bytes has been partitioned into a top level switch of size 1, and 1 sub-sw
      +                          itches
  1927                           ; Switch size 1, requested type "simple"
  1928                           ; Number of cases is 1, Range of values is 0 to 0
  1929                           ; switch strategies available:
  1930                           ; Name         Instructions Cycles
  1931                           ; simple_byte            4     3 (average)
  1932                           ; direct_byte           11     8 (fixed)
  1933                           ; jumptable            260     6 (fixed)
  1934                           ;	Chosen strategy is simple_byte
  1935  1715  0871               	movf	??_conf_osc+1,w
  1936  1716  3A00               	xorlw	0	; case 0
  1937  1717  1903               	skipnz
  1938  1718  2F1A               	goto	l3035
  1939  1719  2F0B               	goto	l2283
  1940  171A                     l3035:
  1941                           
  1942                           ; Switch size 1, requested type "simple"
  1943                           ; Number of cases is 7, Range of values is 0 to 7
  1944                           ; switch strategies available:
  1945                           ; Name         Instructions Cycles
  1946                           ; simple_byte           22    12 (average)
  1947                           ; direct_byte           32     8 (fixed)
  1948                           ; jumptable            260     6 (fixed)
  1949                           ;	Chosen strategy is simple_byte
  1950  171A  0870               	movf	??_conf_osc,w
  1951  171B  3A00               	xorlw	0	; case 0
  1952  171C  1903               	skipnz
  1953  171D  2EE0               	goto	l2269
  1954  171E  3A01               	xorlw	1	; case 1
  1955  171F  1903               	skipnz
  1956  1720  2EE5               	goto	l2271
  1957  1721  3A03               	xorlw	3	; case 2
  1958  1722  1903               	skipnz
  1959  1723  2EEC               	goto	l2273
  1960  1724  3A01               	xorlw	1	; case 3
  1961  1725  1903               	skipnz
  1962  1726  2EF1               	goto	l2275
  1963  1727  3A07               	xorlw	7	; case 4
  1964  1728  1903               	skipnz
  1965  1729  2EF8               	goto	l2277
  1966  172A  3A01               	xorlw	1	; case 5
  1967  172B  1903               	skipnz
  1968  172C  2EFF               	goto	l2279
  1969  172D  3A02               	xorlw	2	; case 7
  1970  172E  1903               	skipnz
  1971  172F  2F06               	goto	l2281
  1972  1730  2F0B               	goto	l2283
  1973  1731                     l11:
  1974                           
  1975                           ;configuraciones_pic.c: 50:     OSCCONbits.SCS = 1;
  1976  1731  140F               	bsf	15,0	;volatile
  1977  1732                     l19:
  1978  1732  0008               	return
  1979  1733                     __end_of_conf_osc:
  1980                           
  1981                           	psect	text3
  1982  1664                     __ptext3:	
  1983 ;; *************** function _I2C_Master_Init *****************
  1984 ;; Defined at:
  1985 ;;		line 16 in file "I2C.c"
  1986 ;; Parameters:    Size  Location     Type
  1987 ;;  c               4    0[BANK0 ] const unsigned long 
  1988 ;; Auto vars:     Size  Location     Type
  1989 ;;		None
  1990 ;; Return value:  Size  Location     Type
  1991 ;;                  1    wreg      void 
  1992 ;; Registers used:
  1993 ;;		wreg, status,2, status,0, pclath, cstack
  1994 ;; Tracked objects:
  1995 ;;		On entry : 0/0
  1996 ;;		On exit  : 0/0
  1997 ;;		Unchanged: 0/0
  1998 ;; Data sizes:     COMMON   BANK0   BANK1   BANK3   BANK2
  1999 ;;      Params:         0       4       0       0       0
  2000 ;;      Locals:         0       0       0       0       0
  2001 ;;      Temps:          0       4       0       0       0
  2002 ;;      Totals:         0       8       0       0       0
  2003 ;;Total ram usage:        8 bytes
  2004 ;; Hardware stack levels used:    1
  2005 ;; Hardware stack levels required when called:    1
  2006 ;; This function calls:
  2007 ;;		___lldiv
  2008 ;; This function is called by:
  2009 ;;		_setup
  2010 ;; This function uses a non-reentrant model
  2011 ;;
  2012                           
  2013                           
  2014                           ;psect for function _I2C_Master_Init
  2015  1664                     _I2C_Master_Init:
  2016  1664                     l2313:	
  2017                           ;incstack = 0
  2018                           ; Regs used in _I2C_Master_Init: [wreg+status,2+status,0+pclath+cstack]
  2019                           
  2020                           
  2021                           ;I2C.c: 16: void I2C_Master_Init(const unsigned long c);I2C.c: 17: {;I2C.c: 18:     SSPC
      +                          ON = 0b00101000;
  2022  1664  3028               	movlw	40
  2023  1665  1283               	bcf	3,5	;RP0=0, select bank0
  2024  1666  1303               	bcf	3,6	;RP1=0, select bank0
  2025  1667  0094               	movwf	20	;volatile
  2026  1668                     l2315:
  2027                           
  2028                           ;I2C.c: 19:     SSPCON2 = 0;
  2029  1668  1683               	bsf	3,5	;RP0=1, select bank1
  2030  1669  1303               	bcf	3,6	;RP1=0, select bank1
  2031  166A  0191               	clrf	17	;volatile
  2032  166B                     l2317:
  2033                           
  2034                           ;I2C.c: 20:     SSPADD = (8000000/(4*c))-1;
  2035  166B  1283               	bcf	3,5	;RP0=0, select bank0
  2036  166C  1303               	bcf	3,6	;RP1=0, select bank0
  2037  166D  0820               	movf	I2C_Master_Init@c,w
  2038  166E  00A4               	movwf	??_I2C_Master_Init
  2039  166F  0821               	movf	I2C_Master_Init@c+1,w
  2040  1670  00A5               	movwf	??_I2C_Master_Init+1
  2041  1671  0822               	movf	I2C_Master_Init@c+2,w
  2042  1672  00A6               	movwf	??_I2C_Master_Init+2
  2043  1673  0823               	movf	I2C_Master_Init@c+3,w
  2044  1674  00A7               	movwf	??_I2C_Master_Init+3
  2045  1675  3002               	movlw	2
  2046  1676                     u2445:
  2047  1676  1003               	clrc
  2048  1677  0DA4               	rlf	??_I2C_Master_Init,f
  2049  1678  0DA5               	rlf	??_I2C_Master_Init+1,f
  2050  1679  0DA6               	rlf	??_I2C_Master_Init+2,f
  2051  167A  0DA7               	rlf	??_I2C_Master_Init+3,f
  2052  167B                     u2440:
  2053  167B  3EFF               	addlw	-1
  2054  167C  1D03               	skipz
  2055  167D  2E76               	goto	u2445
  2056  167E  0827               	movf	??_I2C_Master_Init+3,w
  2057  167F  00F3               	movwf	___lldiv@divisor+3
  2058  1680  0826               	movf	??_I2C_Master_Init+2,w
  2059  1681  00F2               	movwf	___lldiv@divisor+2
  2060  1682  0825               	movf	??_I2C_Master_Init+1,w
  2061  1683  00F1               	movwf	___lldiv@divisor+1
  2062  1684  0824               	movf	??_I2C_Master_Init,w
  2063  1685  00F0               	movwf	___lldiv@divisor
  2064  1686  3000               	movlw	0
  2065  1687  00F7               	movwf	___lldiv@dividend+3
  2066  1688  307A               	movlw	122
  2067  1689  00F6               	movwf	___lldiv@dividend+2
  2068  168A  3012               	movlw	18
  2069  168B  00F5               	movwf	___lldiv@dividend+1
  2070  168C  3000               	movlw	0
  2071  168D  00F4               	movwf	___lldiv@dividend
  2072  168E  160A  118A  2733  160A  118A  	fcall	___lldiv
  2073  1693  0870               	movf	?___lldiv,w
  2074  1694  3EFF               	addlw	255
  2075  1695  1683               	bsf	3,5	;RP0=1, select bank1
  2076  1696  1303               	bcf	3,6	;RP1=0, select bank1
  2077  1697  0093               	movwf	19	;volatile
  2078  1698                     l2319:
  2079                           
  2080                           ;I2C.c: 21:     SSPSTAT = 0;
  2081  1698  0194               	clrf	20	;volatile
  2082  1699                     l2321:
  2083                           
  2084                           ;I2C.c: 22:     TRISCbits.TRISC3 = 1;
  2085  1699  1587               	bsf	7,3	;volatile
  2086  169A                     l2323:
  2087                           
  2088                           ;I2C.c: 23:     TRISCbits.TRISC4 = 1;
  2089  169A  1607               	bsf	7,4	;volatile
  2090  169B                     l198:
  2091  169B  0008               	return
  2092  169C                     __end_of_I2C_Master_Init:
  2093                           
  2094                           	psect	text4
  2095  1733                     __ptext4:	
  2096 ;; *************** function ___lldiv *****************
  2097 ;; Defined at:
  2098 ;;		line 5 in file "C:\Program Files\Microchip\xc8\v2.31\pic\sources\c90\common\__lldiv.c"
  2099 ;; Parameters:    Size  Location     Type
  2100 ;;  divisor         4    0[COMMON] unsigned long 
  2101 ;;  dividend        4    4[COMMON] unsigned long 
  2102 ;; Auto vars:     Size  Location     Type
  2103 ;;  quotient        4    9[COMMON] unsigned long 
  2104 ;;  counter         1   13[COMMON] unsigned char 
  2105 ;; Return value:  Size  Location     Type
  2106 ;;                  4    0[COMMON] unsigned long 
  2107 ;; Registers used:
  2108 ;;		wreg, status,2, status,0
  2109 ;; Tracked objects:
  2110 ;;		On entry : 0/0
  2111 ;;		On exit  : 0/0
  2112 ;;		Unchanged: 0/0
  2113 ;; Data sizes:     COMMON   BANK0   BANK1   BANK3   BANK2
  2114 ;;      Params:         8       0       0       0       0
  2115 ;;      Locals:         5       0       0       0       0
  2116 ;;      Temps:          1       0       0       0       0
  2117 ;;      Totals:        14       0       0       0       0
  2118 ;;Total ram usage:       14 bytes
  2119 ;; Hardware stack levels used:    1
  2120 ;; This function calls:
  2121 ;;		Nothing
  2122 ;; This function is called by:
  2123 ;;		_I2C_Master_Init
  2124 ;; This function uses a non-reentrant model
  2125 ;;
  2126                           
  2127                           
  2128                           ;psect for function ___lldiv
  2129  1733                     ___lldiv:
  2130  1733                     l2035:	
  2131                           ;incstack = 0
  2132                           ; Regs used in ___lldiv: [wreg+status,2+status,0]
  2133                           
  2134  1733  3000               	movlw	0
  2135  1734  00FC               	movwf	___lldiv@quotient+3
  2136  1735  3000               	movlw	0
  2137  1736  00FB               	movwf	___lldiv@quotient+2
  2138  1737  3000               	movlw	0
  2139  1738  00FA               	movwf	___lldiv@quotient+1
  2140  1739  3000               	movlw	0
  2141  173A  00F9               	movwf	___lldiv@quotient
  2142  173B  0873               	movf	___lldiv@divisor+3,w
  2143  173C  0472               	iorwf	___lldiv@divisor+2,w
  2144  173D  0471               	iorwf	___lldiv@divisor+1,w
  2145  173E  0470               	iorwf	___lldiv@divisor,w
  2146  173F  1903               	skipnz
  2147  1740  2F42               	goto	u1881
  2148  1741  2F43               	goto	u1880
  2149  1742                     u1881:
  2150  1742  2F90               	goto	l2055
  2151  1743                     u1880:
  2152  1743                     l2037:
  2153  1743  01FD               	clrf	___lldiv@counter
  2154  1744  0AFD               	incf	___lldiv@counter,f
  2155  1745  2F53               	goto	l2041
  2156  1746                     l2039:
  2157  1746  3001               	movlw	1
  2158  1747  00F8               	movwf	??___lldiv
  2159  1748                     u1895:
  2160  1748  1003               	clrc
  2161  1749  0DF0               	rlf	___lldiv@divisor,f
  2162  174A  0DF1               	rlf	___lldiv@divisor+1,f
  2163  174B  0DF2               	rlf	___lldiv@divisor+2,f
  2164  174C  0DF3               	rlf	___lldiv@divisor+3,f
  2165  174D  0BF8               	decfsz	??___lldiv,f
  2166  174E  2F48               	goto	u1895
  2167  174F  3001               	movlw	1
  2168  1750  00F8               	movwf	??___lldiv
  2169  1751  0878               	movf	??___lldiv,w
  2170  1752  07FD               	addwf	___lldiv@counter,f
  2171  1753                     l2041:
  2172  1753  1FF3               	btfss	___lldiv@divisor+3,7
  2173  1754  2F56               	goto	u1901
  2174  1755  2F57               	goto	u1900
  2175  1756                     u1901:
  2176  1756  2F46               	goto	l2039
  2177  1757                     u1900:
  2178  1757                     l2043:
  2179  1757  3001               	movlw	1
  2180  1758  00F8               	movwf	??___lldiv
  2181  1759                     u1915:
  2182  1759  1003               	clrc
  2183  175A  0DF9               	rlf	___lldiv@quotient,f
  2184  175B  0DFA               	rlf	___lldiv@quotient+1,f
  2185  175C  0DFB               	rlf	___lldiv@quotient+2,f
  2186  175D  0DFC               	rlf	___lldiv@quotient+3,f
  2187  175E  0BF8               	decfsz	??___lldiv,f
  2188  175F  2F59               	goto	u1915
  2189  1760                     l2045:
  2190  1760  0873               	movf	___lldiv@divisor+3,w
  2191  1761  0277               	subwf	___lldiv@dividend+3,w
  2192  1762  1D03               	skipz
  2193  1763  2F6E               	goto	u1925
  2194  1764  0872               	movf	___lldiv@divisor+2,w
  2195  1765  0276               	subwf	___lldiv@dividend+2,w
  2196  1766  1D03               	skipz
  2197  1767  2F6E               	goto	u1925
  2198  1768  0871               	movf	___lldiv@divisor+1,w
  2199  1769  0275               	subwf	___lldiv@dividend+1,w
  2200  176A  1D03               	skipz
  2201  176B  2F6E               	goto	u1925
  2202  176C  0870               	movf	___lldiv@divisor,w
  2203  176D  0274               	subwf	___lldiv@dividend,w
  2204  176E                     u1925:
  2205  176E  1C03               	skipc
  2206  176F  2F71               	goto	u1921
  2207  1770  2F72               	goto	u1920
  2208  1771                     u1921:
  2209  1771  2F81               	goto	l2051
  2210  1772                     u1920:
  2211  1772                     l2047:
  2212  1772  0870               	movf	___lldiv@divisor,w
  2213  1773  02F4               	subwf	___lldiv@dividend,f
  2214  1774  0871               	movf	___lldiv@divisor+1,w
  2215  1775  1C03               	skipc
  2216  1776  0F71               	incfsz	___lldiv@divisor+1,w
  2217  1777  02F5               	subwf	___lldiv@dividend+1,f
  2218  1778  0872               	movf	___lldiv@divisor+2,w
  2219  1779  1C03               	skipc
  2220  177A  0F72               	incfsz	___lldiv@divisor+2,w
  2221  177B  02F6               	subwf	___lldiv@dividend+2,f
  2222  177C  0873               	movf	___lldiv@divisor+3,w
  2223  177D  1C03               	skipc
  2224  177E  0F73               	incfsz	___lldiv@divisor+3,w
  2225  177F  02F7               	subwf	___lldiv@dividend+3,f
  2226  1780                     l2049:
  2227  1780  1479               	bsf	___lldiv@quotient,0
  2228  1781                     l2051:
  2229  1781  3001               	movlw	1
  2230  1782                     u1935:
  2231  1782  1003               	clrc
  2232  1783  0CF3               	rrf	___lldiv@divisor+3,f
  2233  1784  0CF2               	rrf	___lldiv@divisor+2,f
  2234  1785  0CF1               	rrf	___lldiv@divisor+1,f
  2235  1786  0CF0               	rrf	___lldiv@divisor,f
  2236  1787  3EFF               	addlw	-1
  2237  1788  1D03               	skipz
  2238  1789  2F82               	goto	u1935
  2239  178A                     l2053:
  2240  178A  3001               	movlw	1
  2241  178B  02FD               	subwf	___lldiv@counter,f
  2242  178C  1D03               	btfss	3,2
  2243  178D  2F8F               	goto	u1941
  2244  178E  2F90               	goto	u1940
  2245  178F                     u1941:
  2246  178F  2F57               	goto	l2043
  2247  1790                     u1940:
  2248  1790                     l2055:
  2249  1790  087C               	movf	___lldiv@quotient+3,w
  2250  1791  00F3               	movwf	?___lldiv+3
  2251  1792  087B               	movf	___lldiv@quotient+2,w
  2252  1793  00F2               	movwf	?___lldiv+2
  2253  1794  087A               	movf	___lldiv@quotient+1,w
  2254  1795  00F1               	movwf	?___lldiv+1
  2255  1796  0879               	movf	___lldiv@quotient,w
  2256  1797  00F0               	movwf	?___lldiv
  2257  1798                     l415:
  2258  1798  0008               	return
  2259  1799                     __end_of___lldiv:
  2260                           
  2261                           	psect	text5
  2262  169C                     __ptext5:	
  2263 ;; *************** function _Lcd_Write_String *****************
  2264 ;; Defined at:
  2265 ;;		line 63 in file "LCD.c"
  2266 ;; Parameters:    Size  Location     Type
  2267 ;;  a               2    3[COMMON] PTR unsigned char 
  2268 ;;		 -> STR_5(2), contador_lcd(10), STR_4(2), adc0(10), 
  2269 ;;		 -> STR_3(4), STR_2(4), STR_1(4), 
  2270 ;; Auto vars:     Size  Location     Type
  2271 ;;  i               2    8[COMMON] int 
  2272 ;; Return value:  Size  Location     Type
  2273 ;;                  1    wreg      void 
  2274 ;; Registers used:
  2275 ;;		wreg, fsr0l, fsr0h, status,2, status,0, btemp+1, pclath, cstack
  2276 ;; Tracked objects:
  2277 ;;		On entry : 0/0
  2278 ;;		On exit  : 0/0
  2279 ;;		Unchanged: 0/0
  2280 ;; Data sizes:     COMMON   BANK0   BANK1   BANK3   BANK2
  2281 ;;      Params:         2       0       0       0       0
  2282 ;;      Locals:         2       0       0       0       0
  2283 ;;      Temps:          3       0       0       0       0
  2284 ;;      Totals:         7       0       0       0       0
  2285 ;;Total ram usage:        7 bytes
  2286 ;; Hardware stack levels used:    1
  2287 ;; Hardware stack levels required when called:    2
  2288 ;; This function calls:
  2289 ;;		_Lcd_Write_Char
  2290 ;; This function is called by:
  2291 ;;		_main
  2292 ;; This function uses a non-reentrant model
  2293 ;;
  2294                           
  2295                           
  2296                           ;psect for function _Lcd_Write_String
  2297  169C                     _Lcd_Write_String:
  2298  169C                     l2799:	
  2299                           ;incstack = 0
  2300                           ; Regs used in _Lcd_Write_String: [wreg-fsr0h+status,2+status,0+btemp+1+pclath+cstack]
  2301                           
  2302                           
  2303                           ;LCD.c: 64:     int i;;LCD.c: 65:     for (i = 0; a[i] != '\0'; i++)
  2304  169C  01F8               	clrf	Lcd_Write_String@i
  2305  169D  01F9               	clrf	Lcd_Write_String@i+1
  2306  169E  2EC1               	goto	l2805
  2307  169F                     l2801:
  2308                           
  2309                           ;LCD.c: 66:         Lcd_Write_Char(a[i]);
  2310  169F  0878               	movf	Lcd_Write_String@i,w
  2311  16A0  0773               	addwf	Lcd_Write_String@a,w
  2312  16A1  00F6               	movwf	??_Lcd_Write_String+1
  2313  16A2  0874               	movf	Lcd_Write_String@a+1,w
  2314  16A3  00F5               	movwf	??_Lcd_Write_String
  2315  16A4  1803               	skipnc
  2316  16A5  0AF5               	incf	??_Lcd_Write_String,f
  2317  16A6  1FF8               	btfss	Lcd_Write_String@i,7
  2318  16A7  2EA9               	goto	u3600
  2319  16A8  03F5               	decf	??_Lcd_Write_String,f
  2320  16A9                     u3600:
  2321  16A9  0875               	movf	??_Lcd_Write_String,w
  2322  16AA  00F7               	movwf	??_Lcd_Write_String+2
  2323  16AB  0877               	movf	??_Lcd_Write_String+2,w
  2324  16AC  1283               	bcf	3,5	;RP0=0, select bank0
  2325  16AD  1303               	bcf	3,6	;RP1=0, select bank0
  2326  16AE  00FF               	movwf	btemp+1
  2327  16AF  0876               	movf	??_Lcd_Write_String+1,w
  2328  16B0  0084               	movwf	4
  2329  16B1  160A  118A  2000  160A  118A  	fcall	stringtab
  2330  16B6  160A  118A  254E  160A  118A  	fcall	_Lcd_Write_Char
  2331  16BB                     l2803:
  2332  16BB  3001               	movlw	1
  2333  16BC  07F8               	addwf	Lcd_Write_String@i,f
  2334  16BD  1803               	skipnc
  2335  16BE  0AF9               	incf	Lcd_Write_String@i+1,f
  2336  16BF  3000               	movlw	0
  2337  16C0  07F9               	addwf	Lcd_Write_String@i+1,f
  2338  16C1                     l2805:
  2339  16C1  0878               	movf	Lcd_Write_String@i,w
  2340  16C2  0773               	addwf	Lcd_Write_String@a,w
  2341  16C3  00F6               	movwf	??_Lcd_Write_String+1
  2342  16C4  0874               	movf	Lcd_Write_String@a+1,w
  2343  16C5  00F5               	movwf	??_Lcd_Write_String
  2344  16C6  1803               	skipnc
  2345  16C7  0AF5               	incf	??_Lcd_Write_String,f
  2346  16C8  1FF8               	btfss	Lcd_Write_String@i,7
  2347  16C9  2ECB               	goto	u3610
  2348  16CA  03F5               	decf	??_Lcd_Write_String,f
  2349  16CB                     u3610:
  2350  16CB  0875               	movf	??_Lcd_Write_String,w
  2351  16CC  00F7               	movwf	??_Lcd_Write_String+2
  2352  16CD  0877               	movf	??_Lcd_Write_String+2,w
  2353  16CE  1283               	bcf	3,5	;RP0=0, select bank0
  2354  16CF  1303               	bcf	3,6	;RP1=0, select bank0
  2355  16D0  00FF               	movwf	btemp+1
  2356  16D1  0876               	movf	??_Lcd_Write_String+1,w
  2357  16D2  0084               	movwf	4
  2358  16D3  160A  118A  2000  160A  118A  	fcall	stringtab
  2359  16D8  3A00               	xorlw	0
  2360  16D9  1D03               	skipz
  2361  16DA  2EDC               	goto	u3621
  2362  16DB  2EDD               	goto	u3620
  2363  16DC                     u3621:
  2364  16DC  2E9F               	goto	l2801
  2365  16DD                     u3620:
  2366  16DD                     l65:
  2367  16DD  0008               	return
  2368  16DE                     __end_of_Lcd_Write_String:
  2369                           
  2370                           	psect	text6
  2371  154E                     __ptext6:	
  2372 ;; *************** function _Lcd_Write_Char *****************
  2373 ;; Defined at:
  2374 ;;		line 55 in file "LCD.c"
  2375 ;; Parameters:    Size  Location     Type
  2376 ;;  a               1    wreg     unsigned char 
  2377 ;; Auto vars:     Size  Location     Type
  2378 ;;  a               1    2[COMMON] unsigned char 
  2379 ;; Return value:  Size  Location     Type
  2380 ;;                  1    wreg      void 
  2381 ;; Registers used:
  2382 ;;		wreg, status,2, status,0, pclath, cstack
  2383 ;; Tracked objects:
  2384 ;;		On entry : 0/0
  2385 ;;		On exit  : 0/0
  2386 ;;		Unchanged: 0/0
  2387 ;; Data sizes:     COMMON   BANK0   BANK1   BANK3   BANK2
  2388 ;;      Params:         0       0       0       0       0
  2389 ;;      Locals:         1       0       0       0       0
  2390 ;;      Temps:          1       0       0       0       0
  2391 ;;      Totals:         2       0       0       0       0
  2392 ;;Total ram usage:        2 bytes
  2393 ;; Hardware stack levels used:    1
  2394 ;; Hardware stack levels required when called:    1
  2395 ;; This function calls:
  2396 ;;		_Lcd_Port
  2397 ;; This function is called by:
  2398 ;;		_Lcd_Write_String
  2399 ;; This function uses a non-reentrant model
  2400 ;;
  2401                           
  2402                           
  2403                           ;psect for function _Lcd_Write_Char
  2404  154E                     _Lcd_Write_Char:
  2405                           
  2406                           ;incstack = 0
  2407                           ; Regs used in _Lcd_Write_Char: [wreg+status,2+status,0+pclath+cstack]
  2408                           ;Lcd_Write_Char@a stored from wreg
  2409  154E  00F2               	movwf	Lcd_Write_Char@a
  2410  154F                     l2303:
  2411                           
  2412                           ;LCD.c: 56:     PORTEbits.RE0 = 1;
  2413  154F  1283               	bcf	3,5	;RP0=0, select bank0
  2414  1550  1303               	bcf	3,6	;RP1=0, select bank0
  2415  1551  1409               	bsf	9,0	;volatile
  2416  1552                     l2305:
  2417                           
  2418                           ;LCD.c: 57:     Lcd_Port(a);
  2419  1552  0872               	movf	Lcd_Write_Char@a,w
  2420  1553  160A  118A  2504  160A  118A  	fcall	_Lcd_Port
  2421  1558                     l2307:
  2422                           
  2423                           ;LCD.c: 58:     PORTEbits.RE2 = 1;
  2424  1558  1283               	bcf	3,5	;RP0=0, select bank0
  2425  1559  1303               	bcf	3,6	;RP1=0, select bank0
  2426  155A  1509               	bsf	9,2	;volatile
  2427  155B                     l2309:
  2428                           
  2429                           ;LCD.c: 59:     _delay((unsigned long)((10)*(8000000/4000000.0)));
  2430  155B  3006               	movlw	6
  2431  155C  00F1               	movwf	??_Lcd_Write_Char
  2432  155D                     u3757:
  2433  155D  0BF1               	decfsz	??_Lcd_Write_Char,f
  2434  155E  2D5D               	goto	u3757
  2435  155F  0000               	nop
  2436  1560                     l2311:
  2437                           
  2438                           ;LCD.c: 60:     PORTEbits.RE2 = 0;
  2439  1560  1283               	bcf	3,5	;RP0=0, select bank0
  2440  1561  1303               	bcf	3,6	;RP1=0, select bank0
  2441  1562  1109               	bcf	9,2	;volatile
  2442  1563                     l59:
  2443  1563  0008               	return
  2444  1564                     __end_of_Lcd_Write_Char:
  2445                           
  2446                           	psect	text7
  2447  15C4                     __ptext7:	
  2448 ;; *************** function _Lcd_Set_Cursor *****************
  2449 ;; Defined at:
  2450 ;;		line 30 in file "LCD.c"
  2451 ;; Parameters:    Size  Location     Type
  2452 ;;  a               1    wreg     unsigned char 
  2453 ;;  b               1    4[COMMON] unsigned char 
  2454 ;; Auto vars:     Size  Location     Type
  2455 ;;  a               1    6[COMMON] unsigned char 
  2456 ;;  temp            1    7[COMMON] unsigned char 
  2457 ;; Return value:  Size  Location     Type
  2458 ;;                  1    wreg      void 
  2459 ;; Registers used:
  2460 ;;		wreg, status,2, status,0, pclath, cstack
  2461 ;; Tracked objects:
  2462 ;;		On entry : 0/0
  2463 ;;		On exit  : 0/0
  2464 ;;		Unchanged: 0/0
  2465 ;; Data sizes:     COMMON   BANK0   BANK1   BANK3   BANK2
  2466 ;;      Params:         1       0       0       0       0
  2467 ;;      Locals:         2       0       0       0       0
  2468 ;;      Temps:          1       0       0       0       0
  2469 ;;      Totals:         4       0       0       0       0
  2470 ;;Total ram usage:        4 bytes
  2471 ;; Hardware stack levels used:    1
  2472 ;; Hardware stack levels required when called:    2
  2473 ;; This function calls:
  2474 ;;		_Lcd_Cmd
  2475 ;; This function is called by:
  2476 ;;		_main
  2477 ;; This function uses a non-reentrant model
  2478 ;;
  2479                           
  2480                           
  2481                           ;psect for function _Lcd_Set_Cursor
  2482  15C4                     _Lcd_Set_Cursor:
  2483                           
  2484                           ;incstack = 0
  2485                           ; Regs used in _Lcd_Set_Cursor: [wreg+status,2+status,0+pclath+cstack]
  2486                           ;Lcd_Set_Cursor@a stored from wreg
  2487  15C4  00F6               	movwf	Lcd_Set_Cursor@a
  2488  15C5                     l2777:
  2489                           
  2490                           ;LCD.c: 31:     char temp;;LCD.c: 32:     if (a == 1) {
  2491  15C5  0376               	decf	Lcd_Set_Cursor@a,w
  2492  15C6  1D03               	btfss	3,2
  2493  15C7  2DC9               	goto	u3581
  2494  15C8  2DCA               	goto	u3580
  2495  15C9                     u3581:
  2496  15C9  2DD6               	goto	l2783
  2497  15CA                     u3580:
  2498  15CA                     l2779:
  2499                           
  2500                           ;LCD.c: 33:         temp = 0x80 + b - 1;
  2501  15CA  0874               	movf	Lcd_Set_Cursor@b,w
  2502  15CB  3E7F               	addlw	127
  2503  15CC  00F5               	movwf	??_Lcd_Set_Cursor
  2504  15CD  0875               	movf	??_Lcd_Set_Cursor,w
  2505  15CE  00F7               	movwf	Lcd_Set_Cursor@temp
  2506  15CF                     l2781:
  2507                           
  2508                           ;LCD.c: 34:         Lcd_Cmd(temp);
  2509  15CF  0877               	movf	Lcd_Set_Cursor@temp,w
  2510  15D0  160A  118A  2564  160A  118A  	fcall	_Lcd_Cmd
  2511                           
  2512                           ;LCD.c: 35:     } else if (a == 2) {
  2513  15D5  2DE7               	goto	l53
  2514  15D6                     l2783:
  2515  15D6  3002               	movlw	2
  2516  15D7  0676               	xorwf	Lcd_Set_Cursor@a,w
  2517  15D8  1D03               	btfss	3,2
  2518  15D9  2DDB               	goto	u3591
  2519  15DA  2DDC               	goto	u3590
  2520  15DB                     u3591:
  2521  15DB  2DE7               	goto	l53
  2522  15DC                     u3590:
  2523  15DC                     l2785:
  2524                           
  2525                           ;LCD.c: 36:         temp = 0xC0 + b - 1;
  2526  15DC  0874               	movf	Lcd_Set_Cursor@b,w
  2527  15DD  3EBF               	addlw	191
  2528  15DE  00F5               	movwf	??_Lcd_Set_Cursor
  2529  15DF  0875               	movf	??_Lcd_Set_Cursor,w
  2530  15E0  00F7               	movwf	Lcd_Set_Cursor@temp
  2531  15E1                     l2787:
  2532                           
  2533                           ;LCD.c: 37:         Lcd_Cmd(temp);
  2534  15E1  0877               	movf	Lcd_Set_Cursor@temp,w
  2535  15E2  160A  118A  2564  160A  118A  	fcall	_Lcd_Cmd
  2536  15E7                     l53:
  2537  15E7  0008               	return
  2538  15E8                     __end_of_Lcd_Set_Cursor:
  2539                           
  2540                           	psect	text8
  2541  080A                     __ptext8:	
  2542 ;; *************** function _Lcd_Init *****************
  2543 ;; Defined at:
  2544 ;;		line 41 in file "LCD.c"
  2545 ;; Parameters:    Size  Location     Type
  2546 ;;		None
  2547 ;; Auto vars:     Size  Location     Type
  2548 ;;		None
  2549 ;; Return value:  Size  Location     Type
  2550 ;;                  1    wreg      void 
  2551 ;; Registers used:
  2552 ;;		wreg, status,2, status,0, pclath, cstack
  2553 ;; Tracked objects:
  2554 ;;		On entry : 0/0
  2555 ;;		On exit  : 0/0
  2556 ;;		Unchanged: 0/0
  2557 ;; Data sizes:     COMMON   BANK0   BANK1   BANK3   BANK2
  2558 ;;      Params:         0       0       0       0       0
  2559 ;;      Locals:         0       0       0       0       0
  2560 ;;      Temps:          2       0       0       0       0
  2561 ;;      Totals:         2       0       0       0       0
  2562 ;;Total ram usage:        2 bytes
  2563 ;; Hardware stack levels used:    1
  2564 ;; Hardware stack levels required when called:    2
  2565 ;; This function calls:
  2566 ;;		_Lcd_Cmd
  2567 ;;		_Lcd_Port
  2568 ;; This function is called by:
  2569 ;;		_main
  2570 ;; This function uses a non-reentrant model
  2571 ;;
  2572                           
  2573                           
  2574                           ;psect for function _Lcd_Init
  2575  080A                     _Lcd_Init:
  2576  080A                     l2789:	
  2577                           ;incstack = 0
  2578                           ; Regs used in _Lcd_Init: [wreg+status,2+status,0+pclath+cstack]
  2579                           
  2580                           
  2581                           ;LCD.c: 42:     Lcd_Port(0x00);
  2582  080A  3000               	movlw	0
  2583  080B  160A  118A  2504  120A  158A  	fcall	_Lcd_Port
  2584  0810                     l2791:
  2585                           
  2586                           ;LCD.c: 43:     _delay((unsigned long)((20)*(8000000/4000.0)));
  2587  0810  3034               	movlw	52
  2588  0811  00F5               	movwf	??_Lcd_Init+1
  2589  0812  30F1               	movlw	241
  2590  0813  00F4               	movwf	??_Lcd_Init
  2591  0814                     u3767:
  2592  0814  0BF4               	decfsz	??_Lcd_Init,f
  2593  0815  2814               	goto	u3767
  2594  0816  0BF5               	decfsz	??_Lcd_Init+1,f
  2595  0817  2814               	goto	u3767
  2596  0818  2819               	nop2
  2597  0819                     l2793:
  2598                           
  2599                           ;LCD.c: 44:     Lcd_Cmd(0x30);
  2600  0819  3030               	movlw	48
  2601  081A  160A  118A  2564  120A  158A  	fcall	_Lcd_Cmd
  2602                           
  2603                           ;LCD.c: 45:     _delay((unsigned long)((5)*(8000000/4000.0)));
  2604  081F  300D               	movlw	13
  2605  0820  00F5               	movwf	??_Lcd_Init+1
  2606  0821  30FB               	movlw	251
  2607  0822  00F4               	movwf	??_Lcd_Init
  2608  0823                     u3777:
  2609  0823  0BF4               	decfsz	??_Lcd_Init,f
  2610  0824  2823               	goto	u3777
  2611  0825  0BF5               	decfsz	??_Lcd_Init+1,f
  2612  0826  2823               	goto	u3777
  2613  0827  2828               	nop2
  2614  0828                     l2795:
  2615                           
  2616                           ;LCD.c: 46:     Lcd_Cmd(0x30);
  2617  0828  3030               	movlw	48
  2618  0829  160A  118A  2564  120A  158A  	fcall	_Lcd_Cmd
  2619  082E                     l2797:
  2620                           
  2621                           ;LCD.c: 47:     _delay((unsigned long)((11)*(8000000/4000.0)));
  2622  082E  301D               	movlw	29
  2623  082F  00F5               	movwf	??_Lcd_Init+1
  2624  0830  3091               	movlw	145
  2625  0831  00F4               	movwf	??_Lcd_Init
  2626  0832                     u3787:
  2627  0832  0BF4               	decfsz	??_Lcd_Init,f
  2628  0833  2832               	goto	u3787
  2629  0834  0BF5               	decfsz	??_Lcd_Init+1,f
  2630  0835  2832               	goto	u3787
  2631                           
  2632                           ;LCD.c: 48:     Lcd_Cmd(0x30);
  2633  0836  3030               	movlw	48
  2634  0837  160A  118A  2564  120A  158A  	fcall	_Lcd_Cmd
  2635                           
  2636                           ;LCD.c: 50:     Lcd_Cmd(0x38);
  2637  083C  3038               	movlw	56
  2638  083D  160A  118A  2564  120A  158A  	fcall	_Lcd_Cmd
  2639                           
  2640                           ;LCD.c: 51:     Lcd_Cmd(0x0C);
  2641  0842  300C               	movlw	12
  2642  0843  160A  118A  2564  120A  158A  	fcall	_Lcd_Cmd
  2643                           
  2644                           ;LCD.c: 52:     Lcd_Cmd(0x06);
  2645  0848  3006               	movlw	6
  2646  0849  160A  118A  2564  120A  158A  	fcall	_Lcd_Cmd
  2647  084E                     l56:
  2648  084E  0008               	return
  2649  084F                     __end_of_Lcd_Init:
  2650                           
  2651                           	psect	text9
  2652  1531                     __ptext9:	
  2653 ;; *************** function _Lcd_Clear *****************
  2654 ;; Defined at:
  2655 ;;		line 25 in file "LCD.c"
  2656 ;; Parameters:    Size  Location     Type
  2657 ;;		None
  2658 ;; Auto vars:     Size  Location     Type
  2659 ;;		None
  2660 ;; Return value:  Size  Location     Type
  2661 ;;                  1    wreg      void 
  2662 ;; Registers used:
  2663 ;;		wreg, status,2, status,0, pclath, cstack
  2664 ;; Tracked objects:
  2665 ;;		On entry : 0/0
  2666 ;;		On exit  : 0/0
  2667 ;;		Unchanged: 0/0
  2668 ;; Data sizes:     COMMON   BANK0   BANK1   BANK3   BANK2
  2669 ;;      Params:         0       0       0       0       0
  2670 ;;      Locals:         0       0       0       0       0
  2671 ;;      Temps:          0       0       0       0       0
  2672 ;;      Totals:         0       0       0       0       0
  2673 ;;Total ram usage:        0 bytes
  2674 ;; Hardware stack levels used:    1
  2675 ;; Hardware stack levels required when called:    2
  2676 ;; This function calls:
  2677 ;;		_Lcd_Cmd
  2678 ;; This function is called by:
  2679 ;;		_main
  2680 ;; This function uses a non-reentrant model
  2681 ;;
  2682                           
  2683                           
  2684                           ;psect for function _Lcd_Clear
  2685  1531                     _Lcd_Clear:
  2686  1531                     l2775:	
  2687                           ;incstack = 0
  2688                           ; Regs used in _Lcd_Clear: [wreg+status,2+status,0+pclath+cstack]
  2689                           
  2690                           
  2691                           ;LCD.c: 26:     Lcd_Cmd(0);
  2692  1531  3000               	movlw	0
  2693  1532  160A  118A  2564  160A  118A  	fcall	_Lcd_Cmd
  2694                           
  2695                           ;LCD.c: 27:     Lcd_Cmd(1);
  2696  1537  3001               	movlw	1
  2697  1538  160A  118A  2564  160A  118A  	fcall	_Lcd_Cmd
  2698  153D                     l47:
  2699  153D  0008               	return
  2700  153E                     __end_of_Lcd_Clear:
  2701                           
  2702                           	psect	text10
  2703  1564                     __ptext10:	
  2704 ;; *************** function _Lcd_Cmd *****************
  2705 ;; Defined at:
  2706 ;;		line 17 in file "LCD.c"
  2707 ;; Parameters:    Size  Location     Type
  2708 ;;  a               1    wreg     unsigned char 
  2709 ;; Auto vars:     Size  Location     Type
  2710 ;;  a               1    3[COMMON] unsigned char 
  2711 ;; Return value:  Size  Location     Type
  2712 ;;                  1    wreg      void 
  2713 ;; Registers used:
  2714 ;;		wreg, status,2, status,0, pclath, cstack
  2715 ;; Tracked objects:
  2716 ;;		On entry : 0/0
  2717 ;;		On exit  : 0/0
  2718 ;;		Unchanged: 0/0
  2719 ;; Data sizes:     COMMON   BANK0   BANK1   BANK3   BANK2
  2720 ;;      Params:         0       0       0       0       0
  2721 ;;      Locals:         1       0       0       0       0
  2722 ;;      Temps:          2       0       0       0       0
  2723 ;;      Totals:         3       0       0       0       0
  2724 ;;Total ram usage:        3 bytes
  2725 ;; Hardware stack levels used:    1
  2726 ;; Hardware stack levels required when called:    1
  2727 ;; This function calls:
  2728 ;;		_Lcd_Port
  2729 ;; This function is called by:
  2730 ;;		_Lcd_Clear
  2731 ;;		_Lcd_Set_Cursor
  2732 ;;		_Lcd_Init
  2733 ;;		_Lcd_Shift_Right
  2734 ;;		_Lcd_Shift_Left
  2735 ;; This function uses a non-reentrant model
  2736 ;;
  2737                           
  2738                           
  2739                           ;psect for function _Lcd_Cmd
  2740  1564                     _Lcd_Cmd:
  2741                           
  2742                           ;incstack = 0
  2743                           ; Regs used in _Lcd_Cmd: [wreg+status,2+status,0+pclath+cstack]
  2744                           ;Lcd_Cmd@a stored from wreg
  2745  1564  00F3               	movwf	Lcd_Cmd@a
  2746  1565                     l2293:
  2747                           
  2748                           ;LCD.c: 18:     PORTEbits.RE0 = 0;
  2749  1565  1283               	bcf	3,5	;RP0=0, select bank0
  2750  1566  1303               	bcf	3,6	;RP1=0, select bank0
  2751  1567  1009               	bcf	9,0	;volatile
  2752  1568                     l2295:
  2753                           
  2754                           ;LCD.c: 19:     Lcd_Port(a);
  2755  1568  0873               	movf	Lcd_Cmd@a,w
  2756  1569  160A  118A  2504  160A  118A  	fcall	_Lcd_Port
  2757  156E                     l2297:
  2758                           
  2759                           ;LCD.c: 20:     PORTEbits.RE2 = 1;
  2760  156E  1283               	bcf	3,5	;RP0=0, select bank0
  2761  156F  1303               	bcf	3,6	;RP1=0, select bank0
  2762  1570  1509               	bsf	9,2	;volatile
  2763  1571                     l2299:
  2764                           
  2765                           ;LCD.c: 21:     _delay((unsigned long)((4)*(8000000/4000.0)));
  2766  1571  300B               	movlw	11
  2767  1572  00F2               	movwf	??_Lcd_Cmd+1
  2768  1573  3062               	movlw	98
  2769  1574  00F1               	movwf	??_Lcd_Cmd
  2770  1575                     u3797:
  2771  1575  0BF1               	decfsz	??_Lcd_Cmd,f
  2772  1576  2D75               	goto	u3797
  2773  1577  0BF2               	decfsz	??_Lcd_Cmd+1,f
  2774  1578  2D75               	goto	u3797
  2775  1579  0000               	nop
  2776  157A                     l2301:
  2777                           
  2778                           ;LCD.c: 22:     PORTEbits.RE2 = 0;
  2779  157A  1283               	bcf	3,5	;RP0=0, select bank0
  2780  157B  1303               	bcf	3,6	;RP1=0, select bank0
  2781  157C  1109               	bcf	9,2	;volatile
  2782  157D                     l44:
  2783  157D  0008               	return
  2784  157E                     __end_of_Lcd_Cmd:
  2785                           
  2786                           	psect	text11
  2787  1504                     __ptext11:	
  2788 ;; *************** function _Lcd_Port *****************
  2789 ;; Defined at:
  2790 ;;		line 13 in file "LCD.c"
  2791 ;; Parameters:    Size  Location     Type
  2792 ;;  a               1    wreg     unsigned char 
  2793 ;; Auto vars:     Size  Location     Type
  2794 ;;  a               1    0[COMMON] unsigned char 
  2795 ;; Return value:  Size  Location     Type
  2796 ;;                  1    wreg      void 
  2797 ;; Registers used:
  2798 ;;		wreg
  2799 ;; Tracked objects:
  2800 ;;		On entry : 0/0
  2801 ;;		On exit  : 0/0
  2802 ;;		Unchanged: 0/0
  2803 ;; Data sizes:     COMMON   BANK0   BANK1   BANK3   BANK2
  2804 ;;      Params:         0       0       0       0       0
  2805 ;;      Locals:         1       0       0       0       0
  2806 ;;      Temps:          0       0       0       0       0
  2807 ;;      Totals:         1       0       0       0       0
  2808 ;;Total ram usage:        1 bytes
  2809 ;; Hardware stack levels used:    1
  2810 ;; This function calls:
  2811 ;;		Nothing
  2812 ;; This function is called by:
  2813 ;;		_Lcd_Cmd
  2814 ;;		_Lcd_Init
  2815 ;;		_Lcd_Write_Char
  2816 ;; This function uses a non-reentrant model
  2817 ;;
  2818                           
  2819                           
  2820                           ;psect for function _Lcd_Port
  2821  1504                     _Lcd_Port:
  2822                           
  2823                           ;incstack = 0
  2824                           ; Regs used in _Lcd_Port: [wreg]
  2825                           ;Lcd_Port@a stored from wreg
  2826  1504  00F0               	movwf	Lcd_Port@a
  2827  1505                     l2033:
  2828                           
  2829                           ;LCD.c: 14:     PORTB = a;
  2830  1505  0870               	movf	Lcd_Port@a,w
  2831  1506  1283               	bcf	3,5	;RP0=0, select bank0
  2832  1507  1303               	bcf	3,6	;RP1=0, select bank0
  2833  1508  0086               	movwf	6	;volatile
  2834  1509                     l41:
  2835  1509  0008               	return
  2836  150A                     __end_of_Lcd_Port:
  2837                           
  2838                           	psect	text12
  2839  0800                     __ptext12:	
  2840 ;; *************** function _I2C_Master_Write *****************
  2841 ;; Defined at:
  2842 ;;		line 65 in file "I2C.c"
  2843 ;; Parameters:    Size  Location     Type
  2844 ;;  d               2    0[COMMON] unsigned int 
  2845 ;; Auto vars:     Size  Location     Type
  2846 ;;		None
  2847 ;; Return value:  Size  Location     Type
  2848 ;;                  1    wreg      void 
  2849 ;; Registers used:
  2850 ;;		wreg, status,2, status,0, pclath, cstack
  2851 ;; Tracked objects:
  2852 ;;		On entry : 0/0
  2853 ;;		On exit  : 0/0
  2854 ;;		Unchanged: 0/0
  2855 ;; Data sizes:     COMMON   BANK0   BANK1   BANK3   BANK2
  2856 ;;      Params:         2       0       0       0       0
  2857 ;;      Locals:         0       0       0       0       0
  2858 ;;      Temps:          0       0       0       0       0
  2859 ;;      Totals:         2       0       0       0       0
  2860 ;;Total ram usage:        2 bytes
  2861 ;; Hardware stack levels used:    1
  2862 ;; Hardware stack levels required when called:    1
  2863 ;; This function calls:
  2864 ;;		_I2C_Master_Wait
  2865 ;; This function is called by:
  2866 ;;		_main
  2867 ;; This function uses a non-reentrant model
  2868 ;;
  2869                           
  2870                           
  2871                           ;psect for function _I2C_Master_Write
  2872  0800                     _I2C_Master_Write:
  2873  0800                     l2917:	
  2874                           ;incstack = 0
  2875                           ; Regs used in _I2C_Master_Write: [wreg+status,2+status,0+pclath+cstack]
  2876                           
  2877                           
  2878                           ;I2C.c: 65: void I2C_Master_Write(unsigned d);I2C.c: 66: {;I2C.c: 67:     I2C_Master_Wai
      +                          t();
  2879  0800  160A  118A  2524  120A  158A  	fcall	_I2C_Master_Wait
  2880  0805                     l2919:
  2881                           
  2882                           ;I2C.c: 68:     SSPBUF = d;
  2883  0805  0870               	movf	I2C_Master_Write@d,w
  2884  0806  1283               	bcf	3,5	;RP0=0, select bank0
  2885  0807  1303               	bcf	3,6	;RP1=0, select bank0
  2886  0808  0093               	movwf	19	;volatile
  2887  0809                     l216:
  2888  0809  0008               	return
  2889  080A                     __end_of_I2C_Master_Write:
  2890                           
  2891                           	psect	text13
  2892  151B                     __ptext13:	
  2893 ;; *************** function _I2C_Master_Stop *****************
  2894 ;; Defined at:
  2895 ;;		line 55 in file "I2C.c"
  2896 ;; Parameters:    Size  Location     Type
  2897 ;;		None
  2898 ;; Auto vars:     Size  Location     Type
  2899 ;;		None
  2900 ;; Return value:  Size  Location     Type
  2901 ;;                  1    wreg      void 
  2902 ;; Registers used:
  2903 ;;		wreg, status,2, status,0, pclath, cstack
  2904 ;; Tracked objects:
  2905 ;;		On entry : 0/0
  2906 ;;		On exit  : 0/0
  2907 ;;		Unchanged: 0/0
  2908 ;; Data sizes:     COMMON   BANK0   BANK1   BANK3   BANK2
  2909 ;;      Params:         0       0       0       0       0
  2910 ;;      Locals:         0       0       0       0       0
  2911 ;;      Temps:          0       0       0       0       0
  2912 ;;      Totals:         0       0       0       0       0
  2913 ;;Total ram usage:        0 bytes
  2914 ;; Hardware stack levels used:    1
  2915 ;; Hardware stack levels required when called:    1
  2916 ;; This function calls:
  2917 ;;		_I2C_Master_Wait
  2918 ;; This function is called by:
  2919 ;;		_main
  2920 ;; This function uses a non-reentrant model
  2921 ;;
  2922                           
  2923                           
  2924                           ;psect for function _I2C_Master_Stop
  2925  151B                     _I2C_Master_Stop:
  2926  151B                     l2913:	
  2927                           ;incstack = 0
  2928                           ; Regs used in _I2C_Master_Stop: [wreg+status,2+status,0+pclath+cstack]
  2929                           
  2930                           
  2931                           ;I2C.c: 57:     I2C_Master_Wait();
  2932  151B  160A  118A  2524  160A  118A  	fcall	_I2C_Master_Wait
  2933  1520                     l2915:
  2934                           
  2935                           ;I2C.c: 58:     SSPCON2bits.PEN = 1;
  2936  1520  1683               	bsf	3,5	;RP0=1, select bank1
  2937  1521  1303               	bcf	3,6	;RP1=0, select bank1
  2938  1522  1511               	bsf	17,2	;volatile
  2939  1523                     l213:
  2940  1523  0008               	return
  2941  1524                     __end_of_I2C_Master_Stop:
  2942                           
  2943                           	psect	text14
  2944  1512                     __ptext14:	
  2945 ;; *************** function _I2C_Master_Start *****************
  2946 ;; Defined at:
  2947 ;;		line 39 in file "I2C.c"
  2948 ;; Parameters:    Size  Location     Type
  2949 ;;		None
  2950 ;; Auto vars:     Size  Location     Type
  2951 ;;		None
  2952 ;; Return value:  Size  Location     Type
  2953 ;;                  1    wreg      void 
  2954 ;; Registers used:
  2955 ;;		wreg, status,2, status,0, pclath, cstack
  2956 ;; Tracked objects:
  2957 ;;		On entry : 0/0
  2958 ;;		On exit  : 0/0
  2959 ;;		Unchanged: 0/0
  2960 ;; Data sizes:     COMMON   BANK0   BANK1   BANK3   BANK2
  2961 ;;      Params:         0       0       0       0       0
  2962 ;;      Locals:         0       0       0       0       0
  2963 ;;      Temps:          0       0       0       0       0
  2964 ;;      Totals:         0       0       0       0       0
  2965 ;;Total ram usage:        0 bytes
  2966 ;; Hardware stack levels used:    1
  2967 ;; Hardware stack levels required when called:    1
  2968 ;; This function calls:
  2969 ;;		_I2C_Master_Wait
  2970 ;; This function is called by:
  2971 ;;		_main
  2972 ;; This function uses a non-reentrant model
  2973 ;;
  2974                           
  2975                           
  2976                           ;psect for function _I2C_Master_Start
  2977  1512                     _I2C_Master_Start:
  2978  1512                     l2909:	
  2979                           ;incstack = 0
  2980                           ; Regs used in _I2C_Master_Start: [wreg+status,2+status,0+pclath+cstack]
  2981                           
  2982                           
  2983                           ;I2C.c: 41:     I2C_Master_Wait();
  2984  1512  160A  118A  2524  160A  118A  	fcall	_I2C_Master_Wait
  2985  1517                     l2911:
  2986                           
  2987                           ;I2C.c: 42:     SSPCON2bits.SEN = 1;
  2988  1517  1683               	bsf	3,5	;RP0=1, select bank1
  2989  1518  1303               	bcf	3,6	;RP1=0, select bank1
  2990  1519  1411               	bsf	17,0	;volatile
  2991  151A                     l207:
  2992  151A  0008               	return
  2993  151B                     __end_of_I2C_Master_Start:
  2994                           
  2995                           	psect	text15
  2996  1636                     __ptext15:	
  2997 ;; *************** function _I2C_Master_Read *****************
  2998 ;; Defined at:
  2999 ;;		line 74 in file "I2C.c"
  3000 ;; Parameters:    Size  Location     Type
  3001 ;;  a               2    0[COMMON] unsigned short 
  3002 ;; Auto vars:     Size  Location     Type
  3003 ;;  temp            2    4[COMMON] unsigned short 
  3004 ;; Return value:  Size  Location     Type
  3005 ;;                  2    0[COMMON] unsigned short 
  3006 ;; Registers used:
  3007 ;;		wreg, status,2, status,0, pclath, cstack
  3008 ;; Tracked objects:
  3009 ;;		On entry : 0/0
  3010 ;;		On exit  : 0/0
  3011 ;;		Unchanged: 0/0
  3012 ;; Data sizes:     COMMON   BANK0   BANK1   BANK3   BANK2
  3013 ;;      Params:         2       0       0       0       0
  3014 ;;      Locals:         2       0       0       0       0
  3015 ;;      Temps:          2       0       0       0       0
  3016 ;;      Totals:         6       0       0       0       0
  3017 ;;Total ram usage:        6 bytes
  3018 ;; Hardware stack levels used:    1
  3019 ;; Hardware stack levels required when called:    1
  3020 ;; This function calls:
  3021 ;;		_I2C_Master_Wait
  3022 ;; This function is called by:
  3023 ;;		_main
  3024 ;; This function uses a non-reentrant model
  3025 ;;
  3026                           
  3027                           
  3028                           ;psect for function _I2C_Master_Read
  3029  1636                     _I2C_Master_Read:
  3030  1636                     l2921:	
  3031                           ;incstack = 0
  3032                           ; Regs used in _I2C_Master_Read: [wreg+status,2+status,0+pclath+cstack]
  3033                           
  3034                           
  3035                           ;I2C.c: 74: unsigned short I2C_Master_Read(unsigned short a);I2C.c: 75: {;I2C.c: 76:    
      +                           unsigned short temp;;I2C.c: 77:     I2C_Master_Wait();
  3036  1636  160A  118A  2524  160A  118A  	fcall	_I2C_Master_Wait
  3037  163B                     l2923:
  3038                           
  3039                           ;I2C.c: 78:     SSPCON2bits.RCEN = 1;
  3040  163B  1683               	bsf	3,5	;RP0=1, select bank1
  3041  163C  1303               	bcf	3,6	;RP1=0, select bank1
  3042  163D  1591               	bsf	17,3	;volatile
  3043                           
  3044                           ;I2C.c: 79:     I2C_Master_Wait();
  3045  163E  160A  118A  2524  160A  118A  	fcall	_I2C_Master_Wait
  3046  1643                     l2925:
  3047                           
  3048                           ;I2C.c: 80:     temp = SSPBUF;
  3049  1643  1283               	bcf	3,5	;RP0=0, select bank0
  3050  1644  1303               	bcf	3,6	;RP1=0, select bank0
  3051  1645  0813               	movf	19,w	;volatile
  3052  1646  00F2               	movwf	??_I2C_Master_Read
  3053  1647  01F3               	clrf	??_I2C_Master_Read+1
  3054  1648  0872               	movf	??_I2C_Master_Read,w
  3055  1649  00F4               	movwf	I2C_Master_Read@temp
  3056  164A  0873               	movf	??_I2C_Master_Read+1,w
  3057  164B  00F5               	movwf	I2C_Master_Read@temp+1
  3058  164C                     l2927:
  3059                           
  3060                           ;I2C.c: 81:     I2C_Master_Wait();
  3061  164C  160A  118A  2524  160A  118A  	fcall	_I2C_Master_Wait
  3062  1651                     l2929:
  3063                           
  3064                           ;I2C.c: 82:     if(a == 1){
  3065  1651  0370               	decf	I2C_Master_Read@a,w
  3066  1652  0471               	iorwf	I2C_Master_Read@a+1,w
  3067  1653  1D03               	btfss	3,2
  3068  1654  2E56               	goto	u3721
  3069  1655  2E57               	goto	u3720
  3070  1656                     u3721:
  3071  1656  2E5B               	goto	l219
  3072  1657                     u3720:
  3073  1657                     l2931:
  3074                           
  3075                           ;I2C.c: 83:         SSPCON2bits.ACKDT = 0;
  3076  1657  1683               	bsf	3,5	;RP0=1, select bank1
  3077  1658  1303               	bcf	3,6	;RP1=0, select bank1
  3078  1659  1291               	bcf	17,5	;volatile
  3079                           
  3080                           ;I2C.c: 84:     }else{
  3081  165A  2E5E               	goto	l220
  3082  165B                     l219:
  3083                           
  3084                           ;I2C.c: 85:         SSPCON2bits.ACKDT = 1;
  3085  165B  1683               	bsf	3,5	;RP0=1, select bank1
  3086  165C  1303               	bcf	3,6	;RP1=0, select bank1
  3087  165D  1691               	bsf	17,5	;volatile
  3088  165E                     l220:	
  3089                           ;I2C.c: 86:     }
  3090                           
  3091                           
  3092                           ;I2C.c: 87:     SSPCON2bits.ACKEN = 1;
  3093  165E  1611               	bsf	17,4	;volatile
  3094  165F                     l2933:
  3095                           
  3096                           ;I2C.c: 88:     return temp;
  3097  165F  0875               	movf	I2C_Master_Read@temp+1,w
  3098  1660  00F1               	movwf	?_I2C_Master_Read+1
  3099  1661  0874               	movf	I2C_Master_Read@temp,w
  3100  1662  00F0               	movwf	?_I2C_Master_Read
  3101  1663                     l221:
  3102  1663  0008               	return
  3103  1664                     __end_of_I2C_Master_Read:
  3104                           
  3105                           	psect	text16
  3106  1524                     __ptext16:	
  3107 ;; *************** function _I2C_Master_Wait *****************
  3108 ;; Defined at:
  3109 ;;		line 32 in file "I2C.c"
  3110 ;; Parameters:    Size  Location     Type
  3111 ;;		None
  3112 ;; Auto vars:     Size  Location     Type
  3113 ;;		None
  3114 ;; Return value:  Size  Location     Type
  3115 ;;                  1    wreg      void 
  3116 ;; Registers used:
  3117 ;;		wreg, status,2
  3118 ;; Tracked objects:
  3119 ;;		On entry : 0/0
  3120 ;;		On exit  : 0/0
  3121 ;;		Unchanged: 0/0
  3122 ;; Data sizes:     COMMON   BANK0   BANK1   BANK3   BANK2
  3123 ;;      Params:         0       0       0       0       0
  3124 ;;      Locals:         0       0       0       0       0
  3125 ;;      Temps:          0       0       0       0       0
  3126 ;;      Totals:         0       0       0       0       0
  3127 ;;Total ram usage:        0 bytes
  3128 ;; Hardware stack levels used:    1
  3129 ;; This function calls:
  3130 ;;		Nothing
  3131 ;; This function is called by:
  3132 ;;		_I2C_Master_Start
  3133 ;;		_I2C_Master_Stop
  3134 ;;		_I2C_Master_Write
  3135 ;;		_I2C_Master_Read
  3136 ;;		_I2C_Master_RepeatedStart
  3137 ;; This function uses a non-reentrant model
  3138 ;;
  3139                           
  3140                           
  3141                           ;psect for function _I2C_Master_Wait
  3142  1524                     _I2C_Master_Wait:
  3143  1524                     l2325:	
  3144                           ;incstack = 0
  3145                           ; Regs used in _I2C_Master_Wait: [wreg+status,2]
  3146                           
  3147  1524                     l201:	
  3148                           ;I2C.c: 34:     while ((SSPSTAT & 0x04) || (SSPCON2 & 0x1F));
  3149                           
  3150  1524  1683               	bsf	3,5	;RP0=1, select bank1
  3151  1525  1303               	bcf	3,6	;RP1=0, select bank1
  3152  1526  1914               	btfsc	20,2	;volatile
  3153  1527  2D29               	goto	u2451
  3154  1528  2D2A               	goto	u2450
  3155  1529                     u2451:
  3156  1529  2D24               	goto	l201
  3157  152A                     u2450:
  3158  152A                     l2327:
  3159  152A  0811               	movf	17,w	;volatile
  3160  152B  391F               	andlw	31
  3161  152C  1D03               	btfss	3,2
  3162  152D  2D2F               	goto	u2461
  3163  152E  2D30               	goto	u2460
  3164  152F                     u2461:
  3165  152F  2D24               	goto	l201
  3166  1530                     u2460:
  3167  1530                     l204:
  3168  1530  0008               	return
  3169  1531                     __end_of_I2C_Master_Wait:
  3170                           
  3171                           	psect	text17
  3172  03F1                     __ptext17:	
  3173 ;; *************** function _ADC_convert *****************
  3174 ;; Defined at:
  3175 ;;		line 66 in file "ADC.c"
  3176 ;; Parameters:    Size  Location     Type
  3177 ;;  data            1    wreg     PTR unsigned char 
  3178 ;;		 -> contador_lcd(10), adc0(10), 
  3179 ;;  a               4   70[BANK0 ] float 
  3180 ;;  place           2   74[BANK0 ] int 
  3181 ;; Auto vars:     Size  Location     Type
  3182 ;;  data            1    4[BANK1 ] PTR unsigned char 
  3183 ;;		 -> contador_lcd(10), adc0(10), 
  3184 ;;  x               4    5[BANK1 ] float 
  3185 ;;  mu              2   13[BANK1 ] int 
  3186 ;;  digits          2   11[BANK1 ] int 
  3187 ;;  i               2    9[BANK1 ] int 
  3188 ;;  j               2    2[BANK1 ] int 
  3189 ;;  temp            2    0[BANK1 ] int 
  3190 ;; Return value:  Size  Location     Type
  3191 ;;                  1    wreg      void 
  3192 ;; Registers used:
  3193 ;;		wreg, fsr0l, fsr0h, status,2, status,0, btemp+1, pclath, cstack
  3194 ;; Tracked objects:
  3195 ;;		On entry : 0/0
  3196 ;;		On exit  : 0/0
  3197 ;;		Unchanged: 0/0
  3198 ;; Data sizes:     COMMON   BANK0   BANK1   BANK3   BANK2
  3199 ;;      Params:         0       6       0       0       0
  3200 ;;      Locals:         0       0      15       0       0
  3201 ;;      Temps:          0       2       0       0       0
  3202 ;;      Totals:         0       8      15       0       0
  3203 ;;Total ram usage:       23 bytes
  3204 ;; Hardware stack levels used:    1
  3205 ;; Hardware stack levels required when called:    2
  3206 ;; This function calls:
  3207 ;;		___awdiv
  3208 ;;		___fldiv
  3209 ;;		___flge
  3210 ;;		___flmul
  3211 ;;		___flsub
  3212 ;;		___fltol
  3213 ;;		___wmul
  3214 ;;		___xxtofl
  3215 ;; This function is called by:
  3216 ;;		_main
  3217 ;; This function uses a non-reentrant model
  3218 ;;
  3219                           
  3220                           
  3221                           ;psect for function _ADC_convert
  3222  03F1                     _ADC_convert:
  3223                           
  3224                           ;incstack = 0
  3225                           ; Regs used in _ADC_convert: [wreg-fsr0h+status,2+status,0+btemp+1+pclath+cstack]
  3226                           ;ADC_convert@data stored from wreg
  3227  03F1  1683               	bsf	3,5	;RP0=1, select bank1
  3228  03F2  1303               	bcf	3,6	;RP1=0, select bank1
  3229  03F3  00CC               	movwf	ADC_convert@data^(0+128)
  3230  03F4                     l2807:
  3231                           
  3232                           ;ADC.c: 66: void ADC_convert(char *data,float a, int place);ADC.c: 67: {;ADC.c: 68:     
      +                           int temp=a;
  3233  03F4  1283               	bcf	3,5	;RP0=0, select bank0
  3234  03F5  1303               	bcf	3,6	;RP1=0, select bank0
  3235  03F6  0869               	movf	ADC_convert@a+3,w
  3236  03F7  00F3               	movwf	___fltol@f1+3
  3237  03F8  0868               	movf	ADC_convert@a+2,w
  3238  03F9  00F2               	movwf	___fltol@f1+2
  3239  03FA  0867               	movf	ADC_convert@a+1,w
  3240  03FB  00F1               	movwf	___fltol@f1+1
  3241  03FC  0866               	movf	ADC_convert@a,w
  3242  03FD  00F0               	movwf	___fltol@f1
  3243  03FE  120A  118A  2016  120A  118A  	fcall	___fltol
  3244  0403  0871               	movf	?___fltol+1,w
  3245  0404  1683               	bsf	3,5	;RP0=1, select bank1
  3246  0405  1303               	bcf	3,6	;RP1=0, select bank1
  3247  0406  00C9               	movwf	(ADC_convert@temp+1)^(0+128)
  3248  0407  0870               	movf	?___fltol,w
  3249  0408  00C8               	movwf	ADC_convert@temp^(0+128)
  3250  0409                     l2809:
  3251  0409                     l2811:
  3252                           
  3253                           ;ADC.c: 70:      int digits=0;
  3254  0409  01D3               	clrf	ADC_convert@digits^(0+128)
  3255  040A  01D4               	clrf	(ADC_convert@digits+1)^(0+128)
  3256  040B                     l2813:
  3257                           
  3258                           ;ADC.c: 71:      int i=0,mu=1;
  3259  040B  01D1               	clrf	ADC_convert@i^(0+128)
  3260  040C  01D2               	clrf	(ADC_convert@i+1)^(0+128)
  3261  040D                     l2815:
  3262  040D  3001               	movlw	1
  3263  040E  00D5               	movwf	ADC_convert@mu^(0+128)
  3264  040F  3000               	movlw	0
  3265  0410  00D6               	movwf	(ADC_convert@mu^(0+128)+1)
  3266  0411                     l2817:
  3267  0411                     l2819:
  3268                           
  3269                           ;ADC.c: 73:      if(a<0)
  3270  0411  1283               	bcf	3,5	;RP0=0, select bank0
  3271  0412  1303               	bcf	3,6	;RP1=0, select bank0
  3272  0413  0869               	movf	ADC_convert@a+3,w
  3273  0414  00F3               	movwf	___flge@ff1+3
  3274  0415  0868               	movf	ADC_convert@a+2,w
  3275  0416  00F2               	movwf	___flge@ff1+2
  3276  0417  0867               	movf	ADC_convert@a+1,w
  3277  0418  00F1               	movwf	___flge@ff1+1
  3278  0419  0866               	movf	ADC_convert@a,w
  3279  041A  00F0               	movwf	___flge@ff1
  3280  041B  3000               	movlw	0
  3281  041C  00F7               	movwf	___flge@ff2+3
  3282  041D  3000               	movlw	0
  3283  041E  00F6               	movwf	___flge@ff2+2
  3284  041F  3000               	movlw	0
  3285  0420  00F5               	movwf	___flge@ff2+1
  3286  0421  3000               	movlw	0
  3287  0422  00F4               	movwf	___flge@ff2
  3288  0423  120A  158A  204F  120A  118A  	fcall	___flge
  3289  0428  1803               	btfsc	3,0
  3290  0429  2C2B               	goto	u3631
  3291  042A  2C2C               	goto	u3630
  3292  042B                     u3631:
  3293  042B  2C7A               	goto	l2831
  3294  042C                     u3630:
  3295  042C                     l2821:
  3296                           
  3297                           ;ADC.c: 74:      {;ADC.c: 75:             a=a*-1;
  3298  042C  30BF               	movlw	191
  3299  042D  1283               	bcf	3,5	;RP0=0, select bank0
  3300  042E  1303               	bcf	3,6	;RP1=0, select bank0
  3301  042F  00CF               	movwf	___flmul@b+3
  3302  0430  3080               	movlw	128
  3303  0431  00CE               	movwf	___flmul@b+2
  3304  0432  3000               	movlw	0
  3305  0433  00CD               	movwf	___flmul@b+1
  3306  0434  3000               	movlw	0
  3307  0435  00CC               	movwf	___flmul@b
  3308  0436  0869               	movf	ADC_convert@a+3,w
  3309  0437  00D3               	movwf	___flmul@a+3
  3310  0438  0868               	movf	ADC_convert@a+2,w
  3311  0439  00D2               	movwf	___flmul@a+2
  3312  043A  0867               	movf	ADC_convert@a+1,w
  3313  043B  00D1               	movwf	___flmul@a+1
  3314  043C  0866               	movf	ADC_convert@a,w
  3315  043D  00D0               	movwf	___flmul@a
  3316  043E  120A  118A  2090  120A  118A  	fcall	___flmul
  3317  0443  1283               	bcf	3,5	;RP0=0, select bank0
  3318  0444  1303               	bcf	3,6	;RP1=0, select bank0
  3319  0445  084F               	movf	?___flmul+3,w
  3320  0446  00E9               	movwf	ADC_convert@a+3
  3321  0447  084E               	movf	?___flmul+2,w
  3322  0448  00E8               	movwf	ADC_convert@a+2
  3323  0449  084D               	movf	?___flmul+1,w
  3324  044A  00E7               	movwf	ADC_convert@a+1
  3325  044B  084C               	movf	?___flmul,w
  3326  044C  00E6               	movwf	ADC_convert@a
  3327  044D                     l2823:
  3328                           
  3329                           ;ADC.c: 76:             data[i]='-';
  3330  044D  302D               	movlw	45
  3331  044E  00EC               	movwf	??_ADC_convert
  3332  044F  1683               	bsf	3,5	;RP0=1, select bank1
  3333  0450  1303               	bcf	3,6	;RP1=0, select bank1
  3334  0451  084C               	movf	ADC_convert@data^(0+128),w
  3335  0452  0084               	movwf	4
  3336  0453  1283               	bcf	3,5	;RP0=0, select bank0
  3337  0454  1303               	bcf	3,6	;RP1=0, select bank0
  3338  0455  086C               	movf	??_ADC_convert,w
  3339  0456  1383               	bcf	3,7	;select IRP bank0
  3340  0457  0080               	movwf	0
  3341  0458                     l2825:
  3342                           
  3343                           ;ADC.c: 77:             i++;
  3344  0458  3001               	movlw	1
  3345  0459  1683               	bsf	3,5	;RP0=1, select bank1
  3346  045A  1303               	bcf	3,6	;RP1=0, select bank1
  3347  045B  07D1               	addwf	ADC_convert@i^(0+128),f
  3348  045C  1803               	skipnc
  3349  045D  0AD2               	incf	(ADC_convert@i+1)^(0+128),f
  3350  045E  3000               	movlw	0
  3351  045F  07D2               	addwf	(ADC_convert@i+1)^(0+128),f
  3352  0460  2C7A               	goto	l2831
  3353  0461                     l2827:
  3354                           
  3355                           ;ADC.c: 81:      {;ADC.c: 82:          temp=temp/10;
  3356  0461  300A               	movlw	10
  3357  0462  00F0               	movwf	___awdiv@divisor
  3358  0463  3000               	movlw	0
  3359  0464  00F1               	movwf	___awdiv@divisor+1
  3360  0465  0849               	movf	(ADC_convert@temp+1)^(0+128),w
  3361  0466  00F3               	movwf	___awdiv@dividend+1
  3362  0467  0848               	movf	ADC_convert@temp^(0+128),w
  3363  0468  00F2               	movwf	___awdiv@dividend
  3364  0469  160A  118A  2799  120A  118A  	fcall	___awdiv
  3365  046E  0871               	movf	?___awdiv+1,w
  3366  046F  1683               	bsf	3,5	;RP0=1, select bank1
  3367  0470  1303               	bcf	3,6	;RP1=0, select bank1
  3368  0471  00C9               	movwf	(ADC_convert@temp+1)^(0+128)
  3369  0472  0870               	movf	?___awdiv,w
  3370  0473  00C8               	movwf	ADC_convert@temp^(0+128)
  3371  0474                     l2829:
  3372                           
  3373                           ;ADC.c: 83:          digits++;
  3374  0474  3001               	movlw	1
  3375  0475  07D3               	addwf	ADC_convert@digits^(0+128),f
  3376  0476  1803               	skipnc
  3377  0477  0AD4               	incf	(ADC_convert@digits+1)^(0+128),f
  3378  0478  3000               	movlw	0
  3379  0479  07D4               	addwf	(ADC_convert@digits+1)^(0+128),f
  3380  047A                     l2831:
  3381                           
  3382                           ;ADC.c: 80:      while(temp!=0)
  3383  047A  1683               	bsf	3,5	;RP0=1, select bank1
  3384  047B  1303               	bcf	3,6	;RP1=0, select bank1
  3385  047C  0848               	movf	ADC_convert@temp^(0+128),w
  3386  047D  0449               	iorwf	(ADC_convert@temp+1)^(0+128),w
  3387  047E  1D03               	btfss	3,2
  3388  047F  2C81               	goto	u3641
  3389  0480  2C82               	goto	u3640
  3390  0481                     u3641:
  3391  0481  2C61               	goto	l2827
  3392  0482                     u3640:
  3393  0482  2D9E               	goto	l2855
  3394  0483                     l2833:
  3395                           
  3396                           ;ADC.c: 86:      {;ADC.c: 87:          if(digits==1)mu=1;
  3397  0483  0353               	decf	ADC_convert@digits^(0+128),w
  3398  0484  0454               	iorwf	(ADC_convert@digits+1)^(0+128),w
  3399  0485  1D03               	btfss	3,2
  3400  0486  2C88               	goto	u3651
  3401  0487  2C89               	goto	u3650
  3402  0488                     u3651:
  3403  0488  2C8E               	goto	l2837
  3404  0489                     u3650:
  3405  0489                     l2835:
  3406  0489  3001               	movlw	1
  3407  048A  00D5               	movwf	ADC_convert@mu^(0+128)
  3408  048B  3000               	movlw	0
  3409  048C  00D6               	movwf	(ADC_convert@mu^(0+128)+1)
  3410  048D  2CD0               	goto	l2845
  3411  048E                     l2837:
  3412  048E  3002               	movlw	2
  3413  048F  00CA               	movwf	ADC_convert@j^(0+128)
  3414  0490  3000               	movlw	0
  3415  0491  00CB               	movwf	(ADC_convert@j^(0+128)+1)
  3416  0492  2CBA               	goto	l2843
  3417  0493                     l2839:
  3418  0493  1683               	bsf	3,5	;RP0=1, select bank1
  3419  0494  1303               	bcf	3,6	;RP1=0, select bank1
  3420  0495  0856               	movf	(ADC_convert@mu+1)^(0+128),w
  3421  0496  1283               	bcf	3,5	;RP0=0, select bank0
  3422  0497  1303               	bcf	3,6	;RP1=0, select bank0
  3423  0498  00A1               	movwf	___wmul@multiplier+1
  3424  0499  1683               	bsf	3,5	;RP0=1, select bank1
  3425  049A  1303               	bcf	3,6	;RP1=0, select bank1
  3426  049B  0855               	movf	ADC_convert@mu^(0+128),w
  3427  049C  1283               	bcf	3,5	;RP0=0, select bank0
  3428  049D  1303               	bcf	3,6	;RP1=0, select bank0
  3429  049E  00A0               	movwf	___wmul@multiplier
  3430  049F  300A               	movlw	10
  3431  04A0  00A2               	movwf	___wmul@multiplicand
  3432  04A1  3000               	movlw	0
  3433  04A2  00A3               	movwf	___wmul@multiplicand+1
  3434  04A3  160A  118A  260F  120A  118A  	fcall	___wmul
  3435  04A8  1283               	bcf	3,5	;RP0=0, select bank0
  3436  04A9  1303               	bcf	3,6	;RP1=0, select bank0
  3437  04AA  0821               	movf	?___wmul+1,w
  3438  04AB  1683               	bsf	3,5	;RP0=1, select bank1
  3439  04AC  1303               	bcf	3,6	;RP1=0, select bank1
  3440  04AD  00D6               	movwf	(ADC_convert@mu+1)^(0+128)
  3441  04AE  1283               	bcf	3,5	;RP0=0, select bank0
  3442  04AF  1303               	bcf	3,6	;RP1=0, select bank0
  3443  04B0  0820               	movf	?___wmul,w
  3444  04B1  1683               	bsf	3,5	;RP0=1, select bank1
  3445  04B2  1303               	bcf	3,6	;RP1=0, select bank1
  3446  04B3  00D5               	movwf	ADC_convert@mu^(0+128)
  3447  04B4                     l2841:
  3448  04B4  3001               	movlw	1
  3449  04B5  07CA               	addwf	ADC_convert@j^(0+128),f
  3450  04B6  1803               	skipnc
  3451  04B7  0ACB               	incf	(ADC_convert@j+1)^(0+128),f
  3452  04B8  3000               	movlw	0
  3453  04B9  07CB               	addwf	(ADC_convert@j+1)^(0+128),f
  3454  04BA                     l2843:
  3455  04BA  0854               	movf	(ADC_convert@digits+1)^(0+128),w
  3456  04BB  3A80               	xorlw	128
  3457  04BC  1283               	bcf	3,5	;RP0=0, select bank0
  3458  04BD  1303               	bcf	3,6	;RP1=0, select bank0
  3459  04BE  00EC               	movwf	??_ADC_convert
  3460  04BF  1683               	bsf	3,5	;RP0=1, select bank1
  3461  04C0  1303               	bcf	3,6	;RP1=0, select bank1
  3462  04C1  084B               	movf	(ADC_convert@j+1)^(0+128),w
  3463  04C2  3A80               	xorlw	128
  3464  04C3  1283               	bcf	3,5	;RP0=0, select bank0
  3465  04C4  1303               	bcf	3,6	;RP1=0, select bank0
  3466  04C5  026C               	subwf	??_ADC_convert,w
  3467  04C6  1D03               	skipz
  3468  04C7  2CCC               	goto	u3665
  3469  04C8  1683               	bsf	3,5	;RP0=1, select bank1
  3470  04C9  1303               	bcf	3,6	;RP1=0, select bank1
  3471  04CA  084A               	movf	ADC_convert@j^(0+128),w
  3472  04CB  0253               	subwf	ADC_convert@digits^(0+128),w
  3473  04CC                     u3665:
  3474  04CC  1803               	skipnc
  3475  04CD  2CCF               	goto	u3661
  3476  04CE  2CD0               	goto	u3660
  3477  04CF                     u3661:
  3478  04CF  2C93               	goto	l2839
  3479  04D0                     u3660:
  3480  04D0                     l2845:
  3481                           
  3482                           ;ADC.c: 90:          x=a/mu;
  3483  04D0  1683               	bsf	3,5	;RP0=1, select bank1
  3484  04D1  1303               	bcf	3,6	;RP1=0, select bank1
  3485  04D2  0855               	movf	ADC_convert@mu^(0+128),w
  3486  04D3  1283               	bcf	3,5	;RP0=0, select bank0
  3487  04D4  1303               	bcf	3,6	;RP1=0, select bank0
  3488  04D5  00A4               	movwf	___xxtofl@val
  3489  04D6  1683               	bsf	3,5	;RP0=1, select bank1
  3490  04D7  1303               	bcf	3,6	;RP1=0, select bank1
  3491  04D8  0856               	movf	(ADC_convert@mu+1)^(0+128),w
  3492  04D9  1283               	bcf	3,5	;RP0=0, select bank0
  3493  04DA  1303               	bcf	3,6	;RP1=0, select bank0
  3494  04DB  00A5               	movwf	___xxtofl@val+1
  3495  04DC  3000               	movlw	0
  3496  04DD  1BA5               	btfsc	___xxtofl@val+1,7
  3497  04DE  30FF               	movlw	255
  3498  04DF  00A6               	movwf	___xxtofl@val+2
  3499  04E0  00A7               	movwf	___xxtofl@val+3
  3500  04E1  3001               	movlw	1
  3501  04E2  120A  158A  20F1  120A  118A  	fcall	___xxtofl
  3502  04E7  1283               	bcf	3,5	;RP0=0, select bank0
  3503  04E8  1303               	bcf	3,6	;RP1=0, select bank0
  3504  04E9  0827               	movf	?___xxtofl+3,w
  3505  04EA  00B5               	movwf	___fldiv@a+3
  3506  04EB  0826               	movf	?___xxtofl+2,w
  3507  04EC  00B4               	movwf	___fldiv@a+2
  3508  04ED  0825               	movf	?___xxtofl+1,w
  3509  04EE  00B3               	movwf	___fldiv@a+1
  3510  04EF  0824               	movf	?___xxtofl,w
  3511  04F0  00B2               	movwf	___fldiv@a
  3512  04F1  0869               	movf	ADC_convert@a+3,w
  3513  04F2  00B9               	movwf	___fldiv@b+3
  3514  04F3  0868               	movf	ADC_convert@a+2,w
  3515  04F4  00B8               	movwf	___fldiv@b+2
  3516  04F5  0867               	movf	ADC_convert@a+1,w
  3517  04F6  00B7               	movwf	___fldiv@b+1
  3518  04F7  0866               	movf	ADC_convert@a,w
  3519  04F8  00B6               	movwf	___fldiv@b
  3520  04F9  120A  158A  21AD  120A  118A  	fcall	___fldiv
  3521  04FE  1283               	bcf	3,5	;RP0=0, select bank0
  3522  04FF  1303               	bcf	3,6	;RP1=0, select bank0
  3523  0500  0835               	movf	?___fldiv+3,w
  3524  0501  1683               	bsf	3,5	;RP0=1, select bank1
  3525  0502  1303               	bcf	3,6	;RP1=0, select bank1
  3526  0503  00D0               	movwf	(ADC_convert@x+3)^(0+128)
  3527  0504  1283               	bcf	3,5	;RP0=0, select bank0
  3528  0505  1303               	bcf	3,6	;RP1=0, select bank0
  3529  0506  0834               	movf	?___fldiv+2,w
  3530  0507  1683               	bsf	3,5	;RP0=1, select bank1
  3531  0508  1303               	bcf	3,6	;RP1=0, select bank1
  3532  0509  00CF               	movwf	(ADC_convert@x+2)^(0+128)
  3533  050A  1283               	bcf	3,5	;RP0=0, select bank0
  3534  050B  1303               	bcf	3,6	;RP1=0, select bank0
  3535  050C  0833               	movf	?___fldiv+1,w
  3536  050D  1683               	bsf	3,5	;RP0=1, select bank1
  3537  050E  1303               	bcf	3,6	;RP1=0, select bank1
  3538  050F  00CE               	movwf	(ADC_convert@x+1)^(0+128)
  3539  0510  1283               	bcf	3,5	;RP0=0, select bank0
  3540  0511  1303               	bcf	3,6	;RP1=0, select bank0
  3541  0512  0832               	movf	?___fldiv,w
  3542  0513  1683               	bsf	3,5	;RP0=1, select bank1
  3543  0514  1303               	bcf	3,6	;RP1=0, select bank1
  3544  0515  00CD               	movwf	ADC_convert@x^(0+128)
  3545                           
  3546                           ;ADC.c: 91:          a=a-((int)x*mu);
  3547  0516  0856               	movf	(ADC_convert@mu+1)^(0+128),w
  3548  0517  1283               	bcf	3,5	;RP0=0, select bank0
  3549  0518  1303               	bcf	3,6	;RP1=0, select bank0
  3550  0519  00A3               	movwf	___wmul@multiplicand+1
  3551  051A  1683               	bsf	3,5	;RP0=1, select bank1
  3552  051B  1303               	bcf	3,6	;RP1=0, select bank1
  3553  051C  0855               	movf	ADC_convert@mu^(0+128),w
  3554  051D  1283               	bcf	3,5	;RP0=0, select bank0
  3555  051E  1303               	bcf	3,6	;RP1=0, select bank0
  3556  051F  00A2               	movwf	___wmul@multiplicand
  3557  0520  1683               	bsf	3,5	;RP0=1, select bank1
  3558  0521  1303               	bcf	3,6	;RP1=0, select bank1
  3559  0522  0850               	movf	(ADC_convert@x+3)^(0+128),w
  3560  0523  00F3               	movwf	___fltol@f1+3
  3561  0524  084F               	movf	(ADC_convert@x+2)^(0+128),w
  3562  0525  00F2               	movwf	___fltol@f1+2
  3563  0526  084E               	movf	(ADC_convert@x+1)^(0+128),w
  3564  0527  00F1               	movwf	___fltol@f1+1
  3565  0528  084D               	movf	ADC_convert@x^(0+128),w
  3566  0529  00F0               	movwf	___fltol@f1
  3567  052A  120A  118A  2016  120A  118A  	fcall	___fltol
  3568  052F  0871               	movf	?___fltol+1,w
  3569  0530  1283               	bcf	3,5	;RP0=0, select bank0
  3570  0531  1303               	bcf	3,6	;RP1=0, select bank0
  3571  0532  00A1               	movwf	___wmul@multiplier+1
  3572  0533  0870               	movf	?___fltol,w
  3573  0534  00A0               	movwf	___wmul@multiplier
  3574  0535  160A  118A  260F  120A  118A  	fcall	___wmul
  3575  053A  1283               	bcf	3,5	;RP0=0, select bank0
  3576  053B  1303               	bcf	3,6	;RP1=0, select bank0
  3577  053C  0820               	movf	?___wmul,w
  3578  053D  00A4               	movwf	___xxtofl@val
  3579  053E  0821               	movf	?___wmul+1,w
  3580  053F  00A5               	movwf	___xxtofl@val+1
  3581  0540  3000               	movlw	0
  3582  0541  1BA5               	btfsc	___xxtofl@val+1,7
  3583  0542  30FF               	movlw	255
  3584  0543  00A6               	movwf	___xxtofl@val+2
  3585  0544  00A7               	movwf	___xxtofl@val+3
  3586  0545  3001               	movlw	1
  3587  0546  120A  158A  20F1  120A  118A  	fcall	___xxtofl
  3588  054B  1283               	bcf	3,5	;RP0=0, select bank0
  3589  054C  1303               	bcf	3,6	;RP1=0, select bank0
  3590  054D  0827               	movf	?___xxtofl+3,w
  3591  054E  00B5               	movwf	___flsub@a+3
  3592  054F  0826               	movf	?___xxtofl+2,w
  3593  0550  00B4               	movwf	___flsub@a+2
  3594  0551  0825               	movf	?___xxtofl+1,w
  3595  0552  00B3               	movwf	___flsub@a+1
  3596  0553  0824               	movf	?___xxtofl,w
  3597  0554  00B2               	movwf	___flsub@a
  3598  0555  0869               	movf	ADC_convert@a+3,w
  3599  0556  00B9               	movwf	___flsub@b+3
  3600  0557  0868               	movf	ADC_convert@a+2,w
  3601  0558  00B8               	movwf	___flsub@b+2
  3602  0559  0867               	movf	ADC_convert@a+1,w
  3603  055A  00B7               	movwf	___flsub@b+1
  3604  055B  0866               	movf	ADC_convert@a,w
  3605  055C  00B6               	movwf	___flsub@b
  3606  055D  160A  118A  25A0  120A  118A  	fcall	___flsub
  3607  0562  1283               	bcf	3,5	;RP0=0, select bank0
  3608  0563  1303               	bcf	3,6	;RP1=0, select bank0
  3609  0564  0835               	movf	?___flsub+3,w
  3610  0565  00E9               	movwf	ADC_convert@a+3
  3611  0566  0834               	movf	?___flsub+2,w
  3612  0567  00E8               	movwf	ADC_convert@a+2
  3613  0568  0833               	movf	?___flsub+1,w
  3614  0569  00E7               	movwf	ADC_convert@a+1
  3615  056A  0832               	movf	?___flsub,w
  3616  056B  00E6               	movwf	ADC_convert@a
  3617  056C                     l2847:
  3618                           
  3619                           ;ADC.c: 92:          data[i]=0x30+((int)x);
  3620  056C  1683               	bsf	3,5	;RP0=1, select bank1
  3621  056D  1303               	bcf	3,6	;RP1=0, select bank1
  3622  056E  0850               	movf	(ADC_convert@x+3)^(0+128),w
  3623  056F  00F3               	movwf	___fltol@f1+3
  3624  0570  084F               	movf	(ADC_convert@x+2)^(0+128),w
  3625  0571  00F2               	movwf	___fltol@f1+2
  3626  0572  084E               	movf	(ADC_convert@x+1)^(0+128),w
  3627  0573  00F1               	movwf	___fltol@f1+1
  3628  0574  084D               	movf	ADC_convert@x^(0+128),w
  3629  0575  00F0               	movwf	___fltol@f1
  3630  0576  120A  118A  2016  120A  118A  	fcall	___fltol
  3631  057B  0870               	movf	?___fltol,w
  3632  057C  3E30               	addlw	48
  3633  057D  1283               	bcf	3,5	;RP0=0, select bank0
  3634  057E  1303               	bcf	3,6	;RP1=0, select bank0
  3635  057F  00EC               	movwf	??_ADC_convert
  3636  0580  1683               	bsf	3,5	;RP0=1, select bank1
  3637  0581  1303               	bcf	3,6	;RP1=0, select bank1
  3638  0582  0851               	movf	ADC_convert@i^(0+128),w
  3639  0583  074C               	addwf	ADC_convert@data^(0+128),w
  3640  0584  1283               	bcf	3,5	;RP0=0, select bank0
  3641  0585  1303               	bcf	3,6	;RP1=0, select bank0
  3642  0586  00ED               	movwf	??_ADC_convert+1
  3643  0587  086D               	movf	??_ADC_convert+1,w
  3644  0588  0084               	movwf	4
  3645  0589  086C               	movf	??_ADC_convert,w
  3646  058A  1383               	bcf	3,7	;select IRP bank0
  3647  058B  0080               	movwf	0
  3648  058C                     l2849:
  3649                           
  3650                           ;ADC.c: 93:          i++;
  3651  058C  3001               	movlw	1
  3652  058D  1683               	bsf	3,5	;RP0=1, select bank1
  3653  058E  1303               	bcf	3,6	;RP1=0, select bank1
  3654  058F  07D1               	addwf	ADC_convert@i^(0+128),f
  3655  0590  1803               	skipnc
  3656  0591  0AD2               	incf	(ADC_convert@i+1)^(0+128),f
  3657  0592  3000               	movlw	0
  3658  0593  07D2               	addwf	(ADC_convert@i+1)^(0+128),f
  3659  0594                     l2851:
  3660                           
  3661                           ;ADC.c: 94:          digits--;
  3662  0594  30FF               	movlw	255
  3663  0595  07D3               	addwf	ADC_convert@digits^(0+128),f
  3664  0596  1803               	skipnc
  3665  0597  0AD4               	incf	(ADC_convert@digits+1)^(0+128),f
  3666  0598  30FF               	movlw	255
  3667  0599  07D4               	addwf	(ADC_convert@digits+1)^(0+128),f
  3668  059A                     l2853:
  3669                           
  3670                           ;ADC.c: 95:          mu=1;
  3671  059A  3001               	movlw	1
  3672  059B  00D5               	movwf	ADC_convert@mu^(0+128)
  3673  059C  3000               	movlw	0
  3674  059D  00D6               	movwf	(ADC_convert@mu^(0+128)+1)
  3675  059E                     l2855:
  3676                           
  3677                           ;ADC.c: 85:      while(digits!=0)
  3678  059E  0853               	movf	ADC_convert@digits^(0+128),w
  3679  059F  0454               	iorwf	(ADC_convert@digits+1)^(0+128),w
  3680  05A0  1D03               	btfss	3,2
  3681  05A1  2DA3               	goto	u3671
  3682  05A2  2DA4               	goto	u3670
  3683  05A3                     u3671:
  3684  05A3  2C83               	goto	l2833
  3685  05A4                     u3670:
  3686  05A4                     l2857:
  3687                           
  3688                           ;ADC.c: 98:      data[i]='.';
  3689  05A4  302E               	movlw	46
  3690  05A5  1283               	bcf	3,5	;RP0=0, select bank0
  3691  05A6  1303               	bcf	3,6	;RP1=0, select bank0
  3692  05A7  00EC               	movwf	??_ADC_convert
  3693  05A8  1683               	bsf	3,5	;RP0=1, select bank1
  3694  05A9  1303               	bcf	3,6	;RP1=0, select bank1
  3695  05AA  0851               	movf	ADC_convert@i^(0+128),w
  3696  05AB  074C               	addwf	ADC_convert@data^(0+128),w
  3697  05AC  1283               	bcf	3,5	;RP0=0, select bank0
  3698  05AD  1303               	bcf	3,6	;RP1=0, select bank0
  3699  05AE  00ED               	movwf	??_ADC_convert+1
  3700  05AF  086D               	movf	??_ADC_convert+1,w
  3701  05B0  0084               	movwf	4
  3702  05B1  086C               	movf	??_ADC_convert,w
  3703  05B2  1383               	bcf	3,7	;select IRP bank0
  3704  05B3  0080               	movwf	0
  3705  05B4                     l2859:
  3706                           
  3707                           ;ADC.c: 99:      i++;
  3708  05B4  3001               	movlw	1
  3709  05B5  1683               	bsf	3,5	;RP0=1, select bank1
  3710  05B6  1303               	bcf	3,6	;RP1=0, select bank1
  3711  05B7  07D1               	addwf	ADC_convert@i^(0+128),f
  3712  05B8  1803               	skipnc
  3713  05B9  0AD2               	incf	(ADC_convert@i+1)^(0+128),f
  3714  05BA  3000               	movlw	0
  3715  05BB  07D2               	addwf	(ADC_convert@i+1)^(0+128),f
  3716  05BC                     l2861:
  3717  05BC                     l2863:
  3718                           
  3719                           ;ADC.c: 101:      for(j=1;j<=place;j++)mu=mu*10;
  3720  05BC  3001               	movlw	1
  3721  05BD  00CA               	movwf	ADC_convert@j^(0+128)
  3722  05BE  3000               	movlw	0
  3723  05BF  00CB               	movwf	(ADC_convert@j^(0+128)+1)
  3724  05C0  2DE8               	goto	l2869
  3725  05C1                     l2865:
  3726  05C1  1683               	bsf	3,5	;RP0=1, select bank1
  3727  05C2  1303               	bcf	3,6	;RP1=0, select bank1
  3728  05C3  0856               	movf	(ADC_convert@mu+1)^(0+128),w
  3729  05C4  1283               	bcf	3,5	;RP0=0, select bank0
  3730  05C5  1303               	bcf	3,6	;RP1=0, select bank0
  3731  05C6  00A1               	movwf	___wmul@multiplier+1
  3732  05C7  1683               	bsf	3,5	;RP0=1, select bank1
  3733  05C8  1303               	bcf	3,6	;RP1=0, select bank1
  3734  05C9  0855               	movf	ADC_convert@mu^(0+128),w
  3735  05CA  1283               	bcf	3,5	;RP0=0, select bank0
  3736  05CB  1303               	bcf	3,6	;RP1=0, select bank0
  3737  05CC  00A0               	movwf	___wmul@multiplier
  3738  05CD  300A               	movlw	10
  3739  05CE  00A2               	movwf	___wmul@multiplicand
  3740  05CF  3000               	movlw	0
  3741  05D0  00A3               	movwf	___wmul@multiplicand+1
  3742  05D1  160A  118A  260F  120A  118A  	fcall	___wmul
  3743  05D6  1283               	bcf	3,5	;RP0=0, select bank0
  3744  05D7  1303               	bcf	3,6	;RP1=0, select bank0
  3745  05D8  0821               	movf	?___wmul+1,w
  3746  05D9  1683               	bsf	3,5	;RP0=1, select bank1
  3747  05DA  1303               	bcf	3,6	;RP1=0, select bank1
  3748  05DB  00D6               	movwf	(ADC_convert@mu+1)^(0+128)
  3749  05DC  1283               	bcf	3,5	;RP0=0, select bank0
  3750  05DD  1303               	bcf	3,6	;RP1=0, select bank0
  3751  05DE  0820               	movf	?___wmul,w
  3752  05DF  1683               	bsf	3,5	;RP0=1, select bank1
  3753  05E0  1303               	bcf	3,6	;RP1=0, select bank1
  3754  05E1  00D5               	movwf	ADC_convert@mu^(0+128)
  3755  05E2                     l2867:
  3756  05E2  3001               	movlw	1
  3757  05E3  07CA               	addwf	ADC_convert@j^(0+128),f
  3758  05E4  1803               	skipnc
  3759  05E5  0ACB               	incf	(ADC_convert@j+1)^(0+128),f
  3760  05E6  3000               	movlw	0
  3761  05E7  07CB               	addwf	(ADC_convert@j+1)^(0+128),f
  3762  05E8                     l2869:
  3763  05E8  1283               	bcf	3,5	;RP0=0, select bank0
  3764  05E9  1303               	bcf	3,6	;RP1=0, select bank0
  3765  05EA  086B               	movf	ADC_convert@place+1,w
  3766  05EB  3A80               	xorlw	128
  3767  05EC  00EC               	movwf	??_ADC_convert
  3768  05ED  1683               	bsf	3,5	;RP0=1, select bank1
  3769  05EE  1303               	bcf	3,6	;RP1=0, select bank1
  3770  05EF  084B               	movf	(ADC_convert@j+1)^(0+128),w
  3771  05F0  3A80               	xorlw	128
  3772  05F1  1283               	bcf	3,5	;RP0=0, select bank0
  3773  05F2  1303               	bcf	3,6	;RP1=0, select bank0
  3774  05F3  026C               	subwf	??_ADC_convert,w
  3775  05F4  1D03               	skipz
  3776  05F5  2DFC               	goto	u3685
  3777  05F6  1683               	bsf	3,5	;RP0=1, select bank1
  3778  05F7  1303               	bcf	3,6	;RP1=0, select bank1
  3779  05F8  084A               	movf	ADC_convert@j^(0+128),w
  3780  05F9  1283               	bcf	3,5	;RP0=0, select bank0
  3781  05FA  1303               	bcf	3,6	;RP1=0, select bank0
  3782  05FB  026A               	subwf	ADC_convert@place,w
  3783  05FC                     u3685:
  3784  05FC  1803               	skipnc
  3785  05FD  2DFF               	goto	u3681
  3786  05FE  2E00               	goto	u3680
  3787  05FF                     u3681:
  3788  05FF  2DC1               	goto	l2865
  3789  0600                     u3680:
  3790  0600                     l2871:
  3791                           
  3792                           ;ADC.c: 102:      x=(a-(int)a)*mu;
  3793  0600  1683               	bsf	3,5	;RP0=1, select bank1
  3794  0601  1303               	bcf	3,6	;RP1=0, select bank1
  3795  0602  0855               	movf	ADC_convert@mu^(0+128),w
  3796  0603  1283               	bcf	3,5	;RP0=0, select bank0
  3797  0604  1303               	bcf	3,6	;RP1=0, select bank0
  3798  0605  00A4               	movwf	___xxtofl@val
  3799  0606  1683               	bsf	3,5	;RP0=1, select bank1
  3800  0607  1303               	bcf	3,6	;RP1=0, select bank1
  3801  0608  0856               	movf	(ADC_convert@mu+1)^(0+128),w
  3802  0609  1283               	bcf	3,5	;RP0=0, select bank0
  3803  060A  1303               	bcf	3,6	;RP1=0, select bank0
  3804  060B  00A5               	movwf	___xxtofl@val+1
  3805  060C  3000               	movlw	0
  3806  060D  1BA5               	btfsc	___xxtofl@val+1,7
  3807  060E  30FF               	movlw	255
  3808  060F  00A6               	movwf	___xxtofl@val+2
  3809  0610  00A7               	movwf	___xxtofl@val+3
  3810  0611  3001               	movlw	1
  3811  0612  120A  158A  20F1  120A  118A  	fcall	___xxtofl
  3812  0617  1283               	bcf	3,5	;RP0=0, select bank0
  3813  0618  1303               	bcf	3,6	;RP1=0, select bank0
  3814  0619  0827               	movf	?___xxtofl+3,w
  3815  061A  00CF               	movwf	___flmul@b+3
  3816  061B  0826               	movf	?___xxtofl+2,w
  3817  061C  00CE               	movwf	___flmul@b+2
  3818  061D  0825               	movf	?___xxtofl+1,w
  3819  061E  00CD               	movwf	___flmul@b+1
  3820  061F  0824               	movf	?___xxtofl,w
  3821  0620  00CC               	movwf	___flmul@b
  3822  0621  0869               	movf	ADC_convert@a+3,w
  3823  0622  00F3               	movwf	___fltol@f1+3
  3824  0623  0868               	movf	ADC_convert@a+2,w
  3825  0624  00F2               	movwf	___fltol@f1+2
  3826  0625  0867               	movf	ADC_convert@a+1,w
  3827  0626  00F1               	movwf	___fltol@f1+1
  3828  0627  0866               	movf	ADC_convert@a,w
  3829  0628  00F0               	movwf	___fltol@f1
  3830  0629  120A  118A  2016  120A  118A  	fcall	___fltol
  3831  062E  0870               	movf	?___fltol,w
  3832  062F  1283               	bcf	3,5	;RP0=0, select bank0
  3833  0630  1303               	bcf	3,6	;RP1=0, select bank0
  3834  0631  00A4               	movwf	___xxtofl@val
  3835  0632  0871               	movf	?___fltol+1,w
  3836  0633  00A5               	movwf	___xxtofl@val+1
  3837  0634  3000               	movlw	0
  3838  0635  1BA5               	btfsc	___xxtofl@val+1,7
  3839  0636  30FF               	movlw	255
  3840  0637  00A6               	movwf	___xxtofl@val+2
  3841  0638  00A7               	movwf	___xxtofl@val+3
  3842  0639  3001               	movlw	1
  3843  063A  120A  158A  20F1  120A  118A  	fcall	___xxtofl
  3844  063F  1283               	bcf	3,5	;RP0=0, select bank0
  3845  0640  1303               	bcf	3,6	;RP1=0, select bank0
  3846  0641  0827               	movf	?___xxtofl+3,w
  3847  0642  00B5               	movwf	___flsub@a+3
  3848  0643  0826               	movf	?___xxtofl+2,w
  3849  0644  00B4               	movwf	___flsub@a+2
  3850  0645  0825               	movf	?___xxtofl+1,w
  3851  0646  00B3               	movwf	___flsub@a+1
  3852  0647  0824               	movf	?___xxtofl,w
  3853  0648  00B2               	movwf	___flsub@a
  3854  0649  0869               	movf	ADC_convert@a+3,w
  3855  064A  00B9               	movwf	___flsub@b+3
  3856  064B  0868               	movf	ADC_convert@a+2,w
  3857  064C  00B8               	movwf	___flsub@b+2
  3858  064D  0867               	movf	ADC_convert@a+1,w
  3859  064E  00B7               	movwf	___flsub@b+1
  3860  064F  0866               	movf	ADC_convert@a,w
  3861  0650  00B6               	movwf	___flsub@b
  3862  0651  160A  118A  25A0  120A  118A  	fcall	___flsub
  3863  0656  1283               	bcf	3,5	;RP0=0, select bank0
  3864  0657  1303               	bcf	3,6	;RP1=0, select bank0
  3865  0658  0835               	movf	?___flsub+3,w
  3866  0659  00D3               	movwf	___flmul@a+3
  3867  065A  0834               	movf	?___flsub+2,w
  3868  065B  00D2               	movwf	___flmul@a+2
  3869  065C  0833               	movf	?___flsub+1,w
  3870  065D  00D1               	movwf	___flmul@a+1
  3871  065E  0832               	movf	?___flsub,w
  3872  065F  00D0               	movwf	___flmul@a
  3873  0660  120A  118A  2090  120A  118A  	fcall	___flmul
  3874  0665  1283               	bcf	3,5	;RP0=0, select bank0
  3875  0666  1303               	bcf	3,6	;RP1=0, select bank0
  3876  0667  084F               	movf	?___flmul+3,w
  3877  0668  1683               	bsf	3,5	;RP0=1, select bank1
  3878  0669  1303               	bcf	3,6	;RP1=0, select bank1
  3879  066A  00D0               	movwf	(ADC_convert@x+3)^(0+128)
  3880  066B  1283               	bcf	3,5	;RP0=0, select bank0
  3881  066C  1303               	bcf	3,6	;RP1=0, select bank0
  3882  066D  084E               	movf	?___flmul+2,w
  3883  066E  1683               	bsf	3,5	;RP0=1, select bank1
  3884  066F  1303               	bcf	3,6	;RP1=0, select bank1
  3885  0670  00CF               	movwf	(ADC_convert@x+2)^(0+128)
  3886  0671  1283               	bcf	3,5	;RP0=0, select bank0
  3887  0672  1303               	bcf	3,6	;RP1=0, select bank0
  3888  0673  084D               	movf	?___flmul+1,w
  3889  0674  1683               	bsf	3,5	;RP0=1, select bank1
  3890  0675  1303               	bcf	3,6	;RP1=0, select bank1
  3891  0676  00CE               	movwf	(ADC_convert@x+1)^(0+128)
  3892  0677  1283               	bcf	3,5	;RP0=0, select bank0
  3893  0678  1303               	bcf	3,6	;RP1=0, select bank0
  3894  0679  084C               	movf	?___flmul,w
  3895  067A  1683               	bsf	3,5	;RP0=1, select bank1
  3896  067B  1303               	bcf	3,6	;RP1=0, select bank1
  3897  067C  00CD               	movwf	ADC_convert@x^(0+128)
  3898  067D                     l2873:
  3899                           
  3900                           ;ADC.c: 103:      a=x;
  3901  067D  0850               	movf	(ADC_convert@x+3)^(0+128),w
  3902  067E  1283               	bcf	3,5	;RP0=0, select bank0
  3903  067F  1303               	bcf	3,6	;RP1=0, select bank0
  3904  0680  00E9               	movwf	ADC_convert@a+3
  3905  0681  1683               	bsf	3,5	;RP0=1, select bank1
  3906  0682  1303               	bcf	3,6	;RP1=0, select bank1
  3907  0683  084F               	movf	(ADC_convert@x+2)^(0+128),w
  3908  0684  1283               	bcf	3,5	;RP0=0, select bank0
  3909  0685  1303               	bcf	3,6	;RP1=0, select bank0
  3910  0686  00E8               	movwf	ADC_convert@a+2
  3911  0687  1683               	bsf	3,5	;RP0=1, select bank1
  3912  0688  1303               	bcf	3,6	;RP1=0, select bank1
  3913  0689  084E               	movf	(ADC_convert@x+1)^(0+128),w
  3914  068A  1283               	bcf	3,5	;RP0=0, select bank0
  3915  068B  1303               	bcf	3,6	;RP1=0, select bank0
  3916  068C  00E7               	movwf	ADC_convert@a+1
  3917  068D  1683               	bsf	3,5	;RP0=1, select bank1
  3918  068E  1303               	bcf	3,6	;RP1=0, select bank1
  3919  068F  084D               	movf	ADC_convert@x^(0+128),w
  3920  0690  1283               	bcf	3,5	;RP0=0, select bank0
  3921  0691  1303               	bcf	3,6	;RP1=0, select bank0
  3922  0692  00E6               	movwf	ADC_convert@a
  3923  0693                     l2875:
  3924  0693  0869               	movf	ADC_convert@a+3,w
  3925  0694  00F3               	movwf	___fltol@f1+3
  3926  0695  0868               	movf	ADC_convert@a+2,w
  3927  0696  00F2               	movwf	___fltol@f1+2
  3928  0697  0867               	movf	ADC_convert@a+1,w
  3929  0698  00F1               	movwf	___fltol@f1+1
  3930  0699  0866               	movf	ADC_convert@a,w
  3931  069A  00F0               	movwf	___fltol@f1
  3932  069B  120A  118A  2016  120A  118A  	fcall	___fltol
  3933  06A0                     l2877:
  3934  06A0                     l2879:
  3935                           
  3936                           ;ADC.c: 106:      mu=1;
  3937  06A0  3001               	movlw	1
  3938  06A1  1683               	bsf	3,5	;RP0=1, select bank1
  3939  06A2  1303               	bcf	3,6	;RP1=0, select bank1
  3940  06A3  00D5               	movwf	ADC_convert@mu^(0+128)
  3941  06A4  3000               	movlw	0
  3942  06A5  00D6               	movwf	(ADC_convert@mu^(0+128)+1)
  3943  06A6                     l2881:
  3944                           
  3945                           ;ADC.c: 107:      digits=place;
  3946  06A6  1283               	bcf	3,5	;RP0=0, select bank0
  3947  06A7  1303               	bcf	3,6	;RP1=0, select bank0
  3948  06A8  086B               	movf	ADC_convert@place+1,w
  3949  06A9  1683               	bsf	3,5	;RP0=1, select bank1
  3950  06AA  1303               	bcf	3,6	;RP1=0, select bank1
  3951  06AB  00D4               	movwf	(ADC_convert@digits+1)^(0+128)
  3952  06AC  1283               	bcf	3,5	;RP0=0, select bank0
  3953  06AD  1303               	bcf	3,6	;RP1=0, select bank0
  3954  06AE  086A               	movf	ADC_convert@place,w
  3955  06AF  1683               	bsf	3,5	;RP0=1, select bank1
  3956  06B0  1303               	bcf	3,6	;RP1=0, select bank1
  3957  06B1  00D3               	movwf	ADC_convert@digits^(0+128)
  3958                           
  3959                           ;ADC.c: 108:      while(digits!=0)
  3960  06B2  2FCE               	goto	l2905
  3961  06B3                     l2883:
  3962                           
  3963                           ;ADC.c: 109:      {;ADC.c: 110:          if(digits==1)mu=1;
  3964  06B3  0353               	decf	ADC_convert@digits^(0+128),w
  3965  06B4  0454               	iorwf	(ADC_convert@digits+1)^(0+128),w
  3966  06B5  1D03               	btfss	3,2
  3967  06B6  2EB8               	goto	u3691
  3968  06B7  2EB9               	goto	u3690
  3969  06B8                     u3691:
  3970  06B8  2EBE               	goto	l2887
  3971  06B9                     u3690:
  3972  06B9                     l2885:
  3973  06B9  3001               	movlw	1
  3974  06BA  00D5               	movwf	ADC_convert@mu^(0+128)
  3975  06BB  3000               	movlw	0
  3976  06BC  00D6               	movwf	(ADC_convert@mu^(0+128)+1)
  3977  06BD  2F00               	goto	l2895
  3978  06BE                     l2887:
  3979  06BE  3002               	movlw	2
  3980  06BF  00CA               	movwf	ADC_convert@j^(0+128)
  3981  06C0  3000               	movlw	0
  3982  06C1  00CB               	movwf	(ADC_convert@j^(0+128)+1)
  3983  06C2  2EEA               	goto	l2893
  3984  06C3                     l2889:
  3985  06C3  1683               	bsf	3,5	;RP0=1, select bank1
  3986  06C4  1303               	bcf	3,6	;RP1=0, select bank1
  3987  06C5  0856               	movf	(ADC_convert@mu+1)^(0+128),w
  3988  06C6  1283               	bcf	3,5	;RP0=0, select bank0
  3989  06C7  1303               	bcf	3,6	;RP1=0, select bank0
  3990  06C8  00A1               	movwf	___wmul@multiplier+1
  3991  06C9  1683               	bsf	3,5	;RP0=1, select bank1
  3992  06CA  1303               	bcf	3,6	;RP1=0, select bank1
  3993  06CB  0855               	movf	ADC_convert@mu^(0+128),w
  3994  06CC  1283               	bcf	3,5	;RP0=0, select bank0
  3995  06CD  1303               	bcf	3,6	;RP1=0, select bank0
  3996  06CE  00A0               	movwf	___wmul@multiplier
  3997  06CF  300A               	movlw	10
  3998  06D0  00A2               	movwf	___wmul@multiplicand
  3999  06D1  3000               	movlw	0
  4000  06D2  00A3               	movwf	___wmul@multiplicand+1
  4001  06D3  160A  118A  260F  120A  118A  	fcall	___wmul
  4002  06D8  1283               	bcf	3,5	;RP0=0, select bank0
  4003  06D9  1303               	bcf	3,6	;RP1=0, select bank0
  4004  06DA  0821               	movf	?___wmul+1,w
  4005  06DB  1683               	bsf	3,5	;RP0=1, select bank1
  4006  06DC  1303               	bcf	3,6	;RP1=0, select bank1
  4007  06DD  00D6               	movwf	(ADC_convert@mu+1)^(0+128)
  4008  06DE  1283               	bcf	3,5	;RP0=0, select bank0
  4009  06DF  1303               	bcf	3,6	;RP1=0, select bank0
  4010  06E0  0820               	movf	?___wmul,w
  4011  06E1  1683               	bsf	3,5	;RP0=1, select bank1
  4012  06E2  1303               	bcf	3,6	;RP1=0, select bank1
  4013  06E3  00D5               	movwf	ADC_convert@mu^(0+128)
  4014  06E4                     l2891:
  4015  06E4  3001               	movlw	1
  4016  06E5  07CA               	addwf	ADC_convert@j^(0+128),f
  4017  06E6  1803               	skipnc
  4018  06E7  0ACB               	incf	(ADC_convert@j+1)^(0+128),f
  4019  06E8  3000               	movlw	0
  4020  06E9  07CB               	addwf	(ADC_convert@j+1)^(0+128),f
  4021  06EA                     l2893:
  4022  06EA  0854               	movf	(ADC_convert@digits+1)^(0+128),w
  4023  06EB  3A80               	xorlw	128
  4024  06EC  1283               	bcf	3,5	;RP0=0, select bank0
  4025  06ED  1303               	bcf	3,6	;RP1=0, select bank0
  4026  06EE  00EC               	movwf	??_ADC_convert
  4027  06EF  1683               	bsf	3,5	;RP0=1, select bank1
  4028  06F0  1303               	bcf	3,6	;RP1=0, select bank1
  4029  06F1  084B               	movf	(ADC_convert@j+1)^(0+128),w
  4030  06F2  3A80               	xorlw	128
  4031  06F3  1283               	bcf	3,5	;RP0=0, select bank0
  4032  06F4  1303               	bcf	3,6	;RP1=0, select bank0
  4033  06F5  026C               	subwf	??_ADC_convert,w
  4034  06F6  1D03               	skipz
  4035  06F7  2EFC               	goto	u3705
  4036  06F8  1683               	bsf	3,5	;RP0=1, select bank1
  4037  06F9  1303               	bcf	3,6	;RP1=0, select bank1
  4038  06FA  084A               	movf	ADC_convert@j^(0+128),w
  4039  06FB  0253               	subwf	ADC_convert@digits^(0+128),w
  4040  06FC                     u3705:
  4041  06FC  1803               	skipnc
  4042  06FD  2EFF               	goto	u3701
  4043  06FE  2F00               	goto	u3700
  4044  06FF                     u3701:
  4045  06FF  2EC3               	goto	l2889
  4046  0700                     u3700:
  4047  0700                     l2895:
  4048                           
  4049                           ;ADC.c: 113:          x=a/mu;
  4050  0700  1683               	bsf	3,5	;RP0=1, select bank1
  4051  0701  1303               	bcf	3,6	;RP1=0, select bank1
  4052  0702  0855               	movf	ADC_convert@mu^(0+128),w
  4053  0703  1283               	bcf	3,5	;RP0=0, select bank0
  4054  0704  1303               	bcf	3,6	;RP1=0, select bank0
  4055  0705  00A4               	movwf	___xxtofl@val
  4056  0706  1683               	bsf	3,5	;RP0=1, select bank1
  4057  0707  1303               	bcf	3,6	;RP1=0, select bank1
  4058  0708  0856               	movf	(ADC_convert@mu+1)^(0+128),w
  4059  0709  1283               	bcf	3,5	;RP0=0, select bank0
  4060  070A  1303               	bcf	3,6	;RP1=0, select bank0
  4061  070B  00A5               	movwf	___xxtofl@val+1
  4062  070C  3000               	movlw	0
  4063  070D  1BA5               	btfsc	___xxtofl@val+1,7
  4064  070E  30FF               	movlw	255
  4065  070F  00A6               	movwf	___xxtofl@val+2
  4066  0710  00A7               	movwf	___xxtofl@val+3
  4067  0711  3001               	movlw	1
  4068  0712  120A  158A  20F1  120A  118A  	fcall	___xxtofl
  4069  0717  1283               	bcf	3,5	;RP0=0, select bank0
  4070  0718  1303               	bcf	3,6	;RP1=0, select bank0
  4071  0719  0827               	movf	?___xxtofl+3,w
  4072  071A  00B5               	movwf	___fldiv@a+3
  4073  071B  0826               	movf	?___xxtofl+2,w
  4074  071C  00B4               	movwf	___fldiv@a+2
  4075  071D  0825               	movf	?___xxtofl+1,w
  4076  071E  00B3               	movwf	___fldiv@a+1
  4077  071F  0824               	movf	?___xxtofl,w
  4078  0720  00B2               	movwf	___fldiv@a
  4079  0721  0869               	movf	ADC_convert@a+3,w
  4080  0722  00B9               	movwf	___fldiv@b+3
  4081  0723  0868               	movf	ADC_convert@a+2,w
  4082  0724  00B8               	movwf	___fldiv@b+2
  4083  0725  0867               	movf	ADC_convert@a+1,w
  4084  0726  00B7               	movwf	___fldiv@b+1
  4085  0727  0866               	movf	ADC_convert@a,w
  4086  0728  00B6               	movwf	___fldiv@b
  4087  0729  120A  158A  21AD  120A  118A  	fcall	___fldiv
  4088  072E  1283               	bcf	3,5	;RP0=0, select bank0
  4089  072F  1303               	bcf	3,6	;RP1=0, select bank0
  4090  0730  0835               	movf	?___fldiv+3,w
  4091  0731  1683               	bsf	3,5	;RP0=1, select bank1
  4092  0732  1303               	bcf	3,6	;RP1=0, select bank1
  4093  0733  00D0               	movwf	(ADC_convert@x+3)^(0+128)
  4094  0734  1283               	bcf	3,5	;RP0=0, select bank0
  4095  0735  1303               	bcf	3,6	;RP1=0, select bank0
  4096  0736  0834               	movf	?___fldiv+2,w
  4097  0737  1683               	bsf	3,5	;RP0=1, select bank1
  4098  0738  1303               	bcf	3,6	;RP1=0, select bank1
  4099  0739  00CF               	movwf	(ADC_convert@x+2)^(0+128)
  4100  073A  1283               	bcf	3,5	;RP0=0, select bank0
  4101  073B  1303               	bcf	3,6	;RP1=0, select bank0
  4102  073C  0833               	movf	?___fldiv+1,w
  4103  073D  1683               	bsf	3,5	;RP0=1, select bank1
  4104  073E  1303               	bcf	3,6	;RP1=0, select bank1
  4105  073F  00CE               	movwf	(ADC_convert@x+1)^(0+128)
  4106  0740  1283               	bcf	3,5	;RP0=0, select bank0
  4107  0741  1303               	bcf	3,6	;RP1=0, select bank0
  4108  0742  0832               	movf	?___fldiv,w
  4109  0743  1683               	bsf	3,5	;RP0=1, select bank1
  4110  0744  1303               	bcf	3,6	;RP1=0, select bank1
  4111  0745  00CD               	movwf	ADC_convert@x^(0+128)
  4112                           
  4113                           ;ADC.c: 114:          a=a-((int)x*mu);
  4114  0746  0856               	movf	(ADC_convert@mu+1)^(0+128),w
  4115  0747  1283               	bcf	3,5	;RP0=0, select bank0
  4116  0748  1303               	bcf	3,6	;RP1=0, select bank0
  4117  0749  00A3               	movwf	___wmul@multiplicand+1
  4118  074A  1683               	bsf	3,5	;RP0=1, select bank1
  4119  074B  1303               	bcf	3,6	;RP1=0, select bank1
  4120  074C  0855               	movf	ADC_convert@mu^(0+128),w
  4121  074D  1283               	bcf	3,5	;RP0=0, select bank0
  4122  074E  1303               	bcf	3,6	;RP1=0, select bank0
  4123  074F  00A2               	movwf	___wmul@multiplicand
  4124  0750  1683               	bsf	3,5	;RP0=1, select bank1
  4125  0751  1303               	bcf	3,6	;RP1=0, select bank1
  4126  0752  0850               	movf	(ADC_convert@x+3)^(0+128),w
  4127  0753  00F3               	movwf	___fltol@f1+3
  4128  0754  084F               	movf	(ADC_convert@x+2)^(0+128),w
  4129  0755  00F2               	movwf	___fltol@f1+2
  4130  0756  084E               	movf	(ADC_convert@x+1)^(0+128),w
  4131  0757  00F1               	movwf	___fltol@f1+1
  4132  0758  084D               	movf	ADC_convert@x^(0+128),w
  4133  0759  00F0               	movwf	___fltol@f1
  4134  075A  120A  118A  2016  120A  118A  	fcall	___fltol
  4135  075F  0871               	movf	?___fltol+1,w
  4136  0760  1283               	bcf	3,5	;RP0=0, select bank0
  4137  0761  1303               	bcf	3,6	;RP1=0, select bank0
  4138  0762  00A1               	movwf	___wmul@multiplier+1
  4139  0763  0870               	movf	?___fltol,w
  4140  0764  00A0               	movwf	___wmul@multiplier
  4141  0765  160A  118A  260F  120A  118A  	fcall	___wmul
  4142  076A  1283               	bcf	3,5	;RP0=0, select bank0
  4143  076B  1303               	bcf	3,6	;RP1=0, select bank0
  4144  076C  0820               	movf	?___wmul,w
  4145  076D  00A4               	movwf	___xxtofl@val
  4146  076E  0821               	movf	?___wmul+1,w
  4147  076F  00A5               	movwf	___xxtofl@val+1
  4148  0770  3000               	movlw	0
  4149  0771  1BA5               	btfsc	___xxtofl@val+1,7
  4150  0772  30FF               	movlw	255
  4151  0773  00A6               	movwf	___xxtofl@val+2
  4152  0774  00A7               	movwf	___xxtofl@val+3
  4153  0775  3001               	movlw	1
  4154  0776  120A  158A  20F1  120A  118A  	fcall	___xxtofl
  4155  077B  1283               	bcf	3,5	;RP0=0, select bank0
  4156  077C  1303               	bcf	3,6	;RP1=0, select bank0
  4157  077D  0827               	movf	?___xxtofl+3,w
  4158  077E  00B5               	movwf	___flsub@a+3
  4159  077F  0826               	movf	?___xxtofl+2,w
  4160  0780  00B4               	movwf	___flsub@a+2
  4161  0781  0825               	movf	?___xxtofl+1,w
  4162  0782  00B3               	movwf	___flsub@a+1
  4163  0783  0824               	movf	?___xxtofl,w
  4164  0784  00B2               	movwf	___flsub@a
  4165  0785  0869               	movf	ADC_convert@a+3,w
  4166  0786  00B9               	movwf	___flsub@b+3
  4167  0787  0868               	movf	ADC_convert@a+2,w
  4168  0788  00B8               	movwf	___flsub@b+2
  4169  0789  0867               	movf	ADC_convert@a+1,w
  4170  078A  00B7               	movwf	___flsub@b+1
  4171  078B  0866               	movf	ADC_convert@a,w
  4172  078C  00B6               	movwf	___flsub@b
  4173  078D  160A  118A  25A0  120A  118A  	fcall	___flsub
  4174  0792  1283               	bcf	3,5	;RP0=0, select bank0
  4175  0793  1303               	bcf	3,6	;RP1=0, select bank0
  4176  0794  0835               	movf	?___flsub+3,w
  4177  0795  00E9               	movwf	ADC_convert@a+3
  4178  0796  0834               	movf	?___flsub+2,w
  4179  0797  00E8               	movwf	ADC_convert@a+2
  4180  0798  0833               	movf	?___flsub+1,w
  4181  0799  00E7               	movwf	ADC_convert@a+1
  4182  079A  0832               	movf	?___flsub,w
  4183  079B  00E6               	movwf	ADC_convert@a
  4184  079C                     l2897:
  4185                           
  4186                           ;ADC.c: 115:          data[i]=0x30+((int)x);
  4187  079C  1683               	bsf	3,5	;RP0=1, select bank1
  4188  079D  1303               	bcf	3,6	;RP1=0, select bank1
  4189  079E  0850               	movf	(ADC_convert@x+3)^(0+128),w
  4190  079F  00F3               	movwf	___fltol@f1+3
  4191  07A0  084F               	movf	(ADC_convert@x+2)^(0+128),w
  4192  07A1  00F2               	movwf	___fltol@f1+2
  4193  07A2  084E               	movf	(ADC_convert@x+1)^(0+128),w
  4194  07A3  00F1               	movwf	___fltol@f1+1
  4195  07A4  084D               	movf	ADC_convert@x^(0+128),w
  4196  07A5  00F0               	movwf	___fltol@f1
  4197  07A6  120A  118A  2016  120A  118A  	fcall	___fltol
  4198  07AB  0870               	movf	?___fltol,w
  4199  07AC  3E30               	addlw	48
  4200  07AD  1283               	bcf	3,5	;RP0=0, select bank0
  4201  07AE  1303               	bcf	3,6	;RP1=0, select bank0
  4202  07AF  00EC               	movwf	??_ADC_convert
  4203  07B0  1683               	bsf	3,5	;RP0=1, select bank1
  4204  07B1  1303               	bcf	3,6	;RP1=0, select bank1
  4205  07B2  0851               	movf	ADC_convert@i^(0+128),w
  4206  07B3  074C               	addwf	ADC_convert@data^(0+128),w
  4207  07B4  1283               	bcf	3,5	;RP0=0, select bank0
  4208  07B5  1303               	bcf	3,6	;RP1=0, select bank0
  4209  07B6  00ED               	movwf	??_ADC_convert+1
  4210  07B7  086D               	movf	??_ADC_convert+1,w
  4211  07B8  0084               	movwf	4
  4212  07B9  086C               	movf	??_ADC_convert,w
  4213  07BA  1383               	bcf	3,7	;select IRP bank0
  4214  07BB  0080               	movwf	0
  4215  07BC                     l2899:
  4216                           
  4217                           ;ADC.c: 116:          i++;
  4218  07BC  3001               	movlw	1
  4219  07BD  1683               	bsf	3,5	;RP0=1, select bank1
  4220  07BE  1303               	bcf	3,6	;RP1=0, select bank1
  4221  07BF  07D1               	addwf	ADC_convert@i^(0+128),f
  4222  07C0  1803               	skipnc
  4223  07C1  0AD2               	incf	(ADC_convert@i+1)^(0+128),f
  4224  07C2  3000               	movlw	0
  4225  07C3  07D2               	addwf	(ADC_convert@i+1)^(0+128),f
  4226  07C4                     l2901:
  4227                           
  4228                           ;ADC.c: 117:          digits--;
  4229  07C4  30FF               	movlw	255
  4230  07C5  07D3               	addwf	ADC_convert@digits^(0+128),f
  4231  07C6  1803               	skipnc
  4232  07C7  0AD4               	incf	(ADC_convert@digits+1)^(0+128),f
  4233  07C8  30FF               	movlw	255
  4234  07C9  07D4               	addwf	(ADC_convert@digits+1)^(0+128),f
  4235  07CA                     l2903:
  4236                           
  4237                           ;ADC.c: 118:          mu=1;
  4238  07CA  3001               	movlw	1
  4239  07CB  00D5               	movwf	ADC_convert@mu^(0+128)
  4240  07CC  3000               	movlw	0
  4241  07CD  00D6               	movwf	(ADC_convert@mu^(0+128)+1)
  4242  07CE                     l2905:
  4243                           
  4244                           ;ADC.c: 108:      while(digits!=0)
  4245  07CE  0853               	movf	ADC_convert@digits^(0+128),w
  4246  07CF  0454               	iorwf	(ADC_convert@digits+1)^(0+128),w
  4247  07D0  1D03               	btfss	3,2
  4248  07D1  2FD3               	goto	u3711
  4249  07D2  2FD4               	goto	u3710
  4250  07D3                     u3711:
  4251  07D3  2EB3               	goto	l2883
  4252  07D4                     u3710:
  4253  07D4                     l2907:
  4254                           
  4255                           ;ADC.c: 121:     data[i]='\n';
  4256  07D4  300A               	movlw	10
  4257  07D5  1283               	bcf	3,5	;RP0=0, select bank0
  4258  07D6  1303               	bcf	3,6	;RP1=0, select bank0
  4259  07D7  00EC               	movwf	??_ADC_convert
  4260  07D8  1683               	bsf	3,5	;RP0=1, select bank1
  4261  07D9  1303               	bcf	3,6	;RP1=0, select bank1
  4262  07DA  0851               	movf	ADC_convert@i^(0+128),w
  4263  07DB  074C               	addwf	ADC_convert@data^(0+128),w
  4264  07DC  1283               	bcf	3,5	;RP0=0, select bank0
  4265  07DD  1303               	bcf	3,6	;RP1=0, select bank0
  4266  07DE  00ED               	movwf	??_ADC_convert+1
  4267  07DF  086D               	movf	??_ADC_convert+1,w
  4268  07E0  0084               	movwf	4
  4269  07E1  086C               	movf	??_ADC_convert,w
  4270  07E2  1383               	bcf	3,7	;select IRP bank0
  4271  07E3  0080               	movwf	0
  4272  07E4                     l129:
  4273  07E4  0008               	return
  4274  07E5                     __end_of_ADC_convert:
  4275                           
  4276                           	psect	text18
  4277  08F1                     __ptext18:	
  4278 ;; *************** function ___xxtofl *****************
  4279 ;; Defined at:
  4280 ;;		line 10 in file "C:\Program Files\Microchip\xc8\v2.31\pic\sources\c90\common\xxtofl.c"
  4281 ;; Parameters:    Size  Location     Type
  4282 ;;  sign            1    wreg     unsigned char 
  4283 ;;  val             4    4[BANK0 ] long 
  4284 ;; Auto vars:     Size  Location     Type
  4285 ;;  sign            1   12[BANK0 ] unsigned char 
  4286 ;;  arg             4   14[BANK0 ] unsigned long 
  4287 ;;  exp             1   13[BANK0 ] unsigned char 
  4288 ;; Return value:  Size  Location     Type
  4289 ;;                  4    4[BANK0 ] unsigned char 
  4290 ;; Registers used:
  4291 ;;		wreg, status,2, status,0
  4292 ;; Tracked objects:
  4293 ;;		On entry : 0/0
  4294 ;;		On exit  : 0/0
  4295 ;;		Unchanged: 0/0
  4296 ;; Data sizes:     COMMON   BANK0   BANK1   BANK3   BANK2
  4297 ;;      Params:         0       4       0       0       0
  4298 ;;      Locals:         0       6       0       0       0
  4299 ;;      Temps:          0       4       0       0       0
  4300 ;;      Totals:         0      14       0       0       0
  4301 ;;Total ram usage:       14 bytes
  4302 ;; Hardware stack levels used:    1
  4303 ;; This function calls:
  4304 ;;		Nothing
  4305 ;; This function is called by:
  4306 ;;		_ADC_convert
  4307 ;;		_main
  4308 ;; This function uses a non-reentrant model
  4309 ;;
  4310                           
  4311                           
  4312                           ;psect for function ___xxtofl
  4313  08F1                     ___xxtofl:
  4314                           
  4315                           ;incstack = 0
  4316                           ; Regs used in ___xxtofl: [wreg+status,2+status,0]
  4317                           ;___xxtofl@sign stored from wreg
  4318  08F1  1283               	bcf	3,5	;RP0=0, select bank0
  4319  08F2  1303               	bcf	3,6	;RP1=0, select bank0
  4320  08F3  00AC               	movwf	___xxtofl@sign
  4321  08F4                     l2731:
  4322  08F4  082C               	movf	___xxtofl@sign,w
  4323  08F5  1903               	btfsc	3,2
  4324  08F6  28F8               	goto	u3441
  4325  08F7  28F9               	goto	u3440
  4326  08F8                     u3441:
  4327  08F8  290D               	goto	l2737
  4328  08F9                     u3440:
  4329  08F9                     l2733:
  4330  08F9  1FA7               	btfss	___xxtofl@val+3,7
  4331  08FA  28FC               	goto	u3451
  4332  08FB  28FD               	goto	u3450
  4333  08FC                     u3451:
  4334  08FC  290D               	goto	l2737
  4335  08FD                     u3450:
  4336  08FD                     l2735:
  4337  08FD  0924               	comf	___xxtofl@val,w
  4338  08FE  00AE               	movwf	___xxtofl@arg
  4339  08FF  0925               	comf	___xxtofl@val+1,w
  4340  0900  00AF               	movwf	___xxtofl@arg+1
  4341  0901  0926               	comf	___xxtofl@val+2,w
  4342  0902  00B0               	movwf	___xxtofl@arg+2
  4343  0903  0927               	comf	___xxtofl@val+3,w
  4344  0904  00B1               	movwf	___xxtofl@arg+3
  4345  0905  0AAE               	incf	___xxtofl@arg,f
  4346  0906  1903               	skipnz
  4347  0907  0AAF               	incf	___xxtofl@arg+1,f
  4348  0908  1903               	skipnz
  4349  0909  0AB0               	incf	___xxtofl@arg+2,f
  4350  090A  1903               	skipnz
  4351  090B  0AB1               	incf	___xxtofl@arg+3,f
  4352  090C  2915               	goto	l812
  4353  090D                     l2737:
  4354  090D  0827               	movf	___xxtofl@val+3,w
  4355  090E  00B1               	movwf	___xxtofl@arg+3
  4356  090F  0826               	movf	___xxtofl@val+2,w
  4357  0910  00B0               	movwf	___xxtofl@arg+2
  4358  0911  0825               	movf	___xxtofl@val+1,w
  4359  0912  00AF               	movwf	___xxtofl@arg+1
  4360  0913  0824               	movf	___xxtofl@val,w
  4361  0914  00AE               	movwf	___xxtofl@arg
  4362  0915                     l812:
  4363  0915  0827               	movf	___xxtofl@val+3,w
  4364  0916  0426               	iorwf	___xxtofl@val+2,w
  4365  0917  0425               	iorwf	___xxtofl@val+1,w
  4366  0918  0424               	iorwf	___xxtofl@val,w
  4367  0919  1D03               	skipz
  4368  091A  291C               	goto	u3461
  4369  091B  291D               	goto	u3460
  4370  091C                     u3461:
  4371  091C  2926               	goto	l2743
  4372  091D                     u3460:
  4373  091D                     l2739:
  4374  091D  3000               	movlw	0
  4375  091E  00A7               	movwf	?___xxtofl+3
  4376  091F  3000               	movlw	0
  4377  0920  00A6               	movwf	?___xxtofl+2
  4378  0921  3000               	movlw	0
  4379  0922  00A5               	movwf	?___xxtofl+1
  4380  0923  3000               	movlw	0
  4381  0924  00A4               	movwf	?___xxtofl
  4382  0925  29AC               	goto	l814
  4383  0926                     l2743:
  4384  0926  3096               	movlw	150
  4385  0927  00A8               	movwf	??___xxtofl
  4386  0928  0828               	movf	??___xxtofl,w
  4387  0929  00AD               	movwf	___xxtofl@exp
  4388  092A  2938               	goto	l2747
  4389  092B                     l2745:
  4390  092B  3001               	movlw	1
  4391  092C  00A8               	movwf	??___xxtofl
  4392  092D  0828               	movf	??___xxtofl,w
  4393  092E  07AD               	addwf	___xxtofl@exp,f
  4394  092F  3001               	movlw	1
  4395  0930                     u3475:
  4396  0930  1003               	clrc
  4397  0931  0CB1               	rrf	___xxtofl@arg+3,f
  4398  0932  0CB0               	rrf	___xxtofl@arg+2,f
  4399  0933  0CAF               	rrf	___xxtofl@arg+1,f
  4400  0934  0CAE               	rrf	___xxtofl@arg,f
  4401  0935  3EFF               	addlw	-1
  4402  0936  1D03               	skipz
  4403  0937  2930               	goto	u3475
  4404  0938                     l2747:
  4405  0938  30FE               	movlw	254
  4406  0939  0531               	andwf	___xxtofl@arg+3,w
  4407  093A  1D03               	btfss	3,2
  4408  093B  293D               	goto	u3481
  4409  093C  293E               	goto	u3480
  4410  093D                     u3481:
  4411  093D  292B               	goto	l2745
  4412  093E                     u3480:
  4413  093E  295A               	goto	l818
  4414  093F                     l2749:
  4415  093F  3001               	movlw	1
  4416  0940  00A8               	movwf	??___xxtofl
  4417  0941  0828               	movf	??___xxtofl,w
  4418  0942  07AD               	addwf	___xxtofl@exp,f
  4419  0943                     l2751:
  4420  0943  3001               	movlw	1
  4421  0944  07AE               	addwf	___xxtofl@arg,f
  4422  0945  3000               	movlw	0
  4423  0946  1803               	skipnc
  4424  0947  3001               	movlw	1
  4425  0948  07AF               	addwf	___xxtofl@arg+1,f
  4426  0949  3000               	movlw	0
  4427  094A  1803               	skipnc
  4428  094B  3001               	movlw	1
  4429  094C  07B0               	addwf	___xxtofl@arg+2,f
  4430  094D  3000               	movlw	0
  4431  094E  1803               	skipnc
  4432  094F  3001               	movlw	1
  4433  0950  07B1               	addwf	___xxtofl@arg+3,f
  4434  0951                     l2753:
  4435  0951  3001               	movlw	1
  4436  0952                     u3495:
  4437  0952  1003               	clrc
  4438  0953  0CB1               	rrf	___xxtofl@arg+3,f
  4439  0954  0CB0               	rrf	___xxtofl@arg+2,f
  4440  0955  0CAF               	rrf	___xxtofl@arg+1,f
  4441  0956  0CAE               	rrf	___xxtofl@arg,f
  4442  0957  3EFF               	addlw	-1
  4443  0958  1D03               	skipz
  4444  0959  2952               	goto	u3495
  4445  095A                     l818:
  4446  095A  30FF               	movlw	255
  4447  095B  0531               	andwf	___xxtofl@arg+3,w
  4448  095C  1D03               	btfss	3,2
  4449  095D  295F               	goto	u3501
  4450  095E  2960               	goto	u3500
  4451  095F                     u3501:
  4452  095F  293F               	goto	l2749
  4453  0960                     u3500:
  4454  0960  296C               	goto	l2757
  4455  0961                     l2755:
  4456  0961  3001               	movlw	1
  4457  0962  02AD               	subwf	___xxtofl@exp,f
  4458  0963  3001               	movlw	1
  4459  0964  00A8               	movwf	??___xxtofl
  4460  0965                     u3515:
  4461  0965  1003               	clrc
  4462  0966  0DAE               	rlf	___xxtofl@arg,f
  4463  0967  0DAF               	rlf	___xxtofl@arg+1,f
  4464  0968  0DB0               	rlf	___xxtofl@arg+2,f
  4465  0969  0DB1               	rlf	___xxtofl@arg+3,f
  4466  096A  0BA8               	decfsz	??___xxtofl,f
  4467  096B  2965               	goto	u3515
  4468  096C                     l2757:
  4469  096C  1BB0               	btfsc	___xxtofl@arg+2,7
  4470  096D  296F               	goto	u3521
  4471  096E  2970               	goto	u3520
  4472  096F                     u3521:
  4473  096F  2976               	goto	l825
  4474  0970                     u3520:
  4475  0970                     l2759:
  4476  0970  3002               	movlw	2
  4477  0971  022D               	subwf	___xxtofl@exp,w
  4478  0972  1803               	skipnc
  4479  0973  2975               	goto	u3531
  4480  0974  2976               	goto	u3530
  4481  0975                     u3531:
  4482  0975  2961               	goto	l2755
  4483  0976                     u3530:
  4484  0976                     l825:
  4485  0976  182D               	btfsc	___xxtofl@exp,0
  4486  0977  2979               	goto	u3541
  4487  0978  297A               	goto	u3540
  4488  0979                     u3541:
  4489  0979  2982               	goto	l826
  4490  097A                     u3540:
  4491  097A                     l2761:
  4492  097A  30FF               	movlw	255
  4493  097B  05AE               	andwf	___xxtofl@arg,f
  4494  097C  30FF               	movlw	255
  4495  097D  05AF               	andwf	___xxtofl@arg+1,f
  4496  097E  307F               	movlw	127
  4497  097F  05B0               	andwf	___xxtofl@arg+2,f
  4498  0980  30FF               	movlw	255
  4499  0981  05B1               	andwf	___xxtofl@arg+3,f
  4500  0982                     l826:
  4501  0982  1003               	clrc
  4502  0983  0CAD               	rrf	___xxtofl@exp,f
  4503  0984                     l2763:
  4504  0984  082D               	movf	___xxtofl@exp,w
  4505  0985  00A8               	movwf	??___xxtofl
  4506  0986  01A9               	clrf	??___xxtofl+1
  4507  0987  01AA               	clrf	??___xxtofl+2
  4508  0988  01AB               	clrf	??___xxtofl+3
  4509  0989  3018               	movlw	24
  4510  098A                     u3555:
  4511  098A  1003               	clrc
  4512  098B  0DA8               	rlf	??___xxtofl,f
  4513  098C  0DA9               	rlf	??___xxtofl+1,f
  4514  098D  0DAA               	rlf	??___xxtofl+2,f
  4515  098E  0DAB               	rlf	??___xxtofl+3,f
  4516  098F                     u3550:
  4517  098F  3EFF               	addlw	-1
  4518  0990  1D03               	skipz
  4519  0991  298A               	goto	u3555
  4520  0992  0828               	movf	??___xxtofl,w
  4521  0993  04AE               	iorwf	___xxtofl@arg,f
  4522  0994  0829               	movf	??___xxtofl+1,w
  4523  0995  04AF               	iorwf	___xxtofl@arg+1,f
  4524  0996  082A               	movf	??___xxtofl+2,w
  4525  0997  04B0               	iorwf	___xxtofl@arg+2,f
  4526  0998  082B               	movf	??___xxtofl+3,w
  4527  0999  04B1               	iorwf	___xxtofl@arg+3,f
  4528  099A                     l2765:
  4529  099A  082C               	movf	___xxtofl@sign,w
  4530  099B  1903               	btfsc	3,2
  4531  099C  299E               	goto	u3561
  4532  099D  299F               	goto	u3560
  4533  099E                     u3561:
  4534  099E  29A4               	goto	l2771
  4535  099F                     u3560:
  4536  099F                     l2767:
  4537  099F  1FA7               	btfss	___xxtofl@val+3,7
  4538  09A0  29A2               	goto	u3571
  4539  09A1  29A3               	goto	u3570
  4540  09A2                     u3571:
  4541  09A2  29A4               	goto	l2771
  4542  09A3                     u3570:
  4543  09A3                     l2769:
  4544  09A3  17B1               	bsf	___xxtofl@arg+3,7
  4545  09A4                     l2771:
  4546  09A4  0831               	movf	___xxtofl@arg+3,w
  4547  09A5  00A7               	movwf	?___xxtofl+3
  4548  09A6  0830               	movf	___xxtofl@arg+2,w
  4549  09A7  00A6               	movwf	?___xxtofl+2
  4550  09A8  082F               	movf	___xxtofl@arg+1,w
  4551  09A9  00A5               	movwf	?___xxtofl+1
  4552  09AA  082E               	movf	___xxtofl@arg,w
  4553  09AB  00A4               	movwf	?___xxtofl
  4554  09AC                     l814:
  4555  09AC  0008               	return
  4556  09AD                     __end_of___xxtofl:
  4557                           
  4558                           	psect	text19
  4559  160F                     __ptext19:	
  4560 ;; *************** function ___wmul *****************
  4561 ;; Defined at:
  4562 ;;		line 15 in file "C:\Program Files\Microchip\xc8\v2.31\pic\sources\c90\common\Umul16.c"
  4563 ;; Parameters:    Size  Location     Type
  4564 ;;  multiplier      2    0[BANK0 ] unsigned int 
  4565 ;;  multiplicand    2    2[BANK0 ] unsigned int 
  4566 ;; Auto vars:     Size  Location     Type
  4567 ;;  product         2   11[COMMON] unsigned int 
  4568 ;; Return value:  Size  Location     Type
  4569 ;;                  2    0[BANK0 ] unsigned int 
  4570 ;; Registers used:
  4571 ;;		wreg, status,2, status,0
  4572 ;; Tracked objects:
  4573 ;;		On entry : 0/0
  4574 ;;		On exit  : 0/0
  4575 ;;		Unchanged: 0/0
  4576 ;; Data sizes:     COMMON   BANK0   BANK1   BANK3   BANK2
  4577 ;;      Params:         0       4       0       0       0
  4578 ;;      Locals:         2       0       0       0       0
  4579 ;;      Temps:          0       0       0       0       0
  4580 ;;      Totals:         2       4       0       0       0
  4581 ;;Total ram usage:        6 bytes
  4582 ;; Hardware stack levels used:    1
  4583 ;; This function calls:
  4584 ;;		Nothing
  4585 ;; This function is called by:
  4586 ;;		_ADC_convert
  4587 ;; This function uses a non-reentrant model
  4588 ;;
  4589                           
  4590                           
  4591                           ;psect for function ___wmul
  4592  160F                     ___wmul:
  4593  160F                     l2329:	
  4594                           ;incstack = 0
  4595                           ; Regs used in ___wmul: [wreg+status,2+status,0]
  4596                           
  4597  160F  01FB               	clrf	___wmul@product
  4598  1610  01FC               	clrf	___wmul@product+1
  4599  1611                     l2331:
  4600  1611  1283               	bcf	3,5	;RP0=0, select bank0
  4601  1612  1303               	bcf	3,6	;RP1=0, select bank0
  4602  1613  1C20               	btfss	___wmul@multiplier,0
  4603  1614  2E16               	goto	u2471
  4604  1615  2E17               	goto	u2470
  4605  1616                     u2471:
  4606  1616  2E1D               	goto	l379
  4607  1617                     u2470:
  4608  1617                     l2333:
  4609  1617  0822               	movf	___wmul@multiplicand,w
  4610  1618  07FB               	addwf	___wmul@product,f
  4611  1619  1803               	skipnc
  4612  161A  0AFC               	incf	___wmul@product+1,f
  4613  161B  0823               	movf	___wmul@multiplicand+1,w
  4614  161C  07FC               	addwf	___wmul@product+1,f
  4615  161D                     l379:
  4616  161D  3001               	movlw	1
  4617  161E                     u2485:
  4618  161E  1003               	clrc
  4619  161F  0DA2               	rlf	___wmul@multiplicand,f
  4620  1620  0DA3               	rlf	___wmul@multiplicand+1,f
  4621  1621  3EFF               	addlw	-1
  4622  1622  1D03               	skipz
  4623  1623  2E1E               	goto	u2485
  4624  1624                     l2335:
  4625  1624  3001               	movlw	1
  4626  1625                     u2495:
  4627  1625  1003               	clrc
  4628  1626  0CA1               	rrf	___wmul@multiplier+1,f
  4629  1627  0CA0               	rrf	___wmul@multiplier,f
  4630  1628  3EFF               	addlw	-1
  4631  1629  1D03               	skipz
  4632  162A  2E25               	goto	u2495
  4633  162B                     l2337:
  4634  162B  0820               	movf	___wmul@multiplier,w
  4635  162C  0421               	iorwf	___wmul@multiplier+1,w
  4636  162D  1D03               	btfss	3,2
  4637  162E  2E30               	goto	u2501
  4638  162F  2E31               	goto	u2500
  4639  1630                     u2501:
  4640  1630  2E11               	goto	l2331
  4641  1631                     u2500:
  4642  1631                     l2339:
  4643  1631  087C               	movf	___wmul@product+1,w
  4644  1632  00A1               	movwf	?___wmul+1
  4645  1633  087B               	movf	___wmul@product,w
  4646  1634  00A0               	movwf	?___wmul
  4647  1635                     l381:
  4648  1635  0008               	return
  4649  1636                     __end_of___wmul:
  4650                           
  4651                           	psect	text20
  4652  0016                     __ptext20:	
  4653 ;; *************** function ___fltol *****************
  4654 ;; Defined at:
  4655 ;;		line 43 in file "C:\Program Files\Microchip\xc8\v2.31\pic\sources\c90\common\fltol.c"
  4656 ;; Parameters:    Size  Location     Type
  4657 ;;  f1              4    0[COMMON] unsigned int 
  4658 ;; Auto vars:     Size  Location     Type
  4659 ;;  exp1            1   10[COMMON] unsigned char 
  4660 ;;  sign1           1    9[COMMON] unsigned char 
  4661 ;; Return value:  Size  Location     Type
  4662 ;;                  4    0[COMMON] long 
  4663 ;; Registers used:
  4664 ;;		wreg, status,2, status,0
  4665 ;; Tracked objects:
  4666 ;;		On entry : 0/0
  4667 ;;		On exit  : 0/0
  4668 ;;		Unchanged: 0/0
  4669 ;; Data sizes:     COMMON   BANK0   BANK1   BANK3   BANK2
  4670 ;;      Params:         4       0       0       0       0
  4671 ;;      Locals:         2       0       0       0       0
  4672 ;;      Temps:          5       0       0       0       0
  4673 ;;      Totals:        11       0       0       0       0
  4674 ;;Total ram usage:       11 bytes
  4675 ;; Hardware stack levels used:    1
  4676 ;; This function calls:
  4677 ;;		Nothing
  4678 ;; This function is called by:
  4679 ;;		_ADC_convert
  4680 ;; This function uses a non-reentrant model
  4681 ;;
  4682                           
  4683                           
  4684                           ;psect for function ___fltol
  4685  0016                     ___fltol:
  4686  0016                     l2407:	
  4687                           ;incstack = 0
  4688                           ; Regs used in ___fltol: [wreg+status,2+status,0]
  4689                           
  4690  0016  1003               	clrc
  4691  0017  0D72               	rlf	___fltol@f1+2,w
  4692  0018  0D73               	rlf	___fltol@f1+3,w
  4693  0019  00F4               	movwf	??___fltol
  4694  001A  0874               	movf	??___fltol,w
  4695  001B  00FA               	movwf	___fltol@exp1
  4696  001C  087A               	movf	___fltol@exp1,w
  4697  001D  1D03               	btfss	3,2
  4698  001E  2820               	goto	u2681
  4699  001F  2821               	goto	u2680
  4700  0020                     u2681:
  4701  0020  282A               	goto	l2413
  4702  0021                     u2680:
  4703  0021                     l2409:
  4704  0021  3000               	movlw	0
  4705  0022  00F3               	movwf	?___fltol+3
  4706  0023  3000               	movlw	0
  4707  0024  00F2               	movwf	?___fltol+2
  4708  0025  3000               	movlw	0
  4709  0026  00F1               	movwf	?___fltol+1
  4710  0027  3000               	movlw	0
  4711  0028  00F0               	movwf	?___fltol
  4712  0029  288F               	goto	l565
  4713  002A                     l2413:
  4714  002A  0870               	movf	___fltol@f1,w
  4715  002B  00F4               	movwf	??___fltol
  4716  002C  0871               	movf	___fltol@f1+1,w
  4717  002D  00F5               	movwf	??___fltol+1
  4718  002E  0872               	movf	___fltol@f1+2,w
  4719  002F  00F6               	movwf	??___fltol+2
  4720  0030  0873               	movf	___fltol@f1+3,w
  4721  0031  00F7               	movwf	??___fltol+3
  4722  0032  301F               	movlw	31
  4723  0033                     u2695:
  4724  0033  1003               	clrc
  4725  0034  0CF7               	rrf	??___fltol+3,f
  4726  0035  0CF6               	rrf	??___fltol+2,f
  4727  0036  0CF5               	rrf	??___fltol+1,f
  4728  0037  0CF4               	rrf	??___fltol,f
  4729  0038                     u2690:
  4730  0038  3EFF               	addlw	-1
  4731  0039  1D03               	skipz
  4732  003A  2833               	goto	u2695
  4733  003B  0874               	movf	??___fltol,w
  4734  003C  00F8               	movwf	??___fltol+4
  4735  003D  0878               	movf	??___fltol+4,w
  4736  003E  00F9               	movwf	___fltol@sign1
  4737  003F                     l2415:
  4738  003F  17F2               	bsf	___fltol@f1+2,7
  4739  0040                     l2417:
  4740  0040  30FF               	movlw	255
  4741  0041  05F0               	andwf	___fltol@f1,f
  4742  0042  30FF               	movlw	255
  4743  0043  05F1               	andwf	___fltol@f1+1,f
  4744  0044  30FF               	movlw	255
  4745  0045  05F2               	andwf	___fltol@f1+2,f
  4746  0046  3000               	movlw	0
  4747  0047  05F3               	andwf	___fltol@f1+3,f
  4748  0048                     l2419:
  4749  0048  3096               	movlw	150
  4750  0049  02FA               	subwf	___fltol@exp1,f
  4751  004A                     l2421:
  4752  004A  1FFA               	btfss	___fltol@exp1,7
  4753  004B  284D               	goto	u2701
  4754  004C  284E               	goto	u2700
  4755  004D                     u2701:
  4756  004D  2868               	goto	l2431
  4757  004E                     u2700:
  4758  004E                     l2423:
  4759  004E  087A               	movf	___fltol@exp1,w
  4760  004F  3A80               	xorlw	128
  4761  0050  3E97               	addlw	151
  4762  0051  1803               	skipnc
  4763  0052  2854               	goto	u2711
  4764  0053  2855               	goto	u2710
  4765  0054                     u2711:
  4766  0054  2856               	goto	l2429
  4767  0055                     u2710:
  4768  0055  2821               	goto	l2409
  4769  0056                     l2429:
  4770  0056  3001               	movlw	1
  4771  0057                     u2725:
  4772  0057  1003               	clrc
  4773  0058  0CF3               	rrf	___fltol@f1+3,f
  4774  0059  0CF2               	rrf	___fltol@f1+2,f
  4775  005A  0CF1               	rrf	___fltol@f1+1,f
  4776  005B  0CF0               	rrf	___fltol@f1,f
  4777  005C  3EFF               	addlw	-1
  4778  005D  1D03               	skipz
  4779  005E  2857               	goto	u2725
  4780  005F  3001               	movlw	1
  4781  0060  00F4               	movwf	??___fltol
  4782  0061  0874               	movf	??___fltol,w
  4783  0062  07FA               	addwf	___fltol@exp1,f
  4784  0063  1D03               	btfss	3,2
  4785  0064  2866               	goto	u2731
  4786  0065  2867               	goto	u2730
  4787  0066                     u2731:
  4788  0066  2856               	goto	l2429
  4789  0067                     u2730:
  4790  0067  287F               	goto	l2439
  4791  0068                     l2431:
  4792  0068  3020               	movlw	32
  4793  0069  027A               	subwf	___fltol@exp1,w
  4794  006A  1C03               	skipc
  4795  006B  286D               	goto	u2741
  4796  006C  286E               	goto	u2740
  4797  006D                     u2741:
  4798  006D  287A               	goto	l572
  4799  006E                     u2740:
  4800  006E  2821               	goto	l2409
  4801  006F                     l2437:
  4802  006F  3001               	movlw	1
  4803  0070  00F4               	movwf	??___fltol
  4804  0071                     u2755:
  4805  0071  1003               	clrc
  4806  0072  0DF0               	rlf	___fltol@f1,f
  4807  0073  0DF1               	rlf	___fltol@f1+1,f
  4808  0074  0DF2               	rlf	___fltol@f1+2,f
  4809  0075  0DF3               	rlf	___fltol@f1+3,f
  4810  0076  0BF4               	decfsz	??___fltol,f
  4811  0077  2871               	goto	u2755
  4812  0078  3001               	movlw	1
  4813  0079  02FA               	subwf	___fltol@exp1,f
  4814  007A                     l572:
  4815  007A  087A               	movf	___fltol@exp1,w
  4816  007B  1D03               	btfss	3,2
  4817  007C  287E               	goto	u2761
  4818  007D  287F               	goto	u2760
  4819  007E                     u2761:
  4820  007E  286F               	goto	l2437
  4821  007F                     u2760:
  4822  007F                     l2439:
  4823  007F  0879               	movf	___fltol@sign1,w
  4824  0080  1903               	btfsc	3,2
  4825  0081  2883               	goto	u2771
  4826  0082  2884               	goto	u2770
  4827  0083                     u2771:
  4828  0083  288F               	goto	l575
  4829  0084                     u2770:
  4830  0084                     l2441:
  4831  0084  09F0               	comf	___fltol@f1,f
  4832  0085  09F1               	comf	___fltol@f1+1,f
  4833  0086  09F2               	comf	___fltol@f1+2,f
  4834  0087  09F3               	comf	___fltol@f1+3,f
  4835  0088  0AF0               	incf	___fltol@f1,f
  4836  0089  1903               	skipnz
  4837  008A  0AF1               	incf	___fltol@f1+1,f
  4838  008B  1903               	skipnz
  4839  008C  0AF2               	incf	___fltol@f1+2,f
  4840  008D  1903               	skipnz
  4841  008E  0AF3               	incf	___fltol@f1+3,f
  4842  008F                     l575:
  4843  008F                     l565:
  4844  008F  0008               	return
  4845  0090                     __end_of___fltol:
  4846                           
  4847                           	psect	text21
  4848  15A0                     __ptext21:	
  4849 ;; *************** function ___flsub *****************
  4850 ;; Defined at:
  4851 ;;		line 242 in file "C:\Program Files\Microchip\xc8\v2.31\pic\sources\c90\common\sprcadd.c"
  4852 ;; Parameters:    Size  Location     Type
  4853 ;;  a               4   18[BANK0 ] long 
  4854 ;;  b               4   22[BANK0 ] long 
  4855 ;; Auto vars:     Size  Location     Type
  4856 ;;		None
  4857 ;; Return value:  Size  Location     Type
  4858 ;;                  4   18[BANK0 ] long 
  4859 ;; Registers used:
  4860 ;;		wreg, status,2, status,0, btemp+1, pclath, cstack
  4861 ;; Tracked objects:
  4862 ;;		On entry : 0/0
  4863 ;;		On exit  : 0/0
  4864 ;;		Unchanged: 0/0
  4865 ;; Data sizes:     COMMON   BANK0   BANK1   BANK3   BANK2
  4866 ;;      Params:         0       8       0       0       0
  4867 ;;      Locals:         0       0       0       0       0
  4868 ;;      Temps:          0       0       0       0       0
  4869 ;;      Totals:         0       8       0       0       0
  4870 ;;Total ram usage:        8 bytes
  4871 ;; Hardware stack levels used:    1
  4872 ;; Hardware stack levels required when called:    1
  4873 ;; This function calls:
  4874 ;;		___fladd
  4875 ;; This function is called by:
  4876 ;;		_ADC_convert
  4877 ;; This function uses a non-reentrant model
  4878 ;;
  4879                           
  4880                           
  4881                           ;psect for function ___flsub
  4882  15A0                     ___flsub:
  4883  15A0                     l2443:	
  4884                           ;incstack = 0
  4885                           ; Regs used in ___flsub: [wreg+status,2+status,0+btemp+1+pclath+cstack]
  4886                           
  4887  15A0  3080               	movlw	128
  4888  15A1  1283               	bcf	3,5	;RP0=0, select bank0
  4889  15A2  1303               	bcf	3,6	;RP1=0, select bank0
  4890  15A3  06B5               	xorwf	___flsub@a+3,f
  4891  15A4                     l2445:
  4892  15A4  0839               	movf	___flsub@b+3,w
  4893  15A5  00F3               	movwf	___fladd@b+3
  4894  15A6  0838               	movf	___flsub@b+2,w
  4895  15A7  00F2               	movwf	___fladd@b+2
  4896  15A8  0837               	movf	___flsub@b+1,w
  4897  15A9  00F1               	movwf	___fladd@b+1
  4898  15AA  0836               	movf	___flsub@b,w
  4899  15AB  00F0               	movwf	___fladd@b
  4900  15AC  0835               	movf	___flsub@a+3,w
  4901  15AD  00F7               	movwf	___fladd@a+3
  4902  15AE  0834               	movf	___flsub@a+2,w
  4903  15AF  00F6               	movwf	___fladd@a+2
  4904  15B0  0833               	movf	___flsub@a+1,w
  4905  15B1  00F5               	movwf	___fladd@a+1
  4906  15B2  0832               	movf	___flsub@a,w
  4907  15B3  00F4               	movwf	___fladd@a
  4908  15B4  120A  158A  2568  160A  118A  	fcall	___fladd
  4909  15B9  0873               	movf	?___fladd+3,w
  4910  15BA  1283               	bcf	3,5	;RP0=0, select bank0
  4911  15BB  1303               	bcf	3,6	;RP1=0, select bank0
  4912  15BC  00B5               	movwf	?___flsub+3
  4913  15BD  0872               	movf	?___fladd+2,w
  4914  15BE  00B4               	movwf	?___flsub+2
  4915  15BF  0871               	movf	?___fladd+1,w
  4916  15C0  00B3               	movwf	?___flsub+1
  4917  15C1  0870               	movf	?___fladd,w
  4918  15C2  00B2               	movwf	?___flsub
  4919  15C3                     l718:
  4920  15C3  0008               	return
  4921  15C4                     __end_of___flsub:
  4922                           
  4923                           	psect	text22
  4924  0D68                     __ptext22:	
  4925 ;; *************** function ___fladd *****************
  4926 ;; Defined at:
  4927 ;;		line 10 in file "C:\Program Files\Microchip\xc8\v2.31\pic\sources\c90\common\sprcadd.c"
  4928 ;; Parameters:    Size  Location     Type
  4929 ;;  b               4    0[COMMON] long 
  4930 ;;  a               4    4[COMMON] long 
  4931 ;; Auto vars:     Size  Location     Type
  4932 ;;  grs             1   11[COMMON] unsigned char 
  4933 ;;  bexp            1   10[COMMON] unsigned char 
  4934 ;;  aexp            1    9[COMMON] unsigned char 
  4935 ;;  signs           1    8[COMMON] unsigned char 
  4936 ;; Return value:  Size  Location     Type
  4937 ;;                  4    0[COMMON] unsigned char 
  4938 ;; Registers used:
  4939 ;;		wreg, status,2, status,0, btemp+1
  4940 ;; Tracked objects:
  4941 ;;		On entry : 0/0
  4942 ;;		On exit  : 0/0
  4943 ;;		Unchanged: 0/0
  4944 ;; Data sizes:     COMMON   BANK0   BANK1   BANK3   BANK2
  4945 ;;      Params:         8       0       0       0       0
  4946 ;;      Locals:         4       0       0       0       0
  4947 ;;      Temps:          0       8       0       0       0
  4948 ;;      Totals:        12       8       0       0       0
  4949 ;;Total ram usage:       20 bytes
  4950 ;; Hardware stack levels used:    1
  4951 ;; This function calls:
  4952 ;;		Nothing
  4953 ;; This function is called by:
  4954 ;;		___flsub
  4955 ;; This function uses a non-reentrant model
  4956 ;;
  4957                           
  4958                           
  4959                           ;psect for function ___fladd
  4960  0D68                     ___fladd:
  4961  0D68                     l2059:	
  4962                           ;incstack = 0
  4963                           ; Regs used in ___fladd: [wreg+status,2+status,0+btemp+1]
  4964                           
  4965  0D68  0873               	movf	___fladd@b+3,w
  4966  0D69  3980               	andlw	128
  4967  0D6A  1283               	bcf	3,5	;RP0=0, select bank0
  4968  0D6B  1303               	bcf	3,6	;RP1=0, select bank0
  4969  0D6C  00A0               	movwf	??___fladd
  4970  0D6D  0820               	movf	??___fladd,w
  4971  0D6E  00F8               	movwf	___fladd@signs
  4972  0D6F                     l2061:
  4973  0D6F  0873               	movf	___fladd@b+3,w
  4974  0D70  00A0               	movwf	??___fladd
  4975  0D71  0720               	addwf	??___fladd,w
  4976  0D72  00A1               	movwf	??___fladd+1
  4977  0D73  0821               	movf	??___fladd+1,w
  4978  0D74  00FA               	movwf	___fladd@bexp
  4979  0D75                     l2063:
  4980  0D75  1FF2               	btfss	___fladd@b+2,7
  4981  0D76  2D78               	goto	u1951
  4982  0D77  2D79               	goto	u1950
  4983  0D78                     u1951:
  4984  0D78  2D7A               	goto	l2067
  4985  0D79                     u1950:
  4986  0D79                     l2065:
  4987  0D79  147A               	bsf	___fladd@bexp,0
  4988  0D7A                     l2067:
  4989  0D7A  087A               	movf	___fladd@bexp,w
  4990  0D7B  1903               	btfsc	3,2
  4991  0D7C  2D7E               	goto	u1961
  4992  0D7D  2D7F               	goto	u1960
  4993  0D7E                     u1961:
  4994  0D7E  2D8F               	goto	l2077
  4995  0D7F                     u1960:
  4996  0D7F                     l2069:
  4997  0D7F  0A7A               	incf	___fladd@bexp,w
  4998  0D80  1D03               	btfss	3,2
  4999  0D81  2D83               	goto	u1971
  5000  0D82  2D84               	goto	u1970
  5001  0D83                     u1971:
  5002  0D83  2D8C               	goto	l2073
  5003  0D84                     u1970:
  5004  0D84                     l2071:
  5005  0D84  3000               	movlw	0
  5006  0D85  00F3               	movwf	___fladd@b+3
  5007  0D86  3000               	movlw	0
  5008  0D87  00F2               	movwf	___fladd@b+2
  5009  0D88  3000               	movlw	0
  5010  0D89  00F1               	movwf	___fladd@b+1
  5011  0D8A  3000               	movlw	0
  5012  0D8B  00F0               	movwf	___fladd@b
  5013  0D8C                     l2073:
  5014  0D8C  17F2               	bsf	___fladd@b+2,7
  5015  0D8D                     l2075:
  5016  0D8D  01F3               	clrf	___fladd@b+3
  5017  0D8E  2D97               	goto	l2079
  5018  0D8F                     l2077:
  5019  0D8F  3000               	movlw	0
  5020  0D90  00F3               	movwf	___fladd@b+3
  5021  0D91  3000               	movlw	0
  5022  0D92  00F2               	movwf	___fladd@b+2
  5023  0D93  3000               	movlw	0
  5024  0D94  00F1               	movwf	___fladd@b+1
  5025  0D95  3000               	movlw	0
  5026  0D96  00F0               	movwf	___fladd@b
  5027  0D97                     l2079:
  5028  0D97  0877               	movf	___fladd@a+3,w
  5029  0D98  3980               	andlw	128
  5030  0D99  00A0               	movwf	??___fladd
  5031  0D9A  0820               	movf	??___fladd,w
  5032  0D9B  00F9               	movwf	___fladd@aexp
  5033  0D9C                     l2081:
  5034  0D9C  0879               	movf	___fladd@aexp,w
  5035  0D9D  0678               	xorwf	___fladd@signs,w
  5036  0D9E  1903               	skipnz
  5037  0D9F  2DA1               	goto	u1981
  5038  0DA0  2DA2               	goto	u1980
  5039  0DA1                     u1981:
  5040  0DA1  2DA3               	goto	l2085
  5041  0DA2                     u1980:
  5042  0DA2                     l2083:
  5043  0DA2  1778               	bsf	___fladd@signs,6
  5044  0DA3                     l2085:
  5045  0DA3  0877               	movf	___fladd@a+3,w
  5046  0DA4  00A0               	movwf	??___fladd
  5047  0DA5  0720               	addwf	??___fladd,w
  5048  0DA6  00A1               	movwf	??___fladd+1
  5049  0DA7  0821               	movf	??___fladd+1,w
  5050  0DA8  00F9               	movwf	___fladd@aexp
  5051  0DA9                     l2087:
  5052  0DA9  1FF6               	btfss	___fladd@a+2,7
  5053  0DAA  2DAC               	goto	u1991
  5054  0DAB  2DAD               	goto	u1990
  5055  0DAC                     u1991:
  5056  0DAC  2DAE               	goto	l2091
  5057  0DAD                     u1990:
  5058  0DAD                     l2089:
  5059  0DAD  1479               	bsf	___fladd@aexp,0
  5060  0DAE                     l2091:
  5061  0DAE  0879               	movf	___fladd@aexp,w
  5062  0DAF  1903               	btfsc	3,2
  5063  0DB0  2DB2               	goto	u2001
  5064  0DB1  2DB3               	goto	u2000
  5065  0DB2                     u2001:
  5066  0DB2  2DC3               	goto	l2101
  5067  0DB3                     u2000:
  5068  0DB3                     l2093:
  5069  0DB3  0A79               	incf	___fladd@aexp,w
  5070  0DB4  1D03               	btfss	3,2
  5071  0DB5  2DB7               	goto	u2011
  5072  0DB6  2DB8               	goto	u2010
  5073  0DB7                     u2011:
  5074  0DB7  2DC0               	goto	l2097
  5075  0DB8                     u2010:
  5076  0DB8                     l2095:
  5077  0DB8  3000               	movlw	0
  5078  0DB9  00F7               	movwf	___fladd@a+3
  5079  0DBA  3000               	movlw	0
  5080  0DBB  00F6               	movwf	___fladd@a+2
  5081  0DBC  3000               	movlw	0
  5082  0DBD  00F5               	movwf	___fladd@a+1
  5083  0DBE  3000               	movlw	0
  5084  0DBF  00F4               	movwf	___fladd@a
  5085  0DC0                     l2097:
  5086  0DC0  17F6               	bsf	___fladd@a+2,7
  5087  0DC1                     l2099:
  5088  0DC1  01F7               	clrf	___fladd@a+3
  5089  0DC2  2DCB               	goto	l672
  5090  0DC3                     l2101:
  5091  0DC3  3000               	movlw	0
  5092  0DC4  00F7               	movwf	___fladd@a+3
  5093  0DC5  3000               	movlw	0
  5094  0DC6  00F6               	movwf	___fladd@a+2
  5095  0DC7  3000               	movlw	0
  5096  0DC8  00F5               	movwf	___fladd@a+1
  5097  0DC9  3000               	movlw	0
  5098  0DCA  00F4               	movwf	___fladd@a
  5099  0DCB                     l672:
  5100  0DCB  087A               	movf	___fladd@bexp,w
  5101  0DCC  0279               	subwf	___fladd@aexp,w
  5102  0DCD  1803               	skipnc
  5103  0DCE  2DD0               	goto	u2021
  5104  0DCF  2DD1               	goto	u2020
  5105  0DD0                     u2021:
  5106  0DD0  2E15               	goto	l2137
  5107  0DD1                     u2020:
  5108  0DD1                     l2103:
  5109  0DD1  1F78               	btfss	___fladd@signs,6
  5110  0DD2  2DD4               	goto	u2031
  5111  0DD3  2DD5               	goto	u2030
  5112  0DD4                     u2031:
  5113  0DD4  2DD9               	goto	l2107
  5114  0DD5                     u2030:
  5115  0DD5                     l2105:
  5116  0DD5  3080               	movlw	128
  5117  0DD6  00A0               	movwf	??___fladd
  5118  0DD7  0820               	movf	??___fladd,w
  5119  0DD8  06F8               	xorwf	___fladd@signs,f
  5120  0DD9                     l2107:
  5121  0DD9  087A               	movf	___fladd@bexp,w
  5122  0DDA  00A0               	movwf	??___fladd
  5123  0DDB  0820               	movf	??___fladd,w
  5124  0DDC  00FB               	movwf	___fladd@grs
  5125  0DDD                     l2109:
  5126  0DDD  0879               	movf	___fladd@aexp,w
  5127  0DDE  00A0               	movwf	??___fladd
  5128  0DDF  0820               	movf	??___fladd,w
  5129  0DE0  00FA               	movwf	___fladd@bexp
  5130  0DE1                     l2111:
  5131  0DE1  087B               	movf	___fladd@grs,w
  5132  0DE2  00A0               	movwf	??___fladd
  5133  0DE3  0820               	movf	??___fladd,w
  5134  0DE4  00F9               	movwf	___fladd@aexp
  5135  0DE5                     l2113:
  5136  0DE5  0870               	movf	___fladd@b,w
  5137  0DE6  00A0               	movwf	??___fladd
  5138  0DE7  0820               	movf	??___fladd,w
  5139  0DE8  00FB               	movwf	___fladd@grs
  5140  0DE9                     l2115:
  5141  0DE9  0874               	movf	___fladd@a,w
  5142  0DEA  00A0               	movwf	??___fladd
  5143  0DEB  0820               	movf	??___fladd,w
  5144  0DEC  00F0               	movwf	___fladd@b
  5145  0DED                     l2117:
  5146  0DED  087B               	movf	___fladd@grs,w
  5147  0DEE  00A0               	movwf	??___fladd
  5148  0DEF  0820               	movf	??___fladd,w
  5149  0DF0  00F4               	movwf	___fladd@a
  5150  0DF1                     l2119:
  5151  0DF1  0871               	movf	___fladd@b+1,w
  5152  0DF2  00A0               	movwf	??___fladd
  5153  0DF3  0820               	movf	??___fladd,w
  5154  0DF4  00FB               	movwf	___fladd@grs
  5155  0DF5                     l2121:
  5156  0DF5  0875               	movf	___fladd@a+1,w
  5157  0DF6  00A0               	movwf	??___fladd
  5158  0DF7  0820               	movf	??___fladd,w
  5159  0DF8  00F1               	movwf	___fladd@b+1
  5160  0DF9                     l2123:
  5161  0DF9  087B               	movf	___fladd@grs,w
  5162  0DFA  00A0               	movwf	??___fladd
  5163  0DFB  0820               	movf	??___fladd,w
  5164  0DFC  00F5               	movwf	___fladd@a+1
  5165  0DFD                     l2125:
  5166  0DFD  0872               	movf	___fladd@b+2,w
  5167  0DFE  00A0               	movwf	??___fladd
  5168  0DFF  0820               	movf	??___fladd,w
  5169  0E00  00FB               	movwf	___fladd@grs
  5170  0E01                     l2127:
  5171  0E01  0876               	movf	___fladd@a+2,w
  5172  0E02  00A0               	movwf	??___fladd
  5173  0E03  0820               	movf	??___fladd,w
  5174  0E04  00F2               	movwf	___fladd@b+2
  5175  0E05                     l2129:
  5176  0E05  087B               	movf	___fladd@grs,w
  5177  0E06  00A0               	movwf	??___fladd
  5178  0E07  0820               	movf	??___fladd,w
  5179  0E08  00F6               	movwf	___fladd@a+2
  5180  0E09                     l2131:
  5181  0E09  0873               	movf	___fladd@b+3,w
  5182  0E0A  00A0               	movwf	??___fladd
  5183  0E0B  0820               	movf	??___fladd,w
  5184  0E0C  00FB               	movwf	___fladd@grs
  5185  0E0D                     l2133:
  5186  0E0D  0877               	movf	___fladd@a+3,w
  5187  0E0E  00A0               	movwf	??___fladd
  5188  0E0F  0820               	movf	??___fladd,w
  5189  0E10  00F3               	movwf	___fladd@b+3
  5190  0E11                     l2135:
  5191  0E11  087B               	movf	___fladd@grs,w
  5192  0E12  00A0               	movwf	??___fladd
  5193  0E13  0820               	movf	??___fladd,w
  5194  0E14  00F7               	movwf	___fladd@a+3
  5195  0E15                     l2137:
  5196  0E15  01FB               	clrf	___fladd@grs
  5197  0E16                     l2139:
  5198  0E16  0879               	movf	___fladd@aexp,w
  5199  0E17  00A0               	movwf	??___fladd
  5200  0E18  01A1               	clrf	??___fladd+1
  5201  0E19  0821               	movf	??___fladd+1,w
  5202  0E1A  00A3               	movwf	??___fladd+3
  5203  0E1B  087A               	movf	___fladd@bexp,w
  5204  0E1C  0220               	subwf	??___fladd,w
  5205  0E1D  00A2               	movwf	??___fladd+2
  5206  0E1E  1C03               	skipc
  5207  0E1F  03A3               	decf	??___fladd+3,f
  5208  0E20  0823               	movf	??___fladd+3,w
  5209  0E21  3A80               	xorlw	128
  5210  0E22  00FF               	movwf	btemp+1
  5211  0E23  3080               	movlw	128
  5212  0E24  027F               	subwf	btemp+1,w
  5213  0E25  1D03               	skipz
  5214  0E26  2E29               	goto	u2045
  5215  0E27  301A               	movlw	26
  5216  0E28  0222               	subwf	??___fladd+2,w
  5217  0E29                     u2045:
  5218  0E29  1C03               	skipc
  5219  0E2A  2E2C               	goto	u2041
  5220  0E2B  2E2D               	goto	u2040
  5221  0E2C                     u2041:
  5222  0E2C  2E6E               	goto	l2155
  5223  0E2D                     u2040:
  5224  0E2D                     l2141:
  5225  0E2D  0873               	movf	___fladd@b+3,w
  5226  0E2E  0472               	iorwf	___fladd@b+2,w
  5227  0E2F  0471               	iorwf	___fladd@b+1,w
  5228  0E30  0470               	iorwf	___fladd@b,w
  5229  0E31  1D03               	skipz
  5230  0E32  2E34               	goto	u2051
  5231  0E33  2E36               	goto	u2050
  5232  0E34                     u2051:
  5233  0E34  3001               	movlw	1
  5234  0E35  2E37               	goto	u2060
  5235  0E36                     u2050:
  5236  0E36  3000               	movlw	0
  5237  0E37                     u2060:
  5238  0E37  1283               	bcf	3,5	;RP0=0, select bank0
  5239  0E38  1303               	bcf	3,6	;RP1=0, select bank0
  5240  0E39  00A0               	movwf	??___fladd
  5241  0E3A  0820               	movf	??___fladd,w
  5242  0E3B  00FB               	movwf	___fladd@grs
  5243  0E3C  3000               	movlw	0
  5244  0E3D  00F3               	movwf	___fladd@b+3
  5245  0E3E  3000               	movlw	0
  5246  0E3F  00F2               	movwf	___fladd@b+2
  5247  0E40  3000               	movlw	0
  5248  0E41  00F1               	movwf	___fladd@b+1
  5249  0E42  3000               	movlw	0
  5250  0E43  00F0               	movwf	___fladd@b
  5251  0E44  0879               	movf	___fladd@aexp,w
  5252  0E45  00A0               	movwf	??___fladd
  5253  0E46  0820               	movf	??___fladd,w
  5254  0E47  00FA               	movwf	___fladd@bexp
  5255  0E48  2E74               	goto	l676
  5256  0E49                     l678:
  5257  0E49  1C7B               	btfss	___fladd@grs,0
  5258  0E4A  2E4C               	goto	u2071
  5259  0E4B  2E4D               	goto	u2070
  5260  0E4C                     u2071:
  5261  0E4C  2E58               	goto	l2145
  5262  0E4D                     u2070:
  5263  0E4D                     l2143:
  5264  0E4D  087B               	movf	___fladd@grs,w
  5265  0E4E  1283               	bcf	3,5	;RP0=0, select bank0
  5266  0E4F  1303               	bcf	3,6	;RP1=0, select bank0
  5267  0E50  00A0               	movwf	??___fladd
  5268  0E51  1003               	clrc
  5269  0E52  0C20               	rrf	??___fladd,w
  5270  0E53  3801               	iorlw	1
  5271  0E54  00A1               	movwf	??___fladd+1
  5272  0E55  0821               	movf	??___fladd+1,w
  5273  0E56  00FB               	movwf	___fladd@grs
  5274  0E57  2E5A               	goto	l2147
  5275  0E58                     l2145:
  5276  0E58  1003               	clrc
  5277  0E59  0CFB               	rrf	___fladd@grs,f
  5278  0E5A                     l2147:
  5279  0E5A  1C70               	btfss	___fladd@b,0
  5280  0E5B  2E5D               	goto	u2081
  5281  0E5C  2E5E               	goto	u2080
  5282  0E5D                     u2081:
  5283  0E5D  2E5F               	goto	l2151
  5284  0E5E                     u2080:
  5285  0E5E                     l2149:
  5286  0E5E  17FB               	bsf	___fladd@grs,7
  5287  0E5F                     l2151:
  5288  0E5F  3001               	movlw	1
  5289  0E60  1283               	bcf	3,5	;RP0=0, select bank0
  5290  0E61  1303               	bcf	3,6	;RP1=0, select bank0
  5291  0E62  00A0               	movwf	??___fladd
  5292  0E63                     u2095:
  5293  0E63  0D73               	rlf	___fladd@b+3,w
  5294  0E64  0CF3               	rrf	___fladd@b+3,f
  5295  0E65  0CF2               	rrf	___fladd@b+2,f
  5296  0E66  0CF1               	rrf	___fladd@b+1,f
  5297  0E67  0CF0               	rrf	___fladd@b,f
  5298  0E68  0BA0               	decfsz	??___fladd& (0+127),f
  5299  0E69  2E63               	goto	u2095
  5300  0E6A                     l2153:
  5301  0E6A  3001               	movlw	1
  5302  0E6B  00A0               	movwf	??___fladd
  5303  0E6C  0820               	movf	??___fladd,w
  5304  0E6D  07FA               	addwf	___fladd@bexp,f
  5305  0E6E                     l2155:
  5306  0E6E  0879               	movf	___fladd@aexp,w
  5307  0E6F  027A               	subwf	___fladd@bexp,w
  5308  0E70  1C03               	skipc
  5309  0E71  2E73               	goto	u2101
  5310  0E72  2E74               	goto	u2100
  5311  0E73                     u2101:
  5312  0E73  2E49               	goto	l678
  5313  0E74                     u2100:
  5314  0E74                     l676:
  5315  0E74  1B78               	btfsc	___fladd@signs,6
  5316  0E75  2E77               	goto	u2111
  5317  0E76  2E78               	goto	u2110
  5318  0E77                     u2111:
  5319  0E77  2EC7               	goto	l2181
  5320  0E78                     u2110:
  5321  0E78                     l2157:
  5322  0E78  087A               	movf	___fladd@bexp,w
  5323  0E79  1D03               	btfss	3,2
  5324  0E7A  2E7C               	goto	u2121
  5325  0E7B  2E7D               	goto	u2120
  5326  0E7C                     u2121:
  5327  0E7C  2E86               	goto	l2163
  5328  0E7D                     u2120:
  5329  0E7D                     l2159:
  5330  0E7D  3000               	movlw	0
  5331  0E7E  00F3               	movwf	?___fladd+3
  5332  0E7F  3000               	movlw	0
  5333  0E80  00F2               	movwf	?___fladd+2
  5334  0E81  3000               	movlw	0
  5335  0E82  00F1               	movwf	?___fladd+1
  5336  0E83  3000               	movlw	0
  5337  0E84  00F0               	movwf	?___fladd
  5338  0E85  2FFF               	goto	l685
  5339  0E86                     l2163:
  5340  0E86  0874               	movf	___fladd@a,w
  5341  0E87  07F0               	addwf	___fladd@b,f
  5342  0E88  0875               	movf	___fladd@a+1,w
  5343  0E89  1103               	clrz
  5344  0E8A  1803               	skipnc
  5345  0E8B  3E01               	addlw	1
  5346  0E8C  1903               	skipnz
  5347  0E8D  2E8F               	goto	u2131
  5348  0E8E  07F1               	addwf	___fladd@b+1,f
  5349  0E8F                     u2131:
  5350  0E8F  0876               	movf	___fladd@a+2,w
  5351  0E90  1103               	clrz
  5352  0E91  1803               	skipnc
  5353  0E92  3E01               	addlw	1
  5354  0E93  1903               	skipnz
  5355  0E94  2E96               	goto	u2132
  5356  0E95  07F2               	addwf	___fladd@b+2,f
  5357  0E96                     u2132:
  5358  0E96  0877               	movf	___fladd@a+3,w
  5359  0E97  1103               	clrz
  5360  0E98  1803               	skipnc
  5361  0E99  3E01               	addlw	1
  5362  0E9A  1903               	skipnz
  5363  0E9B  2E9D               	goto	u2133
  5364  0E9C  07F3               	addwf	___fladd@b+3,f
  5365  0E9D                     u2133:
  5366  0E9D                     l2165:
  5367  0E9D  1C73               	btfss	___fladd@b+3,0
  5368  0E9E  2EA0               	goto	u2141
  5369  0E9F  2EA1               	goto	u2140
  5370  0EA0                     u2141:
  5371  0EA0  2F7F               	goto	l2215
  5372  0EA1                     u2140:
  5373  0EA1                     l2167:
  5374  0EA1  1C7B               	btfss	___fladd@grs,0
  5375  0EA2  2EA4               	goto	u2151
  5376  0EA3  2EA5               	goto	u2150
  5377  0EA4                     u2151:
  5378  0EA4  2EB0               	goto	l2171
  5379  0EA5                     u2150:
  5380  0EA5                     l2169:
  5381  0EA5  087B               	movf	___fladd@grs,w
  5382  0EA6  1283               	bcf	3,5	;RP0=0, select bank0
  5383  0EA7  1303               	bcf	3,6	;RP1=0, select bank0
  5384  0EA8  00A0               	movwf	??___fladd
  5385  0EA9  1003               	clrc
  5386  0EAA  0C20               	rrf	??___fladd,w
  5387  0EAB  3801               	iorlw	1
  5388  0EAC  00A1               	movwf	??___fladd+1
  5389  0EAD  0821               	movf	??___fladd+1,w
  5390  0EAE  00FB               	movwf	___fladd@grs
  5391  0EAF  2EB2               	goto	l2173
  5392  0EB0                     l2171:
  5393  0EB0  1003               	clrc
  5394  0EB1  0CFB               	rrf	___fladd@grs,f
  5395  0EB2                     l2173:
  5396  0EB2  1C70               	btfss	___fladd@b,0
  5397  0EB3  2EB5               	goto	u2161
  5398  0EB4  2EB6               	goto	u2160
  5399  0EB5                     u2161:
  5400  0EB5  2EB7               	goto	l2177
  5401  0EB6                     u2160:
  5402  0EB6                     l2175:
  5403  0EB6  17FB               	bsf	___fladd@grs,7
  5404  0EB7                     l2177:
  5405  0EB7  3001               	movlw	1
  5406  0EB8  1283               	bcf	3,5	;RP0=0, select bank0
  5407  0EB9  1303               	bcf	3,6	;RP1=0, select bank0
  5408  0EBA  00A0               	movwf	??___fladd
  5409  0EBB                     u2175:
  5410  0EBB  0D73               	rlf	___fladd@b+3,w
  5411  0EBC  0CF3               	rrf	___fladd@b+3,f
  5412  0EBD  0CF2               	rrf	___fladd@b+2,f
  5413  0EBE  0CF1               	rrf	___fladd@b+1,f
  5414  0EBF  0CF0               	rrf	___fladd@b,f
  5415  0EC0  0BA0               	decfsz	??___fladd& (0+127),f
  5416  0EC1  2EBB               	goto	u2175
  5417  0EC2                     l2179:
  5418  0EC2  3001               	movlw	1
  5419  0EC3  00A0               	movwf	??___fladd
  5420  0EC4  0820               	movf	??___fladd,w
  5421  0EC5  07FA               	addwf	___fladd@bexp,f
  5422  0EC6  2F7F               	goto	l2215
  5423  0EC7                     l2181:
  5424  0EC7  0873               	movf	___fladd@b+3,w
  5425  0EC8  3A80               	xorlw	128
  5426  0EC9  00FF               	movwf	btemp+1
  5427  0ECA  0877               	movf	___fladd@a+3,w
  5428  0ECB  3A80               	xorlw	128
  5429  0ECC  027F               	subwf	btemp+1,w
  5430  0ECD  1D03               	skipz
  5431  0ECE  2ED9               	goto	u2183
  5432  0ECF  0876               	movf	___fladd@a+2,w
  5433  0ED0  0272               	subwf	___fladd@b+2,w
  5434  0ED1  1D03               	skipz
  5435  0ED2  2ED9               	goto	u2183
  5436  0ED3  0875               	movf	___fladd@a+1,w
  5437  0ED4  0271               	subwf	___fladd@b+1,w
  5438  0ED5  1D03               	skipz
  5439  0ED6  2ED9               	goto	u2183
  5440  0ED7  0874               	movf	___fladd@a,w
  5441  0ED8  0270               	subwf	___fladd@b,w
  5442  0ED9                     u2183:
  5443  0ED9  1803               	skipnc
  5444  0EDA  2EDC               	goto	u2181
  5445  0EDB  2EDD               	goto	u2180
  5446  0EDC                     u2181:
  5447  0EDC  2F37               	goto	l2191
  5448  0EDD                     u2180:
  5449  0EDD                     l2183:
  5450  0EDD  30FF               	movlw	255
  5451  0EDE  1283               	bcf	3,5	;RP0=0, select bank0
  5452  0EDF  1303               	bcf	3,6	;RP1=0, select bank0
  5453  0EE0  00A0               	movwf	??___fladd
  5454  0EE1  30FF               	movlw	255
  5455  0EE2  00A1               	movwf	??___fladd+1
  5456  0EE3  30FF               	movlw	255
  5457  0EE4  00A2               	movwf	??___fladd+2
  5458  0EE5  30FF               	movlw	255
  5459  0EE6  00A3               	movwf	??___fladd+3
  5460  0EE7  0874               	movf	___fladd@a,w
  5461  0EE8  00A4               	movwf	??___fladd+4
  5462  0EE9  0875               	movf	___fladd@a+1,w
  5463  0EEA  00A5               	movwf	??___fladd+5
  5464  0EEB  0876               	movf	___fladd@a+2,w
  5465  0EEC  00A6               	movwf	??___fladd+6
  5466  0EED  0877               	movf	___fladd@a+3,w
  5467  0EEE  00A7               	movwf	??___fladd+7
  5468  0EEF  0870               	movf	___fladd@b,w
  5469  0EF0  02A4               	subwf	??___fladd+4,f
  5470  0EF1  0871               	movf	___fladd@b+1,w
  5471  0EF2  1C03               	skipc
  5472  0EF3  0F71               	incfsz	___fladd@b+1,w
  5473  0EF4  2EF6               	goto	u2191
  5474  0EF5  2EF7               	goto	u2192
  5475  0EF6                     u2191:
  5476  0EF6  02A5               	subwf	??___fladd+5,f
  5477  0EF7                     u2192:
  5478  0EF7  0872               	movf	___fladd@b+2,w
  5479  0EF8  1C03               	skipc
  5480  0EF9  0F72               	incfsz	___fladd@b+2,w
  5481  0EFA  2EFC               	goto	u2193
  5482  0EFB  2EFD               	goto	u2194
  5483  0EFC                     u2193:
  5484  0EFC  02A6               	subwf	??___fladd+6,f
  5485  0EFD                     u2194:
  5486  0EFD  0873               	movf	___fladd@b+3,w
  5487  0EFE  1C03               	skipc
  5488  0EFF  0F73               	incfsz	___fladd@b+3,w
  5489  0F00  2F02               	goto	u2195
  5490  0F01  2F03               	goto	u2196
  5491  0F02                     u2195:
  5492  0F02  02A7               	subwf	??___fladd+7,f
  5493  0F03                     u2196:
  5494  0F03  0824               	movf	??___fladd+4,w
  5495  0F04  07A0               	addwf	??___fladd,f
  5496  0F05  0825               	movf	??___fladd+5,w
  5497  0F06  1803               	skipnc
  5498  0F07  0F25               	incfsz	??___fladd+5,w
  5499  0F08  2F0A               	goto	u2200
  5500  0F09  2F0B               	goto	u2201
  5501  0F0A                     u2200:
  5502  0F0A  07A1               	addwf	??___fladd+1,f
  5503  0F0B                     u2201:
  5504  0F0B  0826               	movf	??___fladd+6,w
  5505  0F0C  1803               	skipnc
  5506  0F0D  0F26               	incfsz	??___fladd+6,w
  5507  0F0E  2F10               	goto	u2202
  5508  0F0F  2F11               	goto	u2203
  5509  0F10                     u2202:
  5510  0F10  07A2               	addwf	??___fladd+2,f
  5511  0F11                     u2203:
  5512  0F11  0827               	movf	??___fladd+7,w
  5513  0F12  1803               	skipnc
  5514  0F13  0A27               	incf	??___fladd+7,w
  5515  0F14  07A3               	addwf	??___fladd+3,f
  5516  0F15  0823               	movf	??___fladd+3,w
  5517  0F16  00F3               	movwf	___fladd@b+3
  5518  0F17  0822               	movf	??___fladd+2,w
  5519  0F18  00F2               	movwf	___fladd@b+2
  5520  0F19  0821               	movf	??___fladd+1,w
  5521  0F1A  00F1               	movwf	___fladd@b+1
  5522  0F1B  0820               	movf	??___fladd,w
  5523  0F1C  00F0               	movwf	___fladd@b
  5524  0F1D                     l2185:
  5525  0F1D  3080               	movlw	128
  5526  0F1E  00A0               	movwf	??___fladd
  5527  0F1F  0820               	movf	??___fladd,w
  5528  0F20  06F8               	xorwf	___fladd@signs,f
  5529  0F21  09FB               	comf	___fladd@grs,f
  5530  0F22  0AFB               	incf	___fladd@grs,f
  5531  0F23                     l2187:
  5532  0F23  087B               	movf	___fladd@grs,w
  5533  0F24  1D03               	btfss	3,2
  5534  0F25  2F27               	goto	u2211
  5535  0F26  2F28               	goto	u2210
  5536  0F27                     u2211:
  5537  0F27  2F45               	goto	l693
  5538  0F28                     u2210:
  5539  0F28                     l2189:
  5540  0F28  3001               	movlw	1
  5541  0F29  07F0               	addwf	___fladd@b,f
  5542  0F2A  3000               	movlw	0
  5543  0F2B  1803               	skipnc
  5544  0F2C  3001               	movlw	1
  5545  0F2D  07F1               	addwf	___fladd@b+1,f
  5546  0F2E  3000               	movlw	0
  5547  0F2F  1803               	skipnc
  5548  0F30  3001               	movlw	1
  5549  0F31  07F2               	addwf	___fladd@b+2,f
  5550  0F32  3000               	movlw	0
  5551  0F33  1803               	skipnc
  5552  0F34  3001               	movlw	1
  5553  0F35  07F3               	addwf	___fladd@b+3,f
  5554  0F36  2F45               	goto	l693
  5555  0F37                     l2191:
  5556  0F37  0874               	movf	___fladd@a,w
  5557  0F38  02F0               	subwf	___fladd@b,f
  5558  0F39  0875               	movf	___fladd@a+1,w
  5559  0F3A  1C03               	skipc
  5560  0F3B  0F75               	incfsz	___fladd@a+1,w
  5561  0F3C  02F1               	subwf	___fladd@b+1,f
  5562  0F3D  0876               	movf	___fladd@a+2,w
  5563  0F3E  1C03               	skipc
  5564  0F3F  0F76               	incfsz	___fladd@a+2,w
  5565  0F40  02F2               	subwf	___fladd@b+2,f
  5566  0F41  0877               	movf	___fladd@a+3,w
  5567  0F42  1C03               	skipc
  5568  0F43  0F77               	incfsz	___fladd@a+3,w
  5569  0F44  02F3               	subwf	___fladd@b+3,f
  5570  0F45                     l693:
  5571  0F45  0873               	movf	___fladd@b+3,w
  5572  0F46  0472               	iorwf	___fladd@b+2,w
  5573  0F47  0471               	iorwf	___fladd@b+1,w
  5574  0F48  0470               	iorwf	___fladd@b,w
  5575  0F49  1D03               	skipz
  5576  0F4A  2F4C               	goto	u2221
  5577  0F4B  2F4D               	goto	u2220
  5578  0F4C                     u2221:
  5579  0F4C  2F7B               	goto	l2213
  5580  0F4D                     u2220:
  5581  0F4D                     l2193:
  5582  0F4D  087B               	movf	___fladd@grs,w
  5583  0F4E  1D03               	btfss	3,2
  5584  0F4F  2F51               	goto	u2231
  5585  0F50  2F52               	goto	u2230
  5586  0F51                     u2231:
  5587  0F51  2F7B               	goto	l2213
  5588  0F52                     u2230:
  5589  0F52                     l2195:
  5590  0F52  3000               	movlw	0
  5591  0F53  00F3               	movwf	?___fladd+3
  5592  0F54  3000               	movlw	0
  5593  0F55  00F2               	movwf	?___fladd+2
  5594  0F56  3000               	movlw	0
  5595  0F57  00F1               	movwf	?___fladd+1
  5596  0F58  3000               	movlw	0
  5597  0F59  00F0               	movwf	?___fladd
  5598  0F5A  2FFF               	goto	l685
  5599  0F5B                     l2199:
  5600  0F5B  3001               	movlw	1
  5601  0F5C  1283               	bcf	3,5	;RP0=0, select bank0
  5602  0F5D  1303               	bcf	3,6	;RP1=0, select bank0
  5603  0F5E  00A0               	movwf	??___fladd
  5604  0F5F                     u2245:
  5605  0F5F  1003               	clrc
  5606  0F60  0DF0               	rlf	___fladd@b,f
  5607  0F61  0DF1               	rlf	___fladd@b+1,f
  5608  0F62  0DF2               	rlf	___fladd@b+2,f
  5609  0F63  0DF3               	rlf	___fladd@b+3,f
  5610  0F64  0BA0               	decfsz	??___fladd,f
  5611  0F65  2F5F               	goto	u2245
  5612  0F66                     l2201:
  5613  0F66  1FFB               	btfss	___fladd@grs,7
  5614  0F67  2F69               	goto	u2251
  5615  0F68  2F6A               	goto	u2250
  5616  0F69                     u2251:
  5617  0F69  2F6B               	goto	l697
  5618  0F6A                     u2250:
  5619  0F6A                     l2203:
  5620  0F6A  1470               	bsf	___fladd@b,0
  5621  0F6B                     l697:
  5622  0F6B  1C7B               	btfss	___fladd@grs,0
  5623  0F6C  2F6E               	goto	u2261
  5624  0F6D  2F6F               	goto	u2260
  5625  0F6E                     u2261:
  5626  0F6E  2F72               	goto	l2207
  5627  0F6F                     u2260:
  5628  0F6F                     l2205:
  5629  0F6F  1403               	setc
  5630  0F70  0DFB               	rlf	___fladd@grs,f
  5631  0F71  2F74               	goto	l2209
  5632  0F72                     l2207:
  5633  0F72  1003               	clrc
  5634  0F73  0DFB               	rlf	___fladd@grs,f
  5635  0F74                     l2209:
  5636  0F74  087A               	movf	___fladd@bexp,w
  5637  0F75  1903               	btfsc	3,2
  5638  0F76  2F78               	goto	u2271
  5639  0F77  2F79               	goto	u2270
  5640  0F78                     u2271:
  5641  0F78  2F7B               	goto	l2213
  5642  0F79                     u2270:
  5643  0F79                     l2211:
  5644  0F79  3001               	movlw	1
  5645  0F7A  02FA               	subwf	___fladd@bexp,f
  5646  0F7B                     l2213:
  5647  0F7B  1FF2               	btfss	___fladd@b+2,7
  5648  0F7C  2F7E               	goto	u2281
  5649  0F7D  2F7F               	goto	u2280
  5650  0F7E                     u2281:
  5651  0F7E  2F5B               	goto	l2199
  5652  0F7F                     u2280:
  5653  0F7F                     l2215:
  5654  0F7F  01F9               	clrf	___fladd@aexp
  5655  0F80                     l2217:
  5656  0F80  1FFB               	btfss	___fladd@grs,7
  5657  0F81  2F83               	goto	u2291
  5658  0F82  2F84               	goto	u2290
  5659  0F83                     u2291:
  5660  0F83  2F92               	goto	l2225
  5661  0F84                     u2290:
  5662  0F84                     l2219:
  5663  0F84  087B               	movf	___fladd@grs,w
  5664  0F85  397F               	andlw	127
  5665  0F86  1903               	btfsc	3,2
  5666  0F87  2F89               	goto	u2301
  5667  0F88  2F8A               	goto	u2300
  5668  0F89                     u2301:
  5669  0F89  2F8D               	goto	l703
  5670  0F8A                     u2300:
  5671  0F8A                     l2221:
  5672  0F8A  01F9               	clrf	___fladd@aexp
  5673  0F8B  0AF9               	incf	___fladd@aexp,f
  5674  0F8C  2F92               	goto	l2225
  5675  0F8D                     l703:
  5676  0F8D  1C70               	btfss	___fladd@b,0
  5677  0F8E  2F90               	goto	u2311
  5678  0F8F  2F91               	goto	u2310
  5679  0F90                     u2311:
  5680  0F90  2F92               	goto	l2225
  5681  0F91                     u2310:
  5682  0F91  2F8A               	goto	l2221
  5683  0F92                     l2225:
  5684  0F92  0879               	movf	___fladd@aexp,w
  5685  0F93  1903               	btfsc	3,2
  5686  0F94  2F96               	goto	u2321
  5687  0F95  2F97               	goto	u2320
  5688  0F96                     u2321:
  5689  0F96  2FCD               	goto	l706
  5690  0F97                     u2320:
  5691  0F97                     l2227:
  5692  0F97  3001               	movlw	1
  5693  0F98  07F0               	addwf	___fladd@b,f
  5694  0F99  3000               	movlw	0
  5695  0F9A  1803               	skipnc
  5696  0F9B  3001               	movlw	1
  5697  0F9C  07F1               	addwf	___fladd@b+1,f
  5698  0F9D  3000               	movlw	0
  5699  0F9E  1803               	skipnc
  5700  0F9F  3001               	movlw	1
  5701  0FA0  07F2               	addwf	___fladd@b+2,f
  5702  0FA1  3000               	movlw	0
  5703  0FA2  1803               	skipnc
  5704  0FA3  3001               	movlw	1
  5705  0FA4  07F3               	addwf	___fladd@b+3,f
  5706  0FA5                     l2229:
  5707  0FA5  1C73               	btfss	___fladd@b+3,0
  5708  0FA6  2FA8               	goto	u2331
  5709  0FA7  2FA9               	goto	u2330
  5710  0FA8                     u2331:
  5711  0FA8  2FCD               	goto	l706
  5712  0FA9                     u2330:
  5713  0FA9                     l2231:
  5714  0FA9  0870               	movf	___fladd@b,w
  5715  0FAA  1283               	bcf	3,5	;RP0=0, select bank0
  5716  0FAB  1303               	bcf	3,6	;RP1=0, select bank0
  5717  0FAC  00A0               	movwf	??___fladd
  5718  0FAD  0871               	movf	___fladd@b+1,w
  5719  0FAE  00A1               	movwf	??___fladd+1
  5720  0FAF  0872               	movf	___fladd@b+2,w
  5721  0FB0  00A2               	movwf	??___fladd+2
  5722  0FB1  0873               	movf	___fladd@b+3,w
  5723  0FB2  00A3               	movwf	??___fladd+3
  5724  0FB3  3001               	movlw	1
  5725  0FB4  00A4               	movwf	??___fladd+4
  5726  0FB5                     u2345:
  5727  0FB5  0D23               	rlf	??___fladd+3,w
  5728  0FB6  0CA3               	rrf	??___fladd+3,f
  5729  0FB7  0CA2               	rrf	??___fladd+2,f
  5730  0FB8  0CA1               	rrf	??___fladd+1,f
  5731  0FB9  0CA0               	rrf	??___fladd,f
  5732  0FBA                     u2340:
  5733  0FBA  0BA4               	decfsz	??___fladd+4,f
  5734  0FBB  2FB5               	goto	u2345
  5735  0FBC  0823               	movf	??___fladd+3,w
  5736  0FBD  00F3               	movwf	___fladd@b+3
  5737  0FBE  0822               	movf	??___fladd+2,w
  5738  0FBF  00F2               	movwf	___fladd@b+2
  5739  0FC0  0821               	movf	??___fladd+1,w
  5740  0FC1  00F1               	movwf	___fladd@b+1
  5741  0FC2  0820               	movf	??___fladd,w
  5742  0FC3  00F0               	movwf	___fladd@b
  5743  0FC4  0A7A               	incf	___fladd@bexp,w
  5744  0FC5  1903               	btfsc	3,2
  5745  0FC6  2FC8               	goto	u2351
  5746  0FC7  2FC9               	goto	u2350
  5747  0FC8                     u2351:
  5748  0FC8  2FCD               	goto	l706
  5749  0FC9                     u2350:
  5750  0FC9                     l2233:
  5751  0FC9  3001               	movlw	1
  5752  0FCA  00A0               	movwf	??___fladd
  5753  0FCB  0820               	movf	??___fladd,w
  5754  0FCC  07FA               	addwf	___fladd@bexp,f
  5755  0FCD                     l706:
  5756  0FCD  0A7A               	incf	___fladd@bexp,w
  5757  0FCE  1903               	btfsc	3,2
  5758  0FCF  2FD1               	goto	u2361
  5759  0FD0  2FD2               	goto	u2360
  5760  0FD1                     u2361:
  5761  0FD1  2FD7               	goto	l2237
  5762  0FD2                     u2360:
  5763  0FD2                     l2235:
  5764  0FD2  087A               	movf	___fladd@bexp,w
  5765  0FD3  1D03               	btfss	3,2
  5766  0FD4  2FD6               	goto	u2371
  5767  0FD5  2FD7               	goto	u2370
  5768  0FD6                     u2371:
  5769  0FD6  2FE5               	goto	l2243
  5770  0FD7                     u2370:
  5771  0FD7                     l2237:
  5772  0FD7  3000               	movlw	0
  5773  0FD8  00F3               	movwf	___fladd@b+3
  5774  0FD9  3000               	movlw	0
  5775  0FDA  00F2               	movwf	___fladd@b+2
  5776  0FDB  3000               	movlw	0
  5777  0FDC  00F1               	movwf	___fladd@b+1
  5778  0FDD  3000               	movlw	0
  5779  0FDE  00F0               	movwf	___fladd@b
  5780  0FDF                     l2239:
  5781  0FDF  087A               	movf	___fladd@bexp,w
  5782  0FE0  1D03               	btfss	3,2
  5783  0FE1  2FE3               	goto	u2381
  5784  0FE2  2FE4               	goto	u2380
  5785  0FE3                     u2381:
  5786  0FE3  2FE5               	goto	l2243
  5787  0FE4                     u2380:
  5788  0FE4                     l2241:
  5789  0FE4  01F8               	clrf	___fladd@signs
  5790  0FE5                     l2243:
  5791  0FE5  1C7A               	btfss	___fladd@bexp,0
  5792  0FE6  2FE8               	goto	u2391
  5793  0FE7  2FE9               	goto	u2390
  5794  0FE8                     u2391:
  5795  0FE8  2FEB               	goto	l2247
  5796  0FE9                     u2390:
  5797  0FE9                     l2245:
  5798  0FE9  17F2               	bsf	___fladd@b+2,7
  5799  0FEA  2FF1               	goto	l714
  5800  0FEB                     l2247:
  5801  0FEB  307F               	movlw	127
  5802  0FEC  1283               	bcf	3,5	;RP0=0, select bank0
  5803  0FED  1303               	bcf	3,6	;RP1=0, select bank0
  5804  0FEE  00A0               	movwf	??___fladd
  5805  0FEF  0820               	movf	??___fladd,w
  5806  0FF0  05F2               	andwf	___fladd@b+2,f
  5807  0FF1                     l714:
  5808  0FF1  087A               	movf	___fladd@bexp,w
  5809  0FF2  1283               	bcf	3,5	;RP0=0, select bank0
  5810  0FF3  1303               	bcf	3,6	;RP1=0, select bank0
  5811  0FF4  00A0               	movwf	??___fladd
  5812  0FF5  1003               	clrc
  5813  0FF6  0C20               	rrf	??___fladd,w
  5814  0FF7  00A1               	movwf	??___fladd+1
  5815  0FF8  0821               	movf	??___fladd+1,w
  5816  0FF9  00F3               	movwf	___fladd@b+3
  5817  0FFA                     l2249:
  5818  0FFA  1FF8               	btfss	___fladd@signs,7
  5819  0FFB  2FFD               	goto	u2401
  5820  0FFC  2FFE               	goto	u2400
  5821  0FFD                     u2401:
  5822  0FFD  2FFF               	goto	l715
  5823  0FFE                     u2400:
  5824  0FFE                     l2251:
  5825  0FFE  17F3               	bsf	___fladd@b+3,7
  5826  0FFF                     l715:
  5827  0FFF                     l685:
  5828  0FFF  0008               	return
  5829  1000                     __end_of___fladd:
  5830                           
  5831                           	psect	text23
  5832  0090                     __ptext23:	
  5833 ;; *************** function ___flmul *****************
  5834 ;; Defined at:
  5835 ;;		line 8 in file "C:\Program Files\Microchip\xc8\v2.31\pic\sources\c90\common\sprcmul.c"
  5836 ;; Parameters:    Size  Location     Type
  5837 ;;  b               4   44[BANK0 ] unsigned char 
  5838 ;;  a               4   48[BANK0 ] unsigned char 
  5839 ;; Auto vars:     Size  Location     Type
  5840 ;;  prod            4   64[BANK0 ] struct .
  5841 ;;  grs             4   58[BANK0 ] unsigned long 
  5842 ;;  temp            2   68[BANK0 ] struct .
  5843 ;;  bexp            1   63[BANK0 ] unsigned char 
  5844 ;;  aexp            1   62[BANK0 ] unsigned char 
  5845 ;;  sign            1   57[BANK0 ] unsigned char 
  5846 ;; Return value:  Size  Location     Type
  5847 ;;                  4   44[BANK0 ] unsigned char 
  5848 ;; Registers used:
  5849 ;;		wreg, status,2, status,0, btemp+1, pclath, cstack
  5850 ;; Tracked objects:
  5851 ;;		On entry : 0/0
  5852 ;;		On exit  : 0/0
  5853 ;;		Unchanged: 0/0
  5854 ;; Data sizes:     COMMON   BANK0   BANK1   BANK3   BANK2
  5855 ;;      Params:         0       8       0       0       0
  5856 ;;      Locals:         0      13       0       0       0
  5857 ;;      Temps:          0       5       0       0       0
  5858 ;;      Totals:         0      26       0       0       0
  5859 ;;Total ram usage:       26 bytes
  5860 ;; Hardware stack levels used:    1
  5861 ;; Hardware stack levels required when called:    1
  5862 ;; This function calls:
  5863 ;;		__Umul8_16
  5864 ;; This function is called by:
  5865 ;;		_ADC_convert
  5866 ;;		_main
  5867 ;; This function uses a non-reentrant model
  5868 ;;
  5869                           
  5870                           
  5871                           ;psect for function ___flmul
  5872  0090                     ___flmul:
  5873  0090                     l2591:	
  5874                           ;incstack = 0
  5875                           ; Regs used in ___flmul: [wreg+status,2+status,0+btemp+1+pclath+cstack]
  5876                           
  5877  0090  1283               	bcf	3,5	;RP0=0, select bank0
  5878  0091  1303               	bcf	3,6	;RP1=0, select bank0
  5879  0092  084F               	movf	___flmul@b+3,w
  5880  0093  3980               	andlw	128
  5881  0094  00D4               	movwf	??___flmul
  5882  0095  0854               	movf	??___flmul,w
  5883  0096  00D9               	movwf	___flmul@sign
  5884  0097                     l2593:
  5885  0097  084F               	movf	___flmul@b+3,w
  5886  0098  00D4               	movwf	??___flmul
  5887  0099  0754               	addwf	??___flmul,w
  5888  009A  00D5               	movwf	??___flmul+1
  5889  009B  0855               	movf	??___flmul+1,w
  5890  009C  00DF               	movwf	___flmul@bexp
  5891  009D                     l2595:
  5892  009D  1FCE               	btfss	___flmul@b+2,7
  5893  009E  28A0               	goto	u3071
  5894  009F  28A1               	goto	u3070
  5895  00A0                     u3071:
  5896  00A0  28A2               	goto	l2599
  5897  00A1                     u3070:
  5898  00A1                     l2597:
  5899  00A1  145F               	bsf	___flmul@bexp,0
  5900  00A2                     l2599:
  5901  00A2  085F               	movf	___flmul@bexp,w
  5902  00A3  1903               	btfsc	3,2
  5903  00A4  28A6               	goto	u3081
  5904  00A5  28A7               	goto	u3080
  5905  00A6                     u3081:
  5906  00A6  28B6               	goto	l2607
  5907  00A7                     u3080:
  5908  00A7                     l2601:
  5909  00A7  0A5F               	incf	___flmul@bexp,w
  5910  00A8  1D03               	btfss	3,2
  5911  00A9  28AB               	goto	u3091
  5912  00AA  28AC               	goto	u3090
  5913  00AB                     u3091:
  5914  00AB  28B4               	goto	l2605
  5915  00AC                     u3090:
  5916  00AC                     l2603:
  5917  00AC  3000               	movlw	0
  5918  00AD  00CF               	movwf	___flmul@b+3
  5919  00AE  3000               	movlw	0
  5920  00AF  00CE               	movwf	___flmul@b+2
  5921  00B0  3000               	movlw	0
  5922  00B1  00CD               	movwf	___flmul@b+1
  5923  00B2  3000               	movlw	0
  5924  00B3  00CC               	movwf	___flmul@b
  5925  00B4                     l2605:
  5926  00B4  17CE               	bsf	___flmul@b+2,7
  5927  00B5  28BE               	goto	l2609
  5928  00B6                     l2607:
  5929  00B6  3000               	movlw	0
  5930  00B7  00CF               	movwf	___flmul@b+3
  5931  00B8  3000               	movlw	0
  5932  00B9  00CE               	movwf	___flmul@b+2
  5933  00BA  3000               	movlw	0
  5934  00BB  00CD               	movwf	___flmul@b+1
  5935  00BC  3000               	movlw	0
  5936  00BD  00CC               	movwf	___flmul@b
  5937  00BE                     l2609:
  5938  00BE  0853               	movf	___flmul@a+3,w
  5939  00BF  3980               	andlw	128
  5940  00C0  00D4               	movwf	??___flmul
  5941  00C1  0854               	movf	??___flmul,w
  5942  00C2  06D9               	xorwf	___flmul@sign,f
  5943  00C3                     l2611:
  5944  00C3  0853               	movf	___flmul@a+3,w
  5945  00C4  00D4               	movwf	??___flmul
  5946  00C5  0754               	addwf	??___flmul,w
  5947  00C6  00D5               	movwf	??___flmul+1
  5948  00C7  0855               	movf	??___flmul+1,w
  5949  00C8  00DE               	movwf	___flmul@aexp
  5950  00C9                     l2613:
  5951  00C9  1FD2               	btfss	___flmul@a+2,7
  5952  00CA  28CC               	goto	u3101
  5953  00CB  28CD               	goto	u3100
  5954  00CC                     u3101:
  5955  00CC  28CE               	goto	l2617
  5956  00CD                     u3100:
  5957  00CD                     l2615:
  5958  00CD  145E               	bsf	___flmul@aexp,0
  5959  00CE                     l2617:
  5960  00CE  085E               	movf	___flmul@aexp,w
  5961  00CF  1903               	btfsc	3,2
  5962  00D0  28D2               	goto	u3111
  5963  00D1  28D3               	goto	u3110
  5964  00D2                     u3111:
  5965  00D2  28E2               	goto	l2625
  5966  00D3                     u3110:
  5967  00D3                     l2619:
  5968  00D3  0A5E               	incf	___flmul@aexp,w
  5969  00D4  1D03               	btfss	3,2
  5970  00D5  28D7               	goto	u3121
  5971  00D6  28D8               	goto	u3120
  5972  00D7                     u3121:
  5973  00D7  28E0               	goto	l2623
  5974  00D8                     u3120:
  5975  00D8                     l2621:
  5976  00D8  3000               	movlw	0
  5977  00D9  00D3               	movwf	___flmul@a+3
  5978  00DA  3000               	movlw	0
  5979  00DB  00D2               	movwf	___flmul@a+2
  5980  00DC  3000               	movlw	0
  5981  00DD  00D1               	movwf	___flmul@a+1
  5982  00DE  3000               	movlw	0
  5983  00DF  00D0               	movwf	___flmul@a
  5984  00E0                     l2623:
  5985  00E0  17D2               	bsf	___flmul@a+2,7
  5986  00E1  28EA               	goto	l2627
  5987  00E2                     l2625:
  5988  00E2  3000               	movlw	0
  5989  00E3  00D3               	movwf	___flmul@a+3
  5990  00E4  3000               	movlw	0
  5991  00E5  00D2               	movwf	___flmul@a+2
  5992  00E6  3000               	movlw	0
  5993  00E7  00D1               	movwf	___flmul@a+1
  5994  00E8  3000               	movlw	0
  5995  00E9  00D0               	movwf	___flmul@a
  5996  00EA                     l2627:
  5997  00EA  085E               	movf	___flmul@aexp,w
  5998  00EB  1903               	btfsc	3,2
  5999  00EC  28EE               	goto	u3131
  6000  00ED  28EF               	goto	u3130
  6001  00EE                     u3131:
  6002  00EE  28F4               	goto	l2631
  6003  00EF                     u3130:
  6004  00EF                     l2629:
  6005  00EF  085F               	movf	___flmul@bexp,w
  6006  00F0  1D03               	btfss	3,2
  6007  00F1  28F3               	goto	u3141
  6008  00F2  28F4               	goto	u3140
  6009  00F3                     u3141:
  6010  00F3  28FD               	goto	l2635
  6011  00F4                     u3140:
  6012  00F4                     l2631:
  6013  00F4  3000               	movlw	0
  6014  00F5  00CF               	movwf	?___flmul+3
  6015  00F6  3000               	movlw	0
  6016  00F7  00CE               	movwf	?___flmul+2
  6017  00F8  3000               	movlw	0
  6018  00F9  00CD               	movwf	?___flmul+1
  6019  00FA  3000               	movlw	0
  6020  00FB  00CC               	movwf	?___flmul
  6021  00FC  2BF0               	goto	l768
  6022  00FD                     l2635:
  6023  00FD  084C               	movf	___flmul@b,w
  6024  00FE  00D4               	movwf	??___flmul
  6025  00FF  0854               	movf	??___flmul,w
  6026  0100  00F0               	movwf	__Umul8_16@multiplicand
  6027  0101  0852               	movf	___flmul@a+2,w
  6028  0102  160A  118A  25E8  120A  118A  	fcall	__Umul8_16
  6029  0107  0871               	movf	?__Umul8_16+1,w
  6030  0108  1283               	bcf	3,5	;RP0=0, select bank0
  6031  0109  1303               	bcf	3,6	;RP1=0, select bank0
  6032  010A  00E5               	movwf	___flmul@temp+1
  6033  010B  0870               	movf	?__Umul8_16,w
  6034  010C  00E4               	movwf	___flmul@temp
  6035  010D                     l2637:
  6036  010D  0864               	movf	___flmul@temp,w
  6037  010E  00D4               	movwf	??___flmul
  6038  010F  01D5               	clrf	??___flmul+1
  6039  0110  01D6               	clrf	??___flmul+2
  6040  0111  01D7               	clrf	??___flmul+3
  6041  0112  0857               	movf	??___flmul+3,w
  6042  0113  00DD               	movwf	___flmul@grs+3
  6043  0114  0856               	movf	??___flmul+2,w
  6044  0115  00DC               	movwf	___flmul@grs+2
  6045  0116  0855               	movf	??___flmul+1,w
  6046  0117  00DB               	movwf	___flmul@grs+1
  6047  0118  0854               	movf	??___flmul,w
  6048  0119  00DA               	movwf	___flmul@grs
  6049  011A                     l2639:
  6050  011A  0865               	movf	___flmul@temp+1,w
  6051  011B  00D4               	movwf	??___flmul
  6052  011C  01D5               	clrf	??___flmul+1
  6053  011D  01D6               	clrf	??___flmul+2
  6054  011E  01D7               	clrf	??___flmul+3
  6055  011F  0857               	movf	??___flmul+3,w
  6056  0120  00E3               	movwf	___flmul@prod+3
  6057  0121  0856               	movf	??___flmul+2,w
  6058  0122  00E2               	movwf	___flmul@prod+2
  6059  0123  0855               	movf	??___flmul+1,w
  6060  0124  00E1               	movwf	___flmul@prod+1
  6061  0125  0854               	movf	??___flmul,w
  6062  0126  00E0               	movwf	___flmul@prod
  6063  0127  084D               	movf	___flmul@b+1,w
  6064  0128  00D4               	movwf	??___flmul
  6065  0129  0854               	movf	??___flmul,w
  6066  012A  00F0               	movwf	__Umul8_16@multiplicand
  6067  012B  0851               	movf	___flmul@a+1,w
  6068  012C  160A  118A  25E8  120A  118A  	fcall	__Umul8_16
  6069  0131  0871               	movf	?__Umul8_16+1,w
  6070  0132  1283               	bcf	3,5	;RP0=0, select bank0
  6071  0133  1303               	bcf	3,6	;RP1=0, select bank0
  6072  0134  00E5               	movwf	___flmul@temp+1
  6073  0135  0870               	movf	?__Umul8_16,w
  6074  0136  00E4               	movwf	___flmul@temp
  6075  0137                     l2641:
  6076  0137  0864               	movf	___flmul@temp,w
  6077  0138  00D4               	movwf	??___flmul
  6078  0139  01D5               	clrf	??___flmul+1
  6079  013A  01D6               	clrf	??___flmul+2
  6080  013B  01D7               	clrf	??___flmul+3
  6081  013C  0854               	movf	??___flmul,w
  6082  013D  07DA               	addwf	___flmul@grs,f
  6083  013E  0855               	movf	??___flmul+1,w
  6084  013F  1103               	clrz
  6085  0140  1803               	skipnc
  6086  0141  3E01               	addlw	1
  6087  0142  1903               	skipnz
  6088  0143  2945               	goto	u3151
  6089  0144  07DB               	addwf	___flmul@grs+1,f
  6090  0145                     u3151:
  6091  0145  0856               	movf	??___flmul+2,w
  6092  0146  1103               	clrz
  6093  0147  1803               	skipnc
  6094  0148  3E01               	addlw	1
  6095  0149  1903               	skipnz
  6096  014A  294C               	goto	u3152
  6097  014B  07DC               	addwf	___flmul@grs+2,f
  6098  014C                     u3152:
  6099  014C  0857               	movf	??___flmul+3,w
  6100  014D  1103               	clrz
  6101  014E  1803               	skipnc
  6102  014F  3E01               	addlw	1
  6103  0150  1903               	skipnz
  6104  0151  2953               	goto	u3153
  6105  0152  07DD               	addwf	___flmul@grs+3,f
  6106  0153                     u3153:
  6107  0153                     l2643:
  6108  0153  0865               	movf	___flmul@temp+1,w
  6109  0154  00D4               	movwf	??___flmul
  6110  0155  01D5               	clrf	??___flmul+1
  6111  0156  01D6               	clrf	??___flmul+2
  6112  0157  01D7               	clrf	??___flmul+3
  6113  0158  0854               	movf	??___flmul,w
  6114  0159  07E0               	addwf	___flmul@prod,f
  6115  015A  0855               	movf	??___flmul+1,w
  6116  015B  1103               	clrz
  6117  015C  1803               	skipnc
  6118  015D  3E01               	addlw	1
  6119  015E  1903               	skipnz
  6120  015F  2961               	goto	u3161
  6121  0160  07E1               	addwf	___flmul@prod+1,f
  6122  0161                     u3161:
  6123  0161  0856               	movf	??___flmul+2,w
  6124  0162  1103               	clrz
  6125  0163  1803               	skipnc
  6126  0164  3E01               	addlw	1
  6127  0165  1903               	skipnz
  6128  0166  2968               	goto	u3162
  6129  0167  07E2               	addwf	___flmul@prod+2,f
  6130  0168                     u3162:
  6131  0168  0857               	movf	??___flmul+3,w
  6132  0169  1103               	clrz
  6133  016A  1803               	skipnc
  6134  016B  3E01               	addlw	1
  6135  016C  1903               	skipnz
  6136  016D  296F               	goto	u3163
  6137  016E  07E3               	addwf	___flmul@prod+3,f
  6138  016F                     u3163:
  6139  016F  084E               	movf	___flmul@b+2,w
  6140  0170  00D4               	movwf	??___flmul
  6141  0171  0854               	movf	??___flmul,w
  6142  0172  00F0               	movwf	__Umul8_16@multiplicand
  6143  0173  0850               	movf	___flmul@a,w
  6144  0174  160A  118A  25E8  120A  118A  	fcall	__Umul8_16
  6145  0179  0871               	movf	?__Umul8_16+1,w
  6146  017A  1283               	bcf	3,5	;RP0=0, select bank0
  6147  017B  1303               	bcf	3,6	;RP1=0, select bank0
  6148  017C  00E5               	movwf	___flmul@temp+1
  6149  017D  0870               	movf	?__Umul8_16,w
  6150  017E  00E4               	movwf	___flmul@temp
  6151  017F                     l2645:
  6152  017F  0864               	movf	___flmul@temp,w
  6153  0180  00D4               	movwf	??___flmul
  6154  0181  01D5               	clrf	??___flmul+1
  6155  0182  01D6               	clrf	??___flmul+2
  6156  0183  01D7               	clrf	??___flmul+3
  6157  0184  0854               	movf	??___flmul,w
  6158  0185  07DA               	addwf	___flmul@grs,f
  6159  0186  0855               	movf	??___flmul+1,w
  6160  0187  1103               	clrz
  6161  0188  1803               	skipnc
  6162  0189  3E01               	addlw	1
  6163  018A  1903               	skipnz
  6164  018B  298D               	goto	u3171
  6165  018C  07DB               	addwf	___flmul@grs+1,f
  6166  018D                     u3171:
  6167  018D  0856               	movf	??___flmul+2,w
  6168  018E  1103               	clrz
  6169  018F  1803               	skipnc
  6170  0190  3E01               	addlw	1
  6171  0191  1903               	skipnz
  6172  0192  2994               	goto	u3172
  6173  0193  07DC               	addwf	___flmul@grs+2,f
  6174  0194                     u3172:
  6175  0194  0857               	movf	??___flmul+3,w
  6176  0195  1103               	clrz
  6177  0196  1803               	skipnc
  6178  0197  3E01               	addlw	1
  6179  0198  1903               	skipnz
  6180  0199  299B               	goto	u3173
  6181  019A  07DD               	addwf	___flmul@grs+3,f
  6182  019B                     u3173:
  6183  019B                     l2647:
  6184  019B  0865               	movf	___flmul@temp+1,w
  6185  019C  00D4               	movwf	??___flmul
  6186  019D  01D5               	clrf	??___flmul+1
  6187  019E  01D6               	clrf	??___flmul+2
  6188  019F  01D7               	clrf	??___flmul+3
  6189  01A0  0854               	movf	??___flmul,w
  6190  01A1  07E0               	addwf	___flmul@prod,f
  6191  01A2  0855               	movf	??___flmul+1,w
  6192  01A3  1103               	clrz
  6193  01A4  1803               	skipnc
  6194  01A5  3E01               	addlw	1
  6195  01A6  1903               	skipnz
  6196  01A7  29A9               	goto	u3181
  6197  01A8  07E1               	addwf	___flmul@prod+1,f
  6198  01A9                     u3181:
  6199  01A9  0856               	movf	??___flmul+2,w
  6200  01AA  1103               	clrz
  6201  01AB  1803               	skipnc
  6202  01AC  3E01               	addlw	1
  6203  01AD  1903               	skipnz
  6204  01AE  29B0               	goto	u3182
  6205  01AF  07E2               	addwf	___flmul@prod+2,f
  6206  01B0                     u3182:
  6207  01B0  0857               	movf	??___flmul+3,w
  6208  01B1  1103               	clrz
  6209  01B2  1803               	skipnc
  6210  01B3  3E01               	addlw	1
  6211  01B4  1903               	skipnz
  6212  01B5  29B7               	goto	u3183
  6213  01B6  07E3               	addwf	___flmul@prod+3,f
  6214  01B7                     u3183:
  6215  01B7                     l2649:
  6216  01B7  3008               	movlw	8
  6217  01B8  00D4               	movwf	??___flmul
  6218  01B9                     u3195:
  6219  01B9  1003               	clrc
  6220  01BA  0DDA               	rlf	___flmul@grs,f
  6221  01BB  0DDB               	rlf	___flmul@grs+1,f
  6222  01BC  0DDC               	rlf	___flmul@grs+2,f
  6223  01BD  0DDD               	rlf	___flmul@grs+3,f
  6224  01BE  0BD4               	decfsz	??___flmul,f
  6225  01BF  29B9               	goto	u3195
  6226  01C0                     l2651:
  6227  01C0  084D               	movf	___flmul@b+1,w
  6228  01C1  00D4               	movwf	??___flmul
  6229  01C2  0854               	movf	??___flmul,w
  6230  01C3  00F0               	movwf	__Umul8_16@multiplicand
  6231  01C4  0850               	movf	___flmul@a,w
  6232  01C5  160A  118A  25E8  120A  118A  	fcall	__Umul8_16
  6233  01CA  0871               	movf	?__Umul8_16+1,w
  6234  01CB  1283               	bcf	3,5	;RP0=0, select bank0
  6235  01CC  1303               	bcf	3,6	;RP1=0, select bank0
  6236  01CD  00E5               	movwf	___flmul@temp+1
  6237  01CE  0870               	movf	?__Umul8_16,w
  6238  01CF  00E4               	movwf	___flmul@temp
  6239  01D0                     l2653:
  6240  01D0  0864               	movf	___flmul@temp,w
  6241  01D1  00D4               	movwf	??___flmul
  6242  01D2  0865               	movf	___flmul@temp+1,w
  6243  01D3  00D5               	movwf	??___flmul+1
  6244  01D4  01D6               	clrf	??___flmul+2
  6245  01D5  01D7               	clrf	??___flmul+3
  6246  01D6  0854               	movf	??___flmul,w
  6247  01D7  07DA               	addwf	___flmul@grs,f
  6248  01D8  0855               	movf	??___flmul+1,w
  6249  01D9  1103               	clrz
  6250  01DA  1803               	skipnc
  6251  01DB  3E01               	addlw	1
  6252  01DC  1903               	skipnz
  6253  01DD  29DF               	goto	u3201
  6254  01DE  07DB               	addwf	___flmul@grs+1,f
  6255  01DF                     u3201:
  6256  01DF  0856               	movf	??___flmul+2,w
  6257  01E0  1103               	clrz
  6258  01E1  1803               	skipnc
  6259  01E2  3E01               	addlw	1
  6260  01E3  1903               	skipnz
  6261  01E4  29E6               	goto	u3202
  6262  01E5  07DC               	addwf	___flmul@grs+2,f
  6263  01E6                     u3202:
  6264  01E6  0857               	movf	??___flmul+3,w
  6265  01E7  1103               	clrz
  6266  01E8  1803               	skipnc
  6267  01E9  3E01               	addlw	1
  6268  01EA  1903               	skipnz
  6269  01EB  29ED               	goto	u3203
  6270  01EC  07DD               	addwf	___flmul@grs+3,f
  6271  01ED                     u3203:
  6272  01ED                     l2655:
  6273  01ED  084C               	movf	___flmul@b,w
  6274  01EE  00D4               	movwf	??___flmul
  6275  01EF  0854               	movf	??___flmul,w
  6276  01F0  00F0               	movwf	__Umul8_16@multiplicand
  6277  01F1  0851               	movf	___flmul@a+1,w
  6278  01F2  160A  118A  25E8  120A  118A  	fcall	__Umul8_16
  6279  01F7  0871               	movf	?__Umul8_16+1,w
  6280  01F8  1283               	bcf	3,5	;RP0=0, select bank0
  6281  01F9  1303               	bcf	3,6	;RP1=0, select bank0
  6282  01FA  00E5               	movwf	___flmul@temp+1
  6283  01FB  0870               	movf	?__Umul8_16,w
  6284  01FC  00E4               	movwf	___flmul@temp
  6285  01FD                     l2657:
  6286  01FD  0864               	movf	___flmul@temp,w
  6287  01FE  00D4               	movwf	??___flmul
  6288  01FF  0865               	movf	___flmul@temp+1,w
  6289  0200  00D5               	movwf	??___flmul+1
  6290  0201  01D6               	clrf	??___flmul+2
  6291  0202  01D7               	clrf	??___flmul+3
  6292  0203  0854               	movf	??___flmul,w
  6293  0204  07DA               	addwf	___flmul@grs,f
  6294  0205  0855               	movf	??___flmul+1,w
  6295  0206  1103               	clrz
  6296  0207  1803               	skipnc
  6297  0208  3E01               	addlw	1
  6298  0209  1903               	skipnz
  6299  020A  2A0C               	goto	u3211
  6300  020B  07DB               	addwf	___flmul@grs+1,f
  6301  020C                     u3211:
  6302  020C  0856               	movf	??___flmul+2,w
  6303  020D  1103               	clrz
  6304  020E  1803               	skipnc
  6305  020F  3E01               	addlw	1
  6306  0210  1903               	skipnz
  6307  0211  2A13               	goto	u3212
  6308  0212  07DC               	addwf	___flmul@grs+2,f
  6309  0213                     u3212:
  6310  0213  0857               	movf	??___flmul+3,w
  6311  0214  1103               	clrz
  6312  0215  1803               	skipnc
  6313  0216  3E01               	addlw	1
  6314  0217  1903               	skipnz
  6315  0218  2A1A               	goto	u3213
  6316  0219  07DD               	addwf	___flmul@grs+3,f
  6317  021A                     u3213:
  6318  021A                     l2659:
  6319  021A  3008               	movlw	8
  6320  021B  00D4               	movwf	??___flmul
  6321  021C                     u3225:
  6322  021C  1003               	clrc
  6323  021D  0DDA               	rlf	___flmul@grs,f
  6324  021E  0DDB               	rlf	___flmul@grs+1,f
  6325  021F  0DDC               	rlf	___flmul@grs+2,f
  6326  0220  0DDD               	rlf	___flmul@grs+3,f
  6327  0221  0BD4               	decfsz	??___flmul,f
  6328  0222  2A1C               	goto	u3225
  6329  0223  084C               	movf	___flmul@b,w
  6330  0224  00D4               	movwf	??___flmul
  6331  0225  0854               	movf	??___flmul,w
  6332  0226  00F0               	movwf	__Umul8_16@multiplicand
  6333  0227  0850               	movf	___flmul@a,w
  6334  0228  160A  118A  25E8  120A  118A  	fcall	__Umul8_16
  6335  022D  0871               	movf	?__Umul8_16+1,w
  6336  022E  1283               	bcf	3,5	;RP0=0, select bank0
  6337  022F  1303               	bcf	3,6	;RP1=0, select bank0
  6338  0230  00E5               	movwf	___flmul@temp+1
  6339  0231  0870               	movf	?__Umul8_16,w
  6340  0232  00E4               	movwf	___flmul@temp
  6341  0233                     l2661:
  6342  0233  0864               	movf	___flmul@temp,w
  6343  0234  00D4               	movwf	??___flmul
  6344  0235  0865               	movf	___flmul@temp+1,w
  6345  0236  00D5               	movwf	??___flmul+1
  6346  0237  01D6               	clrf	??___flmul+2
  6347  0238  01D7               	clrf	??___flmul+3
  6348  0239  0854               	movf	??___flmul,w
  6349  023A  07DA               	addwf	___flmul@grs,f
  6350  023B  0855               	movf	??___flmul+1,w
  6351  023C  1103               	clrz
  6352  023D  1803               	skipnc
  6353  023E  3E01               	addlw	1
  6354  023F  1903               	skipnz
  6355  0240  2A42               	goto	u3231
  6356  0241  07DB               	addwf	___flmul@grs+1,f
  6357  0242                     u3231:
  6358  0242  0856               	movf	??___flmul+2,w
  6359  0243  1103               	clrz
  6360  0244  1803               	skipnc
  6361  0245  3E01               	addlw	1
  6362  0246  1903               	skipnz
  6363  0247  2A49               	goto	u3232
  6364  0248  07DC               	addwf	___flmul@grs+2,f
  6365  0249                     u3232:
  6366  0249  0857               	movf	??___flmul+3,w
  6367  024A  1103               	clrz
  6368  024B  1803               	skipnc
  6369  024C  3E01               	addlw	1
  6370  024D  1903               	skipnz
  6371  024E  2A50               	goto	u3233
  6372  024F  07DD               	addwf	___flmul@grs+3,f
  6373  0250                     u3233:
  6374  0250                     l2663:
  6375  0250  084D               	movf	___flmul@b+1,w
  6376  0251  00D4               	movwf	??___flmul
  6377  0252  0854               	movf	??___flmul,w
  6378  0253  00F0               	movwf	__Umul8_16@multiplicand
  6379  0254  0852               	movf	___flmul@a+2,w
  6380  0255  160A  118A  25E8  120A  118A  	fcall	__Umul8_16
  6381  025A  0871               	movf	?__Umul8_16+1,w
  6382  025B  1283               	bcf	3,5	;RP0=0, select bank0
  6383  025C  1303               	bcf	3,6	;RP1=0, select bank0
  6384  025D  00E5               	movwf	___flmul@temp+1
  6385  025E  0870               	movf	?__Umul8_16,w
  6386  025F  00E4               	movwf	___flmul@temp
  6387  0260  0864               	movf	___flmul@temp,w
  6388  0261  00D4               	movwf	??___flmul
  6389  0262  0865               	movf	___flmul@temp+1,w
  6390  0263  00D5               	movwf	??___flmul+1
  6391  0264  01D6               	clrf	??___flmul+2
  6392  0265  01D7               	clrf	??___flmul+3
  6393  0266  0854               	movf	??___flmul,w
  6394  0267  07E0               	addwf	___flmul@prod,f
  6395  0268  0855               	movf	??___flmul+1,w
  6396  0269  1103               	clrz
  6397  026A  1803               	skipnc
  6398  026B  3E01               	addlw	1
  6399  026C  1903               	skipnz
  6400  026D  2A6F               	goto	u3241
  6401  026E  07E1               	addwf	___flmul@prod+1,f
  6402  026F                     u3241:
  6403  026F  0856               	movf	??___flmul+2,w
  6404  0270  1103               	clrz
  6405  0271  1803               	skipnc
  6406  0272  3E01               	addlw	1
  6407  0273  1903               	skipnz
  6408  0274  2A76               	goto	u3242
  6409  0275  07E2               	addwf	___flmul@prod+2,f
  6410  0276                     u3242:
  6411  0276  0857               	movf	??___flmul+3,w
  6412  0277  1103               	clrz
  6413  0278  1803               	skipnc
  6414  0279  3E01               	addlw	1
  6415  027A  1903               	skipnz
  6416  027B  2A7D               	goto	u3243
  6417  027C  07E3               	addwf	___flmul@prod+3,f
  6418  027D                     u3243:
  6419  027D                     l2665:
  6420  027D  084E               	movf	___flmul@b+2,w
  6421  027E  00D4               	movwf	??___flmul
  6422  027F  0854               	movf	??___flmul,w
  6423  0280  00F0               	movwf	__Umul8_16@multiplicand
  6424  0281  0851               	movf	___flmul@a+1,w
  6425  0282  160A  118A  25E8  120A  118A  	fcall	__Umul8_16
  6426  0287  0871               	movf	?__Umul8_16+1,w
  6427  0288  1283               	bcf	3,5	;RP0=0, select bank0
  6428  0289  1303               	bcf	3,6	;RP1=0, select bank0
  6429  028A  00E5               	movwf	___flmul@temp+1
  6430  028B  0870               	movf	?__Umul8_16,w
  6431  028C  00E4               	movwf	___flmul@temp
  6432  028D                     l2667:
  6433  028D  0864               	movf	___flmul@temp,w
  6434  028E  00D4               	movwf	??___flmul
  6435  028F  0865               	movf	___flmul@temp+1,w
  6436  0290  00D5               	movwf	??___flmul+1
  6437  0291  01D6               	clrf	??___flmul+2
  6438  0292  01D7               	clrf	??___flmul+3
  6439  0293  0854               	movf	??___flmul,w
  6440  0294  07E0               	addwf	___flmul@prod,f
  6441  0295  0855               	movf	??___flmul+1,w
  6442  0296  1103               	clrz
  6443  0297  1803               	skipnc
  6444  0298  3E01               	addlw	1
  6445  0299  1903               	skipnz
  6446  029A  2A9C               	goto	u3251
  6447  029B  07E1               	addwf	___flmul@prod+1,f
  6448  029C                     u3251:
  6449  029C  0856               	movf	??___flmul+2,w
  6450  029D  1103               	clrz
  6451  029E  1803               	skipnc
  6452  029F  3E01               	addlw	1
  6453  02A0  1903               	skipnz
  6454  02A1  2AA3               	goto	u3252
  6455  02A2  07E2               	addwf	___flmul@prod+2,f
  6456  02A3                     u3252:
  6457  02A3  0857               	movf	??___flmul+3,w
  6458  02A4  1103               	clrz
  6459  02A5  1803               	skipnc
  6460  02A6  3E01               	addlw	1
  6461  02A7  1903               	skipnz
  6462  02A8  2AAA               	goto	u3253
  6463  02A9  07E3               	addwf	___flmul@prod+3,f
  6464  02AA                     u3253:
  6465  02AA  084E               	movf	___flmul@b+2,w
  6466  02AB  00D4               	movwf	??___flmul
  6467  02AC  0854               	movf	??___flmul,w
  6468  02AD  00F0               	movwf	__Umul8_16@multiplicand
  6469  02AE  0852               	movf	___flmul@a+2,w
  6470  02AF  160A  118A  25E8  120A  118A  	fcall	__Umul8_16
  6471  02B4  0871               	movf	?__Umul8_16+1,w
  6472  02B5  1283               	bcf	3,5	;RP0=0, select bank0
  6473  02B6  1303               	bcf	3,6	;RP1=0, select bank0
  6474  02B7  00E5               	movwf	___flmul@temp+1
  6475  02B8  0870               	movf	?__Umul8_16,w
  6476  02B9  00E4               	movwf	___flmul@temp
  6477  02BA                     l2669:
  6478  02BA  0864               	movf	___flmul@temp,w
  6479  02BB  00D4               	movwf	??___flmul
  6480  02BC  0865               	movf	___flmul@temp+1,w
  6481  02BD  00D5               	movwf	??___flmul+1
  6482  02BE  01D6               	clrf	??___flmul+2
  6483  02BF  01D7               	clrf	??___flmul+3
  6484  02C0  3008               	movlw	8
  6485  02C1                     u3265:
  6486  02C1  1003               	clrc
  6487  02C2  0DD4               	rlf	??___flmul,f
  6488  02C3  0DD5               	rlf	??___flmul+1,f
  6489  02C4  0DD6               	rlf	??___flmul+2,f
  6490  02C5  0DD7               	rlf	??___flmul+3,f
  6491  02C6                     u3260:
  6492  02C6  3EFF               	addlw	-1
  6493  02C7  1D03               	skipz
  6494  02C8  2AC1               	goto	u3265
  6495  02C9  0854               	movf	??___flmul,w
  6496  02CA  07E0               	addwf	___flmul@prod,f
  6497  02CB  0855               	movf	??___flmul+1,w
  6498  02CC  1103               	clrz
  6499  02CD  1803               	skipnc
  6500  02CE  3E01               	addlw	1
  6501  02CF  1903               	skipnz
  6502  02D0  2AD2               	goto	u3271
  6503  02D1  07E1               	addwf	___flmul@prod+1,f
  6504  02D2                     u3271:
  6505  02D2  0856               	movf	??___flmul+2,w
  6506  02D3  1103               	clrz
  6507  02D4  1803               	skipnc
  6508  02D5  3E01               	addlw	1
  6509  02D6  1903               	skipnz
  6510  02D7  2AD9               	goto	u3272
  6511  02D8  07E2               	addwf	___flmul@prod+2,f
  6512  02D9                     u3272:
  6513  02D9  0857               	movf	??___flmul+3,w
  6514  02DA  1103               	clrz
  6515  02DB  1803               	skipnc
  6516  02DC  3E01               	addlw	1
  6517  02DD  1903               	skipnz
  6518  02DE  2AE0               	goto	u3273
  6519  02DF  07E3               	addwf	___flmul@prod+3,f
  6520  02E0                     u3273:
  6521  02E0                     l2671:
  6522  02E0  085A               	movf	___flmul@grs,w
  6523  02E1  00D4               	movwf	??___flmul
  6524  02E2  085B               	movf	___flmul@grs+1,w
  6525  02E3  00D5               	movwf	??___flmul+1
  6526  02E4  085C               	movf	___flmul@grs+2,w
  6527  02E5  00D6               	movwf	??___flmul+2
  6528  02E6  085D               	movf	___flmul@grs+3,w
  6529  02E7  00D7               	movwf	??___flmul+3
  6530  02E8  3018               	movlw	24
  6531  02E9                     u3285:
  6532  02E9  1003               	clrc
  6533  02EA  0CD7               	rrf	??___flmul+3,f
  6534  02EB  0CD6               	rrf	??___flmul+2,f
  6535  02EC  0CD5               	rrf	??___flmul+1,f
  6536  02ED  0CD4               	rrf	??___flmul,f
  6537  02EE                     u3280:
  6538  02EE  3EFF               	addlw	-1
  6539  02EF  1D03               	skipz
  6540  02F0  2AE9               	goto	u3285
  6541  02F1  0854               	movf	??___flmul,w
  6542  02F2  07E0               	addwf	___flmul@prod,f
  6543  02F3  0855               	movf	??___flmul+1,w
  6544  02F4  1103               	clrz
  6545  02F5  1803               	skipnc
  6546  02F6  3E01               	addlw	1
  6547  02F7  1903               	skipnz
  6548  02F8  2AFA               	goto	u3291
  6549  02F9  07E1               	addwf	___flmul@prod+1,f
  6550  02FA                     u3291:
  6551  02FA  0856               	movf	??___flmul+2,w
  6552  02FB  1103               	clrz
  6553  02FC  1803               	skipnc
  6554  02FD  3E01               	addlw	1
  6555  02FE  1903               	skipnz
  6556  02FF  2B01               	goto	u3292
  6557  0300  07E2               	addwf	___flmul@prod+2,f
  6558  0301                     u3292:
  6559  0301  0857               	movf	??___flmul+3,w
  6560  0302  1103               	clrz
  6561  0303  1803               	skipnc
  6562  0304  3E01               	addlw	1
  6563  0305  1903               	skipnz
  6564  0306  2B08               	goto	u3293
  6565  0307  07E3               	addwf	___flmul@prod+3,f
  6566  0308                     u3293:
  6567  0308                     l2673:
  6568  0308  3008               	movlw	8
  6569  0309  00D4               	movwf	??___flmul
  6570  030A                     u3305:
  6571  030A  1003               	clrc
  6572  030B  0DDA               	rlf	___flmul@grs,f
  6573  030C  0DDB               	rlf	___flmul@grs+1,f
  6574  030D  0DDC               	rlf	___flmul@grs+2,f
  6575  030E  0DDD               	rlf	___flmul@grs+3,f
  6576  030F  0BD4               	decfsz	??___flmul,f
  6577  0310  2B0A               	goto	u3305
  6578  0311                     l2675:
  6579  0311  085F               	movf	___flmul@bexp,w
  6580  0312  075E               	addwf	___flmul@aexp,w
  6581  0313  00D4               	movwf	??___flmul
  6582  0314  01D5               	clrf	??___flmul+1
  6583  0315  0DD5               	rlf	??___flmul+1,f
  6584  0316  0854               	movf	??___flmul,w
  6585  0317  3E82               	addlw	130
  6586  0318  00E4               	movwf	___flmul@temp
  6587  0319  0855               	movf	??___flmul+1,w
  6588  031A  1803               	skipnc
  6589  031B  3E01               	addlw	1
  6590  031C  3EFF               	addlw	255
  6591  031D  00E5               	movwf	___flmul@temp+1
  6592  031E  2B3C               	goto	l2687
  6593  031F                     l2677:
  6594  031F  3001               	movlw	1
  6595  0320  00D4               	movwf	??___flmul
  6596  0321                     u3315:
  6597  0321  1003               	clrc
  6598  0322  0DE0               	rlf	___flmul@prod,f
  6599  0323  0DE1               	rlf	___flmul@prod+1,f
  6600  0324  0DE2               	rlf	___flmul@prod+2,f
  6601  0325  0DE3               	rlf	___flmul@prod+3,f
  6602  0326  0BD4               	decfsz	??___flmul,f
  6603  0327  2B21               	goto	u3315
  6604  0328                     l2679:
  6605  0328  1FDD               	btfss	___flmul@grs+3,7
  6606  0329  2B2B               	goto	u3321
  6607  032A  2B2C               	goto	u3320
  6608  032B                     u3321:
  6609  032B  2B2D               	goto	l2683
  6610  032C                     u3320:
  6611  032C                     l2681:
  6612  032C  1460               	bsf	___flmul@prod,0
  6613  032D                     l2683:
  6614  032D  3001               	movlw	1
  6615  032E  00D4               	movwf	??___flmul
  6616  032F                     u3335:
  6617  032F  1003               	clrc
  6618  0330  0DDA               	rlf	___flmul@grs,f
  6619  0331  0DDB               	rlf	___flmul@grs+1,f
  6620  0332  0DDC               	rlf	___flmul@grs+2,f
  6621  0333  0DDD               	rlf	___flmul@grs+3,f
  6622  0334  0BD4               	decfsz	??___flmul,f
  6623  0335  2B2F               	goto	u3335
  6624  0336                     l2685:
  6625  0336  30FF               	movlw	255
  6626  0337  07E4               	addwf	___flmul@temp,f
  6627  0338  1803               	skipnc
  6628  0339  0AE5               	incf	___flmul@temp+1,f
  6629  033A  30FF               	movlw	255
  6630  033B  07E5               	addwf	___flmul@temp+1,f
  6631  033C                     l2687:
  6632  033C  1FE2               	btfss	___flmul@prod+2,7
  6633  033D  2B3F               	goto	u3341
  6634  033E  2B40               	goto	u3340
  6635  033F                     u3341:
  6636  033F  2B1F               	goto	l2677
  6637  0340                     u3340:
  6638  0340                     l2689:
  6639  0340  01DE               	clrf	___flmul@aexp
  6640  0341                     l2691:
  6641  0341  1FDD               	btfss	___flmul@grs+3,7
  6642  0342  2B44               	goto	u3351
  6643  0343  2B45               	goto	u3350
  6644  0344                     u3351:
  6645  0344  2B61               	goto	l2699
  6646  0345                     u3350:
  6647  0345                     l2693:
  6648  0345  30FF               	movlw	255
  6649  0346  055A               	andwf	___flmul@grs,w
  6650  0347  00D4               	movwf	??___flmul
  6651  0348  30FF               	movlw	255
  6652  0349  055B               	andwf	___flmul@grs+1,w
  6653  034A  00D5               	movwf	??___flmul+1
  6654  034B  30FF               	movlw	255
  6655  034C  055C               	andwf	___flmul@grs+2,w
  6656  034D  00D6               	movwf	??___flmul+2
  6657  034E  307F               	movlw	127
  6658  034F  055D               	andwf	___flmul@grs+3,w
  6659  0350  00D7               	movwf	??___flmul+3
  6660  0351  0857               	movf	??___flmul+3,w
  6661  0352  0456               	iorwf	??___flmul+2,w
  6662  0353  0455               	iorwf	??___flmul+1,w
  6663  0354  0454               	iorwf	??___flmul,w
  6664  0355  1903               	skipnz
  6665  0356  2B58               	goto	u3361
  6666  0357  2B59               	goto	u3360
  6667  0358                     u3361:
  6668  0358  2B5C               	goto	l774
  6669  0359                     u3360:
  6670  0359                     l2695:
  6671  0359  01DE               	clrf	___flmul@aexp
  6672  035A  0ADE               	incf	___flmul@aexp,f
  6673  035B  2B61               	goto	l2699
  6674  035C                     l774:
  6675  035C  1C60               	btfss	___flmul@prod,0
  6676  035D  2B5F               	goto	u3371
  6677  035E  2B60               	goto	u3370
  6678  035F                     u3371:
  6679  035F  2B61               	goto	l2699
  6680  0360                     u3370:
  6681  0360  2B59               	goto	l2695
  6682  0361                     l2699:
  6683  0361  085E               	movf	___flmul@aexp,w
  6684  0362  1903               	btfsc	3,2
  6685  0363  2B65               	goto	u3381
  6686  0364  2B66               	goto	u3380
  6687  0365                     u3381:
  6688  0365  2B97               	goto	l2709
  6689  0366                     u3380:
  6690  0366                     l2701:
  6691  0366  3001               	movlw	1
  6692  0367  07E0               	addwf	___flmul@prod,f
  6693  0368  3000               	movlw	0
  6694  0369  1803               	skipnc
  6695  036A  3001               	movlw	1
  6696  036B  07E1               	addwf	___flmul@prod+1,f
  6697  036C  3000               	movlw	0
  6698  036D  1803               	skipnc
  6699  036E  3001               	movlw	1
  6700  036F  07E2               	addwf	___flmul@prod+2,f
  6701  0370  3000               	movlw	0
  6702  0371  1803               	skipnc
  6703  0372  3001               	movlw	1
  6704  0373  07E3               	addwf	___flmul@prod+3,f
  6705  0374                     l2703:
  6706  0374  1C63               	btfss	___flmul@prod+3,0
  6707  0375  2B77               	goto	u3391
  6708  0376  2B78               	goto	u3390
  6709  0377                     u3391:
  6710  0377  2B97               	goto	l2709
  6711  0378                     u3390:
  6712  0378                     l2705:
  6713  0378  0860               	movf	___flmul@prod,w
  6714  0379  00D4               	movwf	??___flmul
  6715  037A  0861               	movf	___flmul@prod+1,w
  6716  037B  00D5               	movwf	??___flmul+1
  6717  037C  0862               	movf	___flmul@prod+2,w
  6718  037D  00D6               	movwf	??___flmul+2
  6719  037E  0863               	movf	___flmul@prod+3,w
  6720  037F  00D7               	movwf	??___flmul+3
  6721  0380  3001               	movlw	1
  6722  0381  00D8               	movwf	??___flmul+4
  6723  0382                     u3405:
  6724  0382  0D57               	rlf	??___flmul+3,w
  6725  0383  0CD7               	rrf	??___flmul+3,f
  6726  0384  0CD6               	rrf	??___flmul+2,f
  6727  0385  0CD5               	rrf	??___flmul+1,f
  6728  0386  0CD4               	rrf	??___flmul,f
  6729  0387                     u3400:
  6730  0387  0BD8               	decfsz	??___flmul+4,f
  6731  0388  2B82               	goto	u3405
  6732  0389  0857               	movf	??___flmul+3,w
  6733  038A  00E3               	movwf	___flmul@prod+3
  6734  038B  0856               	movf	??___flmul+2,w
  6735  038C  00E2               	movwf	___flmul@prod+2
  6736  038D  0855               	movf	??___flmul+1,w
  6737  038E  00E1               	movwf	___flmul@prod+1
  6738  038F  0854               	movf	??___flmul,w
  6739  0390  00E0               	movwf	___flmul@prod
  6740  0391                     l2707:
  6741  0391  3001               	movlw	1
  6742  0392  07E4               	addwf	___flmul@temp,f
  6743  0393  1803               	skipnc
  6744  0394  0AE5               	incf	___flmul@temp+1,f
  6745  0395  3000               	movlw	0
  6746  0396  07E5               	addwf	___flmul@temp+1,f
  6747  0397                     l2709:
  6748  0397  0865               	movf	___flmul@temp+1,w
  6749  0398  3A80               	xorlw	128
  6750  0399  00FF               	movwf	btemp+1
  6751  039A  3080               	movlw	128
  6752  039B  027F               	subwf	btemp+1,w
  6753  039C  1D03               	skipz
  6754  039D  2BA0               	goto	u3415
  6755  039E  30FF               	movlw	255
  6756  039F  0264               	subwf	___flmul@temp,w
  6757  03A0                     u3415:
  6758  03A0  1C03               	skipc
  6759  03A1  2BA3               	goto	u3411
  6760  03A2  2BA4               	goto	u3410
  6761  03A3                     u3411:
  6762  03A3  2BAF               	goto	l2713
  6763  03A4                     u3410:
  6764  03A4                     l2711:
  6765  03A4  307F               	movlw	127
  6766  03A5  1283               	bcf	3,5	;RP0=0, select bank0
  6767  03A6  1303               	bcf	3,6	;RP1=0, select bank0
  6768  03A7  00E3               	movwf	___flmul@prod+3
  6769  03A8  3080               	movlw	128
  6770  03A9  00E2               	movwf	___flmul@prod+2
  6771  03AA  3000               	movlw	0
  6772  03AB  00E1               	movwf	___flmul@prod+1
  6773  03AC  3000               	movlw	0
  6774  03AD  00E0               	movwf	___flmul@prod
  6775  03AE  2BE4               	goto	l780
  6776  03AF                     l2713:
  6777  03AF  1283               	bcf	3,5	;RP0=0, select bank0
  6778  03B0  1303               	bcf	3,6	;RP1=0, select bank0
  6779  03B1  0865               	movf	___flmul@temp+1,w
  6780  03B2  3A80               	xorlw	128
  6781  03B3  00FF               	movwf	btemp+1
  6782  03B4  3080               	movlw	128
  6783  03B5  027F               	subwf	btemp+1,w
  6784  03B6  1D03               	skipz
  6785  03B7  2BBA               	goto	u3425
  6786  03B8  3001               	movlw	1
  6787  03B9  0264               	subwf	___flmul@temp,w
  6788  03BA                     u3425:
  6789  03BA  1803               	skipnc
  6790  03BB  2BBD               	goto	u3421
  6791  03BC  2BBE               	goto	u3420
  6792  03BD                     u3421:
  6793  03BD  2BCA               	goto	l2719
  6794  03BE                     u3420:
  6795  03BE                     l2715:
  6796  03BE  3000               	movlw	0
  6797  03BF  1283               	bcf	3,5	;RP0=0, select bank0
  6798  03C0  1303               	bcf	3,6	;RP1=0, select bank0
  6799  03C1  00E3               	movwf	___flmul@prod+3
  6800  03C2  3000               	movlw	0
  6801  03C3  00E2               	movwf	___flmul@prod+2
  6802  03C4  3000               	movlw	0
  6803  03C5  00E1               	movwf	___flmul@prod+1
  6804  03C6  3000               	movlw	0
  6805  03C7  00E0               	movwf	___flmul@prod
  6806  03C8                     l2717:
  6807  03C8  01D9               	clrf	___flmul@sign
  6808  03C9  2BE4               	goto	l780
  6809  03CA                     l2719:
  6810  03CA  1283               	bcf	3,5	;RP0=0, select bank0
  6811  03CB  1303               	bcf	3,6	;RP1=0, select bank0
  6812  03CC  0864               	movf	___flmul@temp,w
  6813  03CD  00D4               	movwf	??___flmul
  6814  03CE  0854               	movf	??___flmul,w
  6815  03CF  00DF               	movwf	___flmul@bexp
  6816  03D0  30FF               	movlw	255
  6817  03D1  05E0               	andwf	___flmul@prod,f
  6818  03D2  30FF               	movlw	255
  6819  03D3  05E1               	andwf	___flmul@prod+1,f
  6820  03D4  307F               	movlw	127
  6821  03D5  05E2               	andwf	___flmul@prod+2,f
  6822  03D6  3000               	movlw	0
  6823  03D7  05E3               	andwf	___flmul@prod+3,f
  6824  03D8                     l2721:
  6825  03D8  1C5F               	btfss	___flmul@bexp,0
  6826  03D9  2BDB               	goto	u3431
  6827  03DA  2BDC               	goto	u3430
  6828  03DB                     u3431:
  6829  03DB  2BDD               	goto	l2725
  6830  03DC                     u3430:
  6831  03DC                     l2723:
  6832  03DC  17E2               	bsf	___flmul@prod+2,7
  6833  03DD                     l2725:
  6834  03DD  085F               	movf	___flmul@bexp,w
  6835  03DE  00D4               	movwf	??___flmul
  6836  03DF  1003               	clrc
  6837  03E0  0C54               	rrf	??___flmul,w
  6838  03E1  00D5               	movwf	??___flmul+1
  6839  03E2  0855               	movf	??___flmul+1,w
  6840  03E3  00E3               	movwf	___flmul@prod+3
  6841  03E4                     l780:
  6842  03E4  0859               	movf	___flmul@sign,w
  6843  03E5  00D4               	movwf	??___flmul
  6844  03E6  0854               	movf	??___flmul,w
  6845  03E7  04E3               	iorwf	___flmul@prod+3,f
  6846  03E8                     l2727:
  6847  03E8  0863               	movf	___flmul@prod+3,w
  6848  03E9  00CF               	movwf	?___flmul+3
  6849  03EA  0862               	movf	___flmul@prod+2,w
  6850  03EB  00CE               	movwf	?___flmul+2
  6851  03EC  0861               	movf	___flmul@prod+1,w
  6852  03ED  00CD               	movwf	?___flmul+1
  6853  03EE  0860               	movf	___flmul@prod,w
  6854  03EF  00CC               	movwf	?___flmul
  6855  03F0                     l768:
  6856  03F0  0008               	return
  6857  03F1                     __end_of___flmul:
  6858                           
  6859                           	psect	text24
  6860  15E8                     __ptext24:	
  6861 ;; *************** function __Umul8_16 *****************
  6862 ;; Defined at:
  6863 ;;		line 4 in file "C:\Program Files\Microchip\xc8\v2.31\pic\sources\c90\common\Umul8_16.c"
  6864 ;; Parameters:    Size  Location     Type
  6865 ;;  multiplier      1    wreg     unsigned char 
  6866 ;;  multiplicand    1    0[COMMON] unsigned char 
  6867 ;; Auto vars:     Size  Location     Type
  6868 ;;  multiplier      1    8[COMMON] unsigned char 
  6869 ;;  word_mpld       2    6[COMMON] unsigned int 
  6870 ;;  product         2    4[COMMON] unsigned int 
  6871 ;; Return value:  Size  Location     Type
  6872 ;;                  2    0[COMMON] unsigned int 
  6873 ;; Registers used:
  6874 ;;		wreg, status,2, status,0
  6875 ;; Tracked objects:
  6876 ;;		On entry : 0/0
  6877 ;;		On exit  : 0/0
  6878 ;;		Unchanged: 0/0
  6879 ;; Data sizes:     COMMON   BANK0   BANK1   BANK3   BANK2
  6880 ;;      Params:         2       0       0       0       0
  6881 ;;      Locals:         5       0       0       0       0
  6882 ;;      Temps:          2       0       0       0       0
  6883 ;;      Totals:         9       0       0       0       0
  6884 ;;Total ram usage:        9 bytes
  6885 ;; Hardware stack levels used:    1
  6886 ;; This function calls:
  6887 ;;		Nothing
  6888 ;; This function is called by:
  6889 ;;		___flmul
  6890 ;; This function uses a non-reentrant model
  6891 ;;
  6892                           
  6893                           
  6894                           ;psect for function __Umul8_16
  6895  15E8                     __Umul8_16:
  6896                           
  6897                           ;incstack = 0
  6898                           ; Regs used in __Umul8_16: [wreg+status,2+status,0]
  6899                           ;__Umul8_16@multiplier stored from wreg
  6900  15E8  00F8               	movwf	__Umul8_16@multiplier
  6901  15E9                     l2253:
  6902  15E9  01F4               	clrf	__Umul8_16@product
  6903  15EA  01F5               	clrf	__Umul8_16@product+1
  6904  15EB                     l2255:
  6905  15EB  0870               	movf	__Umul8_16@multiplicand,w
  6906  15EC  00F2               	movwf	??__Umul8_16
  6907  15ED  01F3               	clrf	??__Umul8_16+1
  6908  15EE  0872               	movf	??__Umul8_16,w
  6909  15EF  00F6               	movwf	__Umul8_16@word_mpld
  6910  15F0  0873               	movf	??__Umul8_16+1,w
  6911  15F1  00F7               	movwf	__Umul8_16@word_mpld+1
  6912  15F2                     l2257:
  6913  15F2  1C78               	btfss	__Umul8_16@multiplier,0
  6914  15F3  2DF5               	goto	u2411
  6915  15F4  2DF6               	goto	u2410
  6916  15F5                     u2411:
  6917  15F5  2DFC               	goto	l787
  6918  15F6                     u2410:
  6919  15F6                     l2259:
  6920  15F6  0876               	movf	__Umul8_16@word_mpld,w
  6921  15F7  07F4               	addwf	__Umul8_16@product,f
  6922  15F8  1803               	skipnc
  6923  15F9  0AF5               	incf	__Umul8_16@product+1,f
  6924  15FA  0877               	movf	__Umul8_16@word_mpld+1,w
  6925  15FB  07F5               	addwf	__Umul8_16@product+1,f
  6926  15FC                     l787:
  6927  15FC  3001               	movlw	1
  6928  15FD                     u2425:
  6929  15FD  1003               	clrc
  6930  15FE  0DF6               	rlf	__Umul8_16@word_mpld,f
  6931  15FF  0DF7               	rlf	__Umul8_16@word_mpld+1,f
  6932  1600  3EFF               	addlw	-1
  6933  1601  1D03               	skipz
  6934  1602  2DFD               	goto	u2425
  6935  1603  1003               	clrc
  6936  1604  0CF8               	rrf	__Umul8_16@multiplier,f
  6937  1605                     l2261:
  6938  1605  0878               	movf	__Umul8_16@multiplier,w
  6939  1606  1D03               	btfss	3,2
  6940  1607  2E09               	goto	u2431
  6941  1608  2E0A               	goto	u2430
  6942  1609                     u2431:
  6943  1609  2DF2               	goto	l2257
  6944  160A                     u2430:
  6945  160A                     l2263:
  6946  160A  0875               	movf	__Umul8_16@product+1,w
  6947  160B  00F1               	movwf	?__Umul8_16+1
  6948  160C  0874               	movf	__Umul8_16@product,w
  6949  160D  00F0               	movwf	?__Umul8_16
  6950  160E                     l789:
  6951  160E  0008               	return
  6952  160F                     __end_of__Umul8_16:
  6953                           
  6954                           	psect	text25
  6955  084F                     __ptext25:	
  6956 ;; *************** function ___flge *****************
  6957 ;; Defined at:
  6958 ;;		line 4 in file "C:\Program Files\Microchip\xc8\v2.31\pic\sources\c90\common\flge.c"
  6959 ;; Parameters:    Size  Location     Type
  6960 ;;  ff1             4    0[COMMON] unsigned int 
  6961 ;;  ff2             4    4[COMMON] unsigned int 
  6962 ;; Auto vars:     Size  Location     Type
  6963 ;;		None
  6964 ;; Return value:  Size  Location     Type
  6965 ;;		None               void
  6966 ;; Registers used:
  6967 ;;		wreg, status,2, status,0
  6968 ;; Tracked objects:
  6969 ;;		On entry : 0/0
  6970 ;;		On exit  : 0/0
  6971 ;;		Unchanged: 0/0
  6972 ;; Data sizes:     COMMON   BANK0   BANK1   BANK3   BANK2
  6973 ;;      Params:         8       0       0       0       0
  6974 ;;      Locals:         0       0       0       0       0
  6975 ;;      Temps:          4       0       0       0       0
  6976 ;;      Totals:        12       0       0       0       0
  6977 ;;Total ram usage:       12 bytes
  6978 ;; Hardware stack levels used:    1
  6979 ;; This function calls:
  6980 ;;		Nothing
  6981 ;; This function is called by:
  6982 ;;		_ADC_convert
  6983 ;; This function uses a non-reentrant model
  6984 ;;
  6985                           
  6986                           
  6987                           ;psect for function ___flge
  6988  084F                     ___flge:
  6989  084F                     l2387:	
  6990                           ;incstack = 0
  6991                           ; Regs used in ___flge: [wreg+status,2+status,0]
  6992                           
  6993  084F  3000               	movlw	0
  6994  0850  0570               	andwf	___flge@ff1,w
  6995  0851  00F8               	movwf	??___flge
  6996  0852  3000               	movlw	0
  6997  0853  0571               	andwf	___flge@ff1+1,w
  6998  0854  00F9               	movwf	??___flge+1
  6999  0855  3080               	movlw	128
  7000  0856  0572               	andwf	___flge@ff1+2,w
  7001  0857  00FA               	movwf	??___flge+2
  7002  0858  307F               	movlw	127
  7003  0859  0573               	andwf	___flge@ff1+3,w
  7004  085A  00FB               	movwf	??___flge+3
  7005  085B  087B               	movf	??___flge+3,w
  7006  085C  047A               	iorwf	??___flge+2,w
  7007  085D  0479               	iorwf	??___flge+1,w
  7008  085E  0478               	iorwf	??___flge,w
  7009  085F  1D03               	skipz
  7010  0860  2862               	goto	u2611
  7011  0861  2863               	goto	u2610
  7012  0862                     u2611:
  7013  0862  286B               	goto	l553
  7014  0863                     u2610:
  7015  0863                     l2389:
  7016  0863  3000               	movlw	0
  7017  0864  00F3               	movwf	___flge@ff1+3
  7018  0865  3000               	movlw	0
  7019  0866  00F2               	movwf	___flge@ff1+2
  7020  0867  3000               	movlw	0
  7021  0868  00F1               	movwf	___flge@ff1+1
  7022  0869  3000               	movlw	0
  7023  086A  00F0               	movwf	___flge@ff1
  7024  086B                     l553:
  7025  086B  3000               	movlw	0
  7026  086C  0574               	andwf	___flge@ff2,w
  7027  086D  00F8               	movwf	??___flge
  7028  086E  3000               	movlw	0
  7029  086F  0575               	andwf	___flge@ff2+1,w
  7030  0870  00F9               	movwf	??___flge+1
  7031  0871  3080               	movlw	128
  7032  0872  0576               	andwf	___flge@ff2+2,w
  7033  0873  00FA               	movwf	??___flge+2
  7034  0874  307F               	movlw	127
  7035  0875  0577               	andwf	___flge@ff2+3,w
  7036  0876  00FB               	movwf	??___flge+3
  7037  0877  087B               	movf	??___flge+3,w
  7038  0878  047A               	iorwf	??___flge+2,w
  7039  0879  0479               	iorwf	??___flge+1,w
  7040  087A  0478               	iorwf	??___flge,w
  7041  087B  1D03               	skipz
  7042  087C  287E               	goto	u2621
  7043  087D  287F               	goto	u2620
  7044  087E                     u2621:
  7045  087E  2887               	goto	l2393
  7046  087F                     u2620:
  7047  087F                     l2391:
  7048  087F  3000               	movlw	0
  7049  0880  00F7               	movwf	___flge@ff2+3
  7050  0881  3000               	movlw	0
  7051  0882  00F6               	movwf	___flge@ff2+2
  7052  0883  3000               	movlw	0
  7053  0884  00F5               	movwf	___flge@ff2+1
  7054  0885  3000               	movlw	0
  7055  0886  00F4               	movwf	___flge@ff2
  7056  0887                     l2393:
  7057  0887  1FF3               	btfss	___flge@ff1+3,7
  7058  0888  288A               	goto	u2631
  7059  0889  288B               	goto	u2630
  7060  088A                     u2631:
  7061  088A  28AF               	goto	l2397
  7062  088B                     u2630:
  7063  088B                     l2395:
  7064  088B  3000               	movlw	0
  7065  088C  00F8               	movwf	??___flge
  7066  088D  3000               	movlw	0
  7067  088E  00F9               	movwf	??___flge+1
  7068  088F  3000               	movlw	0
  7069  0890  00FA               	movwf	??___flge+2
  7070  0891  3080               	movlw	128
  7071  0892  00FB               	movwf	??___flge+3
  7072  0893  0870               	movf	___flge@ff1,w
  7073  0894  02F8               	subwf	??___flge,f
  7074  0895  0871               	movf	___flge@ff1+1,w
  7075  0896  1C03               	skipc
  7076  0897  0F71               	incfsz	___flge@ff1+1,w
  7077  0898  289A               	goto	u2641
  7078  0899  289B               	goto	u2642
  7079  089A                     u2641:
  7080  089A  02F9               	subwf	??___flge+1,f
  7081  089B                     u2642:
  7082  089B  0872               	movf	___flge@ff1+2,w
  7083  089C  1C03               	skipc
  7084  089D  0F72               	incfsz	___flge@ff1+2,w
  7085  089E  28A0               	goto	u2643
  7086  089F  28A1               	goto	u2644
  7087  08A0                     u2643:
  7088  08A0  02FA               	subwf	??___flge+2,f
  7089  08A1                     u2644:
  7090  08A1  0873               	movf	___flge@ff1+3,w
  7091  08A2  1C03               	skipc
  7092  08A3  0F73               	incfsz	___flge@ff1+3,w
  7093  08A4  28A6               	goto	u2645
  7094  08A5  28A7               	goto	u2646
  7095  08A6                     u2645:
  7096  08A6  02FB               	subwf	??___flge+3,f
  7097  08A7                     u2646:
  7098  08A7  087B               	movf	??___flge+3,w
  7099  08A8  00F3               	movwf	___flge@ff1+3
  7100  08A9  087A               	movf	??___flge+2,w
  7101  08AA  00F2               	movwf	___flge@ff1+2
  7102  08AB  0879               	movf	??___flge+1,w
  7103  08AC  00F1               	movwf	___flge@ff1+1
  7104  08AD  0878               	movf	??___flge,w
  7105  08AE  00F0               	movwf	___flge@ff1
  7106  08AF                     l2397:
  7107  08AF  1FF7               	btfss	___flge@ff2+3,7
  7108  08B0  28B2               	goto	u2651
  7109  08B1  28B3               	goto	u2650
  7110  08B2                     u2651:
  7111  08B2  28D7               	goto	l556
  7112  08B3                     u2650:
  7113  08B3                     l2399:
  7114  08B3  3000               	movlw	0
  7115  08B4  00F8               	movwf	??___flge
  7116  08B5  3000               	movlw	0
  7117  08B6  00F9               	movwf	??___flge+1
  7118  08B7  3000               	movlw	0
  7119  08B8  00FA               	movwf	??___flge+2
  7120  08B9  3080               	movlw	128
  7121  08BA  00FB               	movwf	??___flge+3
  7122  08BB  0874               	movf	___flge@ff2,w
  7123  08BC  02F8               	subwf	??___flge,f
  7124  08BD  0875               	movf	___flge@ff2+1,w
  7125  08BE  1C03               	skipc
  7126  08BF  0F75               	incfsz	___flge@ff2+1,w
  7127  08C0  28C2               	goto	u2661
  7128  08C1  28C3               	goto	u2662
  7129  08C2                     u2661:
  7130  08C2  02F9               	subwf	??___flge+1,f
  7131  08C3                     u2662:
  7132  08C3  0876               	movf	___flge@ff2+2,w
  7133  08C4  1C03               	skipc
  7134  08C5  0F76               	incfsz	___flge@ff2+2,w
  7135  08C6  28C8               	goto	u2663
  7136  08C7  28C9               	goto	u2664
  7137  08C8                     u2663:
  7138  08C8  02FA               	subwf	??___flge+2,f
  7139  08C9                     u2664:
  7140  08C9  0877               	movf	___flge@ff2+3,w
  7141  08CA  1C03               	skipc
  7142  08CB  0F77               	incfsz	___flge@ff2+3,w
  7143  08CC  28CE               	goto	u2665
  7144  08CD  28CF               	goto	u2666
  7145  08CE                     u2665:
  7146  08CE  02FB               	subwf	??___flge+3,f
  7147  08CF                     u2666:
  7148  08CF  087B               	movf	??___flge+3,w
  7149  08D0  00F7               	movwf	___flge@ff2+3
  7150  08D1  087A               	movf	??___flge+2,w
  7151  08D2  00F6               	movwf	___flge@ff2+2
  7152  08D3  0879               	movf	??___flge+1,w
  7153  08D4  00F5               	movwf	___flge@ff2+1
  7154  08D5  0878               	movf	??___flge,w
  7155  08D6  00F4               	movwf	___flge@ff2
  7156  08D7                     l556:
  7157  08D7  3080               	movlw	128
  7158  08D8  06F3               	xorwf	___flge@ff1+3,f
  7159  08D9  3080               	movlw	128
  7160  08DA  06F7               	xorwf	___flge@ff2+3,f
  7161  08DB  0877               	movf	___flge@ff2+3,w
  7162  08DC  0273               	subwf	___flge@ff1+3,w
  7163  08DD  1D03               	skipz
  7164  08DE  28E9               	goto	u2675
  7165  08DF  0876               	movf	___flge@ff2+2,w
  7166  08E0  0272               	subwf	___flge@ff1+2,w
  7167  08E1  1D03               	skipz
  7168  08E2  28E9               	goto	u2675
  7169  08E3  0875               	movf	___flge@ff2+1,w
  7170  08E4  0271               	subwf	___flge@ff1+1,w
  7171  08E5  1D03               	skipz
  7172  08E6  28E9               	goto	u2675
  7173  08E7  0874               	movf	___flge@ff2,w
  7174  08E8  0270               	subwf	___flge@ff1,w
  7175  08E9                     u2675:
  7176  08E9  1803               	skipnc
  7177  08EA  28EC               	goto	u2671
  7178  08EB  28ED               	goto	u2670
  7179  08EC                     u2671:
  7180  08EC  28EF               	goto	l2403
  7181  08ED                     u2670:
  7182  08ED                     l2401:
  7183  08ED  1003               	clrc
  7184  08EE  28F0               	goto	l557
  7185  08EF                     l2403:
  7186  08EF  1403               	setc
  7187  08F0                     l557:
  7188  08F0  0008               	return
  7189  08F1                     __end_of___flge:
  7190                           
  7191                           	psect	text26
  7192  09AD                     __ptext26:	
  7193 ;; *************** function ___fldiv *****************
  7194 ;; Defined at:
  7195 ;;		line 8 in file "C:\Program Files\Microchip\xc8\v2.31\pic\sources\c90\common\sprcdiv.c"
  7196 ;; Parameters:    Size  Location     Type
  7197 ;;  a               4   18[BANK0 ] unsigned int 
  7198 ;;  b               4   22[BANK0 ] unsigned int 
  7199 ;; Auto vars:     Size  Location     Type
  7200 ;;  grs             4   38[BANK0 ] unsigned long 
  7201 ;;  rem             4   31[BANK0 ] unsigned long 
  7202 ;;  new_exp         2   36[BANK0 ] int 
  7203 ;;  aexp            1   43[BANK0 ] unsigned char 
  7204 ;;  bexp            1   42[BANK0 ] unsigned char 
  7205 ;;  sign            1   35[BANK0 ] unsigned char 
  7206 ;; Return value:  Size  Location     Type
  7207 ;;                  4   18[BANK0 ] unsigned char 
  7208 ;; Registers used:
  7209 ;;		wreg, status,2, status,0, btemp+1
  7210 ;; Tracked objects:
  7211 ;;		On entry : 0/0
  7212 ;;		On exit  : 0/0
  7213 ;;		Unchanged: 0/0
  7214 ;; Data sizes:     COMMON   BANK0   BANK1   BANK3   BANK2
  7215 ;;      Params:         0       8       0       0       0
  7216 ;;      Locals:         0      13       0       0       0
  7217 ;;      Temps:          0       5       0       0       0
  7218 ;;      Totals:         0      26       0       0       0
  7219 ;;Total ram usage:       26 bytes
  7220 ;; Hardware stack levels used:    1
  7221 ;; This function calls:
  7222 ;;		Nothing
  7223 ;; This function is called by:
  7224 ;;		_ADC_convert
  7225 ;;		_main
  7226 ;; This function uses a non-reentrant model
  7227 ;;
  7228                           
  7229                           
  7230                           ;psect for function ___fldiv
  7231  09AD                     ___fldiv:
  7232  09AD                     l2449:	
  7233                           ;incstack = 0
  7234                           ; Regs used in ___fldiv: [wreg+status,2+status,0+btemp+1]
  7235                           
  7236  09AD  1283               	bcf	3,5	;RP0=0, select bank0
  7237  09AE  1303               	bcf	3,6	;RP1=0, select bank0
  7238  09AF  0839               	movf	___fldiv@b+3,w
  7239  09B0  3980               	andlw	128
  7240  09B1  00BA               	movwf	??___fldiv
  7241  09B2  083A               	movf	??___fldiv,w
  7242  09B3  00C3               	movwf	___fldiv@sign
  7243  09B4                     l2451:
  7244  09B4  0839               	movf	___fldiv@b+3,w
  7245  09B5  00BA               	movwf	??___fldiv
  7246  09B6  073A               	addwf	??___fldiv,w
  7247  09B7  00BB               	movwf	??___fldiv+1
  7248  09B8  083B               	movf	??___fldiv+1,w
  7249  09B9  00CA               	movwf	___fldiv@bexp
  7250  09BA                     l2453:
  7251  09BA  1FB8               	btfss	___fldiv@b+2,7
  7252  09BB  29BD               	goto	u2781
  7253  09BC  29BE               	goto	u2780
  7254  09BD                     u2781:
  7255  09BD  29BF               	goto	l2457
  7256  09BE                     u2780:
  7257  09BE                     l2455:
  7258  09BE  144A               	bsf	___fldiv@bexp,0
  7259  09BF                     l2457:
  7260  09BF  084A               	movf	___fldiv@bexp,w
  7261  09C0  1903               	btfsc	3,2
  7262  09C1  29C3               	goto	u2791
  7263  09C2  29C4               	goto	u2790
  7264  09C3                     u2791:
  7265  09C3  29D4               	goto	l2467
  7266  09C4                     u2790:
  7267  09C4                     l2459:
  7268  09C4  0A4A               	incf	___fldiv@bexp,w
  7269  09C5  1D03               	btfss	3,2
  7270  09C6  29C8               	goto	u2801
  7271  09C7  29C9               	goto	u2800
  7272  09C8                     u2801:
  7273  09C8  29D1               	goto	l2463
  7274  09C9                     u2800:
  7275  09C9                     l2461:
  7276  09C9  3000               	movlw	0
  7277  09CA  00B9               	movwf	___fldiv@b+3
  7278  09CB  3000               	movlw	0
  7279  09CC  00B8               	movwf	___fldiv@b+2
  7280  09CD  3000               	movlw	0
  7281  09CE  00B7               	movwf	___fldiv@b+1
  7282  09CF  3000               	movlw	0
  7283  09D0  00B6               	movwf	___fldiv@b
  7284  09D1                     l2463:
  7285  09D1  17B8               	bsf	___fldiv@b+2,7
  7286  09D2                     l2465:
  7287  09D2  01B9               	clrf	___fldiv@b+3
  7288  09D3  29DC               	goto	l2469
  7289  09D4                     l2467:
  7290  09D4  3000               	movlw	0
  7291  09D5  00B9               	movwf	___fldiv@b+3
  7292  09D6  3000               	movlw	0
  7293  09D7  00B8               	movwf	___fldiv@b+2
  7294  09D8  3000               	movlw	0
  7295  09D9  00B7               	movwf	___fldiv@b+1
  7296  09DA  3000               	movlw	0
  7297  09DB  00B6               	movwf	___fldiv@b
  7298  09DC                     l2469:
  7299  09DC  0835               	movf	___fldiv@a+3,w
  7300  09DD  3980               	andlw	128
  7301  09DE  00BA               	movwf	??___fldiv
  7302  09DF  083A               	movf	??___fldiv,w
  7303  09E0  06C3               	xorwf	___fldiv@sign,f
  7304  09E1                     l2471:
  7305  09E1  0835               	movf	___fldiv@a+3,w
  7306  09E2  00BA               	movwf	??___fldiv
  7307  09E3  073A               	addwf	??___fldiv,w
  7308  09E4  00BB               	movwf	??___fldiv+1
  7309  09E5  083B               	movf	??___fldiv+1,w
  7310  09E6  00CB               	movwf	___fldiv@aexp
  7311  09E7                     l2473:
  7312  09E7  1FB4               	btfss	___fldiv@a+2,7
  7313  09E8  29EA               	goto	u2811
  7314  09E9  29EB               	goto	u2810
  7315  09EA                     u2811:
  7316  09EA  29EC               	goto	l2477
  7317  09EB                     u2810:
  7318  09EB                     l2475:
  7319  09EB  144B               	bsf	___fldiv@aexp,0
  7320  09EC                     l2477:
  7321  09EC  084B               	movf	___fldiv@aexp,w
  7322  09ED  1903               	btfsc	3,2
  7323  09EE  29F0               	goto	u2821
  7324  09EF  29F1               	goto	u2820
  7325  09F0                     u2821:
  7326  09F0  2A01               	goto	l2487
  7327  09F1                     u2820:
  7328  09F1                     l2479:
  7329  09F1  0A4B               	incf	___fldiv@aexp,w
  7330  09F2  1D03               	btfss	3,2
  7331  09F3  29F5               	goto	u2831
  7332  09F4  29F6               	goto	u2830
  7333  09F5                     u2831:
  7334  09F5  29FE               	goto	l2483
  7335  09F6                     u2830:
  7336  09F6                     l2481:
  7337  09F6  3000               	movlw	0
  7338  09F7  00B5               	movwf	___fldiv@a+3
  7339  09F8  3000               	movlw	0
  7340  09F9  00B4               	movwf	___fldiv@a+2
  7341  09FA  3000               	movlw	0
  7342  09FB  00B3               	movwf	___fldiv@a+1
  7343  09FC  3000               	movlw	0
  7344  09FD  00B2               	movwf	___fldiv@a
  7345  09FE                     l2483:
  7346  09FE  17B4               	bsf	___fldiv@a+2,7
  7347  09FF                     l2485:
  7348  09FF  01B5               	clrf	___fldiv@a+3
  7349  0A00  2A09               	goto	l728
  7350  0A01                     l2487:
  7351  0A01  3000               	movlw	0
  7352  0A02  00B5               	movwf	___fldiv@a+3
  7353  0A03  3000               	movlw	0
  7354  0A04  00B4               	movwf	___fldiv@a+2
  7355  0A05  3000               	movlw	0
  7356  0A06  00B3               	movwf	___fldiv@a+1
  7357  0A07  3000               	movlw	0
  7358  0A08  00B2               	movwf	___fldiv@a
  7359  0A09                     l728:
  7360  0A09  0835               	movf	___fldiv@a+3,w
  7361  0A0A  0434               	iorwf	___fldiv@a+2,w
  7362  0A0B  0433               	iorwf	___fldiv@a+1,w
  7363  0A0C  0432               	iorwf	___fldiv@a,w
  7364  0A0D  1D03               	skipz
  7365  0A0E  2A10               	goto	u2841
  7366  0A0F  2A11               	goto	u2840
  7367  0A10                     u2841:
  7368  0A10  2A2A               	goto	l2497
  7369  0A11                     u2840:
  7370  0A11                     l2489:
  7371  0A11  3000               	movlw	0
  7372  0A12  00B9               	movwf	___fldiv@b+3
  7373  0A13  3000               	movlw	0
  7374  0A14  00B8               	movwf	___fldiv@b+2
  7375  0A15  3000               	movlw	0
  7376  0A16  00B7               	movwf	___fldiv@b+1
  7377  0A17  3000               	movlw	0
  7378  0A18  00B6               	movwf	___fldiv@b
  7379  0A19  3080               	movlw	128
  7380  0A1A  04B8               	iorwf	___fldiv@b+2,f
  7381  0A1B  307F               	movlw	127
  7382  0A1C  04B9               	iorwf	___fldiv@b+3,f
  7383  0A1D                     l2491:
  7384  0A1D  0843               	movf	___fldiv@sign,w
  7385  0A1E  00BA               	movwf	??___fldiv
  7386  0A1F  083A               	movf	??___fldiv,w
  7387  0A20  04B9               	iorwf	___fldiv@b+3,f
  7388  0A21                     l2493:
  7389  0A21  0839               	movf	___fldiv@b+3,w
  7390  0A22  00B5               	movwf	?___fldiv+3
  7391  0A23  0838               	movf	___fldiv@b+2,w
  7392  0A24  00B4               	movwf	?___fldiv+2
  7393  0A25  0837               	movf	___fldiv@b+1,w
  7394  0A26  00B3               	movwf	?___fldiv+1
  7395  0A27  0836               	movf	___fldiv@b,w
  7396  0A28  00B2               	movwf	?___fldiv
  7397  0A29  2B89               	goto	l730
  7398  0A2A                     l2497:
  7399  0A2A  084A               	movf	___fldiv@bexp,w
  7400  0A2B  1D03               	btfss	3,2
  7401  0A2C  2A2E               	goto	u2851
  7402  0A2D  2A2F               	goto	u2850
  7403  0A2E                     u2851:
  7404  0A2E  2A38               	goto	l2503
  7405  0A2F                     u2850:
  7406  0A2F                     l2499:
  7407  0A2F  3000               	movlw	0
  7408  0A30  00B5               	movwf	?___fldiv+3
  7409  0A31  3000               	movlw	0
  7410  0A32  00B4               	movwf	?___fldiv+2
  7411  0A33  3000               	movlw	0
  7412  0A34  00B3               	movwf	?___fldiv+1
  7413  0A35  3000               	movlw	0
  7414  0A36  00B2               	movwf	?___fldiv
  7415  0A37  2B89               	goto	l730
  7416  0A38                     l2503:
  7417  0A38  084A               	movf	___fldiv@bexp,w
  7418  0A39  00BA               	movwf	??___fldiv
  7419  0A3A  01BB               	clrf	??___fldiv+1
  7420  0A3B  083B               	movf	??___fldiv+1,w
  7421  0A3C  00BD               	movwf	??___fldiv+3
  7422  0A3D  084B               	movf	___fldiv@aexp,w
  7423  0A3E  023A               	subwf	??___fldiv,w
  7424  0A3F  00BC               	movwf	??___fldiv+2
  7425  0A40  1C03               	skipc
  7426  0A41  03BD               	decf	??___fldiv+3,f
  7427  0A42  083C               	movf	??___fldiv+2,w
  7428  0A43  3E7F               	addlw	127
  7429  0A44  00C4               	movwf	___fldiv@new_exp
  7430  0A45  083D               	movf	??___fldiv+3,w
  7431  0A46  1803               	skipnc
  7432  0A47  3E01               	addlw	1
  7433  0A48  3E00               	addlw	0
  7434  0A49  00C5               	movwf	___fldiv@new_exp+1
  7435  0A4A                     l2505:
  7436  0A4A  0839               	movf	___fldiv@b+3,w
  7437  0A4B  00C2               	movwf	___fldiv@rem+3
  7438  0A4C  0838               	movf	___fldiv@b+2,w
  7439  0A4D  00C1               	movwf	___fldiv@rem+2
  7440  0A4E  0837               	movf	___fldiv@b+1,w
  7441  0A4F  00C0               	movwf	___fldiv@rem+1
  7442  0A50  0836               	movf	___fldiv@b,w
  7443  0A51  00BF               	movwf	___fldiv@rem
  7444  0A52                     l2507:
  7445  0A52  3000               	movlw	0
  7446  0A53  00B9               	movwf	___fldiv@b+3
  7447  0A54  3000               	movlw	0
  7448  0A55  00B8               	movwf	___fldiv@b+2
  7449  0A56  3000               	movlw	0
  7450  0A57  00B7               	movwf	___fldiv@b+1
  7451  0A58  3000               	movlw	0
  7452  0A59  00B6               	movwf	___fldiv@b
  7453  0A5A                     l2509:
  7454  0A5A  3000               	movlw	0
  7455  0A5B  00C9               	movwf	___fldiv@grs+3
  7456  0A5C  3000               	movlw	0
  7457  0A5D  00C8               	movwf	___fldiv@grs+2
  7458  0A5E  3000               	movlw	0
  7459  0A5F  00C7               	movwf	___fldiv@grs+1
  7460  0A60  3000               	movlw	0
  7461  0A61  00C6               	movwf	___fldiv@grs
  7462  0A62                     l2511:
  7463  0A62  01CB               	clrf	___fldiv@aexp
  7464  0A63  2AAE               	goto	l2531
  7465  0A64                     l2513:
  7466  0A64  084B               	movf	___fldiv@aexp,w
  7467  0A65  1903               	btfsc	3,2
  7468  0A66  2A68               	goto	u2861
  7469  0A67  2A69               	goto	u2860
  7470  0A68                     u2861:
  7471  0A68  2A89               	goto	l2523
  7472  0A69                     u2860:
  7473  0A69                     l2515:
  7474  0A69  3001               	movlw	1
  7475  0A6A  00BA               	movwf	??___fldiv
  7476  0A6B                     u2875:
  7477  0A6B  1003               	clrc
  7478  0A6C  0DBF               	rlf	___fldiv@rem,f
  7479  0A6D  0DC0               	rlf	___fldiv@rem+1,f
  7480  0A6E  0DC1               	rlf	___fldiv@rem+2,f
  7481  0A6F  0DC2               	rlf	___fldiv@rem+3,f
  7482  0A70  0BBA               	decfsz	??___fldiv,f
  7483  0A71  2A6B               	goto	u2875
  7484  0A72  3001               	movlw	1
  7485  0A73  00BA               	movwf	??___fldiv
  7486  0A74                     u2885:
  7487  0A74  1003               	clrc
  7488  0A75  0DB6               	rlf	___fldiv@b,f
  7489  0A76  0DB7               	rlf	___fldiv@b+1,f
  7490  0A77  0DB8               	rlf	___fldiv@b+2,f
  7491  0A78  0DB9               	rlf	___fldiv@b+3,f
  7492  0A79  0BBA               	decfsz	??___fldiv,f
  7493  0A7A  2A74               	goto	u2885
  7494  0A7B                     l2517:
  7495  0A7B  1FC9               	btfss	___fldiv@grs+3,7
  7496  0A7C  2A7E               	goto	u2891
  7497  0A7D  2A7F               	goto	u2890
  7498  0A7E                     u2891:
  7499  0A7E  2A80               	goto	l2521
  7500  0A7F                     u2890:
  7501  0A7F                     l2519:
  7502  0A7F  1436               	bsf	___fldiv@b,0
  7503  0A80                     l2521:
  7504  0A80  3001               	movlw	1
  7505  0A81  00BA               	movwf	??___fldiv
  7506  0A82                     u2905:
  7507  0A82  1003               	clrc
  7508  0A83  0DC6               	rlf	___fldiv@grs,f
  7509  0A84  0DC7               	rlf	___fldiv@grs+1,f
  7510  0A85  0DC8               	rlf	___fldiv@grs+2,f
  7511  0A86  0DC9               	rlf	___fldiv@grs+3,f
  7512  0A87  0BBA               	decfsz	??___fldiv,f
  7513  0A88  2A82               	goto	u2905
  7514  0A89                     l2523:
  7515  0A89  0835               	movf	___fldiv@a+3,w
  7516  0A8A  0242               	subwf	___fldiv@rem+3,w
  7517  0A8B  1D03               	skipz
  7518  0A8C  2A97               	goto	u2915
  7519  0A8D  0834               	movf	___fldiv@a+2,w
  7520  0A8E  0241               	subwf	___fldiv@rem+2,w
  7521  0A8F  1D03               	skipz
  7522  0A90  2A97               	goto	u2915
  7523  0A91  0833               	movf	___fldiv@a+1,w
  7524  0A92  0240               	subwf	___fldiv@rem+1,w
  7525  0A93  1D03               	skipz
  7526  0A94  2A97               	goto	u2915
  7527  0A95  0832               	movf	___fldiv@a,w
  7528  0A96  023F               	subwf	___fldiv@rem,w
  7529  0A97                     u2915:
  7530  0A97  1C03               	skipc
  7531  0A98  2A9A               	goto	u2911
  7532  0A99  2A9B               	goto	u2910
  7533  0A9A                     u2911:
  7534  0A9A  2AAA               	goto	l2529
  7535  0A9B                     u2910:
  7536  0A9B                     l2525:
  7537  0A9B  1749               	bsf	___fldiv@grs+3,6
  7538  0A9C                     l2527:
  7539  0A9C  0832               	movf	___fldiv@a,w
  7540  0A9D  02BF               	subwf	___fldiv@rem,f
  7541  0A9E  0833               	movf	___fldiv@a+1,w
  7542  0A9F  1C03               	skipc
  7543  0AA0  0F33               	incfsz	___fldiv@a+1,w
  7544  0AA1  02C0               	subwf	___fldiv@rem+1,f
  7545  0AA2  0834               	movf	___fldiv@a+2,w
  7546  0AA3  1C03               	skipc
  7547  0AA4  0F34               	incfsz	___fldiv@a+2,w
  7548  0AA5  02C1               	subwf	___fldiv@rem+2,f
  7549  0AA6  0835               	movf	___fldiv@a+3,w
  7550  0AA7  1C03               	skipc
  7551  0AA8  0F35               	incfsz	___fldiv@a+3,w
  7552  0AA9  02C2               	subwf	___fldiv@rem+3,f
  7553  0AAA                     l2529:
  7554  0AAA  3001               	movlw	1
  7555  0AAB  00BA               	movwf	??___fldiv
  7556  0AAC  083A               	movf	??___fldiv,w
  7557  0AAD  07CB               	addwf	___fldiv@aexp,f
  7558  0AAE                     l2531:
  7559  0AAE  301A               	movlw	26
  7560  0AAF  024B               	subwf	___fldiv@aexp,w
  7561  0AB0  1C03               	skipc
  7562  0AB1  2AB3               	goto	u2921
  7563  0AB2  2AB4               	goto	u2920
  7564  0AB3                     u2921:
  7565  0AB3  2A64               	goto	l2513
  7566  0AB4                     u2920:
  7567  0AB4                     l2533:
  7568  0AB4  0842               	movf	___fldiv@rem+3,w
  7569  0AB5  0441               	iorwf	___fldiv@rem+2,w
  7570  0AB6  0440               	iorwf	___fldiv@rem+1,w
  7571  0AB7  043F               	iorwf	___fldiv@rem,w
  7572  0AB8  1903               	skipnz
  7573  0AB9  2ABB               	goto	u2931
  7574  0ABA  2ABC               	goto	u2930
  7575  0ABB                     u2931:
  7576  0ABB  2ADB               	goto	l2547
  7577  0ABC                     u2930:
  7578  0ABC                     l2535:
  7579  0ABC  1446               	bsf	___fldiv@grs,0
  7580  0ABD  2ADB               	goto	l2547
  7581  0ABE                     l2537:
  7582  0ABE  3001               	movlw	1
  7583  0ABF  00BA               	movwf	??___fldiv
  7584  0AC0                     u2945:
  7585  0AC0  1003               	clrc
  7586  0AC1  0DB6               	rlf	___fldiv@b,f
  7587  0AC2  0DB7               	rlf	___fldiv@b+1,f
  7588  0AC3  0DB8               	rlf	___fldiv@b+2,f
  7589  0AC4  0DB9               	rlf	___fldiv@b+3,f
  7590  0AC5  0BBA               	decfsz	??___fldiv,f
  7591  0AC6  2AC0               	goto	u2945
  7592  0AC7                     l2539:
  7593  0AC7  1FC9               	btfss	___fldiv@grs+3,7
  7594  0AC8  2ACA               	goto	u2951
  7595  0AC9  2ACB               	goto	u2950
  7596  0ACA                     u2951:
  7597  0ACA  2ACC               	goto	l2543
  7598  0ACB                     u2950:
  7599  0ACB                     l2541:
  7600  0ACB  1436               	bsf	___fldiv@b,0
  7601  0ACC                     l2543:
  7602  0ACC  3001               	movlw	1
  7603  0ACD  00BA               	movwf	??___fldiv
  7604  0ACE                     u2965:
  7605  0ACE  1003               	clrc
  7606  0ACF  0DC6               	rlf	___fldiv@grs,f
  7607  0AD0  0DC7               	rlf	___fldiv@grs+1,f
  7608  0AD1  0DC8               	rlf	___fldiv@grs+2,f
  7609  0AD2  0DC9               	rlf	___fldiv@grs+3,f
  7610  0AD3  0BBA               	decfsz	??___fldiv,f
  7611  0AD4  2ACE               	goto	u2965
  7612  0AD5                     l2545:
  7613  0AD5  30FF               	movlw	255
  7614  0AD6  07C4               	addwf	___fldiv@new_exp,f
  7615  0AD7  1803               	skipnc
  7616  0AD8  0AC5               	incf	___fldiv@new_exp+1,f
  7617  0AD9  30FF               	movlw	255
  7618  0ADA  07C5               	addwf	___fldiv@new_exp+1,f
  7619  0ADB                     l2547:
  7620  0ADB  1FB8               	btfss	___fldiv@b+2,7
  7621  0ADC  2ADE               	goto	u2971
  7622  0ADD  2ADF               	goto	u2970
  7623  0ADE                     u2971:
  7624  0ADE  2ABE               	goto	l2537
  7625  0ADF                     u2970:
  7626  0ADF                     l2549:
  7627  0ADF  01CB               	clrf	___fldiv@aexp
  7628  0AE0                     l2551:
  7629  0AE0  1FC9               	btfss	___fldiv@grs+3,7
  7630  0AE1  2AE3               	goto	u2981
  7631  0AE2  2AE4               	goto	u2980
  7632  0AE3                     u2981:
  7633  0AE3  2B00               	goto	l2559
  7634  0AE4                     u2980:
  7635  0AE4                     l2553:
  7636  0AE4  30FF               	movlw	255
  7637  0AE5  0546               	andwf	___fldiv@grs,w
  7638  0AE6  00BA               	movwf	??___fldiv
  7639  0AE7  30FF               	movlw	255
  7640  0AE8  0547               	andwf	___fldiv@grs+1,w
  7641  0AE9  00BB               	movwf	??___fldiv+1
  7642  0AEA  30FF               	movlw	255
  7643  0AEB  0548               	andwf	___fldiv@grs+2,w
  7644  0AEC  00BC               	movwf	??___fldiv+2
  7645  0AED  307F               	movlw	127
  7646  0AEE  0549               	andwf	___fldiv@grs+3,w
  7647  0AEF  00BD               	movwf	??___fldiv+3
  7648  0AF0  083D               	movf	??___fldiv+3,w
  7649  0AF1  043C               	iorwf	??___fldiv+2,w
  7650  0AF2  043B               	iorwf	??___fldiv+1,w
  7651  0AF3  043A               	iorwf	??___fldiv,w
  7652  0AF4  1903               	skipnz
  7653  0AF5  2AF7               	goto	u2991
  7654  0AF6  2AF8               	goto	u2990
  7655  0AF7                     u2991:
  7656  0AF7  2AFB               	goto	l744
  7657  0AF8                     u2990:
  7658  0AF8                     l2555:
  7659  0AF8  01CB               	clrf	___fldiv@aexp
  7660  0AF9  0ACB               	incf	___fldiv@aexp,f
  7661  0AFA  2B00               	goto	l2559
  7662  0AFB                     l744:
  7663  0AFB  1C36               	btfss	___fldiv@b,0
  7664  0AFC  2AFE               	goto	u3001
  7665  0AFD  2AFF               	goto	u3000
  7666  0AFE                     u3001:
  7667  0AFE  2B00               	goto	l2559
  7668  0AFF                     u3000:
  7669  0AFF  2AF8               	goto	l2555
  7670  0B00                     l2559:
  7671  0B00  084B               	movf	___fldiv@aexp,w
  7672  0B01  1903               	btfsc	3,2
  7673  0B02  2B04               	goto	u3011
  7674  0B03  2B05               	goto	u3010
  7675  0B04                     u3011:
  7676  0B04  2B36               	goto	l2569
  7677  0B05                     u3010:
  7678  0B05                     l2561:
  7679  0B05  3001               	movlw	1
  7680  0B06  07B6               	addwf	___fldiv@b,f
  7681  0B07  3000               	movlw	0
  7682  0B08  1803               	skipnc
  7683  0B09  3001               	movlw	1
  7684  0B0A  07B7               	addwf	___fldiv@b+1,f
  7685  0B0B  3000               	movlw	0
  7686  0B0C  1803               	skipnc
  7687  0B0D  3001               	movlw	1
  7688  0B0E  07B8               	addwf	___fldiv@b+2,f
  7689  0B0F  3000               	movlw	0
  7690  0B10  1803               	skipnc
  7691  0B11  3001               	movlw	1
  7692  0B12  07B9               	addwf	___fldiv@b+3,f
  7693  0B13                     l2563:
  7694  0B13  1C39               	btfss	___fldiv@b+3,0
  7695  0B14  2B16               	goto	u3021
  7696  0B15  2B17               	goto	u3020
  7697  0B16                     u3021:
  7698  0B16  2B36               	goto	l2569
  7699  0B17                     u3020:
  7700  0B17                     l2565:
  7701  0B17  0836               	movf	___fldiv@b,w
  7702  0B18  00BA               	movwf	??___fldiv
  7703  0B19  0837               	movf	___fldiv@b+1,w
  7704  0B1A  00BB               	movwf	??___fldiv+1
  7705  0B1B  0838               	movf	___fldiv@b+2,w
  7706  0B1C  00BC               	movwf	??___fldiv+2
  7707  0B1D  0839               	movf	___fldiv@b+3,w
  7708  0B1E  00BD               	movwf	??___fldiv+3
  7709  0B1F  3001               	movlw	1
  7710  0B20  00BE               	movwf	??___fldiv+4
  7711  0B21                     u3035:
  7712  0B21  0D3D               	rlf	??___fldiv+3,w
  7713  0B22  0CBD               	rrf	??___fldiv+3,f
  7714  0B23  0CBC               	rrf	??___fldiv+2,f
  7715  0B24  0CBB               	rrf	??___fldiv+1,f
  7716  0B25  0CBA               	rrf	??___fldiv,f
  7717  0B26                     u3030:
  7718  0B26  0BBE               	decfsz	??___fldiv+4,f
  7719  0B27  2B21               	goto	u3035
  7720  0B28  083D               	movf	??___fldiv+3,w
  7721  0B29  00B9               	movwf	___fldiv@b+3
  7722  0B2A  083C               	movf	??___fldiv+2,w
  7723  0B2B  00B8               	movwf	___fldiv@b+2
  7724  0B2C  083B               	movf	??___fldiv+1,w
  7725  0B2D  00B7               	movwf	___fldiv@b+1
  7726  0B2E  083A               	movf	??___fldiv,w
  7727  0B2F  00B6               	movwf	___fldiv@b
  7728  0B30                     l2567:
  7729  0B30  3001               	movlw	1
  7730  0B31  07C4               	addwf	___fldiv@new_exp,f
  7731  0B32  1803               	skipnc
  7732  0B33  0AC5               	incf	___fldiv@new_exp+1,f
  7733  0B34  3000               	movlw	0
  7734  0B35  07C5               	addwf	___fldiv@new_exp+1,f
  7735  0B36                     l2569:
  7736  0B36  0845               	movf	___fldiv@new_exp+1,w
  7737  0B37  3A80               	xorlw	128
  7738  0B38  00FF               	movwf	btemp+1
  7739  0B39  3080               	movlw	128
  7740  0B3A  027F               	subwf	btemp+1,w
  7741  0B3B  1D03               	skipz
  7742  0B3C  2B3F               	goto	u3045
  7743  0B3D  30FF               	movlw	255
  7744  0B3E  0244               	subwf	___fldiv@new_exp,w
  7745  0B3F                     u3045:
  7746  0B3F  1C03               	skipc
  7747  0B40  2B42               	goto	u3041
  7748  0B41  2B43               	goto	u3040
  7749  0B42                     u3041:
  7750  0B42  2B51               	goto	l2573
  7751  0B43                     u3040:
  7752  0B43                     l2571:
  7753  0B43  30FF               	movlw	255
  7754  0B44  1283               	bcf	3,5	;RP0=0, select bank0
  7755  0B45  1303               	bcf	3,6	;RP1=0, select bank0
  7756  0B46  00C4               	movwf	___fldiv@new_exp
  7757  0B47  3000               	movlw	0
  7758  0B48  00C5               	movwf	___fldiv@new_exp+1
  7759  0B49  3000               	movlw	0
  7760  0B4A  00B9               	movwf	___fldiv@b+3
  7761  0B4B  3000               	movlw	0
  7762  0B4C  00B8               	movwf	___fldiv@b+2
  7763  0B4D  3000               	movlw	0
  7764  0B4E  00B7               	movwf	___fldiv@b+1
  7765  0B4F  3000               	movlw	0
  7766  0B50  00B6               	movwf	___fldiv@b
  7767  0B51                     l2573:
  7768  0B51  1283               	bcf	3,5	;RP0=0, select bank0
  7769  0B52  1303               	bcf	3,6	;RP1=0, select bank0
  7770  0B53  0845               	movf	___fldiv@new_exp+1,w
  7771  0B54  3A80               	xorlw	128
  7772  0B55  00FF               	movwf	btemp+1
  7773  0B56  3080               	movlw	128
  7774  0B57  027F               	subwf	btemp+1,w
  7775  0B58  1D03               	skipz
  7776  0B59  2B5C               	goto	u3055
  7777  0B5A  3001               	movlw	1
  7778  0B5B  0244               	subwf	___fldiv@new_exp,w
  7779  0B5C                     u3055:
  7780  0B5C  1803               	skipnc
  7781  0B5D  2B5F               	goto	u3051
  7782  0B5E  2B60               	goto	u3050
  7783  0B5F                     u3051:
  7784  0B5F  2B6D               	goto	l750
  7785  0B60                     u3050:
  7786  0B60                     l2575:
  7787  0B60  1283               	bcf	3,5	;RP0=0, select bank0
  7788  0B61  1303               	bcf	3,6	;RP1=0, select bank0
  7789  0B62  01C4               	clrf	___fldiv@new_exp
  7790  0B63  01C5               	clrf	___fldiv@new_exp+1
  7791  0B64                     l2577:
  7792  0B64  3000               	movlw	0
  7793  0B65  00B9               	movwf	___fldiv@b+3
  7794  0B66  3000               	movlw	0
  7795  0B67  00B8               	movwf	___fldiv@b+2
  7796  0B68  3000               	movlw	0
  7797  0B69  00B7               	movwf	___fldiv@b+1
  7798  0B6A  3000               	movlw	0
  7799  0B6B  00B6               	movwf	___fldiv@b
  7800  0B6C                     l2579:
  7801  0B6C  01C3               	clrf	___fldiv@sign
  7802  0B6D                     l750:
  7803  0B6D  1283               	bcf	3,5	;RP0=0, select bank0
  7804  0B6E  1303               	bcf	3,6	;RP1=0, select bank0
  7805  0B6F  0844               	movf	___fldiv@new_exp,w
  7806  0B70  00BA               	movwf	??___fldiv
  7807  0B71  083A               	movf	??___fldiv,w
  7808  0B72  00CA               	movwf	___fldiv@bexp
  7809  0B73                     l2581:
  7810  0B73  1C4A               	btfss	___fldiv@bexp,0
  7811  0B74  2B76               	goto	u3061
  7812  0B75  2B77               	goto	u3060
  7813  0B76                     u3061:
  7814  0B76  2B79               	goto	l2585
  7815  0B77                     u3060:
  7816  0B77                     l2583:
  7817  0B77  17B8               	bsf	___fldiv@b+2,7
  7818  0B78  2B7D               	goto	l752
  7819  0B79                     l2585:
  7820  0B79  307F               	movlw	127
  7821  0B7A  00BA               	movwf	??___fldiv
  7822  0B7B  083A               	movf	??___fldiv,w
  7823  0B7C  05B8               	andwf	___fldiv@b+2,f
  7824  0B7D                     l752:
  7825  0B7D  084A               	movf	___fldiv@bexp,w
  7826  0B7E  00BA               	movwf	??___fldiv
  7827  0B7F  1003               	clrc
  7828  0B80  0C3A               	rrf	??___fldiv,w
  7829  0B81  00BB               	movwf	??___fldiv+1
  7830  0B82  083B               	movf	??___fldiv+1,w
  7831  0B83  00B9               	movwf	___fldiv@b+3
  7832  0B84  0843               	movf	___fldiv@sign,w
  7833  0B85  00BA               	movwf	??___fldiv
  7834  0B86  083A               	movf	??___fldiv,w
  7835  0B87  04B9               	iorwf	___fldiv@b+3,f
  7836  0B88  2A21               	goto	l2493
  7837  0B89                     l730:
  7838  0B89  0008               	return
  7839  0B8A                     __end_of___fldiv:
  7840                           
  7841                           	psect	text27
  7842  1799                     __ptext27:	
  7843 ;; *************** function ___awdiv *****************
  7844 ;; Defined at:
  7845 ;;		line 5 in file "C:\Program Files\Microchip\xc8\v2.31\pic\sources\c90\common\awdiv.c"
  7846 ;; Parameters:    Size  Location     Type
  7847 ;;  divisor         2    0[COMMON] int 
  7848 ;;  dividend        2    2[COMMON] int 
  7849 ;; Auto vars:     Size  Location     Type
  7850 ;;  quotient        2    7[COMMON] int 
  7851 ;;  sign            1    6[COMMON] unsigned char 
  7852 ;;  counter         1    5[COMMON] unsigned char 
  7853 ;; Return value:  Size  Location     Type
  7854 ;;                  2    0[COMMON] int 
  7855 ;; Registers used:
  7856 ;;		wreg, status,2, status,0
  7857 ;; Tracked objects:
  7858 ;;		On entry : 0/0
  7859 ;;		On exit  : 0/0
  7860 ;;		Unchanged: 0/0
  7861 ;; Data sizes:     COMMON   BANK0   BANK1   BANK3   BANK2
  7862 ;;      Params:         4       0       0       0       0
  7863 ;;      Locals:         4       0       0       0       0
  7864 ;;      Temps:          1       0       0       0       0
  7865 ;;      Totals:         9       0       0       0       0
  7866 ;;Total ram usage:        9 bytes
  7867 ;; Hardware stack levels used:    1
  7868 ;; This function calls:
  7869 ;;		Nothing
  7870 ;; This function is called by:
  7871 ;;		_ADC_convert
  7872 ;; This function uses a non-reentrant model
  7873 ;;
  7874                           
  7875                           
  7876                           ;psect for function ___awdiv
  7877  1799                     ___awdiv:
  7878  1799                     l2343:	
  7879                           ;incstack = 0
  7880                           ; Regs used in ___awdiv: [wreg+status,2+status,0]
  7881                           
  7882  1799  01F6               	clrf	___awdiv@sign
  7883  179A                     l2345:
  7884  179A  1FF1               	btfss	___awdiv@divisor+1,7
  7885  179B  2F9D               	goto	u2511
  7886  179C  2F9E               	goto	u2510
  7887  179D                     u2511:
  7888  179D  2FA5               	goto	l2351
  7889  179E                     u2510:
  7890  179E                     l2347:
  7891  179E  09F0               	comf	___awdiv@divisor,f
  7892  179F  09F1               	comf	___awdiv@divisor+1,f
  7893  17A0  0AF0               	incf	___awdiv@divisor,f
  7894  17A1  1903               	skipnz
  7895  17A2  0AF1               	incf	___awdiv@divisor+1,f
  7896  17A3                     l2349:
  7897  17A3  01F6               	clrf	___awdiv@sign
  7898  17A4  0AF6               	incf	___awdiv@sign,f
  7899  17A5                     l2351:
  7900  17A5  1FF3               	btfss	___awdiv@dividend+1,7
  7901  17A6  2FA8               	goto	u2521
  7902  17A7  2FA9               	goto	u2520
  7903  17A8                     u2521:
  7904  17A8  2FB2               	goto	l2357
  7905  17A9                     u2520:
  7906  17A9                     l2353:
  7907  17A9  09F2               	comf	___awdiv@dividend,f
  7908  17AA  09F3               	comf	___awdiv@dividend+1,f
  7909  17AB  0AF2               	incf	___awdiv@dividend,f
  7910  17AC  1903               	skipnz
  7911  17AD  0AF3               	incf	___awdiv@dividend+1,f
  7912  17AE                     l2355:
  7913  17AE  3001               	movlw	1
  7914  17AF  00F4               	movwf	??___awdiv
  7915  17B0  0874               	movf	??___awdiv,w
  7916  17B1  06F6               	xorwf	___awdiv@sign,f
  7917  17B2                     l2357:
  7918  17B2  01F7               	clrf	___awdiv@quotient
  7919  17B3  01F8               	clrf	___awdiv@quotient+1
  7920  17B4                     l2359:
  7921  17B4  0870               	movf	___awdiv@divisor,w
  7922  17B5  0471               	iorwf	___awdiv@divisor+1,w
  7923  17B6  1903               	btfsc	3,2
  7924  17B7  2FB9               	goto	u2531
  7925  17B8  2FBA               	goto	u2530
  7926  17B9                     u2531:
  7927  17B9  2FF1               	goto	l2379
  7928  17BA                     u2530:
  7929  17BA                     l2361:
  7930  17BA  01F5               	clrf	___awdiv@counter
  7931  17BB  0AF5               	incf	___awdiv@counter,f
  7932  17BC  2FC8               	goto	l2367
  7933  17BD                     l2363:
  7934  17BD  3001               	movlw	1
  7935  17BE                     u2545:
  7936  17BE  1003               	clrc
  7937  17BF  0DF0               	rlf	___awdiv@divisor,f
  7938  17C0  0DF1               	rlf	___awdiv@divisor+1,f
  7939  17C1  3EFF               	addlw	-1
  7940  17C2  1D03               	skipz
  7941  17C3  2FBE               	goto	u2545
  7942  17C4                     l2365:
  7943  17C4  3001               	movlw	1
  7944  17C5  00F4               	movwf	??___awdiv
  7945  17C6  0874               	movf	??___awdiv,w
  7946  17C7  07F5               	addwf	___awdiv@counter,f
  7947  17C8                     l2367:
  7948  17C8  1FF1               	btfss	___awdiv@divisor+1,7
  7949  17C9  2FCB               	goto	u2551
  7950  17CA  2FCC               	goto	u2550
  7951  17CB                     u2551:
  7952  17CB  2FBD               	goto	l2363
  7953  17CC                     u2550:
  7954  17CC                     l2369:
  7955  17CC  3001               	movlw	1
  7956  17CD                     u2565:
  7957  17CD  1003               	clrc
  7958  17CE  0DF7               	rlf	___awdiv@quotient,f
  7959  17CF  0DF8               	rlf	___awdiv@quotient+1,f
  7960  17D0  3EFF               	addlw	-1
  7961  17D1  1D03               	skipz
  7962  17D2  2FCD               	goto	u2565
  7963  17D3  0871               	movf	___awdiv@divisor+1,w
  7964  17D4  0273               	subwf	___awdiv@dividend+1,w
  7965  17D5  1D03               	skipz
  7966  17D6  2FD9               	goto	u2575
  7967  17D7  0870               	movf	___awdiv@divisor,w
  7968  17D8  0272               	subwf	___awdiv@dividend,w
  7969  17D9                     u2575:
  7970  17D9  1C03               	skipc
  7971  17DA  2FDC               	goto	u2571
  7972  17DB  2FDD               	goto	u2570
  7973  17DC                     u2571:
  7974  17DC  2FE4               	goto	l2375
  7975  17DD                     u2570:
  7976  17DD                     l2371:
  7977  17DD  0870               	movf	___awdiv@divisor,w
  7978  17DE  02F2               	subwf	___awdiv@dividend,f
  7979  17DF  0871               	movf	___awdiv@divisor+1,w
  7980  17E0  1C03               	skipc
  7981  17E1  03F3               	decf	___awdiv@dividend+1,f
  7982  17E2  02F3               	subwf	___awdiv@dividend+1,f
  7983  17E3                     l2373:
  7984  17E3  1477               	bsf	___awdiv@quotient,0
  7985  17E4                     l2375:
  7986  17E4  3001               	movlw	1
  7987  17E5                     u2585:
  7988  17E5  1003               	clrc
  7989  17E6  0CF1               	rrf	___awdiv@divisor+1,f
  7990  17E7  0CF0               	rrf	___awdiv@divisor,f
  7991  17E8  3EFF               	addlw	-1
  7992  17E9  1D03               	skipz
  7993  17EA  2FE5               	goto	u2585
  7994  17EB                     l2377:
  7995  17EB  3001               	movlw	1
  7996  17EC  02F5               	subwf	___awdiv@counter,f
  7997  17ED  1D03               	btfss	3,2
  7998  17EE  2FF0               	goto	u2591
  7999  17EF  2FF1               	goto	u2590
  8000  17F0                     u2591:
  8001  17F0  2FCC               	goto	l2369
  8002  17F1                     u2590:
  8003  17F1                     l2379:
  8004  17F1  0876               	movf	___awdiv@sign,w
  8005  17F2  1903               	btfsc	3,2
  8006  17F3  2FF5               	goto	u2601
  8007  17F4  2FF6               	goto	u2600
  8008  17F5                     u2601:
  8009  17F5  2FFB               	goto	l2383
  8010  17F6                     u2600:
  8011  17F6                     l2381:
  8012  17F6  09F7               	comf	___awdiv@quotient,f
  8013  17F7  09F8               	comf	___awdiv@quotient+1,f
  8014  17F8  0AF7               	incf	___awdiv@quotient,f
  8015  17F9  1903               	skipnz
  8016  17FA  0AF8               	incf	___awdiv@quotient+1,f
  8017  17FB                     l2383:
  8018  17FB  0878               	movf	___awdiv@quotient+1,w
  8019  17FC  00F1               	movwf	?___awdiv+1
  8020  17FD  0877               	movf	___awdiv@quotient,w
  8021  17FE  00F0               	movwf	?___awdiv
  8022  17FF                     l532:
  8023  17FF  0008               	return
  8024  1800                     __end_of___awdiv:
  8025  007E                     btemp	set	126	;btemp
  8026  007E                     wtemp0	set	126
  8027                           
  8028                           	psect	config
  8029                           
  8030                           ;Config register CONFIG1 @ 0x2007
  8031                           ;	Oscillator Selection bits
  8032                           ;	FOSC = INTRC_NOCLKOUT, INTOSCIO oscillator: I/O function on RA6/OSC2/CLKOUT pin, I/O f
      +                          unction on RA7/OSC1/CLKIN
  8033                           ;	Watchdog Timer Enable bit
  8034                           ;	WDTE = OFF, WDT disabled and can be enabled by SWDTEN bit of the WDTCON register
  8035                           ;	Power-up Timer Enable bit
  8036                           ;	PWRTE = ON, PWRT enabled
  8037                           ;	RE3/MCLR pin function select bit
  8038                           ;	MCLRE = OFF, RE3/MCLR pin function is digital input, MCLR internally tied to VDD
  8039                           ;	Code Protection bit
  8040                           ;	CP = OFF, Program memory code protection is disabled
  8041                           ;	Data Code Protection bit
  8042                           ;	CPD = OFF, Data memory code protection is disabled
  8043                           ;	Brown Out Reset Selection bits
  8044                           ;	BOREN = OFF, BOR disabled
  8045                           ;	Internal External Switchover bit
  8046                           ;	IESO = OFF, Internal/External Switchover mode is disabled
  8047                           ;	Fail-Safe Clock Monitor Enabled bit
  8048                           ;	FCMEN = OFF, Fail-Safe Clock Monitor is disabled
  8049                           ;	Low Voltage Programming Enable bit
  8050                           ;	LVP = OFF, RB3 pin has digital I/O, HV on MCLR must be used for programming
  8051                           ;	In-Circuit Debugger Mode bit
  8052                           ;	DEBUG = 0x1, unprogrammed default
  8053  2007                     	org	8199
  8054  2007  20C4               	dw	8388
  8055                           
  8056                           ;Config register CONFIG2 @ 0x2008
  8057                           ;	Brown-out Reset Selection bit
  8058                           ;	BOR4V = BOR40V, Brown-out Reset set to 4.0V
  8059                           ;	Flash Program Memory Self Write Enable bits
  8060                           ;	WRT = OFF, Write protection off
  8061  2008                     	org	8200
  8062  2008  3FFF               	dw	16383

Data Sizes:
    Strings     16
    Constant    0
    Data        16
    BSS         41
    Persistent  0
    Stack       0

Auto Spaces:
    Space          Size  Autos    Used
    COMMON           14     14      14
    BANK0            80     78      79
    BANK1            80     23      79
    BANK3            96      0       0
    BANK2            96      0       0

Pointer List with Targets:

    ADC_convert@data	PTR unsigned char  size(1) Largest target is 10
		 -> contador_lcd(BANK1[10]), adc0(BANK1[10]), 

    Lcd_Write_String@a	PTR unsigned char  size(2) Largest target is 10
		 -> STR_5(CODE[2]), contador_lcd(BANK1[10]), STR_4(CODE[2]), adc0(BANK1[10]), 
		 -> STR_3(CODE[4]), STR_2(CODE[4]), STR_1(CODE[4]), 


Critical Paths under _main in COMMON

    _I2C_Master_Init->___lldiv
    _Lcd_Write_String->_Lcd_Write_Char
    _Lcd_Write_Char->_Lcd_Port
    _Lcd_Set_Cursor->_Lcd_Cmd
    _Lcd_Init->_Lcd_Cmd
    _Lcd_Clear->_Lcd_Cmd
    _Lcd_Cmd->_Lcd_Port
    _ADC_convert->___wmul
    ___xxtofl->___wmul
    ___wmul->___fltol
    ___flsub->___wmul

Critical Paths under _main in BANK0

    _main->_ADC_convert
    _setup->_I2C_Master_Init
    _ADC_convert->___flmul
    ___xxtofl->___wmul
    ___flsub->___xxtofl
    ___flmul->___fldiv
    ___fldiv->___xxtofl

Critical Paths under _main in BANK1

    _main->_ADC_convert

Critical Paths under _main in BANK3

    None.

Critical Paths under _main in BANK2

    None.

Call Graph Tables:

 ---------------------------------------------------------------------------------
 (Depth) Function   	        Calls       Base Space   Used Autos Params    Refs
 ---------------------------------------------------------------------------------
 (0) _main                                                 8     8      0   19227
                                             15 BANK1      8     8      0
                        _ADC_convert
                    _I2C_Master_Read
                   _I2C_Master_Start
                    _I2C_Master_Stop
                   _I2C_Master_Write
                          _Lcd_Clear
                           _Lcd_Init
                     _Lcd_Set_Cursor
                   _Lcd_Write_String
                            ___fldiv
                            ___flmul
                           ___xxtofl
                              _setup
 ---------------------------------------------------------------------------------
 (1) _setup                                                0     0      0     434
                    _I2C_Master_Init
                           _conf_osc
 ---------------------------------------------------------------------------------
 (2) _conf_osc                                             3     3      0      22
                                              0 COMMON     3     3      0
 ---------------------------------------------------------------------------------
 (2) _I2C_Master_Init                                      8     4      4     412
                                              0 BANK0      8     4      4
                            ___lldiv
 ---------------------------------------------------------------------------------
 (3) ___lldiv                                             14     6      8     314
                                              0 COMMON    14     6      8
 ---------------------------------------------------------------------------------
 (1) _Lcd_Write_String                                     7     5      2     666
                                              3 COMMON     7     5      2
                     _Lcd_Write_Char
 ---------------------------------------------------------------------------------
 (2) _Lcd_Write_Char                                       2     2      0      44
                                              1 COMMON     2     2      0
                           _Lcd_Port
 ---------------------------------------------------------------------------------
 (1) _Lcd_Set_Cursor                                       4     3      1     710
                                              4 COMMON     4     3      1
                            _Lcd_Cmd
 ---------------------------------------------------------------------------------
 (1) _Lcd_Init                                             2     2      0      66
                                              4 COMMON     2     2      0
                            _Lcd_Cmd
                           _Lcd_Port
 ---------------------------------------------------------------------------------
 (1) _Lcd_Clear                                            0     0      0      44
                            _Lcd_Cmd
 ---------------------------------------------------------------------------------
 (2) _Lcd_Cmd                                              3     3      0      44
                                              1 COMMON     3     3      0
                           _Lcd_Port
 ---------------------------------------------------------------------------------
 (3) _Lcd_Port                                             1     1      0      22
                                              0 COMMON     1     1      0
 ---------------------------------------------------------------------------------
 (1) _I2C_Master_Write                                     2     0      2     174
                                              0 COMMON     2     0      2
                    _I2C_Master_Wait
 ---------------------------------------------------------------------------------
 (1) _I2C_Master_Stop                                      0     0      0       0
                    _I2C_Master_Wait
 ---------------------------------------------------------------------------------
 (1) _I2C_Master_Start                                     0     0      0       0
                    _I2C_Master_Wait
 ---------------------------------------------------------------------------------
 (1) _I2C_Master_Read                                      6     4      2     197
                                              0 COMMON     6     4      2
                    _I2C_Master_Wait
 ---------------------------------------------------------------------------------
 (2) _I2C_Master_Wait                                      0     0      0       0
 ---------------------------------------------------------------------------------
 (1) _ADC_convert                                         23    17      6   11685
                                             70 BANK0      8     2      6
                                              0 BANK1     15    15      0
                            ___awdiv
                            ___fldiv
                             ___flge
                            ___flmul
                            ___flsub
                            ___fltol
                             ___wmul
                           ___xxtofl
 ---------------------------------------------------------------------------------
 (1) ___xxtofl                                            14    10      4     930
                                              4 BANK0     14    10      4
                            ___fltol (ARG)
                             ___wmul (ARG)
 ---------------------------------------------------------------------------------
 (2) ___wmul                                               6     2      4     852
                                             11 COMMON     2     2      0
                                              0 BANK0      4     0      4
                            ___fltol (ARG)
 ---------------------------------------------------------------------------------
 (2) ___fltol                                             11     7      4     761
                                              0 COMMON    11     7      4
 ---------------------------------------------------------------------------------
 (2) ___flsub                                              8     0      8    2637
                                             18 BANK0      8     0      8
                            ___fladd
                            ___fltol (ARG)
                             ___wmul (ARG)
                           ___xxtofl (ARG)
 ---------------------------------------------------------------------------------
 (3) ___fladd                                             20    12      8    2136
                                              0 COMMON    12     4      8
                                              0 BANK0      8     8      0
 ---------------------------------------------------------------------------------
 (1) ___flmul                                             26    18      8    2721
                                             44 BANK0     26    18      8
                          __Umul8_16
                            ___fldiv (ARG)
                            ___flsub (ARG)
                            ___fltol (ARG)
                           ___xxtofl (ARG)
 ---------------------------------------------------------------------------------
 (2) __Umul8_16                                            9     7      2     799
                                              0 COMMON     9     7      2
 ---------------------------------------------------------------------------------
 (2) ___flge                                              12     4      8     334
                                              0 COMMON    12     4      8
 ---------------------------------------------------------------------------------
 (1) ___fldiv                                             26    18      8    1577
                                             18 BANK0     26    18      8
                           ___xxtofl (ARG)
 ---------------------------------------------------------------------------------
 (2) ___awdiv                                              9     5      4     452
                                              0 COMMON     9     5      4
 ---------------------------------------------------------------------------------
 Estimated maximum stack depth 3
 ---------------------------------------------------------------------------------

 Call Graph Graphs:

 _main (ROOT)
   _ADC_convert
     ___awdiv
     ___fldiv
       ___xxtofl (ARG)
         ___fltol (ARG)
         ___wmul (ARG)
           ___fltol (ARG)
     ___flge
     ___flmul
       __Umul8_16
       ___fldiv (ARG)
         ___xxtofl (ARG)
           ___fltol (ARG)
           ___wmul (ARG)
             ___fltol (ARG)
       ___flsub (ARG)
         ___fladd
         ___fltol (ARG)
         ___wmul (ARG)
           ___fltol (ARG)
         ___xxtofl (ARG)
           ___fltol (ARG)
           ___wmul (ARG)
             ___fltol (ARG)
       ___fltol (ARG)
       ___xxtofl (ARG)
         ___fltol (ARG)
         ___wmul (ARG)
           ___fltol (ARG)
     ___flsub
       ___fladd
       ___fltol (ARG)
       ___wmul (ARG)
         ___fltol (ARG)
       ___xxtofl (ARG)
         ___fltol (ARG)
         ___wmul (ARG)
           ___fltol (ARG)
     ___fltol
     ___wmul
       ___fltol (ARG)
     ___xxtofl
       ___fltol (ARG)
       ___wmul (ARG)
         ___fltol (ARG)
   _I2C_Master_Read
     _I2C_Master_Wait
   _I2C_Master_Start
     _I2C_Master_Wait
   _I2C_Master_Stop
     _I2C_Master_Wait
   _I2C_Master_Write
     _I2C_Master_Wait
   _Lcd_Clear
     _Lcd_Cmd
       _Lcd_Port
   _Lcd_Init
     _Lcd_Cmd
       _Lcd_Port
     _Lcd_Port
   _Lcd_Set_Cursor
     _Lcd_Cmd
       _Lcd_Port
   _Lcd_Write_String
     _Lcd_Write_Char
       _Lcd_Port
   ___fldiv
     ___xxtofl (ARG)
       ___fltol (ARG)
       ___wmul (ARG)
         ___fltol (ARG)
   ___flmul
     __Umul8_16
     ___fldiv (ARG)
       ___xxtofl (ARG)
         ___fltol (ARG)
         ___wmul (ARG)
           ___fltol (ARG)
     ___flsub (ARG)
       ___fladd
       ___fltol (ARG)
       ___wmul (ARG)
         ___fltol (ARG)
       ___xxtofl (ARG)
         ___fltol (ARG)
         ___wmul (ARG)
           ___fltol (ARG)
     ___fltol (ARG)
     ___xxtofl (ARG)
       ___fltol (ARG)
       ___wmul (ARG)
         ___fltol (ARG)
   ___xxtofl
     ___fltol (ARG)
     ___wmul (ARG)
       ___fltol (ARG)
   _setup
     _I2C_Master_Init
       ___lldiv
     _conf_osc

 Address spaces:
Name               Size   Autos  Total    Cost      Usage
BANK3               60      0       0       9        0.0%
BITBANK3            60      0       0       8        0.0%
SFR3                 0      0       0       4        0.0%
BITSFR3              0      0       0       4        0.0%
BANK2               60      0       0      11        0.0%
BITBANK2            60      0       0      10        0.0%
SFR2                 0      0       0       5        0.0%
BITSFR2              0      0       0       5        0.0%
BANK1               50     17      4F       7       98.8%
BITBANK1            50      0       0       6        0.0%
SFR1                 0      0       0       2        0.0%
BITSFR1              0      0       0       2        0.0%
BANK0               50     4E      4F       5       98.8%
BITBANK0            50      0       0       4        0.0%
SFR0                 0      0       0       1        0.0%
BITSFR0              0      0       0       1        0.0%
COMMON               E      E       E       1      100.0%
BITCOMMON            E      0       0       0        0.0%
CODE                 0      0       0       0        0.0%
DATA                 0      0      AC      12        0.0%
ABS                  0      0      AC       3        0.0%
NULL                 0      0       0       0        0.0%
STACK                0      0       0       2        0.0%
EEDATA             100      0       0       0        0.0%


Microchip Technology PIC Macro Assembler V2.31 build 20201012212115 
Symbol Table                                                                                   Mon Aug 09 19:49:44 2021

             ___fldiv@aexp 004B               ___fldiv@bexp 004A                          pc 0002  
             ___fldiv@sign 0043                         l11 1731                         l41 1509  
                       l19 1732                         l44 157D                         l53 15E7  
                       l47 153D                         l56 084E                         l65 16DD  
                       l59 1563               ___awdiv@sign 0076                         fsr 0004  
      ___wmul@multiplicand 0022        __Umul8_16@word_mpld 0076                        l201 1524  
                      l204 1530                        l220 165E                        l221 1663  
                      l213 1523                        l207 151A                        l216 0809  
                      l129 07E4                        l219 165B                        l415 1798  
                      l532 17FF                        l381 1635                        l293 159F  
                      l198 169B                        l703 0F8D                        l553 086B  
                      l730 0B89                        l714 0FF1                        l706 0FCD  
                      l715 0FFF                        l379 161D                        l556 08D7  
                      l572 007A                        l812 0915                        l557 08F0  
                      l565 008F                        l750 0B6D                        l718 15C3  
                      l814 09AC                        l575 008F                        l752 0B7D  
                      l744 0AFB                        l728 0A09                        l672 0DCB  
                      l825 0976                        l826 0982                        l818 095A  
                      l780 03E4                        l676 0E74                        l693 0F45  
                      l685 0FFF                        l774 035C                        l678 0E49  
                      l768 03F0                        l697 0F6B                        l787 15FC  
                      l789 160E                        _GIE 005F                        fsr0 0004  
                      indf 0000               ___flmul@aexp 005E               ___flmul@bexp 005F  
             ___flmul@sign 0059               ___flmul@temp 0064               ___flmul@prod 0060  
             ___fltol@exp1 007A               conf_osc@frec 0072                       l2101 0DC3  
                     l2111 0DE1                       l2103 0DD1                       l2201 0F66  
                     l2121 0DF5                       l2113 0DE5                       l2105 0DD5  
                     l2033 1505                       l2041 1753                       l3001 0C5F  
                     l2211 0F79                       l2203 0F6A                       l2131 0E09  
                     l2123 0DF9                       l2115 0DE9                       l2107 0DD9  
                     l2051 1781                       l2043 1757                       l2035 1733  
                     l3011 0D09                       l3003 0C6B                       l2221 0F8A  
                     l2205 0F6F                       l2213 0F7B                       l2141 0E2D  
                     l2133 0E0D                       l2125 0DFD                       l2117 0DED  
                     l2109 0DDD                       l2061 0D6F                       l2301 157A  
                     l2053 178A                       l2045 1760                       l2037 1743  
                     l3013 0D44                       l3005 0C74                       l2231 0FA9  
                     l2207 0F72                       l2215 0F7F                       l2151 0E5F  
                     l2143 0E4D                       l2135 0E11                       l2127 0E01  
                     l2119 0DF1                       l2071 0D84                       l2063 0D75  
                     l2311 1560                       l2303 154F                       l2047 1772  
                     l2039 1746                       l2055 1790                       l3007 0C7E  
                     l2401 08ED                       l2241 0FE4                       l2233 0FC9  
                     l2225 0F92                       l2217 0F80                       l2209 0F74  
                     l2153 0E6A                       l2145 0E58                       l2129 0E05  
                     l2137 0E15                       l2081 0D9C                       l2073 0D8C  
                     l2065 0D79                       l2305 1552                       l2049 1780  
                     l2321 1699                       l2313 1664                       l3009 0CE9  
                     l2403 08EF                       l2251 0FFE                       l2243 0FE5  
                     l2235 0FD2                       l2227 0F97                       l2219 0F84  
                     l2171 0EB0                       l2163 0E86                       l2147 0E5A  
                     l2155 0E6E                       l2139 0E16                       l2091 0DAE  
                     l2083 0DA2                       l2075 0D8D                       l2067 0D7A  
                     l2059 0D68                       l2331 1611                       l2307 1558  
                     l2323 169A                       l2315 1668                       l3035 171A  
                     l2261 1605                       l2253 15E9                       l2245 0FE9  
                     l2237 0FD7                       l2229 0FA5                       l2173 0EB2  
                     l2165 0E9D                       l2157 0E78                       l2181 0EC7  
                     l2149 0E5E                       l2093 0DB3                       l2085 0DA3  
                     l2069 0D7F                       l2077 0D8F                       l2421 004A  
                     l2413 002A                       l2333 1617                       l2325 1524  
                     l2309 155B                       l2317 166B                       l2351 17A5  
                     l2343 1799                       l2511 0A62                       l2503 0A38  
                     l2263 160A                       l2255 15EB                       l2247 0FEB  
                     l2239 0FDF                       l2183 0EDD                       l2191 0F37  
                     l2175 0EB6                       l2167 0EA1                       l2159 0E7D  
                     l2095 0DB8                       l2087 0DA9                       l2079 0D97  
                     l2423 004E                       l2431 0068                       l2415 003F  
                     l2407 0016                       l2335 1624                       l2327 152A  
                     l2319 1698                       l2271 16E5                       l2361 17BA  
                     l2353 17A9                       l2345 179A                       l2521 0A80  
                     l2513 0A64                       l2505 0A4A                       l2257 15F2  
                     l2601 00A7                       l2249 0FFA                       l2193 0F4D  
                     l2185 0F1D                       l2177 0EB7                       l2169 0EA5  
                     l2097 0DC0                       l2089 0DAD                       l2441 0084  
                     l2417 0040                       l2409 0021                       l2337 162B  
                     l2329 160F                       l2281 1706                       l2273 16EC  
                     l2371 17DD                       l2363 17BD                       l2355 17AE  
                     l2347 179E                       l2515 0A69                       l2523 0A89  
                     l2531 0AAE                       l2507 0A52                       l2451 09B4  
                     l2259 15F6                       l2611 00C3                       l2603 00AC  
                     l2195 0F52                       l2187 0F23                       l2179 0EC2  
                     l2099 0DC1                       l2443 15A0                       l2419 0048  
                     l2339 1631                       l2283 170B                       l2275 16F1  
                     l2267 16DF                       l2381 17F6                       l2373 17E3  
                     l2365 17C4                       l2357 17B2                       l2349 17A3  
                     l2541 0ACB                       l2533 0AB4                       l2525 0A9B  
                     l2517 0A7B                       l2509 0A5A                       l2461 09C9  
                     l2453 09BA                       l2701 0366                       l2621 00D8  
                     l2613 00C9                       l2605 00B4                       l2189 0F28  
                     l2445 15A4                       l2437 006F                       l2429 0056  
                     l2293 1565                       l2277 16F8                       l2269 16E0  
                     l2383 17FB                       l2375 17E4                       l2367 17C8  
                     l2359 17B4                       l2551 0AE0                       l2543 0ACC  
                     l2535 0ABC                       l2527 0A9C                       l2519 0A7F  
                     l2471 09E1                       l2463 09D1                       l2455 09BE  
                     l2391 087F                       l2711 03A4                       l2703 0374  
                     l2631 00F4                       l2623 00E0                       l2615 00CD  
                     l2607 00B6                       l2199 0F5B                       l2439 007F  
                     l2295 1568                       l2279 16FF                       l2287 1712  
                     l2377 17EB                       l2369 17CC                       l2561 0B05  
                     l2553 0AE4                       l2545 0AD5                       l2537 0ABE  
                     l2529 0AAA                       l2481 09F6                       l2473 09E7  
                     l2465 09D2                       l2457 09BF                       l2449 09AD  
                     l2393 0887                       l2721 03D8                       l2713 03AF  
                     l2705 0378                       l2641 0137                       l2625 00E2  
                     l2617 00CE                       l2609 00BE                       l2297 156E  
                     l2801 169F                       l2379 17F1                       l2571 0B43  
                     l2563 0B13                       l2555 0AF8                       l2539 0AC7  
                     l2547 0ADB                       l2491 0A1D                       l2483 09FE  
                     l2475 09EB                       l2459 09C4                       l2467 09D4  
                     l2395 088B                       l2387 084F                       l2723 03DC  
                     l2715 03BE                       l2707 0391                       l2651 01C0  
                     l2643 0153                       l2635 00FD                       l2627 00EA  
                     l2619 00D3                       l2731 08F4                       l2811 0409  
                     l2299 1571                       l2803 16BB                       l2581 0B73  
                     l2573 0B51                       l2565 0B17                       l2549 0ADF  
                     l2493 0A21                       l2485 09FF                       l2477 09EC  
                     l2469 09DC                       l2397 08AF                       l2389 0863  
                     l2725 03DD                       l2717 03C8                       l2709 0397  
                     l2661 0233                       l2653 01D0                       l2645 017F  
                     l2637 010D                       l2629 00EF                       l2733 08F9  
                     l2901 07C4                       l2821 042C                       l2813 040B  
                     l2805 16C1                       l2583 0B77                       l2575 0B60  
                     l2567 0B30                       l2559 0B00                       l2479 09F1  
                     l2487 0A01                       l2399 08B3                       l2727 03E8  
                     l2719 03CA                       l2671 02E0                       l2663 0250  
                     l2655 01ED                       l2647 019B                       l2639 011A  
                     l2591 0090                       l2751 0943                       l2743 0926  
                     l2735 08FD                       l2903 07CA                       l2823 044D  
                     l2831 047A                       l2815 040D                       l2807 03F4  
                     l2911 1517                       l2585 0B79                       l2577 0B64  
                     l2569 0B36                       l2489 0A11                       l2497 0A2A  
                     l2681 032C                       l2673 0308                       l2665 027D  
                     l2657 01FD                       l2649 01B7                       l2593 0097  
                     l2761 097A                       l2753 0951                       l2745 092B  
                     l2737 090D                       l2905 07CE                       l2841 04B4  
                     l2833 0483                       l2825 0458                       l2817 0411  
                     l2809 0409                       l2921 1636                       l2913 151B  
                     l2579 0B6C                       l2499 0A2F                       l2691 0341  
                     l2683 032D                       l2675 0311                       l2667 028D  
                     l2659 021A                       l2595 009D                       l2771 09A4  
                     l2763 0984                       l2755 0961                       l2747 0938  
                     l2739 091D                       l2907 07D4                       l2851 0594  
                     l2843 04BA                       l2835 0489                       l2827 0461  
                     l2819 0411                       l2931 1657                       l2923 163B  
                     l2915 1520                       l2693 0345                       l2685 0336  
                     l2677 031F                       l2669 02BA                       l2597 00A1  
                     l2765 099A                       l2757 096C                       l2749 093F  
                     l2861 05BC                       l2853 059A                       l2845 04D0  
                     l2837 048E                       l2829 0474                       l2933 165F  
                     l2925 1643                       l2909 1512                       l2917 0800  
                     l2781 15CF                       l2941 1599                       l2695 0359  
                     l2679 0328                       l2687 033C                       l2599 00A2  
                     l2767 099F                       l2759 0970                       l2871 0600  
                     l2863 05BC                       l2847 056C                       l2839 0493  
                     l2855 059E                       l2927 164C                       l2919 0805  
                     l2775 1531                       l2791 0810                       l2783 15D6  
                     l2951 0B8A                       l2689 0340                       l2769 09A3  
                     l2881 06A6                       l2873 067D                       l2865 05C1  
                     l2857 05A4                       l2849 058C                       l2929 1651  
                     l2793 0819                       l2785 15DC                       l2777 15C5  
                     l2937 157E                       l2961 0BAA                       l2953 0B8F  
                     l2699 0361                       l2891 06E4                       l2883 06B3  
                     l2875 0693                       l2867 05E2                       l2859 05B4  
                     l2795 0828                       l2787 15E1                       l2779 15CA  
                     l2939 158C                       l2971 0BD9                       l2963 0BB6  
                     l2955 0B94                       l2893 06EA                       l2885 06B9  
                     l2877 06A0                       l2869 05E8                       l2797 082E  
                     l2789 080A                       l2981 0C01                       l2973 0BE2  
                     l2965 0BBF                       l2957 0B99                       l2895 0700  
                     l2887 06BE                       l2879 06A0                       l2799 169C  
                     l2991 0C2C                       l2983 0C0A                       l2975 0BF0  
                     l2967 0BCB                       l2959 0BA1                       l2897 079C  
                     l2889 06C3                       l2993 0C35                       l2985 0C18  
                     l2977 0BF5                       l2969 0BD4                       l2899 07BC  
                     l2995 0C41                       l2987 0C1D                       l2979 0BFC  
                     l2997 0C4A                       l2989 0C24                       l2999 0C56  
                     STR_1 1010                       STR_2 1014                       STR_3 1018  
                     STR_4 101E                       STR_5 101C                       u2000 0DB3  
                     u2001 0DB2                       u2010 0DB8                       u2011 0DB7  
                     u2100 0E74                       u2020 0DD1                       u2101 0E73  
                     u2021 0DD0                       u2110 0E78                       u2030 0DD5  
                     u2111 0E77                       u2031 0DD4                       u3000 0AFF  
                     u2200 0F0A                       u2120 0E7D                       u2040 0E2D  
                     u3001 0AFE                       u2201 0F0B                       u2121 0E7C  
                     u2041 0E2C                       u3010 0B05                       u2210 0F28  
                     u2202 0F10                       u2050 0E36                       u3011 0B04  
                     u2211 0F27                       u2203 0F11                       u2131 0E8F  
                     u2051 0E34                       u3020 0B17                       u3100 00CD  
                     u2300 0F8A                       u2220 0F4D                       u2140 0EA1  
                     u2132 0E96                       u2060 0E37                       u3021 0B16  
                     u3101 00CC                       u2301 0F89                       u2221 0F4C  
                     u2141 0EA0                       u2133 0E9D                       u2045 0E29  
                     u3030 0B26                       u3110 00D3                       u2310 0F91  
                     u2230 0F52                       u2150 0EA5                       u2070 0E4D  
                     u3111 00D2                       u2311 0F90                       u2231 0F51  
                     u2151 0EA4                       u2071 0E4C                       u3040 0B43  
                     u3120 00D8                       u2400 0FFE                       u2320 0F97  
                     u2160 0EB6                       u2080 0E5E                       u3041 0B42  
                     u3201 01DF                       u3121 00D7                       u2401 0FFD  
                     u2321 0F96                       u2161 0EB5                       u2081 0E5D  
                     u3050 0B60                       u2410 15F6                       u3202 01E6  
                     u3130 00EF                       u2330 0FA9                       u2250 0F6A  
                     u3051 0B5F                       u3035 0B21                       u2411 15F5  
                     u3211 020C                       u3203 01ED                       u3131 00EE  
                     u2331 0FA8                       u2251 0F69                       u3060 0B77  
                     u3212 0213                       u3140 00F4                       u2340 0FBA  
                     u2260 0F6F                       u2180 0EDD                       u2500 1631  
                     u3061 0B76                       u3045 0B3F                       u3213 021A  
                     u3141 00F3                       u2261 0F6E                       u2245 0F5F  
                     u2181 0EDC                       u2501 1630                       u2510 179E  
                     u2430 160A                       u3070 00A1                       u2350 0FC9  
                     u2270 0F79                       u2511 179D                       u3055 0B5C  
                     u2431 1609                       u3231 0242                       u3151 0145  
                     u3071 00A0                       u2351 0FC8                       u2271 0F78  
                     u2191 0EF6                       u2183 0ED9                       u2175 0EBB  
                     u2095 0E63                       u2600 17F6                       u2520 17A9  
                     u3400 0387                       u3320 032C                       u3232 0249  
                     u3152 014C                       u3080 00A7                       u2360 0FD2  
                     u2280 0F7F                       u2192 0EF7                       u2440 167B  
                     u2601 17F5                       u2521 17A8                       u2425 15FD  
                     u3321 032B                       u3305 030A                       u3241 026F  
                     u3233 0250                       u3225 021C                       u3161 0161  
                     u3153 0153                       u3081 00A6                       u2361 0FD1  
                     u2345 0FB5                       u2281 0F7E                       u2193 0EFC  
                     u2530 17BA                       u2610 0863                       u3410 03A4  
                     u3242 0276                       u3162 0168                       u3090 00AC  
                     u2370 0FD7                       u2290 0F84                       u2194 0EFD  
                     u2450 152A                       u2531 17B9                       u2611 0862  
                     u3411 03A3                       u3315 0321                       u3251 029C  
                     u3243 027D                       u3171 018D                       u3163 016F  
                     u3091 00AB                       u2371 0FD6                       u2291 0F83  
                     u2195 0F02                       u2451 1529                       u2620 087F  
                     u3420 03BE                       u3340 0340                       u3260 02C6  
                     u3252 02A3                       u3172 0194                       u2380 0FE4  
                     u2196 0F03                       u2700 004E                       u3500 0960  
                     u2460 1530                       u1900 1757                       u2621 087E  
                     u3421 03BD                       u3405 0382                       u3341 033F  
                     u3253 02AA                       u3181 01A9                       u3173 019B  
                     u2381 0FE3                       u2701 004D                       u3501 095F  
                     u2461 152F                       u1901 1756                       u2445 1676  
                     u2550 17CC                       u2630 088B                       u3430 03DC  
                     u3350 0345                       u3182 01B0                       u2390 0FE9  
                     u2710 0055                       u2470 1617                       u2551 17CB  
                     u2631 088A                       u3431 03DB                       u3415 03A0  
                     u3351 0344                       u3335 032F                       u3271 02D2  
                     u3183 01B7                       u2391 0FE8                       u2711 0054  
                     u2471 1616                       u2800 09C9                       u3360 0359  
                     u3280 02EE                       u3272 02D9                       u3520 0970  
                     u3440 08F9                       u3600 16A9                       u1920 1772  
                     u2545 17BE                       u2801 09C8                       u2641 089A  
                     u3425 03BA                       u3361 0358                       u3273 02E0  
                     u3265 02C1                       u3521 096F                       u3441 08F8  
                     u1921 1771                       u2570 17DD                       u2810 09EB  
                     u2650 08B3                       u2642 089B                       u3370 0360  
                     u2730 0067                       u3530 0976                       u3450 08FD  
                     u3610 16CB                       u2571 17DC                       u2811 09EA  
                     u2651 08B2                       u2643 08A0                       u3371 035F  
                     u3291 02FA                       u3195 01B9                       u2731 0066  
                     u3531 0975                       u3515 0965                       u3451 08FC  
                     u1915 1759                       u2820 09F1                       u2644 08A1  
                     u3380 0366                       u3292 0301                       u2740 006E  
                     u3540 097A                       u3460 091D                       u3700 0700  
                     u3620 16DD                       u1940 1790                       u2565 17CD  
                     u2821 09F0                       u2661 08C2                       u2645 08A6  
                     u3381 0365                       u3293 0308                       u3285 02E9  
                     u2741 006D                       u2725 0057                       u2485 161E  
                     u3541 0979                       u3461 091C                       u3701 06FF  
                     u3621 16DC                       u1941 178F                       u1925 176E  
                     u2590 17F1                       u2910 0A9B                       u2830 09F6  
                     u2670 08ED                       u2662 08C3                       u2646 08A7  
                     u3390 0378                       u1950 0D79                       u3550 098F  
                     u3710 07D4                       u3630 042C                       u2591 17F0  
                     u2575 17D9                       u2911 0A9A                       u2831 09F5  
                     u2671 08EC                       u2663 08C8                       u3391 0377  
                     u1951 0D78                       u2495 1625                       u3711 07D3  
                     u3631 042B                       u1935 1782                       u2920 0AB4  
                     u2840 0A11                       u2664 08C9                       u1960 0D7F  
                     u2760 007F                       u2680 0021                       u3560 099F  
                     u3480 093E                       u3640 0482                       u3720 1657  
                     u1880 1743                       u2585 17E5                       u2921 0AB3  
                     u2905 0A82                       u2841 0A10                       u2665 08CE  
                     u1961 0D7E                       u2761 007E                       u2681 0020  
                     u3561 099E                       u3481 093D                       u3705 06FC  
                     u3641 0481                       u3721 1656                       u1881 1742  
                     u2930 0ABC                       u2850 0A2F                       u2666 08CF  
                     u1970 0D84                       u2770 0084                       u2690 0038  
                     u3570 09A3                       u3650 0489                       u2931 0ABB  
                     u2915 0A97                       u2851 0A2E                       u2675 08E9  
                     u1971 0D83                       u2771 0083                       u2755 0071  
                     u3571 09A2                       u3555 098A                       u3475 0930  
                     u3651 0488                       _PEIE 005E                       u2860 0A69  
                     u2780 09BE                       u1980 0DA2                       u3660 04D0  
                     u3580 15CA                       u2861 0A68                       u2781 09BD  
                     u1981 0DA1                       u3661 04CF                       u3581 15C9  
                     u2950 0ACB                       u2790 09C4                       u1990 0DAD  
                     u3670 05A4                       u3590 15DC                       u2951 0ACA  
                     u2791 09C3                       u1991 0DAC                       u2695 0033  
                     u3495 0952                       u3671 05A3                       u3591 15DB  
                     u1895 1748                       u3680 0600                       u2945 0AC0  
                     u3681 05FF                       u3665 04CC                       u3737 0BF9  
                     u2970 0ADF                       u2890 0A7F                       u3690 06B9  
                     u2971 0ADE                       u2891 0A7E                       u2875 0A6B  
                     u3691 06B8                       u3747 0C21                       u2980 0AE4  
                     u2981 0AE3                       u2965 0ACE                       u2885 0A74  
                     u3685 05FC                       u3757 155D                       u2990 0AF8  
                     u2991 0AF7                       u3767 0814                       u3777 0823  
                     u3787 0832                       u3797 1575                       _adc0 00BE  
        ?_Lcd_Write_String 0073                       _main 0B8A                       btemp 007E  
            ADC_convert@mu 00D5                       start 0000         ??_Lcd_Write_String 0075  
          ___fldiv@new_exp 0044            __end_of_Lcd_Cmd 157E       __size_of_ADC_convert 03F4  
              _string_uart 00A0           ?_I2C_Master_Init 0020           ?_I2C_Master_Read 0070  
         ?_I2C_Master_Wait 0070           ?_I2C_Master_Stop 0070              ___fltol@sign1 0079  
          __end_of___fladd 1000                      ?_main 0070            __end_of___fldiv 0B8A  
          __end_of___awdiv 1800            __end_of___flmul 03F1            __end_of___flsub 15C4  
          __end_of___fltol 0090                      _ANSEL 0188            __end_of___lldiv 1799  
          ___awdiv@divisor 0070            ___awdiv@counter 0075                      _PORTA 0005  
                    _PORTB 0006                      _PORTE 0009    __size_of_Lcd_Set_Cursor 0024  
                    _TRISA 0085                      _TRISB 0086                      _SSPIE 0463  
                    _TRISE 0089                      _SSPIF 0063                      _conv0 00AA  
                    _tabla 00DF                      _setup 157E                      pclath 000A  
                    status 0003                      wtemp0 007E           __end_of_Lcd_Init 084F  
         __end_of_Lcd_Port 150A            __initialization 07E5               __end_of_main 0D68  
                   ??_main 00D7         __size_of_Lcd_Clear 000D          ?_I2C_Master_Start 0070  
        ?_I2C_Master_Write 0070         ??_I2C_Master_Start 0070         ??_I2C_Master_Write 0072  
         ___awdiv@dividend 0072                     ?_setup 0070                     _ANSELH 0189  
                ??_Lcd_Cmd 0071    __size_of_Lcd_Write_Char 0016                     _SSPADD 0093  
                   _TRISC3 043B                     _TRISC4 043C                     _SSPCON 0014  
                   _SSPBUF 0013           __end_of___xxtofl 09AD           __end_of_conf_osc 1733  
                   ___flge 084F                  ??___fladd 0020                     ___wmul 160F  
                ??___fldiv 003A                  ??___awdiv 0074                  ??___flmul 0054  
                ??___flsub 007D                  ??___fltol 0074                  ??___lldiv 0078  
         ___awdiv@quotient 0077         __size_of__Umul8_16 0027            ADC_convert@data 00CC  
          ADC_convert@temp 00C8            Lcd_Set_Cursor@a 0076            Lcd_Set_Cursor@b 0074  
               ___flge@ff1 0070                 ___flge@ff2 0074               ___xxtofl@arg 002E  
             ___xxtofl@exp 002D               ___xxtofl@val 0024    __end_of__initialization 07FC  
        __end_of_Lcd_Clear 153E                 ___fltol@f1 0070             __pcstackCOMMON 0070  
             __pidataBANK1 153E              __end_of_setup 15A0             _Lcd_Set_Cursor 15C4  
           _OPTION_REGbits 0081                  ?_Lcd_Init 0070                  ?_Lcd_Port 0070  
                  ??_setup 007E                 __pbssBANK0 006E                 __pbssBANK1 00A0  
        __end_of__Umul8_16 160F                 __pmaintext 0B8A                    ?___flge 0070  
                  ?___wmul 0020  __size_of_Lcd_Write_String 0042     __end_of_Lcd_Set_Cursor 15E8  
                ?___xxtofl 0024                 ??_Lcd_Init 0074                 ??_Lcd_Port 0070  
                  _SSPCON2 0091                  ?_conf_osc 0070                    _SSPSTAT 0094  
               __stringtab 1000             _Lcd_Write_Char 154E                    _Lcd_Cmd 1564  
            ??_ADC_convert 006C            __size_of___flge 00A2                    ___fladd 0D68  
                  ___fldiv 09AD                    ___awdiv 1799                    ___flmul 0090  
                  ___flsub 15A0                    ___fltol 0016                    ___lldiv 1733  
          __size_of___wmul 0027                  _ANSELbits 0188            ?_Lcd_Set_Cursor 0074  
                  __ptext1 157E                    __ptext2 16DE                    __ptext3 1664  
                  __ptext4 1733                    __ptext5 169C                    __ptext6 154E  
                  __ptext7 15C4                    __ptext8 080A                    __ptext9 1531  
               ??___xxtofl 0028   __size_of_I2C_Master_Init 0038   __size_of_I2C_Master_Read 002E  
 __size_of_I2C_Master_Wait 000D   __size_of_I2C_Master_Stop 0009                 ??_conf_osc 0070  
                  clrloop0 150B     __end_of_Lcd_Write_Char 1564       end_of_initialization 07FC  
__size_of_I2C_Master_Start 0009  __size_of_I2C_Master_Write 000A            ___lldiv@divisor 0070  
          ___lldiv@counter 007D           ADC_convert@place 006A           I2C_Master_Init@c 0020  
         I2C_Master_Read@a 0070                  Lcd_Port@a 0070                 _valor_uart 006E  
      __end_of_ADC_convert 07E5                  _PORTEbits 0009                ___fladd@grs 007B  
            ___xxtofl@sign 002C                  _TRISCbits 0087                ___fldiv@grs 0046  
              ___fldiv@rem 003F            ?_Lcd_Write_Char 0070               _contador_lcd 00B4  
        Lcd_Write_String@a 0073          Lcd_Write_String@i 0078                ___flmul@grs 005A  
             ADC_convert@a 0066               ADC_convert@i 00D1               ADC_convert@j 00CA  
             ADC_convert@x 00CD                  _Lcd_Clear 1531             __end_of___flge 08F1  
           __end_of___wmul 1636           _Lcd_Write_String 169C        start_initialization 07E5  
        __size_of_Lcd_Init 0045          __size_of_Lcd_Port 0006          ??_I2C_Master_Init 0024  
        ??_I2C_Master_Read 0072          ??_I2C_Master_Wait 0070          ??_I2C_Master_Stop 0070  
              _ADC_convert 03F1                 ?_Lcd_Clear 0070                   ??___flge 0078  
                 ??___wmul 007B                 init_fetch0 0003                  __Umul8_16 15E8  
              __pdataBANK1 00DF            Lcd_Write_Char@a 0072                  ___fladd@a 0074  
                ___fladd@b 0070                  ___fldiv@a 0032                  ___fldiv@b 0036  
                ___flmul@a 0050                  ___flmul@b 004C                  ___flsub@a 0032  
                ___flsub@b 0036                  ___latbits 0002              __pcstackBANK0 0020  
            __pcstackBANK1 00C8          __size_of___xxtofl 00BC          __size_of_conf_osc 0055  
                 ?_Lcd_Cmd 0070           _I2C_Master_Start 1512           _I2C_Master_Write 0800  
                _main$1129 00DB           ??_Lcd_Set_Cursor 0075                   ?___fladd 0070  
                 ?___fldiv 0032                   ?___awdiv 0070                   ?___flmul 004C  
                 ?___flsub 0032                   ?___fltol 0070                   ?___lldiv 0070  
               ?__Umul8_16 0070                  __pstrings 1000                  _cont_uart 00AE  
           __size_of_setup 0022             ___wmul@product 007B                  clear_ram0 150A  
                 _PIE1bits 008C                   Lcd_Cmd@a 0073                   _PIR1bits 000C  
              ??_Lcd_Clear 0074                 _ADCON0bits 001F                __stringbase 100F  
               _ADCON1bits 009F          ___wmul@multiplier 0020           ??_Lcd_Write_Char 0071  
                 _Lcd_Init 080A                   _Lcd_Port 1504        I2C_Master_Read@temp 0074  
 __end_of_Lcd_Write_String 16DE           __size_of_Lcd_Cmd 001A                ??__Umul8_16 0072  
         __size_of___fladd 0298           __size_of___fldiv 01DD           __size_of___awdiv 0067  
         __size_of___flmul 0361           __size_of___flsub 0024           __size_of___fltol 007A  
         __size_of___lldiv 0066         __end_of__stringtab 1010                 _ANSELHbits 0189  
          _I2C_Master_Init 1664            _I2C_Master_Read 1636                   ___xxtofl 08F1  
          _I2C_Master_Wait 1524            _I2C_Master_Stop 151B                   __ptext10 1564  
                 __ptext11 1504                   __ptext20 0016                   __ptext12 0800  
                 __ptext21 15A0                   __ptext13 151B                   __ptext22 0D68  
                 __ptext14 1512                   __ptext23 0090                   __ptext15 1636  
                 __ptext24 15E8                   __ptext16 1524                   __ptext25 084F  
                 __ptext17 03F1                   __ptext26 09AD                   __ptext18 08F1  
                 __ptext27 1799                   __ptext19 160F                   _conf_osc 16DE  
                 _contador 00B2              __size_of_main 01DE               ?_ADC_convert 0066  
                 _var_adc0 00B3   __end_of_I2C_Master_Start 151B   __end_of_I2C_Master_Write 080A  
                 init_ram0 0007           ___lldiv@dividend 0074                  stringcode 100A  
               _OSCCONbits 008F          ADC_convert@digits 00D3    __end_of_I2C_Master_Init 169C  
  __end_of_I2C_Master_Read 1664    __end_of_I2C_Master_Wait 1531    __end_of_I2C_Master_Stop 1524  
       Lcd_Set_Cursor@temp 0077     __Umul8_16@multiplicand 0070           ___lldiv@quotient 0079  
        I2C_Master_Write@d 0070                   stringdir 100A                   stringtab 1000  
              _SSPCON2bits 0091              ___fladd@signs 0078               ___fladd@aexp 0079  
             ___fladd@bexp 007A       __Umul8_16@multiplier 0078          __Umul8_16@product 0074  
