

Microchip MPLAB XC8 Assembler V2.31 build 20201012212115 
                                                                                               Wed Aug 18 21:49:11 2021

Microchip MPLAB XC8 C Compiler v2.31 (Free license) build 20201012212115 Og1 
     1                           	processor	16F887
     2                           	pagewidth 120
     3                           	opt	flic
     4                           	psect	idataBANK1,global,class=CODE,delta=2,noexec
     5                           	psect	strings,global,class=STRING,delta=2,noexec
     6                           	psect	cinit,global,class=CODE,merge=1,delta=2
     7                           	psect	bssCOMMON,global,class=COMMON,space=1,delta=1,noexec
     8                           	psect	bssBANK1,global,class=BANK1,space=1,delta=1,noexec
     9                           	psect	dataBANK1,global,class=BANK1,space=1,delta=1,noexec
    10                           	psect	inittext,global,class=CODE,delta=2
    11                           	psect	cstackBANK1,global,class=BANK1,space=1,delta=1,noexec
    12                           	psect	cstackCOMMON,global,class=COMMON,space=1,delta=1,noexec
    13                           	psect	cstackBANK0,global,class=BANK0,space=1,delta=1,noexec
    14                           	psect	maintext,global,class=CODE,split=1,delta=2
    15                           	psect	text1,local,class=CODE,merge=1,delta=2
    16                           	psect	text2,local,class=CODE,merge=1,delta=2
    17                           	psect	text3,local,class=CODE,merge=1,delta=2,group=3
    18                           	psect	text4,local,class=CODE,merge=1,delta=2
    19                           	psect	text5,local,class=CODE,merge=1,delta=2,group=3
    20                           	psect	text6,local,class=CODE,merge=1,delta=2,group=3
    21                           	psect	text7,local,class=CODE,merge=1,delta=2,group=1
    22                           	psect	text8,local,class=CODE,merge=1,delta=2
    23                           	psect	text9,local,class=CODE,merge=1,delta=2,group=2
    24                           	psect	text10,local,class=CODE,merge=1,delta=2,group=2
    25                           	psect	text11,local,class=CODE,merge=1,delta=2,group=3
    26                           	psect	text12,local,class=CODE,merge=1,delta=2,group=3
    27                           	psect	text13,local,class=CODE,merge=1,delta=2
    28                           	psect	text14,local,class=CODE,merge=1,delta=2,group=2
    29                           	psect	text15,local,class=CODE,merge=1,delta=2,group=2
    30                           	psect	text16,local,class=CODE,merge=1,delta=2,group=2
    31                           	psect	text17,local,class=CODE,merge=1,delta=2,group=2
    32                           	psect	text18,local,class=CODE,merge=1,delta=2,group=2
    33                           	psect	text19,local,class=CODE,merge=1,delta=2,group=2
    34                           	psect	text20,local,class=CODE,merge=1,delta=2,group=2
    35                           	psect	text21,local,class=CODE,merge=1,delta=2,group=2
    36                           	psect	text22,local,class=CODE,merge=1,delta=2,group=2
    37                           	psect	text23,local,class=CODE,merge=1,delta=2,group=2
    38                           	psect	text24,local,class=CODE,merge=1,delta=2
    39                           	psect	intentry,global,class=CODE,delta=2
    40                           	psect	functab,global,class=ENTRY,delta=2
    41                           	psect	config,global,abs,ovrld,class=CONFIG,space=4,delta=2,noexec
    42                           	dabs	1,0x7E,2
    43  0000                     
    44                           ; Version 2.20
    45                           ; Generated 12/02/2020 GMT
    46                           ; 
    47                           ; Copyright © 2020, Microchip Technology Inc. and its subsidiaries ("Microchip")
    48                           ; All rights reserved.
    49                           ; 
    50                           ; This software is developed by Microchip Technology Inc. and its subsidiaries ("Microch
      +                          ip").
    51                           ; 
    52                           ; Redistribution and use in source and binary forms, with or without modification, are
    53                           ; permitted provided that the following conditions are met:
    54                           ; 
    55                           ;     1. Redistributions of source code must retain the above copyright notice, this lis
      +                          t of
    56                           ;        conditions and the following disclaimer.
    57                           ; 
    58                           ;     2. Redistributions in binary form must reproduce the above copyright notice, this 
      +                          list
    59                           ;        of conditions and the following disclaimer in the documentation and/or other
    60                           ;        materials provided with the distribution.
    61                           ; 
    62                           ;     3. Microchip's name may not be used to endorse or promote products derived from th
      +                          is
    63                           ;        software without specific prior written permission.
    64                           ; 
    65                           ; THIS SOFTWARE IS PROVIDED BY MICROCHIP "AS IS" AND ANY EXPRESS OR IMPLIED WARRANTIES,
    66                           ; INCLUDING, BUT NOT LIMITED TO, THE IMPLIED WARRANTIES OF MERCHANTABILITY AND FITNESS F
      +                          OR
    67                           ; PURPOSE ARE DISCLAIMED.  IN NO EVENT SHALL MICROCHIP BE LIABLE FOR ANY DIRECT, INDIREC
      +                          T,
    68                           ; INCIDENTAL, SPECIAL, EXEMPLARY, OR CONSEQUENTIAL DAMAGES (INCLUDING BUT NOT LIMITED TO
    69                           ; PROCUREMENT OF SUBSTITUTE GOODS OR SERVICES; LOSS OF USE, DATA OR PROFITS; OR BUSINESS
    70                           ; INTERRUPTION) HOWSOEVER CAUSED AND ON ANY THEORY OF LIABILITY, WHETHER IN CONTRACT, ST
      +                          RICT
    71                           ; LIABILITY, OR TORT (INCLUDING NEGLIGENCE OR OTHERWISE) ARISING IN ANY WAY OUT OF THE U
      +                          SE OF
    72                           ; THIS SOFTWARE, EVEN IF ADVISED OF THE POSSIBILITY OF SUCH DAMAGE.
    73                           ; 
    74                           ; 
    75                           ; Code-generator required, PIC16F887 Definitions
    76                           ; 
    77                           ; SFR Addresses
    78  0000                     	;# 
    79  0001                     	;# 
    80  0002                     	;# 
    81  0003                     	;# 
    82  0004                     	;# 
    83  0005                     	;# 
    84  0006                     	;# 
    85  0007                     	;# 
    86  0008                     	;# 
    87  0009                     	;# 
    88  000A                     	;# 
    89  000B                     	;# 
    90  000C                     	;# 
    91  000D                     	;# 
    92  000E                     	;# 
    93  000E                     	;# 
    94  000F                     	;# 
    95  0010                     	;# 
    96  0011                     	;# 
    97  0012                     	;# 
    98  0013                     	;# 
    99  0014                     	;# 
   100  0015                     	;# 
   101  0015                     	;# 
   102  0016                     	;# 
   103  0017                     	;# 
   104  0018                     	;# 
   105  0019                     	;# 
   106  001A                     	;# 
   107  001B                     	;# 
   108  001B                     	;# 
   109  001C                     	;# 
   110  001D                     	;# 
   111  001E                     	;# 
   112  001F                     	;# 
   113  0081                     	;# 
   114  0085                     	;# 
   115  0086                     	;# 
   116  0087                     	;# 
   117  0088                     	;# 
   118  0089                     	;# 
   119  008C                     	;# 
   120  008D                     	;# 
   121  008E                     	;# 
   122  008F                     	;# 
   123  0090                     	;# 
   124  0091                     	;# 
   125  0092                     	;# 
   126  0093                     	;# 
   127  0093                     	;# 
   128  0093                     	;# 
   129  0094                     	;# 
   130  0095                     	;# 
   131  0096                     	;# 
   132  0097                     	;# 
   133  0098                     	;# 
   134  0099                     	;# 
   135  009A                     	;# 
   136  009B                     	;# 
   137  009C                     	;# 
   138  009D                     	;# 
   139  009E                     	;# 
   140  009F                     	;# 
   141  0105                     	;# 
   142  0107                     	;# 
   143  0108                     	;# 
   144  0109                     	;# 
   145  010C                     	;# 
   146  010C                     	;# 
   147  010D                     	;# 
   148  010E                     	;# 
   149  010F                     	;# 
   150  0185                     	;# 
   151  0187                     	;# 
   152  0188                     	;# 
   153  0189                     	;# 
   154  018C                     	;# 
   155  018D                     	;# 
   156  0000                     	;# 
   157  0001                     	;# 
   158  0002                     	;# 
   159  0003                     	;# 
   160  0004                     	;# 
   161  0005                     	;# 
   162  0006                     	;# 
   163  0007                     	;# 
   164  0008                     	;# 
   165  0009                     	;# 
   166  000A                     	;# 
   167  000B                     	;# 
   168  000C                     	;# 
   169  000D                     	;# 
   170  000E                     	;# 
   171  000E                     	;# 
   172  000F                     	;# 
   173  0010                     	;# 
   174  0011                     	;# 
   175  0012                     	;# 
   176  0013                     	;# 
   177  0014                     	;# 
   178  0015                     	;# 
   179  0015                     	;# 
   180  0016                     	;# 
   181  0017                     	;# 
   182  0018                     	;# 
   183  0019                     	;# 
   184  001A                     	;# 
   185  001B                     	;# 
   186  001B                     	;# 
   187  001C                     	;# 
   188  001D                     	;# 
   189  001E                     	;# 
   190  001F                     	;# 
   191  0081                     	;# 
   192  0085                     	;# 
   193  0086                     	;# 
   194  0087                     	;# 
   195  0088                     	;# 
   196  0089                     	;# 
   197  008C                     	;# 
   198  008D                     	;# 
   199  008E                     	;# 
   200  008F                     	;# 
   201  0090                     	;# 
   202  0091                     	;# 
   203  0092                     	;# 
   204  0093                     	;# 
   205  0093                     	;# 
   206  0093                     	;# 
   207  0094                     	;# 
   208  0095                     	;# 
   209  0096                     	;# 
   210  0097                     	;# 
   211  0098                     	;# 
   212  0099                     	;# 
   213  009A                     	;# 
   214  009B                     	;# 
   215  009C                     	;# 
   216  009D                     	;# 
   217  009E                     	;# 
   218  009F                     	;# 
   219  0105                     	;# 
   220  0107                     	;# 
   221  0108                     	;# 
   222  0109                     	;# 
   223  010C                     	;# 
   224  010C                     	;# 
   225  010D                     	;# 
   226  010E                     	;# 
   227  010F                     	;# 
   228  0185                     	;# 
   229  0187                     	;# 
   230  0188                     	;# 
   231  0189                     	;# 
   232  018C                     	;# 
   233  018D                     	;# 
   234  0000                     	;# 
   235  0001                     	;# 
   236  0002                     	;# 
   237  0003                     	;# 
   238  0004                     	;# 
   239  0005                     	;# 
   240  0006                     	;# 
   241  0007                     	;# 
   242  0008                     	;# 
   243  0009                     	;# 
   244  000A                     	;# 
   245  000B                     	;# 
   246  000C                     	;# 
   247  000D                     	;# 
   248  000E                     	;# 
   249  000E                     	;# 
   250  000F                     	;# 
   251  0010                     	;# 
   252  0011                     	;# 
   253  0012                     	;# 
   254  0013                     	;# 
   255  0014                     	;# 
   256  0015                     	;# 
   257  0015                     	;# 
   258  0016                     	;# 
   259  0017                     	;# 
   260  0018                     	;# 
   261  0019                     	;# 
   262  001A                     	;# 
   263  001B                     	;# 
   264  001B                     	;# 
   265  001C                     	;# 
   266  001D                     	;# 
   267  001E                     	;# 
   268  001F                     	;# 
   269  0081                     	;# 
   270  0085                     	;# 
   271  0086                     	;# 
   272  0087                     	;# 
   273  0088                     	;# 
   274  0089                     	;# 
   275  008C                     	;# 
   276  008D                     	;# 
   277  008E                     	;# 
   278  008F                     	;# 
   279  0090                     	;# 
   280  0091                     	;# 
   281  0092                     	;# 
   282  0093                     	;# 
   283  0093                     	;# 
   284  0093                     	;# 
   285  0094                     	;# 
   286  0095                     	;# 
   287  0096                     	;# 
   288  0097                     	;# 
   289  0098                     	;# 
   290  0099                     	;# 
   291  009A                     	;# 
   292  009B                     	;# 
   293  009C                     	;# 
   294  009D                     	;# 
   295  009E                     	;# 
   296  009F                     	;# 
   297  0105                     	;# 
   298  0107                     	;# 
   299  0108                     	;# 
   300  0109                     	;# 
   301  010C                     	;# 
   302  010C                     	;# 
   303  010D                     	;# 
   304  010E                     	;# 
   305  010F                     	;# 
   306  0185                     	;# 
   307  0187                     	;# 
   308  0188                     	;# 
   309  0189                     	;# 
   310  018C                     	;# 
   311  018D                     	;# 
   312  0000                     	;# 
   313  0001                     	;# 
   314  0002                     	;# 
   315  0003                     	;# 
   316  0004                     	;# 
   317  0005                     	;# 
   318  0006                     	;# 
   319  0007                     	;# 
   320  0008                     	;# 
   321  0009                     	;# 
   322  000A                     	;# 
   323  000B                     	;# 
   324  000C                     	;# 
   325  000D                     	;# 
   326  000E                     	;# 
   327  000E                     	;# 
   328  000F                     	;# 
   329  0010                     	;# 
   330  0011                     	;# 
   331  0012                     	;# 
   332  0013                     	;# 
   333  0014                     	;# 
   334  0015                     	;# 
   335  0015                     	;# 
   336  0016                     	;# 
   337  0017                     	;# 
   338  0018                     	;# 
   339  0019                     	;# 
   340  001A                     	;# 
   341  001B                     	;# 
   342  001B                     	;# 
   343  001C                     	;# 
   344  001D                     	;# 
   345  001E                     	;# 
   346  001F                     	;# 
   347  0081                     	;# 
   348  0085                     	;# 
   349  0086                     	;# 
   350  0087                     	;# 
   351  0088                     	;# 
   352  0089                     	;# 
   353  008C                     	;# 
   354  008D                     	;# 
   355  008E                     	;# 
   356  008F                     	;# 
   357  0090                     	;# 
   358  0091                     	;# 
   359  0092                     	;# 
   360  0093                     	;# 
   361  0093                     	;# 
   362  0093                     	;# 
   363  0094                     	;# 
   364  0095                     	;# 
   365  0096                     	;# 
   366  0097                     	;# 
   367  0098                     	;# 
   368  0099                     	;# 
   369  009A                     	;# 
   370  009B                     	;# 
   371  009C                     	;# 
   372  009D                     	;# 
   373  009E                     	;# 
   374  009F                     	;# 
   375  0105                     	;# 
   376  0107                     	;# 
   377  0108                     	;# 
   378  0109                     	;# 
   379  010C                     	;# 
   380  010C                     	;# 
   381  010D                     	;# 
   382  010E                     	;# 
   383  010F                     	;# 
   384  0185                     	;# 
   385  0187                     	;# 
   386  0188                     	;# 
   387  0189                     	;# 
   388  018C                     	;# 
   389  018D                     	;# 
   390  0000                     	;# 
   391  0001                     	;# 
   392  0002                     	;# 
   393  0003                     	;# 
   394  0004                     	;# 
   395  0005                     	;# 
   396  0006                     	;# 
   397  0007                     	;# 
   398  0008                     	;# 
   399  0009                     	;# 
   400  000A                     	;# 
   401  000B                     	;# 
   402  000C                     	;# 
   403  000D                     	;# 
   404  000E                     	;# 
   405  000E                     	;# 
   406  000F                     	;# 
   407  0010                     	;# 
   408  0011                     	;# 
   409  0012                     	;# 
   410  0013                     	;# 
   411  0014                     	;# 
   412  0015                     	;# 
   413  0015                     	;# 
   414  0016                     	;# 
   415  0017                     	;# 
   416  0018                     	;# 
   417  0019                     	;# 
   418  001A                     	;# 
   419  001B                     	;# 
   420  001B                     	;# 
   421  001C                     	;# 
   422  001D                     	;# 
   423  001E                     	;# 
   424  001F                     	;# 
   425  0081                     	;# 
   426  0085                     	;# 
   427  0086                     	;# 
   428  0087                     	;# 
   429  0088                     	;# 
   430  0089                     	;# 
   431  008C                     	;# 
   432  008D                     	;# 
   433  008E                     	;# 
   434  008F                     	;# 
   435  0090                     	;# 
   436  0091                     	;# 
   437  0092                     	;# 
   438  0093                     	;# 
   439  0093                     	;# 
   440  0093                     	;# 
   441  0094                     	;# 
   442  0095                     	;# 
   443  0096                     	;# 
   444  0097                     	;# 
   445  0098                     	;# 
   446  0099                     	;# 
   447  009A                     	;# 
   448  009B                     	;# 
   449  009C                     	;# 
   450  009D                     	;# 
   451  009E                     	;# 
   452  009F                     	;# 
   453  0105                     	;# 
   454  0107                     	;# 
   455  0108                     	;# 
   456  0109                     	;# 
   457  010C                     	;# 
   458  010C                     	;# 
   459  010D                     	;# 
   460  010E                     	;# 
   461  010F                     	;# 
   462  0185                     	;# 
   463  0187                     	;# 
   464  0188                     	;# 
   465  0189                     	;# 
   466  018C                     	;# 
   467  018D                     	;# 
   468                           
   469                           	psect	idataBANK1
   470  1406                     __pidataBANK1:
   471                           
   472                           ;initializer for _tabla
   473  1406  343F               	retlw	63
   474  1407  3406               	retlw	6
   475  1408  345B               	retlw	91
   476  1409  344F               	retlw	79
   477  140A  3466               	retlw	102
   478  140B  346D               	retlw	109
   479  140C  347D               	retlw	125
   480  140D  3407               	retlw	7
   481  140E  347F               	retlw	127
   482  140F  3467               	retlw	103
   483  1410  3477               	retlw	119
   484  1411  347C               	retlw	124
   485  1412  3439               	retlw	57
   486  1413  345E               	retlw	94
   487  1414  3479               	retlw	121
   488  1415  3471               	retlw	113
   489                           
   490                           	psect	strings
   491  1000                     __pstrings:
   492  1000                     stringtab:
   493  1000                     __stringtab:
   494                           
   495                           ;	String table - string pointers are 1 byte each
   496  1000  1BFF               	btfsc	btemp+1,7
   497  1001  280A               	ljmp	stringcode
   498  1002  1383               	bcf	3,7
   499  1003  187F               	btfsc	btemp+1,0
   500  1004  1783               	bsf	3,7
   501  1005  0800               	movf	0,w
   502  1006  0A84               	incf	4,f
   503  1007  1903               	skipnz
   504  1008  0AFF               	incf	btemp+1,f
   505  1009  0008               	return
   506  100A                     stringcode:
   507  100A                     stringdir:
   508  100A  3010               	movlw	high stringdir
   509  100B  008A               	movwf	10
   510  100C  0804               	movf	4,w
   511  100D  0A84               	incf	4,f
   512  100E  0782               	addwf	2,f
   513  100F                     __stringbase:
   514  100F  3400               	retlw	0
   515  1010                     __end_of__stringtab:
   516  1010                     _dpowers:
   517  1010  3401               	retlw	1
   518  1011  3400               	retlw	0
   519  1012  340A               	retlw	10
   520  1013  3400               	retlw	0
   521  1014  3464               	retlw	100
   522  1015  3400               	retlw	0
   523  1016  34E8               	retlw	232
   524  1017  3403               	retlw	3
   525  1018  3410               	retlw	16
   526  1019  3427               	retlw	39
   527  101A                     __end_of_dpowers:
   528  0006                     _PORTB	set	6
   529  0005                     _PORTA	set	5
   530  0006                     _PORTBbits	set	6
   531  000B                     _INTCONbits	set	11
   532  000C                     _PIR1bits	set	12
   533  001F                     _ADCON0bits	set	31
   534  001A                     _RCREG	set	26
   535  0019                     _TXREG	set	25
   536  0018                     _RCSTAbits	set	24
   537  0064                     _TXIF	set	100
   538  0065                     _RCIF	set	101
   539  0096                     _IOCBbits	set	150
   540  0086                     _TRISB	set	134
   541  0085                     _TRISA	set	133
   542  009F                     _ADCON1bits	set	159
   543  008C                     _PIE1bits	set	140
   544  009A                     _SPBRGH	set	154
   545  0099                     _SPBRG	set	153
   546  0098                     _TXSTAbits	set	152
   547  0081                     _OPTION_REGbits	set	129
   548  008F                     _OSCCONbits	set	143
   549  0189                     _ANSELH	set	393
   550  0188                     _ANSEL	set	392
   551  0189                     _ANSELHbits	set	393
   552  0188                     _ANSELbits	set	392
   553  0187                     _BAUDCTLbits	set	391
   554  101A                     STR_3:
   555  101A  3449               	retlw	73	;'I'
   556  101B  346E               	retlw	110	;'n'
   557  101C  3467               	retlw	103	;'g'
   558  101D  3472               	retlw	114	;'r'
   559  101E  3465               	retlw	101	;'e'
   560  101F  3473               	retlw	115	;'s'
   561  1020  3461               	retlw	97	;'a'
   562  1021  3472               	retlw	114	;'r'
   563  1022  3420               	retlw	32	;' '
   564  1023  3443               	retlw	67	;'C'
   565  1024  3465               	retlw	101	;'e'
   566  1025  346E               	retlw	110	;'n'
   567  1026  3474               	retlw	116	;'t'
   568  1027  3465               	retlw	101	;'e'
   569  1028  346E               	retlw	110	;'n'
   570  1029  3461               	retlw	97	;'a'
   571  102A  343A               	retlw	58	;':'
   572  102B  3420               	retlw	32	;' '
   573  102C  3452               	retlw	82	;'R'
   574  102D  3461               	retlw	97	;'a'
   575  102E  346E               	retlw	110	;'n'
   576  102F  3467               	retlw	103	;'g'
   577  1030  346F               	retlw	111	;'o'
   578  1031  3428               	retlw	40	;'('
   579  1032  3430               	retlw	48	;'0'
   580  1033  342D               	retlw	45	;'-'
   581  1034  3432               	retlw	50	;'2'
   582  1035  3429               	retlw	41	;')'
   583  1036  340D               	retlw	13
   584  1037  3400               	retlw	0
   585  1038                     STR_6:
   586  1038  3445               	retlw	69	;'E'
   587  1039  346C               	retlw	108	;'l'
   588  103A  3420               	retlw	32	;' '
   589  103B  346E               	retlw	110	;'n'
   590  103C  3475               	retlw	117	;'u'
   591  103D  346D               	retlw	109	;'m'
   592  103E  3465               	retlw	101	;'e'
   593  103F  3472               	retlw	114	;'r'
   594  1040  346F               	retlw	111	;'o'
   595  1041  3420               	retlw	32	;' '
   596  1042  3465               	retlw	101	;'e'
   597  1043  346C               	retlw	108	;'l'
   598  1044  3465               	retlw	101	;'e'
   599  1045  3467               	retlw	103	;'g'
   600  1046  3469               	retlw	105	;'i'
   601  1047  3464               	retlw	100	;'d'
   602  1048  346F               	retlw	111	;'o'
   603  1049  3420               	retlw	32	;' '
   604  104A  3465               	retlw	101	;'e'
   605  104B  3473               	retlw	115	;'s'
   606  104C  343A               	retlw	58	;':'
   607  104D  3420               	retlw	32	;' '
   608  104E  3425               	retlw	37	;'%'
   609  104F  3464               	retlw	100	;'d'
   610  1050  3400               	retlw	0
   611  1051                     STR_1:
   612  1051  340D               	retlw	13
   613  1052  3420               	retlw	32	;' '
   614  1053  3476               	retlw	118	;'v'
   615  1054  3461               	retlw	97	;'a'
   616  1055  346C               	retlw	108	;'l'
   617  1056  346F               	retlw	111	;'o'
   618  1057  3472               	retlw	114	;'r'
   619  1058  3420               	retlw	32	;' '
   620  1059  3464               	retlw	100	;'d'
   621  105A  3465               	retlw	101	;'e'
   622  105B  346C               	retlw	108	;'l'
   623  105C  3420               	retlw	32	;' '
   624  105D  3463               	retlw	99	;'c'
   625  105E  346F               	retlw	111	;'o'
   626  105F  346E               	retlw	110	;'n'
   627  1060  3474               	retlw	116	;'t'
   628  1061  3461               	retlw	97	;'a'
   629  1062  3464               	retlw	100	;'d'
   630  1063  346F               	retlw	111	;'o'
   631  1064  3472               	retlw	114	;'r'
   632  1065  343A               	retlw	58	;':'
   633  1066  3420               	retlw	32	;' '
   634  1067  340D               	retlw	13
   635  1068  3400               	retlw	0
   636  1069                     STR_5:
   637  1069  3449               	retlw	73	;'I'
   638  106A  346E               	retlw	110	;'n'
   639  106B  3467               	retlw	103	;'g'
   640  106C  3472               	retlw	114	;'r'
   641  106D  3465               	retlw	101	;'e'
   642  106E  3473               	retlw	115	;'s'
   643  106F  3461               	retlw	97	;'a'
   644  1070  3472               	retlw	114	;'r'
   645  1071  3420               	retlw	32	;' '
   646  1072  3455               	retlw	85	;'U'
   647  1073  346E               	retlw	110	;'n'
   648  1074  3469               	retlw	105	;'i'
   649  1075  3464               	retlw	100	;'d'
   650  1076  3461               	retlw	97	;'a'
   651  1077  3464               	retlw	100	;'d'
   652  1078  3465               	retlw	101	;'e'
   653  1079  3473               	retlw	115	;'s'
   654  107A  343A               	retlw	58	;':'
   655  107B  3420               	retlw	32	;' '
   656  107C  340D               	retlw	13
   657  107D  3400               	retlw	0
   658  107E                     STR_4:
   659  107E  3449               	retlw	73	;'I'
   660  107F  346E               	retlw	110	;'n'
   661  1080  3467               	retlw	103	;'g'
   662  1081  3472               	retlw	114	;'r'
   663  1082  3465               	retlw	101	;'e'
   664  1083  3473               	retlw	115	;'s'
   665  1084  3461               	retlw	97	;'a'
   666  1085  3472               	retlw	114	;'r'
   667  1086  3420               	retlw	32	;' '
   668  1087  3444               	retlw	68	;'D'
   669  1088  3465               	retlw	101	;'e'
   670  1089  3463               	retlw	99	;'c'
   671  108A  3465               	retlw	101	;'e'
   672  108B  346E               	retlw	110	;'n'
   673  108C  3461               	retlw	97	;'a'
   674  108D  3473               	retlw	115	;'s'
   675  108E  343A               	retlw	58	;':'
   676  108F  3420               	retlw	32	;' '
   677  1090  340D               	retlw	13
   678  1091  3400               	retlw	0
   679  1092                     STR_2:
   680  1092  340D               	retlw	13
   681  1093  342D               	retlw	45	;'-'
   682  1094  342D               	retlw	45	;'-'
   683  1095  342D               	retlw	45	;'-'
   684  1096  342D               	retlw	45	;'-'
   685  1097  342D               	retlw	45	;'-'
   686  1098  342D               	retlw	45	;'-'
   687  1099  342D               	retlw	45	;'-'
   688  109A  342D               	retlw	45	;'-'
   689  109B  342D               	retlw	45	;'-'
   690  109C  342D               	retlw	45	;'-'
   691  109D  342D               	retlw	45	;'-'
   692  109E  342D               	retlw	45	;'-'
   693  109F  342D               	retlw	45	;'-'
   694  10A0  342D               	retlw	45	;'-'
   695  10A1  342D               	retlw	45	;'-'
   696  10A2  340D               	retlw	13
   697  10A3  3400               	retlw	0
   698  104E                     
   699                           	psect	cinit
   700  000F                     start_initialization:	
   701                           ; #config settings
   702                           
   703  000F                     __initialization:
   704                           
   705                           ; Initialize objects allocated to BANK1
   706  000F  1383               	bcf	3,7	;select IRP bank0
   707  0010  30C7               	movlw	low (__pdataBANK1+16)
   708  0011  00FD               	movwf	btemp+-1
   709  0012  3014               	movlw	high __pidataBANK1
   710  0013  00FE               	movwf	btemp
   711  0014  3006               	movlw	low __pidataBANK1
   712  0015  00FF               	movwf	btemp+1
   713  0016  30B7               	movlw	low __pdataBANK1
   714  0017  0084               	movwf	4
   715  0018  160A  118A  242C  120A  118A  	fcall	init_ram0
   716                           
   717                           ; Clear objects allocated to BANK1
   718  001D  1683               	bsf	3,5	;RP0=1, select bank1
   719  001E  1303               	bcf	3,6	;RP1=0, select bank1
   720  001F  01C7               	clrf	__pbssBANK1& (0+127)
   721  0020  01C8               	clrf	(__pbssBANK1+1)& (0+127)
   722  0021  01C9               	clrf	(__pbssBANK1+2)& (0+127)
   723  0022  01CA               	clrf	(__pbssBANK1+3)& (0+127)
   724  0023  01CB               	clrf	(__pbssBANK1+4)& (0+127)
   725  0024  01CC               	clrf	(__pbssBANK1+5)& (0+127)
   726  0025  01CD               	clrf	(__pbssBANK1+6)& (0+127)
   727  0026  01CE               	clrf	(__pbssBANK1+7)& (0+127)
   728  0027  01CF               	clrf	(__pbssBANK1+8)& (0+127)
   729  0028  01D0               	clrf	(__pbssBANK1+9)& (0+127)
   730  0029  01D1               	clrf	(__pbssBANK1+10)& (0+127)
   731  002A  01D2               	clrf	(__pbssBANK1+11)& (0+127)
   732  002B  01D3               	clrf	(__pbssBANK1+12)& (0+127)
   733  002C  01D4               	clrf	(__pbssBANK1+13)& (0+127)
   734                           
   735                           ; Clear objects allocated to COMMON
   736  002D  01F8               	clrf	__pbssCOMMON& (0+127)
   737  002E  01F9               	clrf	(__pbssCOMMON+1)& (0+127)
   738  002F  01FA               	clrf	(__pbssCOMMON+2)& (0+127)
   739  0030                     end_of_initialization:	
   740                           ;End of C runtime variable initialization code
   741                           
   742  0030                     __end_of__initialization:
   743  0030  0183               	clrf	3
   744  0031  160A  118A  2DEE   	ljmp	_main	;jump to C main() function
   745                           
   746                           	psect	bssCOMMON
   747  0078                     __pbssCOMMON:
   748  0078                     _centena:
   749  0078                     	ds	1
   750  0079                     _decena:
   751  0079                     	ds	1
   752  007A                     _unidad:
   753  007A                     	ds	1
   754                           
   755                           	psect	bssBANK1
   756  00C7                     __pbssBANK1:
   757  00C7                     _full:
   758  00C7                     	ds	2
   759  00C9                     _concatenado:
   760  00C9                     	ds	1
   761  00CA                     _contador:
   762  00CA                     	ds	1
   763  00CB                     _contador_string:
   764  00CB                     	ds	10
   765                           
   766                           	psect	dataBANK1
   767  00B7                     __pdataBANK1:
   768  00B7                     _tabla:
   769  00B7                     	ds	16
   770                           
   771                           	psect	inittext
   772  1428                     init_fetch0:	
   773                           ;	Called with low address in FSR and high address in W
   774                           
   775  1428  087E               	movf	btemp,w
   776  1429  008A               	movwf	10
   777  142A  087F               	movf	btemp+1,w
   778  142B  0082               	movwf	2
   779  142C                     init_ram0:	
   780                           ;Called with:
   781                           ;	high address of idata address in btemp 
   782                           ;	low address of idata address in btemp+1 
   783                           ;	low address of data in FSR
   784                           ;	high address + 1 of data in btemp-1
   785                           
   786  142C  160A  118A  2428  160A  118A  	fcall	init_fetch0
   787  1431  0080               	movwf	0
   788  1432  0A84               	incf	4,f
   789  1433  0804               	movf	4,w
   790  1434  067D               	xorwf	btemp+-1,w
   791  1435  1903               	btfsc	3,2
   792  1436  3400               	retlw	0
   793  1437  0AFF               	incf	btemp+1,f
   794  1438  1903               	btfsc	3,2
   795  1439  0AFE               	incf	btemp,f
   796  143A  2C2C               	goto	init_ram0
   797                           
   798                           	psect	cstackBANK1
   799  00A0                     __pcstackBANK1:
   800  00A0                     ??_mensaje:
   801  00A0                     convert@temp:	
   802                           ; 1 bytes @ 0x0
   803                           
   804                           
   805                           ; 2 bytes @ 0x0
   806  00A0                     	ds	2
   807  00A2                     convert@j:
   808                           
   809                           ; 2 bytes @ 0x2
   810  00A2                     	ds	2
   811  00A4                     convert@data:
   812                           
   813                           ; 1 bytes @ 0x4
   814  00A4                     	ds	1
   815  00A5                     convert@x:
   816                           
   817                           ; 4 bytes @ 0x5
   818  00A5                     	ds	4
   819  00A9                     convert@i:
   820                           
   821                           ; 2 bytes @ 0x9
   822  00A9                     	ds	2
   823  00AB                     convert@digits:
   824                           
   825                           ; 2 bytes @ 0xB
   826  00AB                     	ds	2
   827  00AD                     convert@mu:
   828                           
   829                           ; 2 bytes @ 0xD
   830  00AD                     	ds	2
   831  00AF                     ??_main:
   832                           
   833                           ; 1 bytes @ 0xF
   834  00AF                     	ds	4
   835  00B3                     _main$1413:
   836                           
   837                           ; 4 bytes @ 0x13
   838  00B3                     	ds	4
   839                           
   840                           	psect	cstackCOMMON
   841  0070                     __pcstackCOMMON:
   842  0070                     ?_isdigit:
   843  0070                     ?_setup:	
   844                           ; 1 bit 
   845                           
   846  0070                     ?_mensaje:	
   847                           ; 1 bytes @ 0x0
   848                           
   849  0070                     ?_isr:	
   850                           ; 1 bytes @ 0x0
   851                           
   852  0070                     ??_isr:	
   853                           ; 1 bytes @ 0x0
   854                           
   855  0070                     ?_main:	
   856                           ; 1 bytes @ 0x0
   857                           
   858                           
   859                           ; 1 bytes @ 0x0
   860  0070                     	ds	3
   861  0073                     ??_setup:
   862  0073                     ?_strcat:	
   863                           ; 1 bytes @ 0x3
   864                           
   865  0073                     ??_isdigit:	
   866                           ; 1 bytes @ 0x3
   867                           
   868  0073                     ?_putch:	
   869                           ; 1 bytes @ 0x3
   870                           
   871  0073                     ??___flge:	
   872                           ; 1 bytes @ 0x3
   873                           
   874  0073                     ?__Umul8_16:	
   875                           ; 1 bytes @ 0x3
   876                           
   877  0073                     ?___awdiv:	
   878                           ; 2 bytes @ 0x3
   879                           
   880  0073                     ?___lwdiv:	
   881                           ; 2 bytes @ 0x3
   882                           
   883  0073                     ?___fltol:	
   884                           ; 2 bytes @ 0x3
   885                           
   886  0073                     putch@dato:	
   887                           ; 4 bytes @ 0x3
   888                           
   889  0073                     ___fladd@signs:	
   890                           ; 1 bytes @ 0x3
   891                           
   892  0073                     __Umul8_16@multiplicand:	
   893                           ; 1 bytes @ 0x3
   894                           
   895  0073                     _isdigit$1129:	
   896                           ; 1 bytes @ 0x3
   897                           
   898  0073                     strcat@from:	
   899                           ; 1 bytes @ 0x3
   900                           
   901  0073                     ___awdiv@divisor:	
   902                           ; 1 bytes @ 0x3
   903                           
   904  0073                     ___lwdiv@divisor:	
   905                           ; 2 bytes @ 0x3
   906                           
   907  0073                     ___fltol@f1:	
   908                           ; 2 bytes @ 0x3
   909                           
   910                           
   911                           ; 4 bytes @ 0x3
   912  0073                     	ds	1
   913  0074                     ??_strcat:
   914  0074                     ??_putch:	
   915                           ; 1 bytes @ 0x4
   916                           
   917  0074                     ___fladd@aexp:	
   918                           ; 1 bytes @ 0x4
   919                           
   920  0074                     isdigit@c:	
   921                           ; 1 bytes @ 0x4
   922                           
   923                           
   924                           ; 1 bytes @ 0x4
   925  0074                     	ds	1
   926  0075                     ??__Umul8_16:
   927  0075                     ___fladd@bexp:	
   928                           ; 1 bytes @ 0x5
   929                           
   930  0075                     strcat@to:	
   931                           ; 1 bytes @ 0x5
   932                           
   933  0075                     ___awdiv@dividend:	
   934                           ; 1 bytes @ 0x5
   935                           
   936  0075                     ___lwdiv@dividend:	
   937                           ; 2 bytes @ 0x5
   938                           
   939                           
   940                           ; 2 bytes @ 0x5
   941  0075                     	ds	1
   942  0076                     ___fladd@grs:
   943  0076                     strcat@cp:	
   944                           ; 1 bytes @ 0x6
   945                           
   946                           
   947                           ; 1 bytes @ 0x6
   948  0076                     	ds	1
   949  0077                     ??___wmul:
   950  0077                     ??___awdiv:	
   951                           ; 1 bytes @ 0x7
   952                           
   953  0077                     ??___lwdiv:	
   954                           ; 1 bytes @ 0x7
   955                           
   956  0077                     ??___flsub:	
   957                           ; 1 bytes @ 0x7
   958                           
   959                           
   960                           ; 1 bytes @ 0x7
   961  0077                     	ds	1
   962                           
   963                           	psect	cstackBANK0
   964  0020                     __pcstackBANK0:
   965  0020                     ?___flge:
   966  0020                     ??___fltol:	
   967                           ; 1 bit 
   968                           
   969  0020                     ?___fladd:	
   970                           ; 1 bytes @ 0x0
   971                           
   972  0020                     ___awdiv@counter:	
   973                           ; 4 bytes @ 0x0
   974                           
   975  0020                     ___lwdiv@counter:	
   976                           ; 1 bytes @ 0x0
   977                           
   978  0020                     __Umul8_16@product:	
   979                           ; 1 bytes @ 0x0
   980                           
   981  0020                     ___flge@ff1:	
   982                           ; 2 bytes @ 0x0
   983                           
   984  0020                     ___fladd@b:	
   985                           ; 4 bytes @ 0x0
   986                           
   987                           
   988                           ; 4 bytes @ 0x0
   989  0020                     	ds	1
   990  0021                     ___awdiv@sign:
   991  0021                     ___lwdiv@quotient:	
   992                           ; 1 bytes @ 0x1
   993                           
   994                           
   995                           ; 2 bytes @ 0x1
   996  0021                     	ds	1
   997  0022                     ___awdiv@quotient:
   998  0022                     __Umul8_16@word_mpld:	
   999                           ; 2 bytes @ 0x2
  1000                           
  1001                           
  1002                           ; 2 bytes @ 0x2
  1003  0022                     	ds	1
  1004  0023                     ?___lwmod:
  1005  0023                     ___lwmod@divisor:	
  1006                           ; 2 bytes @ 0x3
  1007                           
  1008                           
  1009                           ; 2 bytes @ 0x3
  1010  0023                     	ds	1
  1011  0024                     __Umul8_16@multiplier:
  1012  0024                     ___flge@ff2:	
  1013                           ; 1 bytes @ 0x4
  1014                           
  1015  0024                     ___fladd@a:	
  1016                           ; 4 bytes @ 0x4
  1017                           
  1018                           
  1019                           ; 4 bytes @ 0x4
  1020  0024                     	ds	1
  1021  0025                     ___fltol@sign1:
  1022  0025                     ___lwmod@dividend:	
  1023                           ; 1 bytes @ 0x5
  1024                           
  1025                           
  1026                           ; 2 bytes @ 0x5
  1027  0025                     	ds	1
  1028  0026                     ___fltol@exp1:
  1029                           
  1030                           ; 1 bytes @ 0x6
  1031  0026                     	ds	1
  1032  0027                     ??___lwmod:
  1033  0027                     ?___wmul:	
  1034                           ; 1 bytes @ 0x7
  1035                           
  1036  0027                     ___wmul@multiplier:	
  1037                           ; 2 bytes @ 0x7
  1038                           
  1039                           
  1040                           ; 2 bytes @ 0x7
  1041  0027                     	ds	1
  1042  0028                     ??___fladd:
  1043  0028                     ___lwmod@counter:	
  1044                           ; 1 bytes @ 0x8
  1045                           
  1046                           
  1047                           ; 1 bytes @ 0x8
  1048  0028                     	ds	1
  1049  0029                     ?__doprnt:
  1050  0029                     ___wmul@multiplicand:	
  1051                           ; 2 bytes @ 0x9
  1052                           
  1053  0029                     __doprnt@f:	
  1054                           ; 2 bytes @ 0x9
  1055                           
  1056                           
  1057                           ; 2 bytes @ 0x9
  1058  0029                     	ds	2
  1059  002B                     __doprnt@ap:
  1060  002B                     ___wmul@product:	
  1061                           ; 1 bytes @ 0xB
  1062                           
  1063                           
  1064                           ; 2 bytes @ 0xB
  1065  002B                     	ds	1
  1066  002C                     ??__doprnt:
  1067                           
  1068                           ; 1 bytes @ 0xC
  1069  002C                     	ds	1
  1070  002D                     ?_atoi:
  1071  002D                     ?___xxtofl:	
  1072                           ; 2 bytes @ 0xD
  1073                           
  1074  002D                     ___xxtofl@val:	
  1075                           ; 4 bytes @ 0xD
  1076                           
  1077                           
  1078                           ; 4 bytes @ 0xD
  1079  002D                     	ds	2
  1080  002F                     ??_atoi:
  1081                           
  1082                           ; 1 bytes @ 0xF
  1083  002F                     	ds	1
  1084  0030                     __doprnt@flag:
  1085                           
  1086                           ; 1 bytes @ 0x10
  1087  0030                     	ds	1
  1088  0031                     ??___xxtofl:
  1089  0031                     atoi@sign:	
  1090                           ; 1 bytes @ 0x11
  1091                           
  1092  0031                     __doprnt@prec:	
  1093                           ; 1 bytes @ 0x11
  1094                           
  1095                           
  1096                           ; 1 bytes @ 0x11
  1097  0031                     	ds	1
  1098  0032                     atoi@a:
  1099  0032                     __doprnt@val:	
  1100                           ; 2 bytes @ 0x12
  1101                           
  1102                           
  1103                           ; 2 bytes @ 0x12
  1104  0032                     	ds	2
  1105  0034                     atoi@s:
  1106  0034                     __doprnt@c:	
  1107                           ; 1 bytes @ 0x14
  1108                           
  1109                           
  1110                           ; 1 bytes @ 0x14
  1111  0034                     	ds	1
  1112  0035                     ___xxtofl@sign:
  1113  0035                     __doprnt@pb:	
  1114                           ; 1 bytes @ 0x15
  1115                           
  1116                           
  1117                           ; 1 bytes @ 0x15
  1118  0035                     	ds	1
  1119  0036                     ?_printf:
  1120  0036                     ?_sprintf:	
  1121                           ; 2 bytes @ 0x16
  1122                           
  1123  0036                     ___xxtofl@exp:	
  1124                           ; 2 bytes @ 0x16
  1125                           
  1126  0036                     sprintf@f:	
  1127                           ; 1 bytes @ 0x16
  1128                           
  1129  0036                     printf@f:	
  1130                           ; 1 bytes @ 0x16
  1131                           
  1132                           
  1133                           ; 2 bytes @ 0x16
  1134  0036                     	ds	1
  1135  0037                     ___xxtofl@arg:
  1136                           
  1137                           ; 4 bytes @ 0x17
  1138  0037                     	ds	2
  1139  0039                     ??_sprintf:
  1140                           
  1141                           ; 1 bytes @ 0x19
  1142  0039                     	ds	1
  1143  003A                     ??_printf:
  1144  003A                     sprintf@wh:	
  1145                           ; 1 bytes @ 0x1A
  1146                           
  1147                           
  1148                           ; 1 bytes @ 0x1A
  1149  003A                     	ds	1
  1150  003B                     ?___flsub:
  1151  003B                     ?___fldiv:	
  1152                           ; 4 bytes @ 0x1B
  1153                           
  1154  003B                     printf@ap:	
  1155                           ; 4 bytes @ 0x1B
  1156                           
  1157  003B                     sprintf@ap:	
  1158                           ; 1 bytes @ 0x1B
  1159                           
  1160  003B                     ___flsub@a:	
  1161                           ; 1 bytes @ 0x1B
  1162                           
  1163  003B                     ___fldiv@a:	
  1164                           ; 4 bytes @ 0x1B
  1165                           
  1166                           
  1167                           ; 4 bytes @ 0x1B
  1168  003B                     	ds	1
  1169  003C                     printf@pb:
  1170  003C                     sprintf@pb:	
  1171                           ; 2 bytes @ 0x1C
  1172                           
  1173                           
  1174                           ; 2 bytes @ 0x1C
  1175  003C                     	ds	2
  1176  003E                     ?_concatenar:
  1177  003E                     concatenar@a:	
  1178                           ; 2 bytes @ 0x1E
  1179                           
  1180                           
  1181                           ; 2 bytes @ 0x1E
  1182  003E                     	ds	1
  1183  003F                     ___flsub@b:
  1184  003F                     ___fldiv@b:	
  1185                           ; 4 bytes @ 0x1F
  1186                           
  1187                           
  1188                           ; 4 bytes @ 0x1F
  1189  003F                     	ds	1
  1190  0040                     concatenar@b:
  1191                           
  1192                           ; 2 bytes @ 0x20
  1193  0040                     	ds	2
  1194  0042                     ??_concatenar:
  1195                           
  1196                           ; 1 bytes @ 0x22
  1197  0042                     	ds	1
  1198  0043                     ??___fldiv:
  1199  0043                     ?___flmul:	
  1200                           ; 1 bytes @ 0x23
  1201                           
  1202  0043                     ___flmul@b:	
  1203                           ; 4 bytes @ 0x23
  1204                           
  1205  0043                     concatenar@s2:	
  1206                           ; 4 bytes @ 0x23
  1207                           
  1208                           
  1209                           ; 20 bytes @ 0x23
  1210  0043                     	ds	4
  1211  0047                     ___flmul@a:
  1212                           
  1213                           ; 4 bytes @ 0x27
  1214  0047                     	ds	1
  1215  0048                     ___fldiv@rem:
  1216                           
  1217                           ; 4 bytes @ 0x28
  1218  0048                     	ds	3
  1219  004B                     ??___flmul:
  1220                           
  1221                           ; 1 bytes @ 0x2B
  1222  004B                     	ds	1
  1223  004C                     ___fldiv@sign:
  1224                           
  1225                           ; 1 bytes @ 0x2C
  1226  004C                     	ds	1
  1227  004D                     ___fldiv@new_exp:
  1228                           
  1229                           ; 2 bytes @ 0x2D
  1230  004D                     	ds	2
  1231  004F                     ___fldiv@grs:
  1232                           
  1233                           ; 4 bytes @ 0x2F
  1234  004F                     	ds	1
  1235  0050                     ___flmul@sign:
  1236                           
  1237                           ; 1 bytes @ 0x30
  1238  0050                     	ds	1
  1239  0051                     ___flmul@aexp:
  1240                           
  1241                           ; 1 bytes @ 0x31
  1242  0051                     	ds	1
  1243  0052                     ___flmul@grs:
  1244                           
  1245                           ; 4 bytes @ 0x32
  1246  0052                     	ds	1
  1247  0053                     ___fldiv@bexp:
  1248                           
  1249                           ; 1 bytes @ 0x33
  1250  0053                     	ds	1
  1251  0054                     ___fldiv@aexp:
  1252                           
  1253                           ; 1 bytes @ 0x34
  1254  0054                     	ds	2
  1255  0056                     ___flmul@bexp:
  1256                           
  1257                           ; 1 bytes @ 0x36
  1258  0056                     	ds	1
  1259  0057                     ___flmul@prod:
  1260  0057                     concatenar@s1:	
  1261                           ; 4 bytes @ 0x37
  1262                           
  1263                           
  1264                           ; 20 bytes @ 0x37
  1265  0057                     	ds	4
  1266  005B                     ___flmul@temp:
  1267                           
  1268                           ; 2 bytes @ 0x3B
  1269  005B                     	ds	2
  1270  005D                     ?_convert:
  1271  005D                     convert@a:	
  1272                           ; 1 bytes @ 0x3D
  1273                           
  1274                           
  1275                           ; 4 bytes @ 0x3D
  1276  005D                     	ds	4
  1277  0061                     convert@place:
  1278                           
  1279                           ; 2 bytes @ 0x41
  1280  0061                     	ds	2
  1281  0063                     ??_convert:
  1282                           
  1283                           ; 1 bytes @ 0x43
  1284  0063                     	ds	8
  1285  006B                     concatenar@c:
  1286                           
  1287                           ; 2 bytes @ 0x4B
  1288  006B                     	ds	2
  1289                           
  1290                           	psect	maintext
  1291  15EE                     __pmaintext:	
  1292 ;;
  1293 ;;Main: autosize = 0, tempsize = 4, incstack = 0, save=0
  1294 ;;
  1295 ;; *************** function _main *****************
  1296 ;; Defined at:
  1297 ;;		line 199 in file "Lab05.c"
  1298 ;; Parameters:    Size  Location     Type
  1299 ;;		None
  1300 ;; Auto vars:     Size  Location     Type
  1301 ;;		None
  1302 ;; Return value:  Size  Location     Type
  1303 ;;                  1    wreg      void 
  1304 ;; Registers used:
  1305 ;;		wreg, fsr0l, fsr0h, status,2, status,0, btemp+1, pclath, cstack
  1306 ;; Tracked objects:
  1307 ;;		On entry : B00/0
  1308 ;;		On exit  : 0/0
  1309 ;;		Unchanged: 0/0
  1310 ;; Data sizes:     COMMON   BANK0   BANK1   BANK3   BANK2
  1311 ;;      Params:         0       0       0       0       0
  1312 ;;      Locals:         0       0       4       0       0
  1313 ;;      Temps:          0       0       4       0       0
  1314 ;;      Totals:         0       0       8       0       0
  1315 ;;Total ram usage:        8 bytes
  1316 ;; Hardware stack levels required when called:    6
  1317 ;; This function calls:
  1318 ;;		___xxtofl
  1319 ;;		_convert
  1320 ;;		_mensaje
  1321 ;;		_setup
  1322 ;; This function is called by:
  1323 ;;		Startup code after reset
  1324 ;; This function uses a non-reentrant model
  1325 ;;
  1326                           
  1327                           
  1328                           ;psect for function _main
  1329  15EE                     _main:
  1330  15EE                     l4329:	
  1331                           ;incstack = 0
  1332                           ; Regs used in _main: [wreg-fsr0h+status,2+status,0+btemp+1+pclath+cstack]
  1333                           
  1334                           
  1335                           ;Lab05.c: 200:      setup();
  1336  15EE  160A  118A  2540  160A  118A  	fcall	_setup
  1337  15F3                     l4331:
  1338                           
  1339                           ;Lab05.c: 202:          mensaje();
  1340  15F3  120A  158A  2100  160A  118A  	fcall	_mensaje
  1341  15F8                     l4333:
  1342                           
  1343                           ;Lab05.c: 203:          PORTA = full;
  1344  15F8  1683               	bsf	3,5	;RP0=1, select bank1
  1345  15F9  1303               	bcf	3,6	;RP1=0, select bank1
  1346  15FA  0847               	movf	_full^(0+128),w
  1347  15FB  1283               	bcf	3,5	;RP0=0, select bank0
  1348  15FC  1303               	bcf	3,6	;RP1=0, select bank0
  1349  15FD  0085               	movwf	5	;volatile
  1350  15FE                     l4335:
  1351                           
  1352                           ;Lab05.c: 204:          convert (contador_string, contador, 2);
  1353  15FE  1683               	bsf	3,5	;RP0=1, select bank1
  1354  15FF  1303               	bcf	3,6	;RP1=0, select bank1
  1355  1600  084A               	movf	_contador^(0+128),w
  1356  1601  00AF               	movwf	??_main^(0+128)
  1357  1602  01B0               	clrf	(??_main^(0+128)+1)
  1358  1603  01B1               	clrf	(??_main^(0+128)+2)
  1359  1604  01B2               	clrf	(??_main^(0+128)+3)
  1360  1605  0832               	movf	(??_main+3)^(0+128),w
  1361  1606  1283               	bcf	3,5	;RP0=0, select bank0
  1362  1607  1303               	bcf	3,6	;RP1=0, select bank0
  1363  1608  00B0               	movwf	___xxtofl@val+3
  1364  1609  1683               	bsf	3,5	;RP0=1, select bank1
  1365  160A  1303               	bcf	3,6	;RP1=0, select bank1
  1366  160B  0831               	movf	(??_main+2)^(0+128),w
  1367  160C  1283               	bcf	3,5	;RP0=0, select bank0
  1368  160D  1303               	bcf	3,6	;RP1=0, select bank0
  1369  160E  00AF               	movwf	___xxtofl@val+2
  1370  160F  1683               	bsf	3,5	;RP0=1, select bank1
  1371  1610  1303               	bcf	3,6	;RP1=0, select bank1
  1372  1611  0830               	movf	(??_main+1)^(0+128),w
  1373  1612  1283               	bcf	3,5	;RP0=0, select bank0
  1374  1613  1303               	bcf	3,6	;RP1=0, select bank0
  1375  1614  00AE               	movwf	___xxtofl@val+1
  1376  1615  1683               	bsf	3,5	;RP0=1, select bank1
  1377  1616  1303               	bcf	3,6	;RP1=0, select bank1
  1378  1617  082F               	movf	??_main^(0+128),w
  1379  1618  1283               	bcf	3,5	;RP0=0, select bank0
  1380  1619  1303               	bcf	3,6	;RP1=0, select bank0
  1381  161A  00AD               	movwf	___xxtofl@val
  1382  161B  3000               	movlw	0
  1383  161C  120A  158A  2044  160A  118A  	fcall	___xxtofl
  1384  1621  1283               	bcf	3,5	;RP0=0, select bank0
  1385  1622  1303               	bcf	3,6	;RP1=0, select bank0
  1386  1623  0830               	movf	?___xxtofl+3,w
  1387  1624  1683               	bsf	3,5	;RP0=1, select bank1
  1388  1625  1303               	bcf	3,6	;RP1=0, select bank1
  1389  1626  00B6               	movwf	(_main$1413+3)^(0+128)
  1390  1627  1283               	bcf	3,5	;RP0=0, select bank0
  1391  1628  1303               	bcf	3,6	;RP1=0, select bank0
  1392  1629  082F               	movf	?___xxtofl+2,w
  1393  162A  1683               	bsf	3,5	;RP0=1, select bank1
  1394  162B  1303               	bcf	3,6	;RP1=0, select bank1
  1395  162C  00B5               	movwf	(_main$1413+2)^(0+128)
  1396  162D  1283               	bcf	3,5	;RP0=0, select bank0
  1397  162E  1303               	bcf	3,6	;RP1=0, select bank0
  1398  162F  082E               	movf	?___xxtofl+1,w
  1399  1630  1683               	bsf	3,5	;RP0=1, select bank1
  1400  1631  1303               	bcf	3,6	;RP1=0, select bank1
  1401  1632  00B4               	movwf	(_main$1413+1)^(0+128)
  1402  1633  1283               	bcf	3,5	;RP0=0, select bank0
  1403  1634  1303               	bcf	3,6	;RP1=0, select bank0
  1404  1635  082D               	movf	?___xxtofl,w
  1405  1636  1683               	bsf	3,5	;RP0=1, select bank1
  1406  1637  1303               	bcf	3,6	;RP1=0, select bank1
  1407  1638  00B3               	movwf	_main$1413^(0+128)
  1408  1639                     l4337:
  1409                           
  1410                           ;Lab05.c: 204:          convert (contador_string, contador, 2);
  1411  1639  0836               	movf	(_main$1413+3)^(0+128),w
  1412  163A  1283               	bcf	3,5	;RP0=0, select bank0
  1413  163B  1303               	bcf	3,6	;RP1=0, select bank0
  1414  163C  00E0               	movwf	convert@a+3
  1415  163D  1683               	bsf	3,5	;RP0=1, select bank1
  1416  163E  1303               	bcf	3,6	;RP1=0, select bank1
  1417  163F  0835               	movf	(_main$1413+2)^(0+128),w
  1418  1640  1283               	bcf	3,5	;RP0=0, select bank0
  1419  1641  1303               	bcf	3,6	;RP1=0, select bank0
  1420  1642  00DF               	movwf	convert@a+2
  1421  1643  1683               	bsf	3,5	;RP0=1, select bank1
  1422  1644  1303               	bcf	3,6	;RP1=0, select bank1
  1423  1645  0834               	movf	(_main$1413+1)^(0+128),w
  1424  1646  1283               	bcf	3,5	;RP0=0, select bank0
  1425  1647  1303               	bcf	3,6	;RP1=0, select bank0
  1426  1648  00DE               	movwf	convert@a+1
  1427  1649  1683               	bsf	3,5	;RP0=1, select bank1
  1428  164A  1303               	bcf	3,6	;RP1=0, select bank1
  1429  164B  0833               	movf	_main$1413^(0+128),w
  1430  164C  1283               	bcf	3,5	;RP0=0, select bank0
  1431  164D  1303               	bcf	3,6	;RP1=0, select bank0
  1432  164E  00DD               	movwf	convert@a
  1433  164F  3002               	movlw	2
  1434  1650  00E1               	movwf	convert@place
  1435  1651  3000               	movlw	0
  1436  1652  00E2               	movwf	convert@place+1
  1437  1653  30CB               	movlw	(low (_contador_string| 0))& (0+255)
  1438  1654  120A  118A  203D  160A  118A  	fcall	_convert
  1439  1659  2DF3               	goto	l4331
  1440  165A  120A  118A  280C   	ljmp	start
  1441  165D                     __end_of_main:
  1442                           
  1443                           	psect	text1
  1444  1540                     __ptext1:	
  1445 ;; *************** function _setup *****************
  1446 ;; Defined at:
  1447 ;;		line 278 in file "Lab05.c"
  1448 ;; Parameters:    Size  Location     Type
  1449 ;;		None
  1450 ;; Auto vars:     Size  Location     Type
  1451 ;;		None
  1452 ;; Return value:  Size  Location     Type
  1453 ;;                  1    wreg      void 
  1454 ;; Registers used:
  1455 ;;		wreg, status,2
  1456 ;; Tracked objects:
  1457 ;;		On entry : 0/0
  1458 ;;		On exit  : 0/0
  1459 ;;		Unchanged: 0/0
  1460 ;; Data sizes:     COMMON   BANK0   BANK1   BANK3   BANK2
  1461 ;;      Params:         0       0       0       0       0
  1462 ;;      Locals:         0       0       0       0       0
  1463 ;;      Temps:          0       0       0       0       0
  1464 ;;      Totals:         0       0       0       0       0
  1465 ;;Total ram usage:        0 bytes
  1466 ;; Hardware stack levels used:    1
  1467 ;; Hardware stack levels required when called:    1
  1468 ;; This function calls:
  1469 ;;		Nothing
  1470 ;; This function is called by:
  1471 ;;		_main
  1472 ;; This function uses a non-reentrant model
  1473 ;;
  1474                           
  1475                           
  1476                           ;psect for function _setup
  1477  1540                     _setup:
  1478  1540                     l3235:	
  1479                           ;incstack = 0
  1480                           ; Regs used in _setup: [wreg+status,2]
  1481                           
  1482                           
  1483                           ;Lab05.c: 279:      ANSEL = 0X00;
  1484  1540  1683               	bsf	3,5	;RP0=1, select bank3
  1485  1541  1703               	bsf	3,6	;RP1=1, select bank3
  1486  1542  0188               	clrf	8	;volatile
  1487                           
  1488                           ;Lab05.c: 280:      ANSELH = 0X00;
  1489  1543  0189               	clrf	9	;volatile
  1490                           
  1491                           ;Lab05.c: 282:      TRISA = 0X00;
  1492  1544  1683               	bsf	3,5	;RP0=1, select bank1
  1493  1545  1303               	bcf	3,6	;RP1=0, select bank1
  1494  1546  0185               	clrf	5	;volatile
  1495  1547                     l3237:
  1496                           
  1497                           ;Lab05.c: 283:      TRISB = 0x03;
  1498  1547  3003               	movlw	3
  1499  1548  0086               	movwf	6	;volatile
  1500  1549                     l3239:
  1501                           
  1502                           ;Lab05.c: 285:      PORTA = 0X00;
  1503  1549  1283               	bcf	3,5	;RP0=0, select bank0
  1504  154A  1303               	bcf	3,6	;RP1=0, select bank0
  1505  154B  0185               	clrf	5	;volatile
  1506  154C                     l3241:
  1507                           
  1508                           ;Lab05.c: 286:      PORTB = 0x00;
  1509  154C  0186               	clrf	6	;volatile
  1510  154D                     l3243:
  1511                           
  1512                           ;Lab05.c: 289:     OSCCONbits.IRCF2 = 1;
  1513  154D  1683               	bsf	3,5	;RP0=1, select bank1
  1514  154E  1303               	bcf	3,6	;RP1=0, select bank1
  1515  154F  170F               	bsf	15,6	;volatile
  1516  1550                     l3245:
  1517                           
  1518                           ;Lab05.c: 290:     OSCCONbits.IRCF1 = 1;
  1519  1550  168F               	bsf	15,5	;volatile
  1520  1551                     l3247:
  1521                           
  1522                           ;Lab05.c: 291:     OSCCONbits.IRCF0 = 1;
  1523  1551  160F               	bsf	15,4	;volatile
  1524  1552                     l3249:
  1525                           
  1526                           ;Lab05.c: 292:     OSCCONbits.SCS = 1;
  1527  1552  140F               	bsf	15,0	;volatile
  1528  1553                     l3251:
  1529                           
  1530                           ;Lab05.c: 296:     TXSTAbits.SYNC = 0;
  1531  1553  1218               	bcf	24,4	;volatile
  1532  1554                     l3253:
  1533                           
  1534                           ;Lab05.c: 297:     TXSTAbits.BRGH = 1;
  1535  1554  1518               	bsf	24,2	;volatile
  1536  1555                     l3255:
  1537                           
  1538                           ;Lab05.c: 298:     BAUDCTLbits.BRG16 = 1;
  1539  1555  1683               	bsf	3,5	;RP0=1, select bank3
  1540  1556  1703               	bsf	3,6	;RP1=1, select bank3
  1541  1557  1587               	bsf	7,3	;volatile
  1542  1558                     l3257:
  1543                           
  1544                           ;Lab05.c: 300:     SPBRG = 207;
  1545  1558  30CF               	movlw	207
  1546  1559  1683               	bsf	3,5	;RP0=1, select bank1
  1547  155A  1303               	bcf	3,6	;RP1=0, select bank1
  1548  155B  0099               	movwf	25	;volatile
  1549                           
  1550                           ;Lab05.c: 301:     SPBRGH = 0;
  1551  155C  019A               	clrf	26	;volatile
  1552  155D                     l3259:
  1553                           
  1554                           ;Lab05.c: 303:     RCSTAbits.SPEN = 1;
  1555  155D  1283               	bcf	3,5	;RP0=0, select bank0
  1556  155E  1303               	bcf	3,6	;RP1=0, select bank0
  1557  155F  1798               	bsf	24,7	;volatile
  1558  1560                     l3261:
  1559                           
  1560                           ;Lab05.c: 304:     RCSTAbits.RX9 = 0;
  1561  1560  1318               	bcf	24,6	;volatile
  1562  1561                     l3263:
  1563                           
  1564                           ;Lab05.c: 305:     RCSTAbits.CREN = 1;
  1565  1561  1618               	bsf	24,4	;volatile
  1566  1562                     l3265:
  1567                           
  1568                           ;Lab05.c: 306:     TXSTAbits.TXEN = 1;
  1569  1562  1683               	bsf	3,5	;RP0=1, select bank1
  1570  1563  1303               	bcf	3,6	;RP1=0, select bank1
  1571  1564  1698               	bsf	24,5	;volatile
  1572  1565                     l3267:
  1573                           
  1574                           ;Lab05.c: 310:     INTCONbits.GIE = 1;
  1575  1565  178B               	bsf	11,7	;volatile
  1576  1566                     l3269:
  1577                           
  1578                           ;Lab05.c: 311:     INTCONbits.PEIE = 1;
  1579  1566  170B               	bsf	11,6	;volatile
  1580  1567                     l3271:
  1581                           
  1582                           ;Lab05.c: 312:     INTCONbits.RBIE = 1;
  1583  1567  158B               	bsf	11,3	;volatile
  1584  1568                     l3273:
  1585                           
  1586                           ;Lab05.c: 314:     INTCONbits.RBIF = 0;
  1587  1568  100B               	bcf	11,0	;volatile
  1588  1569                     l3275:
  1589                           
  1590                           ;Lab05.c: 316:     IOCBbits.IOCB0 = 1;
  1591  1569  1416               	bsf	22,0	;volatile
  1592  156A                     l3277:
  1593                           
  1594                           ;Lab05.c: 317:     IOCBbits.IOCB1 = 1;
  1595  156A  1496               	bsf	22,1	;volatile
  1596  156B                     l286:
  1597  156B  0008               	return
  1598  156C                     __end_of_setup:
  1599                           
  1600                           	psect	text2
  1601  0900                     __ptext2:	
  1602 ;; *************** function _mensaje *****************
  1603 ;; Defined at:
  1604 ;;		line 209 in file "Lab05.c"
  1605 ;; Parameters:    Size  Location     Type
  1606 ;;		None
  1607 ;; Auto vars:     Size  Location     Type
  1608 ;;		None
  1609 ;; Return value:  Size  Location     Type
  1610 ;;                  1    wreg      void 
  1611 ;; Registers used:
  1612 ;;		wreg, fsr0l, fsr0h, status,2, status,0, btemp+1, pclath, cstack
  1613 ;; Tracked objects:
  1614 ;;		On entry : 0/0
  1615 ;;		On exit  : 0/0
  1616 ;;		Unchanged: 0/0
  1617 ;; Data sizes:     COMMON   BANK0   BANK1   BANK3   BANK2
  1618 ;;      Params:         0       0       0       0       0
  1619 ;;      Locals:         0       0       0       0       0
  1620 ;;      Temps:          0       0       5       0       0
  1621 ;;      Totals:         0       0       5       0       0
  1622 ;;Total ram usage:        5 bytes
  1623 ;; Hardware stack levels used:    1
  1624 ;; Hardware stack levels required when called:    5
  1625 ;; This function calls:
  1626 ;;		_concatenar
  1627 ;;		_printf
  1628 ;; This function is called by:
  1629 ;;		_main
  1630 ;; This function uses a non-reentrant model
  1631 ;;
  1632                           
  1633                           
  1634                           ;psect for function _mensaje
  1635  0900                     _mensaje:
  1636  0900                     l4293:	
  1637                           ;incstack = 0
  1638                           ; Regs used in _mensaje: [wreg-fsr0h+status,2+status,0+btemp+1+pclath+cstack]
  1639                           
  1640                           
  1641                           ;Lab05.c: 210:     _delay((unsigned long)((300)*(8000000/4000.0)));
  1642  0900  3004               	movlw	4
  1643  0901  1683               	bsf	3,5	;RP0=1, select bank1
  1644  0902  1303               	bcf	3,6	;RP1=0, select bank1
  1645  0903  00A2               	movwf	(??_mensaje^(0+128)+2)
  1646  0904  300C               	movlw	12
  1647  0905  00A1               	movwf	(??_mensaje^(0+128)+1)
  1648  0906  3033               	movlw	51
  1649  0907  00A0               	movwf	??_mensaje^(0+128)
  1650  0908                     u6397:
  1651  0908  0BA0               	decfsz	??_mensaje^(0+128),f
  1652  0909  2908               	goto	u6397
  1653  090A  0BA1               	decfsz	(??_mensaje^(0+128)+1),f
  1654  090B  2908               	goto	u6397
  1655  090C  0BA2               	decfsz	(??_mensaje^(0+128)+2),f
  1656  090D  2908               	goto	u6397
  1657  090E                     l4295:
  1658                           
  1659                           ;Lab05.c: 211:     printf("\r valor del contador: \r");
  1660  090E  3042               	movlw	(low ((STR_1-__stringbase)| (0+32768)))& (0+255)
  1661  090F  1283               	bcf	3,5	;RP0=0, select bank0
  1662  0910  1303               	bcf	3,6	;RP1=0, select bank0
  1663  0911  00B6               	movwf	printf@f
  1664  0912  3080               	movlw	128
  1665  0913  00B7               	movwf	printf@f+1
  1666  0914  160A  118A  243B  120A  158A  	fcall	_printf
  1667  0919                     l4297:
  1668                           
  1669                           ;Lab05.c: 212:     _delay((unsigned long)((300)*(8000000/4000.0)));
  1670  0919  3004               	movlw	4
  1671  091A  1683               	bsf	3,5	;RP0=1, select bank1
  1672  091B  1303               	bcf	3,6	;RP1=0, select bank1
  1673  091C  00A2               	movwf	(??_mensaje^(0+128)+2)
  1674  091D  300C               	movlw	12
  1675  091E  00A1               	movwf	(??_mensaje^(0+128)+1)
  1676  091F  3033               	movlw	51
  1677  0920  00A0               	movwf	??_mensaje^(0+128)
  1678  0921                     u6407:
  1679  0921  0BA0               	decfsz	??_mensaje^(0+128),f
  1680  0922  2921               	goto	u6407
  1681  0923  0BA1               	decfsz	(??_mensaje^(0+128)+1),f
  1682  0924  2921               	goto	u6407
  1683  0925  0BA2               	decfsz	(??_mensaje^(0+128)+2),f
  1684  0926  2921               	goto	u6407
  1685                           
  1686                           ;Lab05.c: 213:     printf(contador_string);
  1687  0927  30CB               	movlw	(low (_contador_string| 0))& (0+255)
  1688  0928  1283               	bcf	3,5	;RP0=0, select bank0
  1689  0929  1303               	bcf	3,6	;RP1=0, select bank0
  1690  092A  00B6               	movwf	printf@f
  1691  092B  3000               	movlw	0
  1692  092C  00B7               	movwf	printf@f+1
  1693  092D  160A  118A  243B  120A  158A  	fcall	_printf
  1694                           
  1695                           ;Lab05.c: 214:     printf("\r---------------\r");
  1696  0932  3083               	movlw	(low ((STR_2-__stringbase)| (0+32768)))& (0+255)
  1697  0933  1283               	bcf	3,5	;RP0=0, select bank0
  1698  0934  1303               	bcf	3,6	;RP1=0, select bank0
  1699  0935  00B6               	movwf	printf@f
  1700  0936  3080               	movlw	128
  1701  0937  00B7               	movwf	printf@f+1
  1702  0938  160A  118A  243B  120A  158A  	fcall	_printf
  1703                           
  1704                           ;Lab05.c: 216:     printf("Ingresar Centena: Rango(0-2)\r");
  1705  093D  300B               	movlw	(low ((STR_3-__stringbase)| (0+32768)))& (0+255)
  1706  093E  1283               	bcf	3,5	;RP0=0, select bank0
  1707  093F  1303               	bcf	3,6	;RP1=0, select bank0
  1708  0940  00B6               	movwf	printf@f
  1709  0941  3080               	movlw	128
  1710  0942  00B7               	movwf	printf@f+1
  1711  0943  160A  118A  243B  120A  158A  	fcall	_printf
  1712  0948                     l252:
  1713  0948  1283               	bcf	3,5	;RP0=0, select bank0
  1714  0949  1303               	bcf	3,6	;RP1=0, select bank0
  1715  094A  1E8C               	btfss	12,5	;volatile
  1716  094B  294D               	goto	u6301
  1717  094C  294E               	goto	u6300
  1718  094D                     u6301:
  1719  094D  2948               	goto	l252
  1720  094E                     u6300:
  1721  094E                     l4299:
  1722                           
  1723                           ;Lab05.c: 219:         centena = RCREG -48;
  1724  094E  081A               	movf	26,w	;volatile
  1725  094F  3ED0               	addlw	208
  1726  0950  1683               	bsf	3,5	;RP0=1, select bank1
  1727  0951  1303               	bcf	3,6	;RP1=0, select bank1
  1728  0952  00A0               	movwf	??_mensaje^(0+128)
  1729  0953  0820               	movf	??_mensaje^(0+128),w
  1730  0954  00F8               	movwf	_centena
  1731  0955                     l4301:	
  1732                           ;Lab05.c: 221:        while(RCREG > '2'){
  1733                           
  1734                           
  1735                           ;Lab05.c: 221:        while(RCREG > '2'){
  1736  0955  3033               	movlw	51
  1737  0956  1283               	bcf	3,5	;RP0=0, select bank0
  1738  0957  1303               	bcf	3,6	;RP1=0, select bank0
  1739  0958  021A               	subwf	26,w	;volatile
  1740  0959  1803               	skipnc
  1741  095A  295C               	goto	u6311
  1742  095B  295D               	goto	u6310
  1743  095C                     u6311:
  1744  095C  2948               	goto	l252
  1745  095D                     u6310:
  1746  095D                     l4303:
  1747                           
  1748                           ;Lab05.c: 226:     printf("Ingresar Decenas: \r");
  1749  095D  306F               	movlw	(low ((STR_4-__stringbase)| (0+32768)))& (0+255)
  1750  095E  00B6               	movwf	printf@f
  1751  095F  3080               	movlw	128
  1752  0960  00B7               	movwf	printf@f+1
  1753  0961  160A  118A  243B  120A  158A  	fcall	_printf
  1754  0966                     l259:
  1755  0966  1283               	bcf	3,5	;RP0=0, select bank0
  1756  0967  1303               	bcf	3,6	;RP1=0, select bank0
  1757  0968  1E8C               	btfss	12,5	;volatile
  1758  0969  296B               	goto	u6321
  1759  096A  296C               	goto	u6320
  1760  096B                     u6321:
  1761  096B  2966               	goto	l259
  1762  096C                     u6320:
  1763  096C                     l4305:
  1764                           
  1765                           ;Lab05.c: 229:          decena = RCREG -48;
  1766  096C  081A               	movf	26,w	;volatile
  1767  096D  3ED0               	addlw	208
  1768  096E  1683               	bsf	3,5	;RP0=1, select bank1
  1769  096F  1303               	bcf	3,6	;RP1=0, select bank1
  1770  0970  00A0               	movwf	??_mensaje^(0+128)
  1771  0971  0820               	movf	??_mensaje^(0+128),w
  1772  0972  00F9               	movwf	_decena
  1773                           
  1774                           ;Lab05.c: 231:         if(centena == 2){
  1775  0973  3002               	movlw	2
  1776  0974  0678               	xorwf	_centena,w
  1777  0975  1D03               	btfss	3,2
  1778  0976  2978               	goto	u6331
  1779  0977  2979               	goto	u6330
  1780  0978                     u6331:
  1781  0978  2981               	goto	l4311
  1782  0979                     u6330:
  1783  0979                     l4309:
  1784                           
  1785                           ;Lab05.c: 232:            while(RCREG > '5'){
  1786  0979  3036               	movlw	54
  1787  097A  1283               	bcf	3,5	;RP0=0, select bank0
  1788  097B  1303               	bcf	3,6	;RP1=0, select bank0
  1789  097C  021A               	subwf	26,w	;volatile
  1790  097D  1803               	skipnc
  1791  097E  2980               	goto	u6341
  1792  097F  2981               	goto	u6340
  1793  0980                     u6341:
  1794  0980  2966               	goto	l259
  1795  0981                     u6340:
  1796  0981                     l4311:
  1797                           
  1798                           ;Lab05.c: 237:     printf("Ingresar Unidades: \r");
  1799  0981  305A               	movlw	(low ((STR_5-__stringbase)| (0+32768)))& (0+255)
  1800  0982  1283               	bcf	3,5	;RP0=0, select bank0
  1801  0983  00B6               	movwf	printf@f
  1802  0984  3080               	movlw	128
  1803  0985  00B7               	movwf	printf@f+1
  1804  0986  160A  118A  243B  120A  158A  	fcall	_printf
  1805  098B                     l267:
  1806  098B  1283               	bcf	3,5	;RP0=0, select bank0
  1807  098C  1303               	bcf	3,6	;RP1=0, select bank0
  1808  098D  1E8C               	btfss	12,5	;volatile
  1809  098E  2990               	goto	u6351
  1810  098F  2991               	goto	u6350
  1811  0990                     u6351:
  1812  0990  298B               	goto	l267
  1813  0991                     u6350:
  1814  0991                     l4313:
  1815                           
  1816                           ;Lab05.c: 240:         unidad = RCREG - 48;
  1817  0991  081A               	movf	26,w	;volatile
  1818  0992  3ED0               	addlw	208
  1819  0993  1683               	bsf	3,5	;RP0=1, select bank1
  1820  0994  1303               	bcf	3,6	;RP1=0, select bank1
  1821  0995  00A0               	movwf	??_mensaje^(0+128)
  1822  0996  0820               	movf	??_mensaje^(0+128),w
  1823  0997  00FA               	movwf	_unidad
  1824                           
  1825                           ;Lab05.c: 242:        if(centena == 2 && decena == 5){
  1826  0998  3002               	movlw	2
  1827  0999  0678               	xorwf	_centena,w
  1828  099A  1D03               	btfss	3,2
  1829  099B  299D               	goto	u6361
  1830  099C  299E               	goto	u6360
  1831  099D                     u6361:
  1832  099D  29AC               	goto	l4321
  1833  099E                     u6360:
  1834  099E                     l4315:
  1835  099E  3005               	movlw	5
  1836  099F  0679               	xorwf	_decena,w
  1837  09A0  1D03               	btfss	3,2
  1838  09A1  29A3               	goto	u6371
  1839  09A2  29A4               	goto	u6370
  1840  09A3                     u6371:
  1841  09A3  29AC               	goto	l4321
  1842  09A4                     u6370:
  1843  09A4                     l4319:
  1844                           
  1845                           ;Lab05.c: 243:            while(RCREG > '5'){
  1846  09A4  3036               	movlw	54
  1847  09A5  1283               	bcf	3,5	;RP0=0, select bank0
  1848  09A6  1303               	bcf	3,6	;RP1=0, select bank0
  1849  09A7  021A               	subwf	26,w	;volatile
  1850  09A8  1803               	skipnc
  1851  09A9  29AB               	goto	u6381
  1852  09AA  29AC               	goto	u6380
  1853  09AB                     u6381:
  1854  09AB  298B               	goto	l267
  1855  09AC                     u6380:
  1856  09AC                     l4321:
  1857                           
  1858                           ;Lab05.c: 247:       concatenado = concatenar(centena, decena);
  1859  09AC  0878               	movf	_centena,w
  1860  09AD  1683               	bsf	3,5	;RP0=1, select bank1
  1861  09AE  1303               	bcf	3,6	;RP1=0, select bank1
  1862  09AF  00A0               	movwf	??_mensaje^(0+128)
  1863  09B0  01A1               	clrf	(??_mensaje^(0+128)+1)
  1864  09B1  0820               	movf	??_mensaje^(0+128),w
  1865  09B2  1283               	bcf	3,5	;RP0=0, select bank0
  1866  09B3  1303               	bcf	3,6	;RP1=0, select bank0
  1867  09B4  00BE               	movwf	concatenar@a
  1868  09B5  1683               	bsf	3,5	;RP0=1, select bank1
  1869  09B6  1303               	bcf	3,6	;RP1=0, select bank1
  1870  09B7  0821               	movf	(??_mensaje+1)^(0+128),w
  1871  09B8  1283               	bcf	3,5	;RP0=0, select bank0
  1872  09B9  1303               	bcf	3,6	;RP1=0, select bank0
  1873  09BA  00BF               	movwf	concatenar@a+1
  1874  09BB  0879               	movf	_decena,w
  1875  09BC  1683               	bsf	3,5	;RP0=1, select bank1
  1876  09BD  1303               	bcf	3,6	;RP1=0, select bank1
  1877  09BE  00A2               	movwf	(??_mensaje+2)^(0+128)
  1878  09BF  01A3               	clrf	((??_mensaje+2)^(0+128)+1)
  1879  09C0  0822               	movf	(??_mensaje+2)^(0+128),w
  1880  09C1  1283               	bcf	3,5	;RP0=0, select bank0
  1881  09C2  1303               	bcf	3,6	;RP1=0, select bank0
  1882  09C3  00C0               	movwf	concatenar@b
  1883  09C4  1683               	bsf	3,5	;RP0=1, select bank1
  1884  09C5  1303               	bcf	3,6	;RP1=0, select bank1
  1885  09C6  0823               	movf	(??_mensaje+3)^(0+128),w
  1886  09C7  1283               	bcf	3,5	;RP0=0, select bank0
  1887  09C8  1303               	bcf	3,6	;RP1=0, select bank0
  1888  09C9  00C1               	movwf	concatenar@b+1
  1889  09CA  120A  158A  2007  120A  158A  	fcall	_concatenar
  1890  09CF  1283               	bcf	3,5	;RP0=0, select bank0
  1891  09D0  1303               	bcf	3,6	;RP1=0, select bank0
  1892  09D1  083E               	movf	?_concatenar,w
  1893  09D2  1683               	bsf	3,5	;RP0=1, select bank1
  1894  09D3  1303               	bcf	3,6	;RP1=0, select bank1
  1895  09D4  00A4               	movwf	(??_mensaje+4)^(0+128)
  1896  09D5  0824               	movf	(??_mensaje+4)^(0+128),w
  1897  09D6  00C9               	movwf	_concatenado^(0+128)
  1898                           
  1899                           ;Lab05.c: 248:       full = concatenar(concatenado, unidad);
  1900  09D7  0849               	movf	_concatenado^(0+128),w
  1901  09D8  00A0               	movwf	??_mensaje^(0+128)
  1902  09D9  01A1               	clrf	(??_mensaje^(0+128)+1)
  1903  09DA  0820               	movf	??_mensaje^(0+128),w
  1904  09DB  1283               	bcf	3,5	;RP0=0, select bank0
  1905  09DC  1303               	bcf	3,6	;RP1=0, select bank0
  1906  09DD  00BE               	movwf	concatenar@a
  1907  09DE  1683               	bsf	3,5	;RP0=1, select bank1
  1908  09DF  1303               	bcf	3,6	;RP1=0, select bank1
  1909  09E0  0821               	movf	(??_mensaje+1)^(0+128),w
  1910  09E1  1283               	bcf	3,5	;RP0=0, select bank0
  1911  09E2  1303               	bcf	3,6	;RP1=0, select bank0
  1912  09E3  00BF               	movwf	concatenar@a+1
  1913  09E4  087A               	movf	_unidad,w
  1914  09E5  1683               	bsf	3,5	;RP0=1, select bank1
  1915  09E6  1303               	bcf	3,6	;RP1=0, select bank1
  1916  09E7  00A2               	movwf	(??_mensaje+2)^(0+128)
  1917  09E8  01A3               	clrf	((??_mensaje+2)^(0+128)+1)
  1918  09E9  0822               	movf	(??_mensaje+2)^(0+128),w
  1919  09EA  1283               	bcf	3,5	;RP0=0, select bank0
  1920  09EB  1303               	bcf	3,6	;RP1=0, select bank0
  1921  09EC  00C0               	movwf	concatenar@b
  1922  09ED  1683               	bsf	3,5	;RP0=1, select bank1
  1923  09EE  1303               	bcf	3,6	;RP1=0, select bank1
  1924  09EF  0823               	movf	(??_mensaje+3)^(0+128),w
  1925  09F0  1283               	bcf	3,5	;RP0=0, select bank0
  1926  09F1  1303               	bcf	3,6	;RP1=0, select bank0
  1927  09F2  00C1               	movwf	concatenar@b+1
  1928  09F3  120A  158A  2007  120A  158A  	fcall	_concatenar
  1929  09F8  1283               	bcf	3,5	;RP0=0, select bank0
  1930  09F9  1303               	bcf	3,6	;RP1=0, select bank0
  1931  09FA  083F               	movf	?_concatenar+1,w
  1932  09FB  1683               	bsf	3,5	;RP0=1, select bank1
  1933  09FC  1303               	bcf	3,6	;RP1=0, select bank1
  1934  09FD  00C8               	movwf	(_full+1)^(0+128)
  1935  09FE  1283               	bcf	3,5	;RP0=0, select bank0
  1936  09FF  1303               	bcf	3,6	;RP1=0, select bank0
  1937  0A00  083E               	movf	?_concatenar,w
  1938  0A01  1683               	bsf	3,5	;RP0=1, select bank1
  1939  0A02  1303               	bcf	3,6	;RP1=0, select bank1
  1940  0A03  00C7               	movwf	_full^(0+128)
  1941  0A04                     l4323:
  1942                           
  1943                           ;Lab05.c: 249:       _delay((unsigned long)((250)*(8000000/4000.0)));
  1944  0A04  3003               	movlw	3
  1945  0A05  1683               	bsf	3,5	;RP0=1, select bank1
  1946  0A06  1303               	bcf	3,6	;RP1=0, select bank1
  1947  0A07  00A2               	movwf	(??_mensaje^(0+128)+2)
  1948  0A08  308A               	movlw	138
  1949  0A09  00A1               	movwf	(??_mensaje^(0+128)+1)
  1950  0A0A  3055               	movlw	85
  1951  0A0B  00A0               	movwf	??_mensaje^(0+128)
  1952  0A0C                     u6417:
  1953  0A0C  0BA0               	decfsz	??_mensaje^(0+128),f
  1954  0A0D  2A0C               	goto	u6417
  1955  0A0E  0BA1               	decfsz	(??_mensaje^(0+128)+1),f
  1956  0A0F  2A0C               	goto	u6417
  1957  0A10  0BA2               	decfsz	(??_mensaje^(0+128)+2),f
  1958  0A11  2A0C               	goto	u6417
  1959  0A12                     l4325:
  1960                           
  1961                           ;Lab05.c: 250:     printf("El numero elegido es: %d", full);
  1962  0A12  3029               	movlw	(low ((STR_6-__stringbase)| (0+32768)))& (0+255)
  1963  0A13  1283               	bcf	3,5	;RP0=0, select bank0
  1964  0A14  1303               	bcf	3,6	;RP1=0, select bank0
  1965  0A15  00B6               	movwf	printf@f
  1966  0A16  3080               	movlw	128
  1967  0A17  00B7               	movwf	printf@f+1
  1968  0A18  1683               	bsf	3,5	;RP0=1, select bank1
  1969  0A19  1303               	bcf	3,6	;RP1=0, select bank1
  1970  0A1A  0848               	movf	(_full+1)^(0+128),w
  1971  0A1B  1283               	bcf	3,5	;RP0=0, select bank0
  1972  0A1C  1303               	bcf	3,6	;RP1=0, select bank0
  1973  0A1D  00B9               	movwf	?_printf+3
  1974  0A1E  1683               	bsf	3,5	;RP0=1, select bank1
  1975  0A1F  1303               	bcf	3,6	;RP1=0, select bank1
  1976  0A20  0847               	movf	_full^(0+128),w
  1977  0A21  1283               	bcf	3,5	;RP0=0, select bank0
  1978  0A22  1303               	bcf	3,6	;RP1=0, select bank0
  1979  0A23  00B8               	movwf	?_printf+2
  1980  0A24  160A  118A  243B  120A  158A  	fcall	_printf
  1981  0A29                     l274:
  1982  0A29  0008               	return
  1983  0A2A                     __end_of_mensaje:
  1984                           
  1985                           	psect	text3
  1986  143B                     __ptext3:	
  1987 ;; *************** function _printf *****************
  1988 ;; Defined at:
  1989 ;;		line 13 in file "C:\Program Files\Microchip\xc8\v2.31\pic\sources\c90\common\printf.c"
  1990 ;; Parameters:    Size  Location     Type
  1991 ;;  f               2   22[BANK0 ] PTR const unsigned char 
  1992 ;;		 -> STR_6(25), STR_5(21), STR_4(20), STR_3(30), 
  1993 ;;		 -> STR_2(18), STR_1(24), contador_string(10), 
  1994 ;; Auto vars:     Size  Location     Type
  1995 ;;  pb              2   28[BANK0 ] struct __prbuf
  1996 ;;  ap              1   27[BANK0 ] PTR void [1]
  1997 ;;		 -> ?_sprintf(2), ?_printf(2), 
  1998 ;; Return value:  Size  Location     Type
  1999 ;;                  2   22[BANK0 ] int 
  2000 ;; Registers used:
  2001 ;;		wreg, fsr0l, fsr0h, status,2, status,0, btemp+1, pclath, cstack
  2002 ;; Tracked objects:
  2003 ;;		On entry : 0/0
  2004 ;;		On exit  : 0/0
  2005 ;;		Unchanged: 0/0
  2006 ;; Data sizes:     COMMON   BANK0   BANK1   BANK3   BANK2
  2007 ;;      Params:         0       4       0       0       0
  2008 ;;      Locals:         0       3       0       0       0
  2009 ;;      Temps:          0       1       0       0       0
  2010 ;;      Totals:         0       8       0       0       0
  2011 ;;Total ram usage:        8 bytes
  2012 ;; Hardware stack levels used:    1
  2013 ;; Hardware stack levels required when called:    3
  2014 ;; This function calls:
  2015 ;;		__doprnt
  2016 ;; This function is called by:
  2017 ;;		_mensaje
  2018 ;; This function uses a non-reentrant model
  2019 ;;
  2020                           
  2021                           
  2022                           ;psect for function _printf
  2023  143B                     _printf:
  2024  143B                     l3739:	
  2025                           ;incstack = 0
  2026                           ; Regs used in _printf: [wreg-fsr0h+status,2+status,0+btemp+1+pclath+cstack]
  2027                           
  2028  143B  1283               	bcf	3,5	;RP0=0, select bank0
  2029  143C  1303               	bcf	3,6	;RP1=0, select bank0
  2030  143D  01BC               	clrf	printf@pb
  2031  143E                     l3741:
  2032  143E  3001               	movlw	(low (fp__putch-fpbase))& (0+255)
  2033  143F  00BA               	movwf	??_printf
  2034  1440  083A               	movf	??_printf,w
  2035  1441  00BD               	movwf	low ((printf@pb| 0+1))
  2036  1442                     l3743:
  2037  1442  3038               	movlw	(low ((?_printf| 0+2)))& (0+255)
  2038  1443  00BA               	movwf	??_printf
  2039  1444  083A               	movf	??_printf,w
  2040  1445  00BB               	movwf	printf@ap
  2041  1446                     l3745:
  2042                           
  2043                           ;	Return value of _printf is never used
  2044  1446  0836               	movf	printf@f,w
  2045  1447  00A9               	movwf	__doprnt@f
  2046  1448  0837               	movf	printf@f+1,w
  2047  1449  00AA               	movwf	__doprnt@f+1
  2048  144A  303B               	movlw	(low (printf@ap| 0))& (0+255)
  2049  144B  00BA               	movwf	??_printf
  2050  144C  083A               	movf	??_printf,w
  2051  144D  00AB               	movwf	__doprnt@ap
  2052  144E  303C               	movlw	(low (printf@pb| 0))& (0+255)
  2053  144F  120A  158A  222A  160A  118A  	fcall	__doprnt
  2054  1454                     l849:
  2055  1454  0008               	return
  2056  1455                     __end_of_printf:
  2057                           
  2058                           	psect	text4
  2059  0807                     __ptext4:	
  2060 ;; *************** function _concatenar *****************
  2061 ;; Defined at:
  2062 ;;		line 255 in file "Lab05.c"
  2063 ;; Parameters:    Size  Location     Type
  2064 ;;  a               2   30[BANK0 ] int 
  2065 ;;  b               2   32[BANK0 ] int 
  2066 ;; Auto vars:     Size  Location     Type
  2067 ;;  s1             20   55[BANK0 ] unsigned char [20]
  2068 ;;  s2             20   35[BANK0 ] unsigned char [20]
  2069 ;;  c               2   75[BANK0 ] int 
  2070 ;; Return value:  Size  Location     Type
  2071 ;;                  2   30[BANK0 ] int 
  2072 ;; Registers used:
  2073 ;;		wreg, fsr0l, fsr0h, status,2, status,0, btemp+1, pclath, cstack
  2074 ;; Tracked objects:
  2075 ;;		On entry : 0/0
  2076 ;;		On exit  : 0/0
  2077 ;;		Unchanged: 0/0
  2078 ;; Data sizes:     COMMON   BANK0   BANK1   BANK3   BANK2
  2079 ;;      Params:         0       4       0       0       0
  2080 ;;      Locals:         0      42       0       0       0
  2081 ;;      Temps:          0       1       0       0       0
  2082 ;;      Totals:         0      47       0       0       0
  2083 ;;Total ram usage:       47 bytes
  2084 ;; Hardware stack levels used:    1
  2085 ;; Hardware stack levels required when called:    4
  2086 ;; This function calls:
  2087 ;;		_atoi
  2088 ;;		_sprintf
  2089 ;;		_strcat
  2090 ;; This function is called by:
  2091 ;;		_mensaje
  2092 ;; This function uses a non-reentrant model
  2093 ;;
  2094                           
  2095                           
  2096                           ;psect for function _concatenar
  2097  0807                     _concatenar:
  2098  0807                     l3749:	
  2099                           ;incstack = 0
  2100                           ; Regs used in _concatenar: [wreg-fsr0h+status,2+status,0+btemp+1+pclath+cstack]
  2101                           
  2102                           
  2103                           ;Lab05.c: 256:     char s1[20];;Lab05.c: 257:     char s2[20];;Lab05.c: 260:     sprintf
      +                          (s1, "%d", a);
  2104  0807  303F               	movlw	(low (((STR_6+22)-__stringbase)| (0+32768)))& (0+255)
  2105  0808  1283               	bcf	3,5	;RP0=0, select bank0
  2106  0809  1303               	bcf	3,6	;RP1=0, select bank0
  2107  080A  00C2               	movwf	??_concatenar
  2108  080B  0842               	movf	??_concatenar,w
  2109  080C  00B6               	movwf	sprintf@f
  2110  080D  083F               	movf	concatenar@a+1,w
  2111  080E  00B8               	movwf	?_sprintf+2
  2112  080F  083E               	movf	concatenar@a,w
  2113  0810  00B7               	movwf	?_sprintf+1
  2114  0811  3057               	movlw	(low (concatenar@s1| 0))& (0+255)
  2115  0812  160A  118A  2455  120A  158A  	fcall	_sprintf
  2116                           
  2117                           ;Lab05.c: 261:     sprintf(s2, "%d", b);
  2118  0817  303F               	movlw	(low (((STR_6+22)-__stringbase)| (0+32768)))& (0+255)
  2119  0818  1283               	bcf	3,5	;RP0=0, select bank0
  2120  0819  1303               	bcf	3,6	;RP1=0, select bank0
  2121  081A  00C2               	movwf	??_concatenar
  2122  081B  0842               	movf	??_concatenar,w
  2123  081C  00B6               	movwf	sprintf@f
  2124  081D  0841               	movf	concatenar@b+1,w
  2125  081E  00B8               	movwf	?_sprintf+2
  2126  081F  0840               	movf	concatenar@b,w
  2127  0820  00B7               	movwf	?_sprintf+1
  2128  0821  3043               	movlw	(low (concatenar@s2| 0))& (0+255)
  2129  0822  160A  118A  2455  120A  158A  	fcall	_sprintf
  2130  0827                     l3751:
  2131                           
  2132                           ;Lab05.c: 264:     strcat(s1, s2);
  2133  0827  3043               	movlw	(low (concatenar@s2| 0))& (0+255)
  2134  0828  1283               	bcf	3,5	;RP0=0, select bank0
  2135  0829  1303               	bcf	3,6	;RP1=0, select bank0
  2136  082A  00C2               	movwf	??_concatenar
  2137  082B  0842               	movf	??_concatenar,w
  2138  082C  00F3               	movwf	strcat@from
  2139  082D  3057               	movlw	(low (concatenar@s1| 0))& (0+255)
  2140  082E  160A  118A  24EC  120A  158A  	fcall	_strcat
  2141  0833                     l3753:
  2142                           
  2143                           ;Lab05.c: 267:     int c = atoi(s1);
  2144  0833  3057               	movlw	(low (concatenar@s1| 0))& (0+255)
  2145  0834  160A  118A  26D9  120A  158A  	fcall	_atoi
  2146  0839  1283               	bcf	3,5	;RP0=0, select bank0
  2147  083A  1303               	bcf	3,6	;RP1=0, select bank0
  2148  083B  082E               	movf	?_atoi+1,w
  2149  083C  00EC               	movwf	concatenar@c+1
  2150  083D  082D               	movf	?_atoi,w
  2151  083E  00EB               	movwf	concatenar@c
  2152  083F                     l3755:
  2153                           
  2154                           ;Lab05.c: 270:     return c;
  2155  083F  086C               	movf	concatenar@c+1,w
  2156  0840  00BF               	movwf	?_concatenar+1
  2157  0841  086B               	movf	concatenar@c,w
  2158  0842  00BE               	movwf	?_concatenar
  2159  0843                     l277:
  2160  0843  0008               	return
  2161  0844                     __end_of_concatenar:
  2162                           
  2163                           	psect	text5
  2164  14EC                     __ptext5:	
  2165 ;; *************** function _strcat *****************
  2166 ;; Defined at:
  2167 ;;		line 8 in file "C:\Program Files\Microchip\xc8\v2.31\pic\sources\c90\common\strcat.c"
  2168 ;; Parameters:    Size  Location     Type
  2169 ;;  to              1    wreg     PTR unsigned char 
  2170 ;;		 -> concatenar@s1(20), 
  2171 ;;  from            1    3[COMMON] PTR const unsigned char 
  2172 ;;		 -> concatenar@s2(20), 
  2173 ;; Auto vars:     Size  Location     Type
  2174 ;;  to              1    5[COMMON] PTR unsigned char 
  2175 ;;		 -> concatenar@s1(20), 
  2176 ;;  cp              1    6[COMMON] PTR unsigned char 
  2177 ;;		 -> concatenar@s1(20), 
  2178 ;; Return value:  Size  Location     Type
  2179 ;;                  1    wreg      PTR unsigned char 
  2180 ;; Registers used:
  2181 ;;		wreg, fsr0l, fsr0h, status,2, status,0
  2182 ;; Tracked objects:
  2183 ;;		On entry : 0/0
  2184 ;;		On exit  : 0/0
  2185 ;;		Unchanged: 0/0
  2186 ;; Data sizes:     COMMON   BANK0   BANK1   BANK3   BANK2
  2187 ;;      Params:         1       0       0       0       0
  2188 ;;      Locals:         2       0       0       0       0
  2189 ;;      Temps:          1       0       0       0       0
  2190 ;;      Totals:         4       0       0       0       0
  2191 ;;Total ram usage:        4 bytes
  2192 ;; Hardware stack levels used:    1
  2193 ;; Hardware stack levels required when called:    1
  2194 ;; This function calls:
  2195 ;;		Nothing
  2196 ;; This function is called by:
  2197 ;;		_concatenar
  2198 ;; This function uses a non-reentrant model
  2199 ;;
  2200                           
  2201                           
  2202                           ;psect for function _strcat
  2203  14EC                     _strcat:
  2204                           
  2205                           ;incstack = 0
  2206                           ; Regs used in _strcat: [wreg-fsr0h+status,2+status,0]
  2207                           ;strcat@to stored from wreg
  2208  14EC  00F5               	movwf	strcat@to
  2209  14ED                     l2429:
  2210  14ED  0875               	movf	strcat@to,w
  2211  14EE  00F4               	movwf	??_strcat
  2212  14EF  0874               	movf	??_strcat,w
  2213  14F0  00F6               	movwf	strcat@cp
  2214  14F1  2CF6               	goto	l2433
  2215  14F2                     l2431:
  2216  14F2  3001               	movlw	1
  2217  14F3  00F4               	movwf	??_strcat
  2218  14F4  0874               	movf	??_strcat,w
  2219  14F5  07F6               	addwf	strcat@cp,f
  2220  14F6                     l2433:
  2221  14F6  0876               	movf	strcat@cp,w
  2222  14F7  0084               	movwf	4
  2223  14F8  1383               	bcf	3,7	;select IRP bank0
  2224  14F9  0800               	movf	0,w
  2225  14FA  1D03               	btfss	3,2
  2226  14FB  2CFD               	goto	u2521
  2227  14FC  2CFE               	goto	u2520
  2228  14FD                     u2521:
  2229  14FD  2CF2               	goto	l2431
  2230  14FE                     u2520:
  2231  14FE  2D07               	goto	l2437
  2232  14FF                     l2435:
  2233  14FF  3001               	movlw	1
  2234  1500  00F4               	movwf	??_strcat
  2235  1501  0874               	movf	??_strcat,w
  2236  1502  07F6               	addwf	strcat@cp,f
  2237  1503  3001               	movlw	1
  2238  1504  00F4               	movwf	??_strcat
  2239  1505  0874               	movf	??_strcat,w
  2240  1506  07F3               	addwf	strcat@from,f
  2241  1507                     l2437:
  2242  1507  0873               	movf	strcat@from,w
  2243  1508  0084               	movwf	4
  2244  1509  0800               	movf	0,w
  2245  150A  00F4               	movwf	??_strcat
  2246  150B  0876               	movf	strcat@cp,w
  2247  150C  0084               	movwf	4
  2248  150D  0874               	movf	??_strcat,w
  2249  150E  0080               	movwf	0
  2250  150F  0800               	movf	0,w
  2251  1510  1D03               	btfss	3,2
  2252  1511  2D13               	goto	u2531
  2253  1512  2D14               	goto	u2530
  2254  1513                     u2531:
  2255  1513  2CFF               	goto	l2435
  2256  1514                     u2530:
  2257  1514                     l907:
  2258  1514  0008               	return
  2259  1515                     __end_of_strcat:
  2260                           
  2261                           	psect	text6
  2262  1455                     __ptext6:	
  2263 ;; *************** function _sprintf *****************
  2264 ;; Defined at:
  2265 ;;		line 13 in file "C:\Program Files\Microchip\xc8\v2.31\pic\sources\c90\common\sprintf.c"
  2266 ;; Parameters:    Size  Location     Type
  2267 ;;  wh              1    wreg     PTR unsigned char 
  2268 ;;		 -> concatenar@s2(20), concatenar@s1(20), 
  2269 ;;  f               1   22[BANK0 ] PTR const unsigned char 
  2270 ;;		 -> STR_8(3), STR_7(3), 
  2271 ;; Auto vars:     Size  Location     Type
  2272 ;;  wh              1   26[BANK0 ] PTR unsigned char 
  2273 ;;		 -> concatenar@s2(20), concatenar@s1(20), 
  2274 ;;  pb              2   28[BANK0 ] struct __prbuf
  2275 ;;  ap              1   27[BANK0 ] PTR void [1]
  2276 ;;		 -> ?_sprintf(2), ?_printf(2), 
  2277 ;; Return value:  Size  Location     Type
  2278 ;;                  2   22[BANK0 ] int 
  2279 ;; Registers used:
  2280 ;;		wreg, fsr0l, fsr0h, status,2, status,0, btemp+1, pclath, cstack
  2281 ;; Tracked objects:
  2282 ;;		On entry : 0/0
  2283 ;;		On exit  : 0/0
  2284 ;;		Unchanged: 0/0
  2285 ;; Data sizes:     COMMON   BANK0   BANK1   BANK3   BANK2
  2286 ;;      Params:         0       3       0       0       0
  2287 ;;      Locals:         0       4       0       0       0
  2288 ;;      Temps:          0       1       0       0       0
  2289 ;;      Totals:         0       8       0       0       0
  2290 ;;Total ram usage:        8 bytes
  2291 ;; Hardware stack levels used:    1
  2292 ;; Hardware stack levels required when called:    3
  2293 ;; This function calls:
  2294 ;;		__doprnt
  2295 ;; This function is called by:
  2296 ;;		_concatenar
  2297 ;; This function uses a non-reentrant model
  2298 ;;
  2299                           
  2300                           
  2301                           ;psect for function _sprintf
  2302  1455                     _sprintf:
  2303                           
  2304                           ;incstack = 0
  2305                           ; Regs used in _sprintf: [wreg-fsr0h+status,2+status,0+btemp+1+pclath+cstack]
  2306                           ;sprintf@wh stored from wreg
  2307  1455  1283               	bcf	3,5	;RP0=0, select bank0
  2308  1456  1303               	bcf	3,6	;RP1=0, select bank0
  2309  1457  00BA               	movwf	sprintf@wh
  2310  1458                     l3485:
  2311  1458  083A               	movf	sprintf@wh,w
  2312  1459  00B9               	movwf	??_sprintf
  2313  145A  0839               	movf	??_sprintf,w
  2314  145B  00BC               	movwf	sprintf@pb
  2315  145C                     l3487:
  2316  145C  01BD               	clrf	low ((sprintf@pb| 0+1))
  2317  145D                     l3489:
  2318  145D  3037               	movlw	(low ((?_sprintf| 0+1)))& (0+255)
  2319  145E  00B9               	movwf	??_sprintf
  2320  145F  0839               	movf	??_sprintf,w
  2321  1460  00BB               	movwf	sprintf@ap
  2322  1461                     l3491:
  2323  1461  0836               	movf	sprintf@f,w
  2324  1462  00A9               	movwf	__doprnt@f
  2325  1463  3000               	movlw	0
  2326  1464  1D03               	btfss	3,2
  2327  1465  3080               	movlw	128
  2328  1466  00AA               	movwf	__doprnt@f+1
  2329  1467  303B               	movlw	(low (sprintf@ap| 0))& (0+255)
  2330  1468  00B9               	movwf	??_sprintf
  2331  1469  0839               	movf	??_sprintf,w
  2332  146A  00AB               	movwf	__doprnt@ap
  2333  146B  303C               	movlw	(low (sprintf@pb| 0))& (0+255)
  2334  146C  120A  158A  222A  160A  118A  	fcall	__doprnt
  2335  1471                     l3493:
  2336  1471  1283               	bcf	3,5	;RP0=0, select bank0
  2337  1472  1303               	bcf	3,6	;RP1=0, select bank0
  2338  1473  083C               	movf	sprintf@pb,w
  2339  1474  0084               	movwf	4
  2340  1475  1383               	bcf	3,7	;select IRP bank0
  2341  1476  0180               	clrf	0
  2342  1477                     l898:
  2343  1477  0008               	return
  2344  1478                     __end_of_sprintf:
  2345                           
  2346                           	psect	text7
  2347  0A2A                     __ptext7:	
  2348 ;; *************** function __doprnt *****************
  2349 ;; Defined at:
  2350 ;;		line 471 in file "C:\Program Files\Microchip\xc8\v2.31\pic\sources\c90\common\doprnt.c"
  2351 ;; Parameters:    Size  Location     Type
  2352 ;;  pb              1    wreg     PTR struct __prbuf
  2353 ;;		 -> sprintf@pb(2), printf@pb(2), 
  2354 ;;  f               2    9[BANK0 ] PTR const unsigned char 
  2355 ;;		 -> STR_8(3), STR_7(3), STR_6(25), STR_5(21), 
  2356 ;;		 -> STR_4(20), STR_3(30), STR_2(18), STR_1(24), 
  2357 ;;		 -> contador_string(10), 
  2358 ;;  ap              1   11[BANK0 ] PTR PTR void 
  2359 ;;		 -> sprintf@ap(1), printf@ap(1), 
  2360 ;; Auto vars:     Size  Location     Type
  2361 ;;  pb              1   21[BANK0 ] PTR struct __prbuf
  2362 ;;		 -> sprintf@pb(2), printf@pb(2), 
  2363 ;;  tmpval          4    0        struct .
  2364 ;;  val             2   18[BANK0 ] unsigned int 
  2365 ;;  cp              2    0        PTR const unsigned char 
  2366 ;;  len             2    0        unsigned int 
  2367 ;;  c               1   20[BANK0 ] unsigned char 
  2368 ;;  prec            1   17[BANK0 ] char 
  2369 ;;  flag            1   16[BANK0 ] unsigned char 
  2370 ;; Return value:  Size  Location     Type
  2371 ;;                  2    9[BANK0 ] int 
  2372 ;; Registers used:
  2373 ;;		wreg, fsr0l, fsr0h, status,2, status,0, btemp+1, pclath, cstack
  2374 ;; Tracked objects:
  2375 ;;		On entry : 0/0
  2376 ;;		On exit  : 0/0
  2377 ;;		Unchanged: 0/0
  2378 ;; Data sizes:     COMMON   BANK0   BANK1   BANK3   BANK2
  2379 ;;      Params:         0       3       0       0       0
  2380 ;;      Locals:         0       6       0       0       0
  2381 ;;      Temps:          0       4       0       0       0
  2382 ;;      Totals:         0      13       0       0       0
  2383 ;;Total ram usage:       13 bytes
  2384 ;; Hardware stack levels used:    1
  2385 ;; Hardware stack levels required when called:    2
  2386 ;; This function calls:
  2387 ;;		Absolute function
  2388 ;;		___lwdiv
  2389 ;;		___lwmod
  2390 ;;		_putch
  2391 ;; This function is called by:
  2392 ;;		_printf
  2393 ;;		_sprintf
  2394 ;; This function uses a non-reentrant model
  2395 ;;
  2396                           
  2397                           
  2398                           ;psect for function __doprnt
  2399  0A2A                     __doprnt:
  2400                           
  2401                           ;incstack = 0
  2402                           ; Regs used in __doprnt: [wreg-fsr0h+status,2+status,0+btemp+1+pclath+cstack]
  2403                           ;__doprnt@pb stored from wreg
  2404  0A2A  1283               	bcf	3,5	;RP0=0, select bank0
  2405  0A2B  1303               	bcf	3,6	;RP1=0, select bank0
  2406  0A2C  00B5               	movwf	__doprnt@pb
  2407  0A2D                     l3405:
  2408                           
  2409                           ;C:\Program Files\Microchip\xc8\v2.31\pic\sources\c90\common\doprnt.c: 471: _doprnt(stru
      +                          ct __prbuf * pb, register const char * f, register va_list ap);C:\Program Files\Microchi
      +                          p\xc8\v2.31\pic\sources\c90\common\doprnt.c: 472: {;C:\Program Files\Microchip\xc8\v2.31
      +                          \pic\sources\c90\common\doprnt.c: 512:  char c;;C:\Program Files\Microchip\xc8\v2.31\pic
      +                          \sources\c90\common\doprnt.c: 521:  signed char prec;;C:\Program Files\Microchip\xc8\v2.
      +                          31\pic\sources\c90\common\doprnt.c: 525:  unsigned char flag;;C:\Program Files\Microchip
      +                          \xc8\v2.31\pic\sources\c90\common\doprnt.c: 543:  } tmpval;
  2410  0A2D  2B76               	goto	l3475
  2411  0A2E                     l3407:
  2412                           
  2413                           ;C:\Program Files\Microchip\xc8\v2.31\pic\sources\c90\common\doprnt.c: 555:   if(c != '%
      +                          ')
  2414  0A2E  3025               	movlw	37
  2415  0A2F  0634               	xorwf	__doprnt@c,w
  2416  0A30  1903               	btfsc	3,2
  2417  0A31  2A33               	goto	u4481
  2418  0A32  2A34               	goto	u4480
  2419  0A33                     u4481:
  2420  0A33  2A5A               	goto	l3417
  2421  0A34                     u4480:
  2422  0A34                     l3409:
  2423  0A34  0A35               	incf	__doprnt@pb,w
  2424  0A35  0084               	movwf	4
  2425  0A36  1383               	bcf	3,7	;select IRP bank0
  2426  0A37  0800               	movf	0,w
  2427  0A38  1903               	btfsc	3,2
  2428  0A39  2A3B               	goto	u4491
  2429  0A3A  2A3C               	goto	u4490
  2430  0A3B                     u4491:
  2431  0A3B  2A4B               	goto	l3413
  2432  0A3C                     u4490:
  2433  0A3C                     l3411:
  2434  0A3C  0834               	movf	__doprnt@c,w
  2435  0A3D  00AC               	movwf	??__doprnt
  2436  0A3E  082C               	movf	??__doprnt,w
  2437  0A3F  00F3               	movwf	putch@dato
  2438  0A40  0A35               	incf	__doprnt@pb,w
  2439  0A41  0084               	movwf	4
  2440  0A42  0800               	movf	0,w
  2441  0A43  120A  118A  2034  120A  158A  	fcall	fptable
  2442  0A48  1283               	bcf	3,5	;RP0=0, select bank0
  2443  0A49  1303               	bcf	3,6	;RP1=0, select bank0
  2444  0A4A  2A2D               	goto	l3405
  2445  0A4B                     l3413:
  2446  0A4B  0834               	movf	__doprnt@c,w
  2447  0A4C  00AC               	movwf	??__doprnt
  2448  0A4D  0835               	movf	__doprnt@pb,w
  2449  0A4E  0084               	movwf	4
  2450  0A4F  0800               	movf	0,w
  2451  0A50  0084               	movwf	4
  2452  0A51  082C               	movf	??__doprnt,w
  2453  0A52  0080               	movwf	0
  2454  0A53                     l3415:
  2455  0A53  3001               	movlw	1
  2456  0A54  00AC               	movwf	??__doprnt
  2457  0A55  0835               	movf	__doprnt@pb,w
  2458  0A56  0084               	movwf	4
  2459  0A57  082C               	movf	??__doprnt,w
  2460  0A58  0780               	addwf	0,f
  2461  0A59  2A2D               	goto	l3405
  2462  0A5A                     l3417:
  2463                           
  2464                           ;C:\Program Files\Microchip\xc8\v2.31\pic\sources\c90\common\doprnt.c: 565:   flag = 0;
  2465  0A5A  01B0               	clrf	__doprnt@flag
  2466                           
  2467                           ;C:\Program Files\Microchip\xc8\v2.31\pic\sources\c90\common\doprnt.c: 661:   switch(c =
      +                           *f++) {
  2468  0A5B  2A82               	goto	l3429
  2469  0A5C                     l3419:
  2470  0A5C  0A35               	incf	__doprnt@pb,w
  2471  0A5D  0084               	movwf	4
  2472  0A5E  1383               	bcf	3,7	;select IRP bank0
  2473  0A5F  0800               	movf	0,w
  2474  0A60  1903               	btfsc	3,2
  2475  0A61  2A63               	goto	u4501
  2476  0A62  2A64               	goto	u4500
  2477  0A63                     u4501:
  2478  0A63  2A73               	goto	l3423
  2479  0A64                     u4500:
  2480  0A64                     l3421:
  2481  0A64  0834               	movf	__doprnt@c,w
  2482  0A65  00AC               	movwf	??__doprnt
  2483  0A66  082C               	movf	??__doprnt,w
  2484  0A67  00F3               	movwf	putch@dato
  2485  0A68  0A35               	incf	__doprnt@pb,w
  2486  0A69  0084               	movwf	4
  2487  0A6A  0800               	movf	0,w
  2488  0A6B  120A  118A  2034  120A  158A  	fcall	fptable
  2489  0A70  1283               	bcf	3,5	;RP0=0, select bank0
  2490  0A71  1303               	bcf	3,6	;RP1=0, select bank0
  2491  0A72  2A2D               	goto	l3405
  2492  0A73                     l3423:
  2493  0A73  0834               	movf	__doprnt@c,w
  2494  0A74  00AC               	movwf	??__doprnt
  2495  0A75  0835               	movf	__doprnt@pb,w
  2496  0A76  0084               	movwf	4
  2497  0A77  0800               	movf	0,w
  2498  0A78  0084               	movwf	4
  2499  0A79  082C               	movf	??__doprnt,w
  2500  0A7A  0080               	movwf	0
  2501  0A7B                     l3425:
  2502  0A7B  3001               	movlw	1
  2503  0A7C  00AC               	movwf	??__doprnt
  2504  0A7D  0835               	movf	__doprnt@pb,w
  2505  0A7E  0084               	movwf	4
  2506  0A7F  082C               	movf	??__doprnt,w
  2507  0A80  0780               	addwf	0,f
  2508  0A81  2A2D               	goto	l3405
  2509  0A82                     l3429:
  2510  0A82  082A               	movf	__doprnt@f+1,w
  2511  0A83  00AD               	movwf	??__doprnt+1
  2512  0A84  0829               	movf	__doprnt@f,w
  2513  0A85  00AC               	movwf	??__doprnt
  2514  0A86  0AA9               	incf	__doprnt@f,f
  2515  0A87  1903               	skipnz
  2516  0A88  0AAA               	incf	__doprnt@f+1,f
  2517  0A89  082D               	movf	??__doprnt+1,w
  2518  0A8A  00FF               	movwf	btemp+1
  2519  0A8B  082C               	movf	??__doprnt,w
  2520  0A8C  0084               	movwf	4
  2521  0A8D  160A  118A  2000  120A  158A  	fcall	stringtab
  2522  0A92  00B4               	movwf	__doprnt@c
  2523  0A93  00AE               	movwf	??__doprnt+2
  2524  0A94  01AF               	clrf	??__doprnt+3
  2525                           
  2526                           ; Switch on 2 bytes has been partitioned into a top level switch of size 1, and 1 sub-sw
      +                          itches
  2527                           ; Switch size 1, requested type "simple"
  2528                           ; Number of cases is 1, Range of values is 0 to 0
  2529                           ; switch strategies available:
  2530                           ; Name         Instructions Cycles
  2531                           ; simple_byte            4     3 (average)
  2532                           ; direct_byte           11     8 (fixed)
  2533                           ; jumptable            260     6 (fixed)
  2534                           ;	Chosen strategy is simple_byte
  2535  0A95  082F               	movf	??__doprnt+3,w
  2536  0A96  3A00               	xorlw	0	; case 0
  2537  0A97  1903               	skipnz
  2538  0A98  2A9A               	goto	l4359
  2539  0A99  2A5C               	goto	l3419
  2540  0A9A                     l4359:
  2541                           
  2542                           ; Switch size 1, requested type "simple"
  2543                           ; Number of cases is 3, Range of values is 0 to 105
  2544                           ; switch strategies available:
  2545                           ; Name         Instructions Cycles
  2546                           ; simple_byte           10     6 (average)
  2547                           ; jumptable            260     6 (fixed)
  2548                           ;	Chosen strategy is simple_byte
  2549  0A9A  082E               	movf	??__doprnt+2,w
  2550  0A9B  3A00               	xorlw	0	; case 0
  2551  0A9C  1903               	skipnz
  2552  0A9D  2B90               	goto	l3477
  2553  0A9E  3A64               	xorlw	100	; case 100
  2554  0A9F  1903               	skipnz
  2555  0AA0  2AA5               	goto	l3431
  2556  0AA1  3A0D               	xorlw	13	; case 105
  2557  0AA2  1903               	skipnz
  2558  0AA3  2AA5               	goto	l3431
  2559  0AA4  2A5C               	goto	l3419
  2560  0AA5                     l3431:
  2561                           
  2562                           ;C:\Program Files\Microchip\xc8\v2.31\pic\sources\c90\common\doprnt.c: 1279:   {;C:\Prog
      +                          ram Files\Microchip\xc8\v2.31\pic\sources\c90\common\doprnt.c: 1285:     val = (unsigned
      +                           int)(*(int *)__va_arg((*(int **)ap), (int)0));
  2563  0AA5  082B               	movf	__doprnt@ap,w
  2564  0AA6  0084               	movwf	4
  2565  0AA7  1383               	bcf	3,7	;select IRP bank0
  2566  0AA8  0800               	movf	0,w
  2567  0AA9  00AC               	movwf	??__doprnt
  2568  0AAA  3002               	movlw	2
  2569  0AAB  0780               	addwf	0,f
  2570  0AAC  082C               	movf	??__doprnt,w
  2571  0AAD  0084               	movwf	4
  2572  0AAE  0800               	movf	0,w
  2573  0AAF  00B2               	movwf	__doprnt@val
  2574  0AB0  0A84               	incf	4,f
  2575  0AB1  0800               	movf	0,w
  2576  0AB2  00B3               	movwf	__doprnt@val+1
  2577  0AB3                     l3433:
  2578                           
  2579                           ;C:\Program Files\Microchip\xc8\v2.31\pic\sources\c90\common\doprnt.c: 1287:    if((int)
      +                          val < 0) {
  2580  0AB3  1FB3               	btfss	__doprnt@val+1,7
  2581  0AB4  2AB6               	goto	u4511
  2582  0AB5  2AB7               	goto	u4510
  2583  0AB6                     u4511:
  2584  0AB6  2AC0               	goto	l3439
  2585  0AB7                     u4510:
  2586  0AB7                     l3435:
  2587                           
  2588                           ;C:\Program Files\Microchip\xc8\v2.31\pic\sources\c90\common\doprnt.c: 1288:     flag |=
      +                           0x03;
  2589  0AB7  3003               	movlw	3
  2590  0AB8  00AC               	movwf	??__doprnt
  2591  0AB9  082C               	movf	??__doprnt,w
  2592  0ABA  04B0               	iorwf	__doprnt@flag,f
  2593  0ABB                     l3437:
  2594                           
  2595                           ;C:\Program Files\Microchip\xc8\v2.31\pic\sources\c90\common\doprnt.c: 1289:     val = -
      +                          val;
  2596  0ABB  09B2               	comf	__doprnt@val,f
  2597  0ABC  09B3               	comf	__doprnt@val+1,f
  2598  0ABD  0AB2               	incf	__doprnt@val,f
  2599  0ABE  1903               	skipnz
  2600  0ABF  0AB3               	incf	__doprnt@val+1,f
  2601  0AC0                     l3439:
  2602                           
  2603                           ;C:\Program Files\Microchip\xc8\v2.31\pic\sources\c90\common\doprnt.c: 1292:   };C:\Prog
      +                          ram Files\Microchip\xc8\v2.31\pic\sources\c90\common\doprnt.c: 1331:    for(c = 1 ; c !=
      +                           sizeof dpowers/sizeof dpowers[0] ; c++)
  2604  0AC0  01B4               	clrf	__doprnt@c
  2605  0AC1  0AB4               	incf	__doprnt@c,f
  2606  0AC2                     l3445:
  2607                           
  2608                           ;C:\Program Files\Microchip\xc8\v2.31\pic\sources\c90\common\doprnt.c: 1332:     if(val 
      +                          < dpowers[c])
  2609  0AC2  0834               	movf	__doprnt@c,w
  2610  0AC3  00AC               	movwf	??__doprnt
  2611  0AC4  072C               	addwf	??__doprnt,w
  2612  0AC5  3E01               	addlw	low ((_dpowers-__stringbase)| (0+32768))
  2613  0AC6  0084               	movwf	4
  2614  0AC7  160A  118A  200A  120A  158A  	fcall	stringdir
  2615  0ACC  00AD               	movwf	??__doprnt+1
  2616  0ACD  160A  118A  200A  120A  158A  	fcall	stringdir
  2617  0AD2  00AE               	movwf	??__doprnt+2
  2618  0AD3  082E               	movf	??__doprnt+2,w
  2619  0AD4  0233               	subwf	__doprnt@val+1,w
  2620  0AD5  1D03               	skipz
  2621  0AD6  2AD9               	goto	u4525
  2622  0AD7  082D               	movf	??__doprnt+1,w
  2623  0AD8  0232               	subwf	__doprnt@val,w
  2624  0AD9                     u4525:
  2625  0AD9  1803               	skipnc
  2626  0ADA  2ADC               	goto	u4521
  2627  0ADB  2ADD               	goto	u4520
  2628  0ADC                     u4521:
  2629  0ADC  2ADE               	goto	l3449
  2630  0ADD                     u4520:
  2631  0ADD  2AE8               	goto	l3451
  2632  0ADE                     l3449:
  2633  0ADE  3001               	movlw	1
  2634  0ADF  00AC               	movwf	??__doprnt
  2635  0AE0  082C               	movf	??__doprnt,w
  2636  0AE1  07B4               	addwf	__doprnt@c,f
  2637  0AE2  3005               	movlw	5
  2638  0AE3  0634               	xorwf	__doprnt@c,w
  2639  0AE4  1D03               	btfss	3,2
  2640  0AE5  2AE7               	goto	u4531
  2641  0AE6  2AE8               	goto	u4530
  2642  0AE7                     u4531:
  2643  0AE7  2AC2               	goto	l3445
  2644  0AE8                     u4530:
  2645  0AE8                     l3451:
  2646                           
  2647                           ;C:\Program Files\Microchip\xc8\v2.31\pic\sources\c90\common\doprnt.c: 1448:   {;C:\Prog
      +                          ram Files\Microchip\xc8\v2.31\pic\sources\c90\common\doprnt.c: 1464:    if(flag & 0x03)
  2648  0AE8  0830               	movf	__doprnt@flag,w
  2649  0AE9  3903               	andlw	3
  2650  0AEA  1903               	btfsc	3,2
  2651  0AEB  2AED               	goto	u4541
  2652  0AEC  2AEE               	goto	u4540
  2653  0AED                     u4541:
  2654  0AED  2B11               	goto	l3461
  2655  0AEE                     u4540:
  2656  0AEE                     l3453:
  2657  0AEE  0A35               	incf	__doprnt@pb,w
  2658  0AEF  0084               	movwf	4
  2659  0AF0  1383               	bcf	3,7	;select IRP bank0
  2660  0AF1  0800               	movf	0,w
  2661  0AF2  1903               	btfsc	3,2
  2662  0AF3  2AF5               	goto	u4551
  2663  0AF4  2AF6               	goto	u4550
  2664  0AF5                     u4551:
  2665  0AF5  2B03               	goto	l3457
  2666  0AF6                     u4550:
  2667  0AF6                     l3455:
  2668  0AF6  302D               	movlw	45
  2669  0AF7  00AC               	movwf	??__doprnt
  2670  0AF8  082C               	movf	??__doprnt,w
  2671  0AF9  00F3               	movwf	putch@dato
  2672  0AFA  0A35               	incf	__doprnt@pb,w
  2673  0AFB  0084               	movwf	4
  2674  0AFC  0800               	movf	0,w
  2675  0AFD  120A  118A  2034  120A  158A  	fcall	fptable
  2676  0B02  2B11               	goto	l3461
  2677  0B03                     l3457:
  2678  0B03  302D               	movlw	45
  2679  0B04  00AC               	movwf	??__doprnt
  2680  0B05  0835               	movf	__doprnt@pb,w
  2681  0B06  0084               	movwf	4
  2682  0B07  0800               	movf	0,w
  2683  0B08  0084               	movwf	4
  2684  0B09  082C               	movf	??__doprnt,w
  2685  0B0A  0080               	movwf	0
  2686  0B0B                     l3459:
  2687  0B0B  3001               	movlw	1
  2688  0B0C  00AC               	movwf	??__doprnt
  2689  0B0D  0835               	movf	__doprnt@pb,w
  2690  0B0E  0084               	movwf	4
  2691  0B0F  082C               	movf	??__doprnt,w
  2692  0B10  0780               	addwf	0,f
  2693  0B11                     l3461:
  2694                           
  2695                           ;C:\Program Files\Microchip\xc8\v2.31\pic\sources\c90\common\doprnt.c: 1495:   };C:\Prog
      +                          ram Files\Microchip\xc8\v2.31\pic\sources\c90\common\doprnt.c: 1498:   prec = c;
  2696  0B11  1283               	bcf	3,5	;RP0=0, select bank0
  2697  0B12  1303               	bcf	3,6	;RP1=0, select bank0
  2698  0B13  0834               	movf	__doprnt@c,w
  2699  0B14  00AC               	movwf	??__doprnt
  2700  0B15  082C               	movf	??__doprnt,w
  2701  0B16  00B1               	movwf	__doprnt@prec
  2702                           
  2703                           ;C:\Program Files\Microchip\xc8\v2.31\pic\sources\c90\common\doprnt.c: 1500:   while(pre
      +                          c--) {
  2704  0B17  2B6B               	goto	l3473
  2705  0B18                     l3463:
  2706                           
  2707                           ;C:\Program Files\Microchip\xc8\v2.31\pic\sources\c90\common\doprnt.c: 1504:    {;C:\Pro
      +                          gram Files\Microchip\xc8\v2.31\pic\sources\c90\common\doprnt.c: 1515:     c = (val / dpo
      +                          wers[(unsigned char)prec]) % 10 + '0';
  2708  0B18  300A               	movlw	10
  2709  0B19  00A3               	movwf	___lwmod@divisor
  2710  0B1A  3000               	movlw	0
  2711  0B1B  00A4               	movwf	___lwmod@divisor+1
  2712  0B1C  0831               	movf	__doprnt@prec,w
  2713  0B1D  00AC               	movwf	??__doprnt
  2714  0B1E  072C               	addwf	??__doprnt,w
  2715  0B1F  3E01               	addlw	low ((_dpowers-__stringbase)| (0+32768))
  2716  0B20  0084               	movwf	4
  2717  0B21  160A  118A  200A  120A  158A  	fcall	stringdir
  2718  0B26  00F3               	movwf	___lwdiv@divisor
  2719  0B27  160A  118A  200A  120A  158A  	fcall	stringdir
  2720  0B2C  00F4               	movwf	___lwdiv@divisor+1
  2721  0B2D  0833               	movf	__doprnt@val+1,w
  2722  0B2E  00F6               	movwf	___lwdiv@dividend+1
  2723  0B2F  0832               	movf	__doprnt@val,w
  2724  0B30  00F5               	movwf	___lwdiv@dividend
  2725  0B31  160A  118A  25A8  120A  158A  	fcall	___lwdiv
  2726  0B36  0874               	movf	?___lwdiv+1,w
  2727  0B37  1283               	bcf	3,5	;RP0=0, select bank0
  2728  0B38  1303               	bcf	3,6	;RP1=0, select bank0
  2729  0B39  00A6               	movwf	___lwmod@dividend+1
  2730  0B3A  0873               	movf	?___lwdiv,w
  2731  0B3B  00A5               	movwf	___lwmod@dividend
  2732  0B3C  160A  118A  256C  120A  158A  	fcall	___lwmod
  2733  0B41  1283               	bcf	3,5	;RP0=0, select bank0
  2734  0B42  1303               	bcf	3,6	;RP1=0, select bank0
  2735  0B43  0823               	movf	?___lwmod,w
  2736  0B44  3E30               	addlw	48
  2737  0B45  00AD               	movwf	??__doprnt+1
  2738  0B46  082D               	movf	??__doprnt+1,w
  2739  0B47  00B4               	movwf	__doprnt@c
  2740  0B48                     l3465:
  2741  0B48  0A35               	incf	__doprnt@pb,w
  2742  0B49  0084               	movwf	4
  2743  0B4A  1383               	bcf	3,7	;select IRP bank0
  2744  0B4B  0800               	movf	0,w
  2745  0B4C  1903               	btfsc	3,2
  2746  0B4D  2B4F               	goto	u4561
  2747  0B4E  2B50               	goto	u4560
  2748  0B4F                     u4561:
  2749  0B4F  2B5D               	goto	l3469
  2750  0B50                     u4560:
  2751  0B50                     l3467:
  2752  0B50  0834               	movf	__doprnt@c,w
  2753  0B51  00AC               	movwf	??__doprnt
  2754  0B52  082C               	movf	??__doprnt,w
  2755  0B53  00F3               	movwf	putch@dato
  2756  0B54  0A35               	incf	__doprnt@pb,w
  2757  0B55  0084               	movwf	4
  2758  0B56  0800               	movf	0,w
  2759  0B57  120A  118A  2034  120A  158A  	fcall	fptable
  2760  0B5C  2B6B               	goto	l3473
  2761  0B5D                     l3469:
  2762  0B5D  0834               	movf	__doprnt@c,w
  2763  0B5E  00AC               	movwf	??__doprnt
  2764  0B5F  0835               	movf	__doprnt@pb,w
  2765  0B60  0084               	movwf	4
  2766  0B61  0800               	movf	0,w
  2767  0B62  0084               	movwf	4
  2768  0B63  082C               	movf	??__doprnt,w
  2769  0B64  0080               	movwf	0
  2770  0B65                     l3471:
  2771  0B65  3001               	movlw	1
  2772  0B66  00AC               	movwf	??__doprnt
  2773  0B67  0835               	movf	__doprnt@pb,w
  2774  0B68  0084               	movwf	4
  2775  0B69  082C               	movf	??__doprnt,w
  2776  0B6A  0780               	addwf	0,f
  2777  0B6B                     l3473:
  2778                           
  2779                           ;C:\Program Files\Microchip\xc8\v2.31\pic\sources\c90\common\doprnt.c: 1500:   while(pre
      +                          c--) {
  2780  0B6B  30FF               	movlw	255
  2781  0B6C  1283               	bcf	3,5	;RP0=0, select bank0
  2782  0B6D  1303               	bcf	3,6	;RP1=0, select bank0
  2783  0B6E  00AC               	movwf	??__doprnt
  2784  0B6F  082C               	movf	??__doprnt,w
  2785  0B70  07B1               	addwf	__doprnt@prec,f
  2786  0B71  0A31               	incf	__doprnt@prec,w
  2787  0B72  1D03               	btfss	3,2
  2788  0B73  2B75               	goto	u4571
  2789  0B74  2B76               	goto	u4570
  2790  0B75                     u4571:
  2791  0B75  2B18               	goto	l3463
  2792  0B76                     u4570:
  2793  0B76                     l3475:
  2794                           
  2795                           ;C:\Program Files\Microchip\xc8\v2.31\pic\sources\c90\common\doprnt.c: 553:  while((c = 
      +                          *f++)) {
  2796  0B76  1283               	bcf	3,5	;RP0=0, select bank0
  2797  0B77  1303               	bcf	3,6	;RP1=0, select bank0
  2798  0B78  082A               	movf	__doprnt@f+1,w
  2799  0B79  00AD               	movwf	??__doprnt+1
  2800  0B7A  0829               	movf	__doprnt@f,w
  2801  0B7B  00AC               	movwf	??__doprnt
  2802  0B7C  0AA9               	incf	__doprnt@f,f
  2803  0B7D  1903               	skipnz
  2804  0B7E  0AAA               	incf	__doprnt@f+1,f
  2805  0B7F  082D               	movf	??__doprnt+1,w
  2806  0B80  00FF               	movwf	btemp+1
  2807  0B81  082C               	movf	??__doprnt,w
  2808  0B82  0084               	movwf	4
  2809  0B83  160A  118A  2000  120A  158A  	fcall	stringtab
  2810  0B88  00AE               	movwf	??__doprnt+2
  2811  0B89  082E               	movf	??__doprnt+2,w
  2812  0B8A  00B4               	movwf	__doprnt@c
  2813  0B8B  0834               	movf	__doprnt@c,w
  2814  0B8C  1D03               	btfss	3,2
  2815  0B8D  2B8F               	goto	u4581
  2816  0B8E  2B90               	goto	u4580
  2817  0B8F                     u4581:
  2818  0B8F  2A2E               	goto	l3407
  2819  0B90                     u4580:
  2820  0B90                     l3477:
  2821                           
  2822                           ;C:\Program Files\Microchip\xc8\v2.31\pic\sources\c90\common\doprnt.c: 1566:  return 0;
  2823  0B90  01A9               	clrf	?__doprnt
  2824  0B91  01AA               	clrf	?__doprnt+1
  2825  0B92                     l891:
  2826  0B92  0008               	return
  2827  0B93                     __end_of__doprnt:
  2828                           
  2829                           	psect	text8
  2830  13FD                     __ptext8:	
  2831 ;; *************** function _putch *****************
  2832 ;; Defined at:
  2833 ;;		line 272 in file "Lab05.c"
  2834 ;; Parameters:    Size  Location     Type
  2835 ;;  dato            1    3[COMMON] unsigned char 
  2836 ;; Auto vars:     Size  Location     Type
  2837 ;;		None
  2838 ;; Return value:  Size  Location     Type
  2839 ;;                  1    wreg      void 
  2840 ;; Registers used:
  2841 ;;		wreg
  2842 ;; Tracked objects:
  2843 ;;		On entry : 0/0
  2844 ;;		On exit  : 0/0
  2845 ;;		Unchanged: 0/0
  2846 ;; Data sizes:     COMMON   BANK0   BANK1   BANK3   BANK2
  2847 ;;      Params:         1       0       0       0       0
  2848 ;;      Locals:         0       0       0       0       0
  2849 ;;      Temps:          0       0       0       0       0
  2850 ;;      Totals:         1       0       0       0       0
  2851 ;;Total ram usage:        1 bytes
  2852 ;; Hardware stack levels used:    1
  2853 ;; Hardware stack levels required when called:    1
  2854 ;; This function calls:
  2855 ;;		Nothing
  2856 ;; This function is called by:
  2857 ;;		_printf
  2858 ;;		__doprnt
  2859 ;; This function uses a non-reentrant model
  2860 ;;
  2861                           
  2862                           
  2863                           ;psect for function _putch
  2864  13FD                     _putch:
  2865  13FD                     l2257:	
  2866                           ;incstack = 0
  2867                           ; Regs used in _putch: [wreg]
  2868                           
  2869  13FD                     l280:	
  2870                           ;Lab05.c: 273:     while(TXIF == 0);
  2871                           
  2872  13FD  1283               	bcf	3,5	;RP0=0, select bank0
  2873  13FE  1303               	bcf	3,6	;RP1=0, select bank0
  2874  13FF  1E0C               	btfss	12,4	;volatile
  2875  1400  2C02               	goto	u2211
  2876  1401  2C03               	goto	u2210
  2877  1402                     u2211:
  2878  1402  2BFD               	goto	l280
  2879  1403                     u2210:
  2880  1403                     l2259:
  2881                           
  2882                           ;Lab05.c: 274:     TXREG = dato;
  2883  1403  0873               	movf	putch@dato,w
  2884  1404  0099               	movwf	25	;volatile
  2885  1405                     l283:
  2886  1405  0008               	return
  2887  1406                     __end_of_putch:
  2888                           
  2889                           	psect	text9
  2890  156C                     __ptext9:	
  2891 ;; *************** function ___lwmod *****************
  2892 ;; Defined at:
  2893 ;;		line 5 in file "C:\Program Files\Microchip\xc8\v2.31\pic\sources\c90\common\lwmod.c"
  2894 ;; Parameters:    Size  Location     Type
  2895 ;;  divisor         2    3[BANK0 ] unsigned int 
  2896 ;;  dividend        2    5[BANK0 ] unsigned int 
  2897 ;; Auto vars:     Size  Location     Type
  2898 ;;  counter         1    8[BANK0 ] unsigned char 
  2899 ;; Return value:  Size  Location     Type
  2900 ;;                  2    3[BANK0 ] unsigned int 
  2901 ;; Registers used:
  2902 ;;		wreg, status,2, status,0
  2903 ;; Tracked objects:
  2904 ;;		On entry : 0/0
  2905 ;;		On exit  : 0/0
  2906 ;;		Unchanged: 0/0
  2907 ;; Data sizes:     COMMON   BANK0   BANK1   BANK3   BANK2
  2908 ;;      Params:         0       4       0       0       0
  2909 ;;      Locals:         0       1       0       0       0
  2910 ;;      Temps:          0       1       0       0       0
  2911 ;;      Totals:         0       6       0       0       0
  2912 ;;Total ram usage:        6 bytes
  2913 ;; Hardware stack levels used:    1
  2914 ;; Hardware stack levels required when called:    1
  2915 ;; This function calls:
  2916 ;;		Nothing
  2917 ;; This function is called by:
  2918 ;;		__doprnt
  2919 ;; This function uses a non-reentrant model
  2920 ;;
  2921                           
  2922                           
  2923                           ;psect for function ___lwmod
  2924  156C                     ___lwmod:
  2925  156C                     l2289:	
  2926                           ;incstack = 0
  2927                           ; Regs used in ___lwmod: [wreg+status,2+status,0]
  2928                           
  2929  156C  1283               	bcf	3,5	;RP0=0, select bank0
  2930  156D  1303               	bcf	3,6	;RP1=0, select bank0
  2931  156E  0823               	movf	___lwmod@divisor,w
  2932  156F  0424               	iorwf	___lwmod@divisor+1,w
  2933  1570  1903               	btfsc	3,2
  2934  1571  2D73               	goto	u2291
  2935  1572  2D74               	goto	u2290
  2936  1573                     u2291:
  2937  1573  2DA3               	goto	l2307
  2938  1574                     u2290:
  2939  1574                     l2291:
  2940  1574  01A8               	clrf	___lwmod@counter
  2941  1575  0AA8               	incf	___lwmod@counter,f
  2942  1576  2D82               	goto	l2297
  2943  1577                     l2293:
  2944  1577  3001               	movlw	1
  2945  1578                     u2305:
  2946  1578  1003               	clrc
  2947  1579  0DA3               	rlf	___lwmod@divisor,f
  2948  157A  0DA4               	rlf	___lwmod@divisor+1,f
  2949  157B  3EFF               	addlw	-1
  2950  157C  1D03               	skipz
  2951  157D  2D78               	goto	u2305
  2952  157E                     l2295:
  2953  157E  3001               	movlw	1
  2954  157F  00A7               	movwf	??___lwmod
  2955  1580  0827               	movf	??___lwmod,w
  2956  1581  07A8               	addwf	___lwmod@counter,f
  2957  1582                     l2297:
  2958  1582  1FA4               	btfss	___lwmod@divisor+1,7
  2959  1583  2D85               	goto	u2311
  2960  1584  2D86               	goto	u2310
  2961  1585                     u2311:
  2962  1585  2D77               	goto	l2293
  2963  1586                     u2310:
  2964  1586                     l2299:
  2965  1586  0824               	movf	___lwmod@divisor+1,w
  2966  1587  0226               	subwf	___lwmod@dividend+1,w
  2967  1588  1D03               	skipz
  2968  1589  2D8C               	goto	u2325
  2969  158A  0823               	movf	___lwmod@divisor,w
  2970  158B  0225               	subwf	___lwmod@dividend,w
  2971  158C                     u2325:
  2972  158C  1C03               	skipc
  2973  158D  2D8F               	goto	u2321
  2974  158E  2D90               	goto	u2320
  2975  158F                     u2321:
  2976  158F  2D96               	goto	l2303
  2977  1590                     u2320:
  2978  1590                     l2301:
  2979  1590  0823               	movf	___lwmod@divisor,w
  2980  1591  02A5               	subwf	___lwmod@dividend,f
  2981  1592  0824               	movf	___lwmod@divisor+1,w
  2982  1593  1C03               	skipc
  2983  1594  03A6               	decf	___lwmod@dividend+1,f
  2984  1595  02A6               	subwf	___lwmod@dividend+1,f
  2985  1596                     l2303:
  2986  1596  3001               	movlw	1
  2987  1597                     u2335:
  2988  1597  1003               	clrc
  2989  1598  0CA4               	rrf	___lwmod@divisor+1,f
  2990  1599  0CA3               	rrf	___lwmod@divisor,f
  2991  159A  3EFF               	addlw	-1
  2992  159B  1D03               	skipz
  2993  159C  2D97               	goto	u2335
  2994  159D                     l2305:
  2995  159D  3001               	movlw	1
  2996  159E  02A8               	subwf	___lwmod@counter,f
  2997  159F  1D03               	btfss	3,2
  2998  15A0  2DA2               	goto	u2341
  2999  15A1  2DA3               	goto	u2340
  3000  15A2                     u2341:
  3001  15A2  2D86               	goto	l2299
  3002  15A3                     u2340:
  3003  15A3                     l2307:
  3004  15A3  0826               	movf	___lwmod@dividend+1,w
  3005  15A4  00A4               	movwf	?___lwmod+1
  3006  15A5  0825               	movf	___lwmod@dividend,w
  3007  15A6  00A3               	movwf	?___lwmod
  3008  15A7                     l654:
  3009  15A7  0008               	return
  3010  15A8                     __end_of___lwmod:
  3011                           
  3012                           	psect	text10
  3013  15A8                     __ptext10:	
  3014 ;; *************** function ___lwdiv *****************
  3015 ;; Defined at:
  3016 ;;		line 5 in file "C:\Program Files\Microchip\xc8\v2.31\pic\sources\c90\common\lwdiv.c"
  3017 ;; Parameters:    Size  Location     Type
  3018 ;;  divisor         2    3[COMMON] unsigned int 
  3019 ;;  dividend        2    5[COMMON] unsigned int 
  3020 ;; Auto vars:     Size  Location     Type
  3021 ;;  quotient        2    1[BANK0 ] unsigned int 
  3022 ;;  counter         1    0[BANK0 ] unsigned char 
  3023 ;; Return value:  Size  Location     Type
  3024 ;;                  2    3[COMMON] unsigned int 
  3025 ;; Registers used:
  3026 ;;		wreg, status,2, status,0
  3027 ;; Tracked objects:
  3028 ;;		On entry : 0/0
  3029 ;;		On exit  : 0/0
  3030 ;;		Unchanged: 0/0
  3031 ;; Data sizes:     COMMON   BANK0   BANK1   BANK3   BANK2
  3032 ;;      Params:         4       0       0       0       0
  3033 ;;      Locals:         0       3       0       0       0
  3034 ;;      Temps:          1       0       0       0       0
  3035 ;;      Totals:         5       3       0       0       0
  3036 ;;Total ram usage:        8 bytes
  3037 ;; Hardware stack levels used:    1
  3038 ;; Hardware stack levels required when called:    1
  3039 ;; This function calls:
  3040 ;;		Nothing
  3041 ;; This function is called by:
  3042 ;;		__doprnt
  3043 ;; This function uses a non-reentrant model
  3044 ;;
  3045                           
  3046                           
  3047                           ;psect for function ___lwdiv
  3048  15A8                     ___lwdiv:
  3049  15A8                     l3365:	
  3050                           ;incstack = 0
  3051                           ; Regs used in ___lwdiv: [wreg+status,2+status,0]
  3052                           
  3053  15A8  1283               	bcf	3,5	;RP0=0, select bank0
  3054  15A9  1303               	bcf	3,6	;RP1=0, select bank0
  3055  15AA  01A1               	clrf	___lwdiv@quotient
  3056  15AB  01A2               	clrf	___lwdiv@quotient+1
  3057  15AC                     l3367:
  3058  15AC  0873               	movf	___lwdiv@divisor,w
  3059  15AD  0474               	iorwf	___lwdiv@divisor+1,w
  3060  15AE  1903               	btfsc	3,2
  3061  15AF  2DB1               	goto	u4371
  3062  15B0  2DB2               	goto	u4370
  3063  15B1                     u4371:
  3064  15B1  2DE9               	goto	l3387
  3065  15B2                     u4370:
  3066  15B2                     l3369:
  3067  15B2  01A0               	clrf	___lwdiv@counter
  3068  15B3  0AA0               	incf	___lwdiv@counter,f
  3069  15B4  2DC0               	goto	l3375
  3070  15B5                     l3371:
  3071  15B5  3001               	movlw	1
  3072  15B6                     u4385:
  3073  15B6  1003               	clrc
  3074  15B7  0DF3               	rlf	___lwdiv@divisor,f
  3075  15B8  0DF4               	rlf	___lwdiv@divisor+1,f
  3076  15B9  3EFF               	addlw	-1
  3077  15BA  1D03               	skipz
  3078  15BB  2DB6               	goto	u4385
  3079  15BC                     l3373:
  3080  15BC  3001               	movlw	1
  3081  15BD  00F7               	movwf	??___lwdiv
  3082  15BE  0877               	movf	??___lwdiv,w
  3083  15BF  07A0               	addwf	___lwdiv@counter,f
  3084  15C0                     l3375:
  3085  15C0  1FF4               	btfss	___lwdiv@divisor+1,7
  3086  15C1  2DC3               	goto	u4391
  3087  15C2  2DC4               	goto	u4390
  3088  15C3                     u4391:
  3089  15C3  2DB5               	goto	l3371
  3090  15C4                     u4390:
  3091  15C4                     l3377:
  3092  15C4  3001               	movlw	1
  3093  15C5                     u4405:
  3094  15C5  1003               	clrc
  3095  15C6  0DA1               	rlf	___lwdiv@quotient,f
  3096  15C7  0DA2               	rlf	___lwdiv@quotient+1,f
  3097  15C8  3EFF               	addlw	-1
  3098  15C9  1D03               	skipz
  3099  15CA  2DC5               	goto	u4405
  3100  15CB  0874               	movf	___lwdiv@divisor+1,w
  3101  15CC  0276               	subwf	___lwdiv@dividend+1,w
  3102  15CD  1D03               	skipz
  3103  15CE  2DD1               	goto	u4415
  3104  15CF  0873               	movf	___lwdiv@divisor,w
  3105  15D0  0275               	subwf	___lwdiv@dividend,w
  3106  15D1                     u4415:
  3107  15D1  1C03               	skipc
  3108  15D2  2DD4               	goto	u4411
  3109  15D3  2DD5               	goto	u4410
  3110  15D4                     u4411:
  3111  15D4  2DDC               	goto	l3383
  3112  15D5                     u4410:
  3113  15D5                     l3379:
  3114  15D5  0873               	movf	___lwdiv@divisor,w
  3115  15D6  02F5               	subwf	___lwdiv@dividend,f
  3116  15D7  0874               	movf	___lwdiv@divisor+1,w
  3117  15D8  1C03               	skipc
  3118  15D9  03F6               	decf	___lwdiv@dividend+1,f
  3119  15DA  02F6               	subwf	___lwdiv@dividend+1,f
  3120  15DB                     l3381:
  3121  15DB  1421               	bsf	___lwdiv@quotient,0
  3122  15DC                     l3383:
  3123  15DC  3001               	movlw	1
  3124  15DD                     u4425:
  3125  15DD  1003               	clrc
  3126  15DE  0CF4               	rrf	___lwdiv@divisor+1,f
  3127  15DF  0CF3               	rrf	___lwdiv@divisor,f
  3128  15E0  3EFF               	addlw	-1
  3129  15E1  1D03               	skipz
  3130  15E2  2DDD               	goto	u4425
  3131  15E3                     l3385:
  3132  15E3  3001               	movlw	1
  3133  15E4  02A0               	subwf	___lwdiv@counter,f
  3134  15E5  1D03               	btfss	3,2
  3135  15E6  2DE8               	goto	u4431
  3136  15E7  2DE9               	goto	u4430
  3137  15E8                     u4431:
  3138  15E8  2DC4               	goto	l3377
  3139  15E9                     u4430:
  3140  15E9                     l3387:
  3141  15E9  0822               	movf	___lwdiv@quotient+1,w
  3142  15EA  00F4               	movwf	?___lwdiv+1
  3143  15EB  0821               	movf	___lwdiv@quotient,w
  3144  15EC  00F3               	movwf	?___lwdiv
  3145  15ED                     l644:
  3146  15ED  0008               	return
  3147  15EE                     __end_of___lwdiv:
  3148                           
  3149                           	psect	text11
  3150  16D9                     __ptext11:	
  3151 ;; *************** function _atoi *****************
  3152 ;; Defined at:
  3153 ;;		line 5 in file "C:\Program Files\Microchip\xc8\v2.31\pic\sources\c90\common\atoi.c"
  3154 ;; Parameters:    Size  Location     Type
  3155 ;;  s               1    wreg     PTR const unsigned char 
  3156 ;;		 -> concatenar@s1(20), 
  3157 ;; Auto vars:     Size  Location     Type
  3158 ;;  s               1   20[BANK0 ] PTR const unsigned char 
  3159 ;;		 -> concatenar@s1(20), 
  3160 ;;  a               2   18[BANK0 ] int 
  3161 ;;  sign            1   17[BANK0 ] unsigned char 
  3162 ;; Return value:  Size  Location     Type
  3163 ;;                  2   13[BANK0 ] int 
  3164 ;; Registers used:
  3165 ;;		wreg, fsr0l, fsr0h, status,2, status,0, pclath, cstack
  3166 ;; Tracked objects:
  3167 ;;		On entry : 0/0
  3168 ;;		On exit  : 0/0
  3169 ;;		Unchanged: 0/0
  3170 ;; Data sizes:     COMMON   BANK0   BANK1   BANK3   BANK2
  3171 ;;      Params:         0       2       0       0       0
  3172 ;;      Locals:         0       4       0       0       0
  3173 ;;      Temps:          0       2       0       0       0
  3174 ;;      Totals:         0       8       0       0       0
  3175 ;;Total ram usage:        8 bytes
  3176 ;; Hardware stack levels used:    1
  3177 ;; Hardware stack levels required when called:    2
  3178 ;; This function calls:
  3179 ;;		___wmul
  3180 ;;		_isdigit
  3181 ;; This function is called by:
  3182 ;;		_concatenar
  3183 ;; This function uses a non-reentrant model
  3184 ;;
  3185                           
  3186                           
  3187                           ;psect for function _atoi
  3188  16D9                     _atoi:
  3189                           
  3190                           ;incstack = 0
  3191                           ; Regs used in _atoi: [wreg-fsr0h+status,2+status,0+pclath+cstack]
  3192                           ;atoi@s stored from wreg
  3193  16D9  1283               	bcf	3,5	;RP0=0, select bank0
  3194  16DA  1303               	bcf	3,6	;RP1=0, select bank0
  3195  16DB  00B4               	movwf	atoi@s
  3196  16DC                     l3497:
  3197  16DC  2EE1               	goto	l3501
  3198  16DD                     l3499:
  3199  16DD  3001               	movlw	1
  3200  16DE  00AF               	movwf	??_atoi
  3201  16DF  082F               	movf	??_atoi,w
  3202  16E0  07B4               	addwf	atoi@s,f
  3203  16E1                     l3501:
  3204  16E1  0834               	movf	atoi@s,w
  3205  16E2  0084               	movwf	4
  3206  16E3  3020               	movlw	32
  3207  16E4  1383               	bcf	3,7	;select IRP bank0
  3208  16E5  0600               	xorwf	0,w
  3209  16E6  1903               	btfsc	3,2
  3210  16E7  2EE9               	goto	u4591
  3211  16E8  2EEA               	goto	u4590
  3212  16E9                     u4591:
  3213  16E9  2EDD               	goto	l3499
  3214  16EA                     u4590:
  3215  16EA                     l3503:
  3216  16EA  0834               	movf	atoi@s,w
  3217  16EB  0084               	movwf	4
  3218  16EC  3009               	movlw	9
  3219  16ED  0600               	xorwf	0,w
  3220  16EE  1903               	btfsc	3,2
  3221  16EF  2EF1               	goto	u4601
  3222  16F0  2EF2               	goto	u4600
  3223  16F1                     u4601:
  3224  16F1  2EDD               	goto	l3499
  3225  16F2                     u4600:
  3226  16F2                     l3505:
  3227  16F2  01B2               	clrf	atoi@a
  3228  16F3  01B3               	clrf	atoi@a+1
  3229  16F4  01B1               	clrf	atoi@sign
  3230  16F5                     l3507:
  3231  16F5  0834               	movf	atoi@s,w
  3232  16F6  0084               	movwf	4
  3233  16F7  302D               	movlw	45
  3234  16F8  0600               	xorwf	0,w
  3235  16F9  1D03               	btfss	3,2
  3236  16FA  2EFC               	goto	u4611
  3237  16FB  2EFD               	goto	u4610
  3238  16FC                     u4611:
  3239  16FC  2F06               	goto	l3511
  3240  16FD                     u4610:
  3241  16FD                     l3509:
  3242  16FD  3001               	movlw	1
  3243  16FE  00AF               	movwf	??_atoi
  3244  16FF  082F               	movf	??_atoi,w
  3245  1700  07B1               	addwf	atoi@sign,f
  3246  1701  3001               	movlw	1
  3247  1702  00AF               	movwf	??_atoi
  3248  1703  082F               	movf	??_atoi,w
  3249  1704  07B4               	addwf	atoi@s,f
  3250  1705  2F38               	goto	l3519
  3251  1706                     l3511:
  3252  1706  0834               	movf	atoi@s,w
  3253  1707  0084               	movwf	4
  3254  1708  302B               	movlw	43
  3255  1709  0600               	xorwf	0,w
  3256  170A  1D03               	btfss	3,2
  3257  170B  2F0D               	goto	u4621
  3258  170C  2F0E               	goto	u4620
  3259  170D                     u4621:
  3260  170D  2F38               	goto	l3519
  3261  170E                     u4620:
  3262  170E                     l3513:
  3263  170E  3001               	movlw	1
  3264  170F  00AF               	movwf	??_atoi
  3265  1710  082F               	movf	??_atoi,w
  3266  1711  07B4               	addwf	atoi@s,f
  3267  1712  2F38               	goto	l3519
  3268  1713                     l3515:
  3269  1713  1283               	bcf	3,5	;RP0=0, select bank0
  3270  1714  1303               	bcf	3,6	;RP1=0, select bank0
  3271  1715  0834               	movf	atoi@s,w
  3272  1716  0084               	movwf	4
  3273  1717  0833               	movf	atoi@a+1,w
  3274  1718  00A8               	movwf	___wmul@multiplier+1
  3275  1719  0832               	movf	atoi@a,w
  3276  171A  00A7               	movwf	___wmul@multiplier
  3277  171B  300A               	movlw	10
  3278  171C  00A9               	movwf	___wmul@multiplicand
  3279  171D  3000               	movlw	0
  3280  171E  00AA               	movwf	___wmul@multiplicand+1
  3281  171F  160A  118A  249C  160A  118A  	fcall	___wmul
  3282  1724  1383               	bcf	3,7	;select IRP bank0
  3283  1725  0800               	movf	0,w
  3284  1726  1283               	bcf	3,5	;RP0=0, select bank0
  3285  1727  1303               	bcf	3,6	;RP1=0, select bank0
  3286  1728  0727               	addwf	?___wmul,w
  3287  1729  00AF               	movwf	??_atoi
  3288  172A  3000               	movlw	0
  3289  172B  1803               	skipnc
  3290  172C  3001               	movlw	1
  3291  172D  0728               	addwf	?___wmul+1,w
  3292  172E  00B0               	movwf	??_atoi+1
  3293  172F  082F               	movf	??_atoi,w
  3294  1730  3ED0               	addlw	208
  3295  1731  00B2               	movwf	atoi@a
  3296  1732  0830               	movf	??_atoi+1,w
  3297  1733  1803               	skipnc
  3298  1734  3E01               	addlw	1
  3299  1735  3EFF               	addlw	255
  3300  1736  00B3               	movwf	atoi@a+1
  3301  1737  2F0E               	goto	l3513
  3302  1738                     l3519:
  3303  1738  0834               	movf	atoi@s,w
  3304  1739  0084               	movwf	4
  3305  173A  0800               	movf	0,w
  3306  173B  160A  118A  2416  160A  118A  	fcall	_isdigit
  3307  1740  1803               	btfsc	3,0
  3308  1741  2F43               	goto	u4631
  3309  1742  2F44               	goto	u4630
  3310  1743                     u4631:
  3311  1743  2F13               	goto	l3515
  3312  1744                     u4630:
  3313  1744                     l3521:
  3314  1744  1283               	bcf	3,5	;RP0=0, select bank0
  3315  1745  1303               	bcf	3,6	;RP1=0, select bank0
  3316  1746  0831               	movf	atoi@sign,w
  3317  1747  1903               	btfsc	3,2
  3318  1748  2F4A               	goto	u4641
  3319  1749  2F4B               	goto	u4640
  3320  174A                     u4641:
  3321  174A  2F57               	goto	l3527
  3322  174B                     u4640:
  3323  174B                     l3523:
  3324  174B  0932               	comf	atoi@a,w
  3325  174C  00AF               	movwf	??_atoi
  3326  174D  0933               	comf	atoi@a+1,w
  3327  174E  00B0               	movwf	??_atoi+1
  3328  174F  0AAF               	incf	??_atoi,f
  3329  1750  1903               	skipnz
  3330  1751  0AB0               	incf	??_atoi+1,f
  3331  1752  082F               	movf	??_atoi,w
  3332  1753  00AD               	movwf	?_atoi
  3333  1754  0830               	movf	??_atoi+1,w
  3334  1755  00AE               	movwf	?_atoi+1
  3335  1756  2F5B               	goto	l835
  3336  1757                     l3527:
  3337  1757  0833               	movf	atoi@a+1,w
  3338  1758  00AE               	movwf	?_atoi+1
  3339  1759  0832               	movf	atoi@a,w
  3340  175A  00AD               	movwf	?_atoi
  3341  175B                     l835:
  3342  175B  0008               	return
  3343  175C                     __end_of_atoi:
  3344                           
  3345                           	psect	text12
  3346  1416                     __ptext12:	
  3347 ;; *************** function _isdigit *****************
  3348 ;; Defined at:
  3349 ;;		line 8 in file "C:\Program Files\Microchip\xc8\v2.31\pic\sources\c90\common\isdigit.c"
  3350 ;; Parameters:    Size  Location     Type
  3351 ;;  c               1    wreg     unsigned char 
  3352 ;; Auto vars:     Size  Location     Type
  3353 ;;  c               1    4[COMMON] unsigned char 
  3354 ;; Return value:  Size  Location     Type
  3355 ;;		None               void
  3356 ;; Registers used:
  3357 ;;		wreg, status,2, status,0
  3358 ;; Tracked objects:
  3359 ;;		On entry : 0/0
  3360 ;;		On exit  : 0/0
  3361 ;;		Unchanged: 0/0
  3362 ;; Data sizes:     COMMON   BANK0   BANK1   BANK3   BANK2
  3363 ;;      Params:         0       0       0       0       0
  3364 ;;      Locals:         2       0       0       0       0
  3365 ;;      Temps:          0       0       0       0       0
  3366 ;;      Totals:         2       0       0       0       0
  3367 ;;Total ram usage:        2 bytes
  3368 ;; Hardware stack levels used:    1
  3369 ;; Hardware stack levels required when called:    1
  3370 ;; This function calls:
  3371 ;;		Nothing
  3372 ;; This function is called by:
  3373 ;;		_atoi
  3374 ;; This function uses a non-reentrant model
  3375 ;;
  3376                           
  3377                           
  3378                           ;psect for function _isdigit
  3379  1416                     _isdigit:
  3380                           
  3381                           ;incstack = 0
  3382                           ; Regs used in _isdigit: [wreg+status,2+status,0]
  3383                           ;isdigit@c stored from wreg
  3384  1416  00F4               	movwf	isdigit@c
  3385  1417                     l2325:
  3386  1417  01F3               	clrf	_isdigit$1129
  3387  1418                     l2327:
  3388  1418  303A               	movlw	58
  3389  1419  0274               	subwf	isdigit@c,w
  3390  141A  1803               	skipnc
  3391  141B  2C1D               	goto	u2391
  3392  141C  2C1E               	goto	u2390
  3393  141D                     u2391:
  3394  141D  2C26               	goto	l2333
  3395  141E                     u2390:
  3396  141E                     l2329:
  3397  141E  3030               	movlw	48
  3398  141F  0274               	subwf	isdigit@c,w
  3399  1420  1C03               	skipc
  3400  1421  2C23               	goto	u2401
  3401  1422  2C24               	goto	u2400
  3402  1423                     u2401:
  3403  1423  2C26               	goto	l2333
  3404  1424                     u2400:
  3405  1424                     l2331:
  3406  1424  01F3               	clrf	_isdigit$1129
  3407  1425  0AF3               	incf	_isdigit$1129,f
  3408  1426                     l2333:
  3409  1426  0C73               	rrf	_isdigit$1129,w
  3410  1427                     l840:
  3411  1427  0008               	return
  3412  1428                     __end_of_isdigit:
  3413                           
  3414                           	psect	text13
  3415  003D                     __ptext13:	
  3416 ;; *************** function _convert *****************
  3417 ;; Defined at:
  3418 ;;		line 66 in file "ADC.c"
  3419 ;; Parameters:    Size  Location     Type
  3420 ;;  data            1    wreg     PTR unsigned char 
  3421 ;;		 -> contador_string(10), 
  3422 ;;  a               4   61[BANK0 ] float 
  3423 ;;  place           2   65[BANK0 ] int 
  3424 ;; Auto vars:     Size  Location     Type
  3425 ;;  data            1    4[BANK1 ] PTR unsigned char 
  3426 ;;		 -> contador_string(10), 
  3427 ;;  x               4    5[BANK1 ] float 
  3428 ;;  mu              2   13[BANK1 ] int 
  3429 ;;  digits          2   11[BANK1 ] int 
  3430 ;;  i               2    9[BANK1 ] int 
  3431 ;;  j               2    2[BANK1 ] int 
  3432 ;;  temp            2    0[BANK1 ] int 
  3433 ;; Return value:  Size  Location     Type
  3434 ;;                  1    wreg      void 
  3435 ;; Registers used:
  3436 ;;		wreg, fsr0l, fsr0h, status,2, status,0, btemp+1, pclath, cstack
  3437 ;; Tracked objects:
  3438 ;;		On entry : 0/0
  3439 ;;		On exit  : 0/0
  3440 ;;		Unchanged: 0/0
  3441 ;; Data sizes:     COMMON   BANK0   BANK1   BANK3   BANK2
  3442 ;;      Params:         0       6       0       0       0
  3443 ;;      Locals:         0       0      15       0       0
  3444 ;;      Temps:          0       2       0       0       0
  3445 ;;      Totals:         0       8      15       0       0
  3446 ;;Total ram usage:       23 bytes
  3447 ;; Hardware stack levels used:    1
  3448 ;; Hardware stack levels required when called:    3
  3449 ;; This function calls:
  3450 ;;		___awdiv
  3451 ;;		___fldiv
  3452 ;;		___flge
  3453 ;;		___flmul
  3454 ;;		___flsub
  3455 ;;		___fltol
  3456 ;;		___wmul
  3457 ;;		___xxtofl
  3458 ;; This function is called by:
  3459 ;;		_main
  3460 ;; This function uses a non-reentrant model
  3461 ;;
  3462                           
  3463                           
  3464                           ;psect for function _convert
  3465  003D                     _convert:
  3466                           
  3467                           ;incstack = 0
  3468                           ; Regs used in _convert: [wreg-fsr0h+status,2+status,0+btemp+1+pclath+cstack]
  3469                           ;convert@data stored from wreg
  3470  003D  1683               	bsf	3,5	;RP0=1, select bank1
  3471  003E  1303               	bcf	3,6	;RP1=0, select bank1
  3472  003F  00A4               	movwf	convert@data^(0+128)
  3473  0040                     l4191:
  3474                           
  3475                           ;ADC.c: 66: void convert(char *data,float a, int place);ADC.c: 67: {;ADC.c: 68:      int
      +                           temp=a;
  3476  0040  1283               	bcf	3,5	;RP0=0, select bank0
  3477  0041  1303               	bcf	3,6	;RP1=0, select bank0
  3478  0042  0860               	movf	convert@a+3,w
  3479  0043  00F6               	movwf	___fltol@f1+3
  3480  0044  085F               	movf	convert@a+2,w
  3481  0045  00F5               	movwf	___fltol@f1+2
  3482  0046  085E               	movf	convert@a+1,w
  3483  0047  00F4               	movwf	___fltol@f1+1
  3484  0048  085D               	movf	convert@a,w
  3485  0049  00F3               	movwf	___fltol@f1
  3486  004A  160A  118A  265D  120A  118A  	fcall	___fltol
  3487  004F  0874               	movf	?___fltol+1,w
  3488  0050  1683               	bsf	3,5	;RP0=1, select bank1
  3489  0051  1303               	bcf	3,6	;RP1=0, select bank1
  3490  0052  00A1               	movwf	(convert@temp+1)^(0+128)
  3491  0053  0873               	movf	?___fltol,w
  3492  0054  00A0               	movwf	convert@temp^(0+128)
  3493  0055                     l4193:
  3494  0055                     l4195:
  3495                           
  3496                           ;ADC.c: 70:      int digits=0;
  3497  0055  01AB               	clrf	convert@digits^(0+128)
  3498  0056  01AC               	clrf	(convert@digits+1)^(0+128)
  3499  0057                     l4197:
  3500                           
  3501                           ;ADC.c: 71:      int i=0,mu=1;
  3502  0057  01A9               	clrf	convert@i^(0+128)
  3503  0058  01AA               	clrf	(convert@i+1)^(0+128)
  3504  0059                     l4199:
  3505  0059  3001               	movlw	1
  3506  005A  00AD               	movwf	convert@mu^(0+128)
  3507  005B  3000               	movlw	0
  3508  005C  00AE               	movwf	(convert@mu^(0+128)+1)
  3509  005D                     l4201:
  3510  005D                     l4203:
  3511                           
  3512                           ;ADC.c: 73:      if(a<0)
  3513  005D  1283               	bcf	3,5	;RP0=0, select bank0
  3514  005E  1303               	bcf	3,6	;RP1=0, select bank0
  3515  005F  0860               	movf	convert@a+3,w
  3516  0060  00A3               	movwf	___flge@ff1+3
  3517  0061  085F               	movf	convert@a+2,w
  3518  0062  00A2               	movwf	___flge@ff1+2
  3519  0063  085E               	movf	convert@a+1,w
  3520  0064  00A1               	movwf	___flge@ff1+1
  3521  0065  085D               	movf	convert@a,w
  3522  0066  00A0               	movwf	___flge@ff1
  3523  0067  3000               	movlw	0
  3524  0068  00A7               	movwf	___flge@ff2+3
  3525  0069  3000               	movlw	0
  3526  006A  00A6               	movwf	___flge@ff2+2
  3527  006B  3000               	movlw	0
  3528  006C  00A5               	movwf	___flge@ff2+1
  3529  006D  3000               	movlw	0
  3530  006E  00A4               	movwf	___flge@ff2
  3531  006F  160A  118A  275C  120A  118A  	fcall	___flge
  3532  0074  1803               	btfsc	3,0
  3533  0075  2877               	goto	u6211
  3534  0076  2878               	goto	u6210
  3535  0077                     u6211:
  3536  0077  28C6               	goto	l4215
  3537  0078                     u6210:
  3538  0078                     l4205:
  3539                           
  3540                           ;ADC.c: 74:      {;ADC.c: 75:             a=a*-1;
  3541  0078  30BF               	movlw	191
  3542  0079  1283               	bcf	3,5	;RP0=0, select bank0
  3543  007A  1303               	bcf	3,6	;RP1=0, select bank0
  3544  007B  00C6               	movwf	___flmul@b+3
  3545  007C  3080               	movlw	128
  3546  007D  00C5               	movwf	___flmul@b+2
  3547  007E  3000               	movlw	0
  3548  007F  00C4               	movwf	___flmul@b+1
  3549  0080  3000               	movlw	0
  3550  0081  00C3               	movwf	___flmul@b
  3551  0082  0860               	movf	convert@a+3,w
  3552  0083  00CA               	movwf	___flmul@a+3
  3553  0084  085F               	movf	convert@a+2,w
  3554  0085  00C9               	movwf	___flmul@a+2
  3555  0086  085E               	movf	convert@a+1,w
  3556  0087  00C8               	movwf	___flmul@a+1
  3557  0088  085D               	movf	convert@a,w
  3558  0089  00C7               	movwf	___flmul@a
  3559  008A  120A  118A  2431  120A  118A  	fcall	___flmul
  3560  008F  1283               	bcf	3,5	;RP0=0, select bank0
  3561  0090  1303               	bcf	3,6	;RP1=0, select bank0
  3562  0091  0846               	movf	?___flmul+3,w
  3563  0092  00E0               	movwf	convert@a+3
  3564  0093  0845               	movf	?___flmul+2,w
  3565  0094  00DF               	movwf	convert@a+2
  3566  0095  0844               	movf	?___flmul+1,w
  3567  0096  00DE               	movwf	convert@a+1
  3568  0097  0843               	movf	?___flmul,w
  3569  0098  00DD               	movwf	convert@a
  3570  0099                     l4207:
  3571                           
  3572                           ;ADC.c: 76:             data[i]='-';
  3573  0099  302D               	movlw	45
  3574  009A  00E3               	movwf	??_convert
  3575  009B  1683               	bsf	3,5	;RP0=1, select bank1
  3576  009C  1303               	bcf	3,6	;RP1=0, select bank1
  3577  009D  0824               	movf	convert@data^(0+128),w
  3578  009E  0084               	movwf	4
  3579  009F  1283               	bcf	3,5	;RP0=0, select bank0
  3580  00A0  1303               	bcf	3,6	;RP1=0, select bank0
  3581  00A1  0863               	movf	??_convert,w
  3582  00A2  1383               	bcf	3,7	;select IRP bank0
  3583  00A3  0080               	movwf	0
  3584  00A4                     l4209:
  3585                           
  3586                           ;ADC.c: 77:             i++;
  3587  00A4  3001               	movlw	1
  3588  00A5  1683               	bsf	3,5	;RP0=1, select bank1
  3589  00A6  1303               	bcf	3,6	;RP1=0, select bank1
  3590  00A7  07A9               	addwf	convert@i^(0+128),f
  3591  00A8  1803               	skipnc
  3592  00A9  0AAA               	incf	(convert@i+1)^(0+128),f
  3593  00AA  3000               	movlw	0
  3594  00AB  07AA               	addwf	(convert@i+1)^(0+128),f
  3595  00AC  28C6               	goto	l4215
  3596  00AD                     l4211:
  3597                           
  3598                           ;ADC.c: 81:      {;ADC.c: 82:          temp=temp/10;
  3599  00AD  300A               	movlw	10
  3600  00AE  00F3               	movwf	___awdiv@divisor
  3601  00AF  3000               	movlw	0
  3602  00B0  00F4               	movwf	___awdiv@divisor+1
  3603  00B1  0821               	movf	(convert@temp+1)^(0+128),w
  3604  00B2  00F6               	movwf	___awdiv@dividend+1
  3605  00B3  0820               	movf	convert@temp^(0+128),w
  3606  00B4  00F5               	movwf	___awdiv@dividend
  3607  00B5  120A  118A  2792  120A  118A  	fcall	___awdiv
  3608  00BA  0874               	movf	?___awdiv+1,w
  3609  00BB  1683               	bsf	3,5	;RP0=1, select bank1
  3610  00BC  1303               	bcf	3,6	;RP1=0, select bank1
  3611  00BD  00A1               	movwf	(convert@temp+1)^(0+128)
  3612  00BE  0873               	movf	?___awdiv,w
  3613  00BF  00A0               	movwf	convert@temp^(0+128)
  3614  00C0                     l4213:
  3615                           
  3616                           ;ADC.c: 83:          digits++;
  3617  00C0  3001               	movlw	1
  3618  00C1  07AB               	addwf	convert@digits^(0+128),f
  3619  00C2  1803               	skipnc
  3620  00C3  0AAC               	incf	(convert@digits+1)^(0+128),f
  3621  00C4  3000               	movlw	0
  3622  00C5  07AC               	addwf	(convert@digits+1)^(0+128),f
  3623  00C6                     l4215:
  3624                           
  3625                           ;ADC.c: 80:      while(temp!=0)
  3626  00C6  1683               	bsf	3,5	;RP0=1, select bank1
  3627  00C7  1303               	bcf	3,6	;RP1=0, select bank1
  3628  00C8  0820               	movf	convert@temp^(0+128),w
  3629  00C9  0421               	iorwf	(convert@temp+1)^(0+128),w
  3630  00CA  1D03               	btfss	3,2
  3631  00CB  28CD               	goto	u6221
  3632  00CC  28CE               	goto	u6220
  3633  00CD                     u6221:
  3634  00CD  28AD               	goto	l4211
  3635  00CE                     u6220:
  3636  00CE  29EA               	goto	l4239
  3637  00CF                     l4217:
  3638                           
  3639                           ;ADC.c: 86:      {;ADC.c: 87:          if(digits==1)mu=1;
  3640  00CF  032B               	decf	convert@digits^(0+128),w
  3641  00D0  042C               	iorwf	(convert@digits+1)^(0+128),w
  3642  00D1  1D03               	btfss	3,2
  3643  00D2  28D4               	goto	u6231
  3644  00D3  28D5               	goto	u6230
  3645  00D4                     u6231:
  3646  00D4  28DA               	goto	l4221
  3647  00D5                     u6230:
  3648  00D5                     l4219:
  3649  00D5  3001               	movlw	1
  3650  00D6  00AD               	movwf	convert@mu^(0+128)
  3651  00D7  3000               	movlw	0
  3652  00D8  00AE               	movwf	(convert@mu^(0+128)+1)
  3653  00D9  291C               	goto	l4229
  3654  00DA                     l4221:
  3655  00DA  3002               	movlw	2
  3656  00DB  00A2               	movwf	convert@j^(0+128)
  3657  00DC  3000               	movlw	0
  3658  00DD  00A3               	movwf	(convert@j^(0+128)+1)
  3659  00DE  2906               	goto	l4227
  3660  00DF                     l4223:
  3661  00DF  1683               	bsf	3,5	;RP0=1, select bank1
  3662  00E0  1303               	bcf	3,6	;RP1=0, select bank1
  3663  00E1  082E               	movf	(convert@mu+1)^(0+128),w
  3664  00E2  1283               	bcf	3,5	;RP0=0, select bank0
  3665  00E3  1303               	bcf	3,6	;RP1=0, select bank0
  3666  00E4  00A8               	movwf	___wmul@multiplier+1
  3667  00E5  1683               	bsf	3,5	;RP0=1, select bank1
  3668  00E6  1303               	bcf	3,6	;RP1=0, select bank1
  3669  00E7  082D               	movf	convert@mu^(0+128),w
  3670  00E8  1283               	bcf	3,5	;RP0=0, select bank0
  3671  00E9  1303               	bcf	3,6	;RP1=0, select bank0
  3672  00EA  00A7               	movwf	___wmul@multiplier
  3673  00EB  300A               	movlw	10
  3674  00EC  00A9               	movwf	___wmul@multiplicand
  3675  00ED  3000               	movlw	0
  3676  00EE  00AA               	movwf	___wmul@multiplicand+1
  3677  00EF  160A  118A  249C  120A  118A  	fcall	___wmul
  3678  00F4  1283               	bcf	3,5	;RP0=0, select bank0
  3679  00F5  1303               	bcf	3,6	;RP1=0, select bank0
  3680  00F6  0828               	movf	?___wmul+1,w
  3681  00F7  1683               	bsf	3,5	;RP0=1, select bank1
  3682  00F8  1303               	bcf	3,6	;RP1=0, select bank1
  3683  00F9  00AE               	movwf	(convert@mu+1)^(0+128)
  3684  00FA  1283               	bcf	3,5	;RP0=0, select bank0
  3685  00FB  1303               	bcf	3,6	;RP1=0, select bank0
  3686  00FC  0827               	movf	?___wmul,w
  3687  00FD  1683               	bsf	3,5	;RP0=1, select bank1
  3688  00FE  1303               	bcf	3,6	;RP1=0, select bank1
  3689  00FF  00AD               	movwf	convert@mu^(0+128)
  3690  0100                     l4225:
  3691  0100  3001               	movlw	1
  3692  0101  07A2               	addwf	convert@j^(0+128),f
  3693  0102  1803               	skipnc
  3694  0103  0AA3               	incf	(convert@j+1)^(0+128),f
  3695  0104  3000               	movlw	0
  3696  0105  07A3               	addwf	(convert@j+1)^(0+128),f
  3697  0106                     l4227:
  3698  0106  082C               	movf	(convert@digits+1)^(0+128),w
  3699  0107  3A80               	xorlw	128
  3700  0108  1283               	bcf	3,5	;RP0=0, select bank0
  3701  0109  1303               	bcf	3,6	;RP1=0, select bank0
  3702  010A  00E3               	movwf	??_convert
  3703  010B  1683               	bsf	3,5	;RP0=1, select bank1
  3704  010C  1303               	bcf	3,6	;RP1=0, select bank1
  3705  010D  0823               	movf	(convert@j+1)^(0+128),w
  3706  010E  3A80               	xorlw	128
  3707  010F  1283               	bcf	3,5	;RP0=0, select bank0
  3708  0110  1303               	bcf	3,6	;RP1=0, select bank0
  3709  0111  0263               	subwf	??_convert,w
  3710  0112  1D03               	skipz
  3711  0113  2918               	goto	u6245
  3712  0114  1683               	bsf	3,5	;RP0=1, select bank1
  3713  0115  1303               	bcf	3,6	;RP1=0, select bank1
  3714  0116  0822               	movf	convert@j^(0+128),w
  3715  0117  022B               	subwf	convert@digits^(0+128),w
  3716  0118                     u6245:
  3717  0118  1803               	skipnc
  3718  0119  291B               	goto	u6241
  3719  011A  291C               	goto	u6240
  3720  011B                     u6241:
  3721  011B  28DF               	goto	l4223
  3722  011C                     u6240:
  3723  011C                     l4229:
  3724                           
  3725                           ;ADC.c: 90:          x=a/mu;
  3726  011C  1683               	bsf	3,5	;RP0=1, select bank1
  3727  011D  1303               	bcf	3,6	;RP1=0, select bank1
  3728  011E  082D               	movf	convert@mu^(0+128),w
  3729  011F  1283               	bcf	3,5	;RP0=0, select bank0
  3730  0120  1303               	bcf	3,6	;RP1=0, select bank0
  3731  0121  00AD               	movwf	___xxtofl@val
  3732  0122  1683               	bsf	3,5	;RP0=1, select bank1
  3733  0123  1303               	bcf	3,6	;RP1=0, select bank1
  3734  0124  082E               	movf	(convert@mu+1)^(0+128),w
  3735  0125  1283               	bcf	3,5	;RP0=0, select bank0
  3736  0126  1303               	bcf	3,6	;RP1=0, select bank0
  3737  0127  00AE               	movwf	___xxtofl@val+1
  3738  0128  3000               	movlw	0
  3739  0129  1BAE               	btfsc	___xxtofl@val+1,7
  3740  012A  30FF               	movlw	255
  3741  012B  00AF               	movwf	___xxtofl@val+2
  3742  012C  00B0               	movwf	___xxtofl@val+3
  3743  012D  3001               	movlw	1
  3744  012E  120A  158A  2044  120A  118A  	fcall	___xxtofl
  3745  0133  1283               	bcf	3,5	;RP0=0, select bank0
  3746  0134  1303               	bcf	3,6	;RP1=0, select bank0
  3747  0135  0830               	movf	?___xxtofl+3,w
  3748  0136  00BE               	movwf	___fldiv@a+3
  3749  0137  082F               	movf	?___xxtofl+2,w
  3750  0138  00BD               	movwf	___fldiv@a+2
  3751  0139  082E               	movf	?___xxtofl+1,w
  3752  013A  00BC               	movwf	___fldiv@a+1
  3753  013B  082D               	movf	?___xxtofl,w
  3754  013C  00BB               	movwf	___fldiv@a
  3755  013D  0860               	movf	convert@a+3,w
  3756  013E  00C2               	movwf	___fldiv@b+3
  3757  013F  085F               	movf	convert@a+2,w
  3758  0140  00C1               	movwf	___fldiv@b+2
  3759  0141  085E               	movf	convert@a+1,w
  3760  0142  00C0               	movwf	___fldiv@b+1
  3761  0143  085D               	movf	convert@a,w
  3762  0144  00BF               	movwf	___fldiv@b
  3763  0145  120A  158A  2393  120A  118A  	fcall	___fldiv
  3764  014A  1283               	bcf	3,5	;RP0=0, select bank0
  3765  014B  1303               	bcf	3,6	;RP1=0, select bank0
  3766  014C  083E               	movf	?___fldiv+3,w
  3767  014D  1683               	bsf	3,5	;RP0=1, select bank1
  3768  014E  1303               	bcf	3,6	;RP1=0, select bank1
  3769  014F  00A8               	movwf	(convert@x+3)^(0+128)
  3770  0150  1283               	bcf	3,5	;RP0=0, select bank0
  3771  0151  1303               	bcf	3,6	;RP1=0, select bank0
  3772  0152  083D               	movf	?___fldiv+2,w
  3773  0153  1683               	bsf	3,5	;RP0=1, select bank1
  3774  0154  1303               	bcf	3,6	;RP1=0, select bank1
  3775  0155  00A7               	movwf	(convert@x+2)^(0+128)
  3776  0156  1283               	bcf	3,5	;RP0=0, select bank0
  3777  0157  1303               	bcf	3,6	;RP1=0, select bank0
  3778  0158  083C               	movf	?___fldiv+1,w
  3779  0159  1683               	bsf	3,5	;RP0=1, select bank1
  3780  015A  1303               	bcf	3,6	;RP1=0, select bank1
  3781  015B  00A6               	movwf	(convert@x+1)^(0+128)
  3782  015C  1283               	bcf	3,5	;RP0=0, select bank0
  3783  015D  1303               	bcf	3,6	;RP1=0, select bank0
  3784  015E  083B               	movf	?___fldiv,w
  3785  015F  1683               	bsf	3,5	;RP0=1, select bank1
  3786  0160  1303               	bcf	3,6	;RP1=0, select bank1
  3787  0161  00A5               	movwf	convert@x^(0+128)
  3788                           
  3789                           ;ADC.c: 91:          a=a-((int)x*mu);
  3790  0162  082E               	movf	(convert@mu+1)^(0+128),w
  3791  0163  1283               	bcf	3,5	;RP0=0, select bank0
  3792  0164  1303               	bcf	3,6	;RP1=0, select bank0
  3793  0165  00AA               	movwf	___wmul@multiplicand+1
  3794  0166  1683               	bsf	3,5	;RP0=1, select bank1
  3795  0167  1303               	bcf	3,6	;RP1=0, select bank1
  3796  0168  082D               	movf	convert@mu^(0+128),w
  3797  0169  1283               	bcf	3,5	;RP0=0, select bank0
  3798  016A  1303               	bcf	3,6	;RP1=0, select bank0
  3799  016B  00A9               	movwf	___wmul@multiplicand
  3800  016C  1683               	bsf	3,5	;RP0=1, select bank1
  3801  016D  1303               	bcf	3,6	;RP1=0, select bank1
  3802  016E  0828               	movf	(convert@x+3)^(0+128),w
  3803  016F  00F6               	movwf	___fltol@f1+3
  3804  0170  0827               	movf	(convert@x+2)^(0+128),w
  3805  0171  00F5               	movwf	___fltol@f1+2
  3806  0172  0826               	movf	(convert@x+1)^(0+128),w
  3807  0173  00F4               	movwf	___fltol@f1+1
  3808  0174  0825               	movf	convert@x^(0+128),w
  3809  0175  00F3               	movwf	___fltol@f1
  3810  0176  160A  118A  265D  120A  118A  	fcall	___fltol
  3811  017B  0874               	movf	?___fltol+1,w
  3812  017C  1283               	bcf	3,5	;RP0=0, select bank0
  3813  017D  1303               	bcf	3,6	;RP1=0, select bank0
  3814  017E  00A8               	movwf	___wmul@multiplier+1
  3815  017F  0873               	movf	?___fltol,w
  3816  0180  00A7               	movwf	___wmul@multiplier
  3817  0181  160A  118A  249C  120A  118A  	fcall	___wmul
  3818  0186  1283               	bcf	3,5	;RP0=0, select bank0
  3819  0187  1303               	bcf	3,6	;RP1=0, select bank0
  3820  0188  0827               	movf	?___wmul,w
  3821  0189  00AD               	movwf	___xxtofl@val
  3822  018A  0828               	movf	?___wmul+1,w
  3823  018B  00AE               	movwf	___xxtofl@val+1
  3824  018C  3000               	movlw	0
  3825  018D  1BAE               	btfsc	___xxtofl@val+1,7
  3826  018E  30FF               	movlw	255
  3827  018F  00AF               	movwf	___xxtofl@val+2
  3828  0190  00B0               	movwf	___xxtofl@val+3
  3829  0191  3001               	movlw	1
  3830  0192  120A  158A  2044  120A  118A  	fcall	___xxtofl
  3831  0197  1283               	bcf	3,5	;RP0=0, select bank0
  3832  0198  1303               	bcf	3,6	;RP1=0, select bank0
  3833  0199  0830               	movf	?___xxtofl+3,w
  3834  019A  00BE               	movwf	___flsub@a+3
  3835  019B  082F               	movf	?___xxtofl+2,w
  3836  019C  00BD               	movwf	___flsub@a+2
  3837  019D  082E               	movf	?___xxtofl+1,w
  3838  019E  00BC               	movwf	___flsub@a+1
  3839  019F  082D               	movf	?___xxtofl,w
  3840  01A0  00BB               	movwf	___flsub@a
  3841  01A1  0860               	movf	convert@a+3,w
  3842  01A2  00C2               	movwf	___flsub@b+3
  3843  01A3  085F               	movf	convert@a+2,w
  3844  01A4  00C1               	movwf	___flsub@b+2
  3845  01A5  085E               	movf	convert@a+1,w
  3846  01A6  00C0               	movwf	___flsub@b+1
  3847  01A7  085D               	movf	convert@a,w
  3848  01A8  00BF               	movwf	___flsub@b
  3849  01A9  160A  118A  2478  120A  118A  	fcall	___flsub
  3850  01AE  1283               	bcf	3,5	;RP0=0, select bank0
  3851  01AF  1303               	bcf	3,6	;RP1=0, select bank0
  3852  01B0  083E               	movf	?___flsub+3,w
  3853  01B1  00E0               	movwf	convert@a+3
  3854  01B2  083D               	movf	?___flsub+2,w
  3855  01B3  00DF               	movwf	convert@a+2
  3856  01B4  083C               	movf	?___flsub+1,w
  3857  01B5  00DE               	movwf	convert@a+1
  3858  01B6  083B               	movf	?___flsub,w
  3859  01B7  00DD               	movwf	convert@a
  3860  01B8                     l4231:
  3861                           
  3862                           ;ADC.c: 92:          data[i]=0x30+((int)x);
  3863  01B8  1683               	bsf	3,5	;RP0=1, select bank1
  3864  01B9  1303               	bcf	3,6	;RP1=0, select bank1
  3865  01BA  0828               	movf	(convert@x+3)^(0+128),w
  3866  01BB  00F6               	movwf	___fltol@f1+3
  3867  01BC  0827               	movf	(convert@x+2)^(0+128),w
  3868  01BD  00F5               	movwf	___fltol@f1+2
  3869  01BE  0826               	movf	(convert@x+1)^(0+128),w
  3870  01BF  00F4               	movwf	___fltol@f1+1
  3871  01C0  0825               	movf	convert@x^(0+128),w
  3872  01C1  00F3               	movwf	___fltol@f1
  3873  01C2  160A  118A  265D  120A  118A  	fcall	___fltol
  3874  01C7  0873               	movf	?___fltol,w
  3875  01C8  3E30               	addlw	48
  3876  01C9  1283               	bcf	3,5	;RP0=0, select bank0
  3877  01CA  1303               	bcf	3,6	;RP1=0, select bank0
  3878  01CB  00E3               	movwf	??_convert
  3879  01CC  1683               	bsf	3,5	;RP0=1, select bank1
  3880  01CD  1303               	bcf	3,6	;RP1=0, select bank1
  3881  01CE  0829               	movf	convert@i^(0+128),w
  3882  01CF  0724               	addwf	convert@data^(0+128),w
  3883  01D0  1283               	bcf	3,5	;RP0=0, select bank0
  3884  01D1  1303               	bcf	3,6	;RP1=0, select bank0
  3885  01D2  00E4               	movwf	??_convert+1
  3886  01D3  0864               	movf	??_convert+1,w
  3887  01D4  0084               	movwf	4
  3888  01D5  0863               	movf	??_convert,w
  3889  01D6  1383               	bcf	3,7	;select IRP bank0
  3890  01D7  0080               	movwf	0
  3891  01D8                     l4233:
  3892                           
  3893                           ;ADC.c: 93:          i++;
  3894  01D8  3001               	movlw	1
  3895  01D9  1683               	bsf	3,5	;RP0=1, select bank1
  3896  01DA  1303               	bcf	3,6	;RP1=0, select bank1
  3897  01DB  07A9               	addwf	convert@i^(0+128),f
  3898  01DC  1803               	skipnc
  3899  01DD  0AAA               	incf	(convert@i+1)^(0+128),f
  3900  01DE  3000               	movlw	0
  3901  01DF  07AA               	addwf	(convert@i+1)^(0+128),f
  3902  01E0                     l4235:
  3903                           
  3904                           ;ADC.c: 94:          digits--;
  3905  01E0  30FF               	movlw	255
  3906  01E1  07AB               	addwf	convert@digits^(0+128),f
  3907  01E2  1803               	skipnc
  3908  01E3  0AAC               	incf	(convert@digits+1)^(0+128),f
  3909  01E4  30FF               	movlw	255
  3910  01E5  07AC               	addwf	(convert@digits+1)^(0+128),f
  3911  01E6                     l4237:
  3912                           
  3913                           ;ADC.c: 95:          mu=1;
  3914  01E6  3001               	movlw	1
  3915  01E7  00AD               	movwf	convert@mu^(0+128)
  3916  01E8  3000               	movlw	0
  3917  01E9  00AE               	movwf	(convert@mu^(0+128)+1)
  3918  01EA                     l4239:
  3919                           
  3920                           ;ADC.c: 85:      while(digits!=0)
  3921  01EA  082B               	movf	convert@digits^(0+128),w
  3922  01EB  042C               	iorwf	(convert@digits+1)^(0+128),w
  3923  01EC  1D03               	btfss	3,2
  3924  01ED  29EF               	goto	u6251
  3925  01EE  29F0               	goto	u6250
  3926  01EF                     u6251:
  3927  01EF  28CF               	goto	l4217
  3928  01F0                     u6250:
  3929  01F0                     l4241:
  3930                           
  3931                           ;ADC.c: 98:      data[i]='.';
  3932  01F0  302E               	movlw	46
  3933  01F1  1283               	bcf	3,5	;RP0=0, select bank0
  3934  01F2  1303               	bcf	3,6	;RP1=0, select bank0
  3935  01F3  00E3               	movwf	??_convert
  3936  01F4  1683               	bsf	3,5	;RP0=1, select bank1
  3937  01F5  1303               	bcf	3,6	;RP1=0, select bank1
  3938  01F6  0829               	movf	convert@i^(0+128),w
  3939  01F7  0724               	addwf	convert@data^(0+128),w
  3940  01F8  1283               	bcf	3,5	;RP0=0, select bank0
  3941  01F9  1303               	bcf	3,6	;RP1=0, select bank0
  3942  01FA  00E4               	movwf	??_convert+1
  3943  01FB  0864               	movf	??_convert+1,w
  3944  01FC  0084               	movwf	4
  3945  01FD  0863               	movf	??_convert,w
  3946  01FE  1383               	bcf	3,7	;select IRP bank0
  3947  01FF  0080               	movwf	0
  3948  0200                     l4243:
  3949                           
  3950                           ;ADC.c: 99:      i++;
  3951  0200  3001               	movlw	1
  3952  0201  1683               	bsf	3,5	;RP0=1, select bank1
  3953  0202  1303               	bcf	3,6	;RP1=0, select bank1
  3954  0203  07A9               	addwf	convert@i^(0+128),f
  3955  0204  1803               	skipnc
  3956  0205  0AAA               	incf	(convert@i+1)^(0+128),f
  3957  0206  3000               	movlw	0
  3958  0207  07AA               	addwf	(convert@i+1)^(0+128),f
  3959  0208                     l4245:
  3960  0208                     l4247:
  3961                           
  3962                           ;ADC.c: 101:      for(j=1;j<=place;j++)mu=mu*10;
  3963  0208  3001               	movlw	1
  3964  0209  00A2               	movwf	convert@j^(0+128)
  3965  020A  3000               	movlw	0
  3966  020B  00A3               	movwf	(convert@j^(0+128)+1)
  3967  020C  2A34               	goto	l4253
  3968  020D                     l4249:
  3969  020D  1683               	bsf	3,5	;RP0=1, select bank1
  3970  020E  1303               	bcf	3,6	;RP1=0, select bank1
  3971  020F  082E               	movf	(convert@mu+1)^(0+128),w
  3972  0210  1283               	bcf	3,5	;RP0=0, select bank0
  3973  0211  1303               	bcf	3,6	;RP1=0, select bank0
  3974  0212  00A8               	movwf	___wmul@multiplier+1
  3975  0213  1683               	bsf	3,5	;RP0=1, select bank1
  3976  0214  1303               	bcf	3,6	;RP1=0, select bank1
  3977  0215  082D               	movf	convert@mu^(0+128),w
  3978  0216  1283               	bcf	3,5	;RP0=0, select bank0
  3979  0217  1303               	bcf	3,6	;RP1=0, select bank0
  3980  0218  00A7               	movwf	___wmul@multiplier
  3981  0219  300A               	movlw	10
  3982  021A  00A9               	movwf	___wmul@multiplicand
  3983  021B  3000               	movlw	0
  3984  021C  00AA               	movwf	___wmul@multiplicand+1
  3985  021D  160A  118A  249C  120A  118A  	fcall	___wmul
  3986  0222  1283               	bcf	3,5	;RP0=0, select bank0
  3987  0223  1303               	bcf	3,6	;RP1=0, select bank0
  3988  0224  0828               	movf	?___wmul+1,w
  3989  0225  1683               	bsf	3,5	;RP0=1, select bank1
  3990  0226  1303               	bcf	3,6	;RP1=0, select bank1
  3991  0227  00AE               	movwf	(convert@mu+1)^(0+128)
  3992  0228  1283               	bcf	3,5	;RP0=0, select bank0
  3993  0229  1303               	bcf	3,6	;RP1=0, select bank0
  3994  022A  0827               	movf	?___wmul,w
  3995  022B  1683               	bsf	3,5	;RP0=1, select bank1
  3996  022C  1303               	bcf	3,6	;RP1=0, select bank1
  3997  022D  00AD               	movwf	convert@mu^(0+128)
  3998  022E                     l4251:
  3999  022E  3001               	movlw	1
  4000  022F  07A2               	addwf	convert@j^(0+128),f
  4001  0230  1803               	skipnc
  4002  0231  0AA3               	incf	(convert@j+1)^(0+128),f
  4003  0232  3000               	movlw	0
  4004  0233  07A3               	addwf	(convert@j+1)^(0+128),f
  4005  0234                     l4253:
  4006  0234  1283               	bcf	3,5	;RP0=0, select bank0
  4007  0235  1303               	bcf	3,6	;RP1=0, select bank0
  4008  0236  0862               	movf	convert@place+1,w
  4009  0237  3A80               	xorlw	128
  4010  0238  00E3               	movwf	??_convert
  4011  0239  1683               	bsf	3,5	;RP0=1, select bank1
  4012  023A  1303               	bcf	3,6	;RP1=0, select bank1
  4013  023B  0823               	movf	(convert@j+1)^(0+128),w
  4014  023C  3A80               	xorlw	128
  4015  023D  1283               	bcf	3,5	;RP0=0, select bank0
  4016  023E  1303               	bcf	3,6	;RP1=0, select bank0
  4017  023F  0263               	subwf	??_convert,w
  4018  0240  1D03               	skipz
  4019  0241  2A48               	goto	u6265
  4020  0242  1683               	bsf	3,5	;RP0=1, select bank1
  4021  0243  1303               	bcf	3,6	;RP1=0, select bank1
  4022  0244  0822               	movf	convert@j^(0+128),w
  4023  0245  1283               	bcf	3,5	;RP0=0, select bank0
  4024  0246  1303               	bcf	3,6	;RP1=0, select bank0
  4025  0247  0261               	subwf	convert@place,w
  4026  0248                     u6265:
  4027  0248  1803               	skipnc
  4028  0249  2A4B               	goto	u6261
  4029  024A  2A4C               	goto	u6260
  4030  024B                     u6261:
  4031  024B  2A0D               	goto	l4249
  4032  024C                     u6260:
  4033  024C                     l4255:
  4034                           
  4035                           ;ADC.c: 102:      x=(a-(int)a)*mu;
  4036  024C  1683               	bsf	3,5	;RP0=1, select bank1
  4037  024D  1303               	bcf	3,6	;RP1=0, select bank1
  4038  024E  082D               	movf	convert@mu^(0+128),w
  4039  024F  1283               	bcf	3,5	;RP0=0, select bank0
  4040  0250  1303               	bcf	3,6	;RP1=0, select bank0
  4041  0251  00AD               	movwf	___xxtofl@val
  4042  0252  1683               	bsf	3,5	;RP0=1, select bank1
  4043  0253  1303               	bcf	3,6	;RP1=0, select bank1
  4044  0254  082E               	movf	(convert@mu+1)^(0+128),w
  4045  0255  1283               	bcf	3,5	;RP0=0, select bank0
  4046  0256  1303               	bcf	3,6	;RP1=0, select bank0
  4047  0257  00AE               	movwf	___xxtofl@val+1
  4048  0258  3000               	movlw	0
  4049  0259  1BAE               	btfsc	___xxtofl@val+1,7
  4050  025A  30FF               	movlw	255
  4051  025B  00AF               	movwf	___xxtofl@val+2
  4052  025C  00B0               	movwf	___xxtofl@val+3
  4053  025D  3001               	movlw	1
  4054  025E  120A  158A  2044  120A  118A  	fcall	___xxtofl
  4055  0263  1283               	bcf	3,5	;RP0=0, select bank0
  4056  0264  1303               	bcf	3,6	;RP1=0, select bank0
  4057  0265  0830               	movf	?___xxtofl+3,w
  4058  0266  00C6               	movwf	___flmul@b+3
  4059  0267  082F               	movf	?___xxtofl+2,w
  4060  0268  00C5               	movwf	___flmul@b+2
  4061  0269  082E               	movf	?___xxtofl+1,w
  4062  026A  00C4               	movwf	___flmul@b+1
  4063  026B  082D               	movf	?___xxtofl,w
  4064  026C  00C3               	movwf	___flmul@b
  4065  026D  0860               	movf	convert@a+3,w
  4066  026E  00F6               	movwf	___fltol@f1+3
  4067  026F  085F               	movf	convert@a+2,w
  4068  0270  00F5               	movwf	___fltol@f1+2
  4069  0271  085E               	movf	convert@a+1,w
  4070  0272  00F4               	movwf	___fltol@f1+1
  4071  0273  085D               	movf	convert@a,w
  4072  0274  00F3               	movwf	___fltol@f1
  4073  0275  160A  118A  265D  120A  118A  	fcall	___fltol
  4074  027A  0873               	movf	?___fltol,w
  4075  027B  1283               	bcf	3,5	;RP0=0, select bank0
  4076  027C  1303               	bcf	3,6	;RP1=0, select bank0
  4077  027D  00AD               	movwf	___xxtofl@val
  4078  027E  0874               	movf	?___fltol+1,w
  4079  027F  00AE               	movwf	___xxtofl@val+1
  4080  0280  3000               	movlw	0
  4081  0281  1BAE               	btfsc	___xxtofl@val+1,7
  4082  0282  30FF               	movlw	255
  4083  0283  00AF               	movwf	___xxtofl@val+2
  4084  0284  00B0               	movwf	___xxtofl@val+3
  4085  0285  3001               	movlw	1
  4086  0286  120A  158A  2044  120A  118A  	fcall	___xxtofl
  4087  028B  1283               	bcf	3,5	;RP0=0, select bank0
  4088  028C  1303               	bcf	3,6	;RP1=0, select bank0
  4089  028D  0830               	movf	?___xxtofl+3,w
  4090  028E  00BE               	movwf	___flsub@a+3
  4091  028F  082F               	movf	?___xxtofl+2,w
  4092  0290  00BD               	movwf	___flsub@a+2
  4093  0291  082E               	movf	?___xxtofl+1,w
  4094  0292  00BC               	movwf	___flsub@a+1
  4095  0293  082D               	movf	?___xxtofl,w
  4096  0294  00BB               	movwf	___flsub@a
  4097  0295  0860               	movf	convert@a+3,w
  4098  0296  00C2               	movwf	___flsub@b+3
  4099  0297  085F               	movf	convert@a+2,w
  4100  0298  00C1               	movwf	___flsub@b+2
  4101  0299  085E               	movf	convert@a+1,w
  4102  029A  00C0               	movwf	___flsub@b+1
  4103  029B  085D               	movf	convert@a,w
  4104  029C  00BF               	movwf	___flsub@b
  4105  029D  160A  118A  2478  120A  118A  	fcall	___flsub
  4106  02A2  1283               	bcf	3,5	;RP0=0, select bank0
  4107  02A3  1303               	bcf	3,6	;RP1=0, select bank0
  4108  02A4  083E               	movf	?___flsub+3,w
  4109  02A5  00CA               	movwf	___flmul@a+3
  4110  02A6  083D               	movf	?___flsub+2,w
  4111  02A7  00C9               	movwf	___flmul@a+2
  4112  02A8  083C               	movf	?___flsub+1,w
  4113  02A9  00C8               	movwf	___flmul@a+1
  4114  02AA  083B               	movf	?___flsub,w
  4115  02AB  00C7               	movwf	___flmul@a
  4116  02AC  120A  118A  2431  120A  118A  	fcall	___flmul
  4117  02B1  1283               	bcf	3,5	;RP0=0, select bank0
  4118  02B2  1303               	bcf	3,6	;RP1=0, select bank0
  4119  02B3  0846               	movf	?___flmul+3,w
  4120  02B4  1683               	bsf	3,5	;RP0=1, select bank1
  4121  02B5  1303               	bcf	3,6	;RP1=0, select bank1
  4122  02B6  00A8               	movwf	(convert@x+3)^(0+128)
  4123  02B7  1283               	bcf	3,5	;RP0=0, select bank0
  4124  02B8  1303               	bcf	3,6	;RP1=0, select bank0
  4125  02B9  0845               	movf	?___flmul+2,w
  4126  02BA  1683               	bsf	3,5	;RP0=1, select bank1
  4127  02BB  1303               	bcf	3,6	;RP1=0, select bank1
  4128  02BC  00A7               	movwf	(convert@x+2)^(0+128)
  4129  02BD  1283               	bcf	3,5	;RP0=0, select bank0
  4130  02BE  1303               	bcf	3,6	;RP1=0, select bank0
  4131  02BF  0844               	movf	?___flmul+1,w
  4132  02C0  1683               	bsf	3,5	;RP0=1, select bank1
  4133  02C1  1303               	bcf	3,6	;RP1=0, select bank1
  4134  02C2  00A6               	movwf	(convert@x+1)^(0+128)
  4135  02C3  1283               	bcf	3,5	;RP0=0, select bank0
  4136  02C4  1303               	bcf	3,6	;RP1=0, select bank0
  4137  02C5  0843               	movf	?___flmul,w
  4138  02C6  1683               	bsf	3,5	;RP0=1, select bank1
  4139  02C7  1303               	bcf	3,6	;RP1=0, select bank1
  4140  02C8  00A5               	movwf	convert@x^(0+128)
  4141  02C9                     l4257:
  4142                           
  4143                           ;ADC.c: 103:      a=x;
  4144  02C9  0828               	movf	(convert@x+3)^(0+128),w
  4145  02CA  1283               	bcf	3,5	;RP0=0, select bank0
  4146  02CB  1303               	bcf	3,6	;RP1=0, select bank0
  4147  02CC  00E0               	movwf	convert@a+3
  4148  02CD  1683               	bsf	3,5	;RP0=1, select bank1
  4149  02CE  1303               	bcf	3,6	;RP1=0, select bank1
  4150  02CF  0827               	movf	(convert@x+2)^(0+128),w
  4151  02D0  1283               	bcf	3,5	;RP0=0, select bank0
  4152  02D1  1303               	bcf	3,6	;RP1=0, select bank0
  4153  02D2  00DF               	movwf	convert@a+2
  4154  02D3  1683               	bsf	3,5	;RP0=1, select bank1
  4155  02D4  1303               	bcf	3,6	;RP1=0, select bank1
  4156  02D5  0826               	movf	(convert@x+1)^(0+128),w
  4157  02D6  1283               	bcf	3,5	;RP0=0, select bank0
  4158  02D7  1303               	bcf	3,6	;RP1=0, select bank0
  4159  02D8  00DE               	movwf	convert@a+1
  4160  02D9  1683               	bsf	3,5	;RP0=1, select bank1
  4161  02DA  1303               	bcf	3,6	;RP1=0, select bank1
  4162  02DB  0825               	movf	convert@x^(0+128),w
  4163  02DC  1283               	bcf	3,5	;RP0=0, select bank0
  4164  02DD  1303               	bcf	3,6	;RP1=0, select bank0
  4165  02DE  00DD               	movwf	convert@a
  4166  02DF                     l4259:
  4167  02DF  0860               	movf	convert@a+3,w
  4168  02E0  00F6               	movwf	___fltol@f1+3
  4169  02E1  085F               	movf	convert@a+2,w
  4170  02E2  00F5               	movwf	___fltol@f1+2
  4171  02E3  085E               	movf	convert@a+1,w
  4172  02E4  00F4               	movwf	___fltol@f1+1
  4173  02E5  085D               	movf	convert@a,w
  4174  02E6  00F3               	movwf	___fltol@f1
  4175  02E7  160A  118A  265D  120A  118A  	fcall	___fltol
  4176  02EC                     l4261:
  4177  02EC                     l4263:
  4178                           
  4179                           ;ADC.c: 106:      mu=1;
  4180  02EC  3001               	movlw	1
  4181  02ED  1683               	bsf	3,5	;RP0=1, select bank1
  4182  02EE  1303               	bcf	3,6	;RP1=0, select bank1
  4183  02EF  00AD               	movwf	convert@mu^(0+128)
  4184  02F0  3000               	movlw	0
  4185  02F1  00AE               	movwf	(convert@mu^(0+128)+1)
  4186  02F2                     l4265:
  4187                           
  4188                           ;ADC.c: 107:      digits=place;
  4189  02F2  1283               	bcf	3,5	;RP0=0, select bank0
  4190  02F3  1303               	bcf	3,6	;RP1=0, select bank0
  4191  02F4  0862               	movf	convert@place+1,w
  4192  02F5  1683               	bsf	3,5	;RP0=1, select bank1
  4193  02F6  1303               	bcf	3,6	;RP1=0, select bank1
  4194  02F7  00AC               	movwf	(convert@digits+1)^(0+128)
  4195  02F8  1283               	bcf	3,5	;RP0=0, select bank0
  4196  02F9  1303               	bcf	3,6	;RP1=0, select bank0
  4197  02FA  0861               	movf	convert@place,w
  4198  02FB  1683               	bsf	3,5	;RP0=1, select bank1
  4199  02FC  1303               	bcf	3,6	;RP1=0, select bank1
  4200  02FD  00AB               	movwf	convert@digits^(0+128)
  4201                           
  4202                           ;ADC.c: 108:      while(digits!=0)
  4203  02FE  2C1A               	goto	l4289
  4204  02FF                     l4267:
  4205                           
  4206                           ;ADC.c: 109:      {;ADC.c: 110:          if(digits==1)mu=1;
  4207  02FF  032B               	decf	convert@digits^(0+128),w
  4208  0300  042C               	iorwf	(convert@digits+1)^(0+128),w
  4209  0301  1D03               	btfss	3,2
  4210  0302  2B04               	goto	u6271
  4211  0303  2B05               	goto	u6270
  4212  0304                     u6271:
  4213  0304  2B0A               	goto	l4271
  4214  0305                     u6270:
  4215  0305                     l4269:
  4216  0305  3001               	movlw	1
  4217  0306  00AD               	movwf	convert@mu^(0+128)
  4218  0307  3000               	movlw	0
  4219  0308  00AE               	movwf	(convert@mu^(0+128)+1)
  4220  0309  2B4C               	goto	l4279
  4221  030A                     l4271:
  4222  030A  3002               	movlw	2
  4223  030B  00A2               	movwf	convert@j^(0+128)
  4224  030C  3000               	movlw	0
  4225  030D  00A3               	movwf	(convert@j^(0+128)+1)
  4226  030E  2B36               	goto	l4277
  4227  030F                     l4273:
  4228  030F  1683               	bsf	3,5	;RP0=1, select bank1
  4229  0310  1303               	bcf	3,6	;RP1=0, select bank1
  4230  0311  082E               	movf	(convert@mu+1)^(0+128),w
  4231  0312  1283               	bcf	3,5	;RP0=0, select bank0
  4232  0313  1303               	bcf	3,6	;RP1=0, select bank0
  4233  0314  00A8               	movwf	___wmul@multiplier+1
  4234  0315  1683               	bsf	3,5	;RP0=1, select bank1
  4235  0316  1303               	bcf	3,6	;RP1=0, select bank1
  4236  0317  082D               	movf	convert@mu^(0+128),w
  4237  0318  1283               	bcf	3,5	;RP0=0, select bank0
  4238  0319  1303               	bcf	3,6	;RP1=0, select bank0
  4239  031A  00A7               	movwf	___wmul@multiplier
  4240  031B  300A               	movlw	10
  4241  031C  00A9               	movwf	___wmul@multiplicand
  4242  031D  3000               	movlw	0
  4243  031E  00AA               	movwf	___wmul@multiplicand+1
  4244  031F  160A  118A  249C  120A  118A  	fcall	___wmul
  4245  0324  1283               	bcf	3,5	;RP0=0, select bank0
  4246  0325  1303               	bcf	3,6	;RP1=0, select bank0
  4247  0326  0828               	movf	?___wmul+1,w
  4248  0327  1683               	bsf	3,5	;RP0=1, select bank1
  4249  0328  1303               	bcf	3,6	;RP1=0, select bank1
  4250  0329  00AE               	movwf	(convert@mu+1)^(0+128)
  4251  032A  1283               	bcf	3,5	;RP0=0, select bank0
  4252  032B  1303               	bcf	3,6	;RP1=0, select bank0
  4253  032C  0827               	movf	?___wmul,w
  4254  032D  1683               	bsf	3,5	;RP0=1, select bank1
  4255  032E  1303               	bcf	3,6	;RP1=0, select bank1
  4256  032F  00AD               	movwf	convert@mu^(0+128)
  4257  0330                     l4275:
  4258  0330  3001               	movlw	1
  4259  0331  07A2               	addwf	convert@j^(0+128),f
  4260  0332  1803               	skipnc
  4261  0333  0AA3               	incf	(convert@j+1)^(0+128),f
  4262  0334  3000               	movlw	0
  4263  0335  07A3               	addwf	(convert@j+1)^(0+128),f
  4264  0336                     l4277:
  4265  0336  082C               	movf	(convert@digits+1)^(0+128),w
  4266  0337  3A80               	xorlw	128
  4267  0338  1283               	bcf	3,5	;RP0=0, select bank0
  4268  0339  1303               	bcf	3,6	;RP1=0, select bank0
  4269  033A  00E3               	movwf	??_convert
  4270  033B  1683               	bsf	3,5	;RP0=1, select bank1
  4271  033C  1303               	bcf	3,6	;RP1=0, select bank1
  4272  033D  0823               	movf	(convert@j+1)^(0+128),w
  4273  033E  3A80               	xorlw	128
  4274  033F  1283               	bcf	3,5	;RP0=0, select bank0
  4275  0340  1303               	bcf	3,6	;RP1=0, select bank0
  4276  0341  0263               	subwf	??_convert,w
  4277  0342  1D03               	skipz
  4278  0343  2B48               	goto	u6285
  4279  0344  1683               	bsf	3,5	;RP0=1, select bank1
  4280  0345  1303               	bcf	3,6	;RP1=0, select bank1
  4281  0346  0822               	movf	convert@j^(0+128),w
  4282  0347  022B               	subwf	convert@digits^(0+128),w
  4283  0348                     u6285:
  4284  0348  1803               	skipnc
  4285  0349  2B4B               	goto	u6281
  4286  034A  2B4C               	goto	u6280
  4287  034B                     u6281:
  4288  034B  2B0F               	goto	l4273
  4289  034C                     u6280:
  4290  034C                     l4279:
  4291                           
  4292                           ;ADC.c: 113:          x=a/mu;
  4293  034C  1683               	bsf	3,5	;RP0=1, select bank1
  4294  034D  1303               	bcf	3,6	;RP1=0, select bank1
  4295  034E  082D               	movf	convert@mu^(0+128),w
  4296  034F  1283               	bcf	3,5	;RP0=0, select bank0
  4297  0350  1303               	bcf	3,6	;RP1=0, select bank0
  4298  0351  00AD               	movwf	___xxtofl@val
  4299  0352  1683               	bsf	3,5	;RP0=1, select bank1
  4300  0353  1303               	bcf	3,6	;RP1=0, select bank1
  4301  0354  082E               	movf	(convert@mu+1)^(0+128),w
  4302  0355  1283               	bcf	3,5	;RP0=0, select bank0
  4303  0356  1303               	bcf	3,6	;RP1=0, select bank0
  4304  0357  00AE               	movwf	___xxtofl@val+1
  4305  0358  3000               	movlw	0
  4306  0359  1BAE               	btfsc	___xxtofl@val+1,7
  4307  035A  30FF               	movlw	255
  4308  035B  00AF               	movwf	___xxtofl@val+2
  4309  035C  00B0               	movwf	___xxtofl@val+3
  4310  035D  3001               	movlw	1
  4311  035E  120A  158A  2044  120A  118A  	fcall	___xxtofl
  4312  0363  1283               	bcf	3,5	;RP0=0, select bank0
  4313  0364  1303               	bcf	3,6	;RP1=0, select bank0
  4314  0365  0830               	movf	?___xxtofl+3,w
  4315  0366  00BE               	movwf	___fldiv@a+3
  4316  0367  082F               	movf	?___xxtofl+2,w
  4317  0368  00BD               	movwf	___fldiv@a+2
  4318  0369  082E               	movf	?___xxtofl+1,w
  4319  036A  00BC               	movwf	___fldiv@a+1
  4320  036B  082D               	movf	?___xxtofl,w
  4321  036C  00BB               	movwf	___fldiv@a
  4322  036D  0860               	movf	convert@a+3,w
  4323  036E  00C2               	movwf	___fldiv@b+3
  4324  036F  085F               	movf	convert@a+2,w
  4325  0370  00C1               	movwf	___fldiv@b+2
  4326  0371  085E               	movf	convert@a+1,w
  4327  0372  00C0               	movwf	___fldiv@b+1
  4328  0373  085D               	movf	convert@a,w
  4329  0374  00BF               	movwf	___fldiv@b
  4330  0375  120A  158A  2393  120A  118A  	fcall	___fldiv
  4331  037A  1283               	bcf	3,5	;RP0=0, select bank0
  4332  037B  1303               	bcf	3,6	;RP1=0, select bank0
  4333  037C  083E               	movf	?___fldiv+3,w
  4334  037D  1683               	bsf	3,5	;RP0=1, select bank1
  4335  037E  1303               	bcf	3,6	;RP1=0, select bank1
  4336  037F  00A8               	movwf	(convert@x+3)^(0+128)
  4337  0380  1283               	bcf	3,5	;RP0=0, select bank0
  4338  0381  1303               	bcf	3,6	;RP1=0, select bank0
  4339  0382  083D               	movf	?___fldiv+2,w
  4340  0383  1683               	bsf	3,5	;RP0=1, select bank1
  4341  0384  1303               	bcf	3,6	;RP1=0, select bank1
  4342  0385  00A7               	movwf	(convert@x+2)^(0+128)
  4343  0386  1283               	bcf	3,5	;RP0=0, select bank0
  4344  0387  1303               	bcf	3,6	;RP1=0, select bank0
  4345  0388  083C               	movf	?___fldiv+1,w
  4346  0389  1683               	bsf	3,5	;RP0=1, select bank1
  4347  038A  1303               	bcf	3,6	;RP1=0, select bank1
  4348  038B  00A6               	movwf	(convert@x+1)^(0+128)
  4349  038C  1283               	bcf	3,5	;RP0=0, select bank0
  4350  038D  1303               	bcf	3,6	;RP1=0, select bank0
  4351  038E  083B               	movf	?___fldiv,w
  4352  038F  1683               	bsf	3,5	;RP0=1, select bank1
  4353  0390  1303               	bcf	3,6	;RP1=0, select bank1
  4354  0391  00A5               	movwf	convert@x^(0+128)
  4355                           
  4356                           ;ADC.c: 114:          a=a-((int)x*mu);
  4357  0392  082E               	movf	(convert@mu+1)^(0+128),w
  4358  0393  1283               	bcf	3,5	;RP0=0, select bank0
  4359  0394  1303               	bcf	3,6	;RP1=0, select bank0
  4360  0395  00AA               	movwf	___wmul@multiplicand+1
  4361  0396  1683               	bsf	3,5	;RP0=1, select bank1
  4362  0397  1303               	bcf	3,6	;RP1=0, select bank1
  4363  0398  082D               	movf	convert@mu^(0+128),w
  4364  0399  1283               	bcf	3,5	;RP0=0, select bank0
  4365  039A  1303               	bcf	3,6	;RP1=0, select bank0
  4366  039B  00A9               	movwf	___wmul@multiplicand
  4367  039C  1683               	bsf	3,5	;RP0=1, select bank1
  4368  039D  1303               	bcf	3,6	;RP1=0, select bank1
  4369  039E  0828               	movf	(convert@x+3)^(0+128),w
  4370  039F  00F6               	movwf	___fltol@f1+3
  4371  03A0  0827               	movf	(convert@x+2)^(0+128),w
  4372  03A1  00F5               	movwf	___fltol@f1+2
  4373  03A2  0826               	movf	(convert@x+1)^(0+128),w
  4374  03A3  00F4               	movwf	___fltol@f1+1
  4375  03A4  0825               	movf	convert@x^(0+128),w
  4376  03A5  00F3               	movwf	___fltol@f1
  4377  03A6  160A  118A  265D  120A  118A  	fcall	___fltol
  4378  03AB  0874               	movf	?___fltol+1,w
  4379  03AC  1283               	bcf	3,5	;RP0=0, select bank0
  4380  03AD  1303               	bcf	3,6	;RP1=0, select bank0
  4381  03AE  00A8               	movwf	___wmul@multiplier+1
  4382  03AF  0873               	movf	?___fltol,w
  4383  03B0  00A7               	movwf	___wmul@multiplier
  4384  03B1  160A  118A  249C  120A  118A  	fcall	___wmul
  4385  03B6  1283               	bcf	3,5	;RP0=0, select bank0
  4386  03B7  1303               	bcf	3,6	;RP1=0, select bank0
  4387  03B8  0827               	movf	?___wmul,w
  4388  03B9  00AD               	movwf	___xxtofl@val
  4389  03BA  0828               	movf	?___wmul+1,w
  4390  03BB  00AE               	movwf	___xxtofl@val+1
  4391  03BC  3000               	movlw	0
  4392  03BD  1BAE               	btfsc	___xxtofl@val+1,7
  4393  03BE  30FF               	movlw	255
  4394  03BF  00AF               	movwf	___xxtofl@val+2
  4395  03C0  00B0               	movwf	___xxtofl@val+3
  4396  03C1  3001               	movlw	1
  4397  03C2  120A  158A  2044  120A  118A  	fcall	___xxtofl
  4398  03C7  1283               	bcf	3,5	;RP0=0, select bank0
  4399  03C8  1303               	bcf	3,6	;RP1=0, select bank0
  4400  03C9  0830               	movf	?___xxtofl+3,w
  4401  03CA  00BE               	movwf	___flsub@a+3
  4402  03CB  082F               	movf	?___xxtofl+2,w
  4403  03CC  00BD               	movwf	___flsub@a+2
  4404  03CD  082E               	movf	?___xxtofl+1,w
  4405  03CE  00BC               	movwf	___flsub@a+1
  4406  03CF  082D               	movf	?___xxtofl,w
  4407  03D0  00BB               	movwf	___flsub@a
  4408  03D1  0860               	movf	convert@a+3,w
  4409  03D2  00C2               	movwf	___flsub@b+3
  4410  03D3  085F               	movf	convert@a+2,w
  4411  03D4  00C1               	movwf	___flsub@b+2
  4412  03D5  085E               	movf	convert@a+1,w
  4413  03D6  00C0               	movwf	___flsub@b+1
  4414  03D7  085D               	movf	convert@a,w
  4415  03D8  00BF               	movwf	___flsub@b
  4416  03D9  160A  118A  2478  120A  118A  	fcall	___flsub
  4417  03DE  1283               	bcf	3,5	;RP0=0, select bank0
  4418  03DF  1303               	bcf	3,6	;RP1=0, select bank0
  4419  03E0  083E               	movf	?___flsub+3,w
  4420  03E1  00E0               	movwf	convert@a+3
  4421  03E2  083D               	movf	?___flsub+2,w
  4422  03E3  00DF               	movwf	convert@a+2
  4423  03E4  083C               	movf	?___flsub+1,w
  4424  03E5  00DE               	movwf	convert@a+1
  4425  03E6  083B               	movf	?___flsub,w
  4426  03E7  00DD               	movwf	convert@a
  4427  03E8                     l4281:
  4428                           
  4429                           ;ADC.c: 115:          data[i]=0x30+((int)x);
  4430  03E8  1683               	bsf	3,5	;RP0=1, select bank1
  4431  03E9  1303               	bcf	3,6	;RP1=0, select bank1
  4432  03EA  0828               	movf	(convert@x+3)^(0+128),w
  4433  03EB  00F6               	movwf	___fltol@f1+3
  4434  03EC  0827               	movf	(convert@x+2)^(0+128),w
  4435  03ED  00F5               	movwf	___fltol@f1+2
  4436  03EE  0826               	movf	(convert@x+1)^(0+128),w
  4437  03EF  00F4               	movwf	___fltol@f1+1
  4438  03F0  0825               	movf	convert@x^(0+128),w
  4439  03F1  00F3               	movwf	___fltol@f1
  4440  03F2  160A  118A  265D  120A  118A  	fcall	___fltol
  4441  03F7  0873               	movf	?___fltol,w
  4442  03F8  3E30               	addlw	48
  4443  03F9  1283               	bcf	3,5	;RP0=0, select bank0
  4444  03FA  1303               	bcf	3,6	;RP1=0, select bank0
  4445  03FB  00E3               	movwf	??_convert
  4446  03FC  1683               	bsf	3,5	;RP0=1, select bank1
  4447  03FD  1303               	bcf	3,6	;RP1=0, select bank1
  4448  03FE  0829               	movf	convert@i^(0+128),w
  4449  03FF  0724               	addwf	convert@data^(0+128),w
  4450  0400  1283               	bcf	3,5	;RP0=0, select bank0
  4451  0401  1303               	bcf	3,6	;RP1=0, select bank0
  4452  0402  00E4               	movwf	??_convert+1
  4453  0403  0864               	movf	??_convert+1,w
  4454  0404  0084               	movwf	4
  4455  0405  0863               	movf	??_convert,w
  4456  0406  1383               	bcf	3,7	;select IRP bank0
  4457  0407  0080               	movwf	0
  4458  0408                     l4283:
  4459                           
  4460                           ;ADC.c: 116:          i++;
  4461  0408  3001               	movlw	1
  4462  0409  1683               	bsf	3,5	;RP0=1, select bank1
  4463  040A  1303               	bcf	3,6	;RP1=0, select bank1
  4464  040B  07A9               	addwf	convert@i^(0+128),f
  4465  040C  1803               	skipnc
  4466  040D  0AAA               	incf	(convert@i+1)^(0+128),f
  4467  040E  3000               	movlw	0
  4468  040F  07AA               	addwf	(convert@i+1)^(0+128),f
  4469  0410                     l4285:
  4470                           
  4471                           ;ADC.c: 117:          digits--;
  4472  0410  30FF               	movlw	255
  4473  0411  07AB               	addwf	convert@digits^(0+128),f
  4474  0412  1803               	skipnc
  4475  0413  0AAC               	incf	(convert@digits+1)^(0+128),f
  4476  0414  30FF               	movlw	255
  4477  0415  07AC               	addwf	(convert@digits+1)^(0+128),f
  4478  0416                     l4287:
  4479                           
  4480                           ;ADC.c: 118:          mu=1;
  4481  0416  3001               	movlw	1
  4482  0417  00AD               	movwf	convert@mu^(0+128)
  4483  0418  3000               	movlw	0
  4484  0419  00AE               	movwf	(convert@mu^(0+128)+1)
  4485  041A                     l4289:
  4486                           
  4487                           ;ADC.c: 108:      while(digits!=0)
  4488  041A  082B               	movf	convert@digits^(0+128),w
  4489  041B  042C               	iorwf	(convert@digits+1)^(0+128),w
  4490  041C  1D03               	btfss	3,2
  4491  041D  2C1F               	goto	u6291
  4492  041E  2C20               	goto	u6290
  4493  041F                     u6291:
  4494  041F  2AFF               	goto	l4267
  4495  0420                     u6290:
  4496  0420                     l4291:
  4497                           
  4498                           ;ADC.c: 121:     data[i]='\n';
  4499  0420  300A               	movlw	10
  4500  0421  1283               	bcf	3,5	;RP0=0, select bank0
  4501  0422  1303               	bcf	3,6	;RP1=0, select bank0
  4502  0423  00E3               	movwf	??_convert
  4503  0424  1683               	bsf	3,5	;RP0=1, select bank1
  4504  0425  1303               	bcf	3,6	;RP1=0, select bank1
  4505  0426  0829               	movf	convert@i^(0+128),w
  4506  0427  0724               	addwf	convert@data^(0+128),w
  4507  0428  1283               	bcf	3,5	;RP0=0, select bank0
  4508  0429  1303               	bcf	3,6	;RP1=0, select bank0
  4509  042A  00E4               	movwf	??_convert+1
  4510  042B  0864               	movf	??_convert+1,w
  4511  042C  0084               	movwf	4
  4512  042D  0863               	movf	??_convert,w
  4513  042E  1383               	bcf	3,7	;select IRP bank0
  4514  042F  0080               	movwf	0
  4515  0430                     l122:
  4516  0430  0008               	return
  4517  0431                     __end_of_convert:
  4518                           
  4519                           	psect	text14
  4520  0844                     __ptext14:	
  4521 ;; *************** function ___xxtofl *****************
  4522 ;; Defined at:
  4523 ;;		line 10 in file "C:\Program Files\Microchip\xc8\v2.31\pic\sources\c90\common\xxtofl.c"
  4524 ;; Parameters:    Size  Location     Type
  4525 ;;  sign            1    wreg     unsigned char 
  4526 ;;  val             4   13[BANK0 ] long 
  4527 ;; Auto vars:     Size  Location     Type
  4528 ;;  sign            1   21[BANK0 ] unsigned char 
  4529 ;;  arg             4   23[BANK0 ] unsigned long 
  4530 ;;  exp             1   22[BANK0 ] unsigned char 
  4531 ;; Return value:  Size  Location     Type
  4532 ;;                  4   13[BANK0 ] unsigned char 
  4533 ;; Registers used:
  4534 ;;		wreg, status,2, status,0
  4535 ;; Tracked objects:
  4536 ;;		On entry : 0/0
  4537 ;;		On exit  : 0/0
  4538 ;;		Unchanged: 0/0
  4539 ;; Data sizes:     COMMON   BANK0   BANK1   BANK3   BANK2
  4540 ;;      Params:         0       4       0       0       0
  4541 ;;      Locals:         0       6       0       0       0
  4542 ;;      Temps:          0       4       0       0       0
  4543 ;;      Totals:         0      14       0       0       0
  4544 ;;Total ram usage:       14 bytes
  4545 ;; Hardware stack levels used:    1
  4546 ;; Hardware stack levels required when called:    1
  4547 ;; This function calls:
  4548 ;;		Nothing
  4549 ;; This function is called by:
  4550 ;;		_convert
  4551 ;;		_main
  4552 ;; This function uses a non-reentrant model
  4553 ;;
  4554                           
  4555                           
  4556                           ;psect for function ___xxtofl
  4557  0844                     ___xxtofl:
  4558                           
  4559                           ;incstack = 0
  4560                           ; Regs used in ___xxtofl: [wreg+status,2+status,0]
  4561                           ;___xxtofl@sign stored from wreg
  4562  0844  1283               	bcf	3,5	;RP0=0, select bank0
  4563  0845  1303               	bcf	3,6	;RP1=0, select bank0
  4564  0846  00B5               	movwf	___xxtofl@sign
  4565  0847                     l4147:
  4566  0847  0835               	movf	___xxtofl@sign,w
  4567  0848  1903               	btfsc	3,2
  4568  0849  284B               	goto	u6071
  4569  084A  284C               	goto	u6070
  4570  084B                     u6071:
  4571  084B  2860               	goto	l4153
  4572  084C                     u6070:
  4573  084C                     l4149:
  4574  084C  1FB0               	btfss	___xxtofl@val+3,7
  4575  084D  284F               	goto	u6081
  4576  084E  2850               	goto	u6080
  4577  084F                     u6081:
  4578  084F  2860               	goto	l4153
  4579  0850                     u6080:
  4580  0850                     l4151:
  4581  0850  092D               	comf	___xxtofl@val,w
  4582  0851  00B7               	movwf	___xxtofl@arg
  4583  0852  092E               	comf	___xxtofl@val+1,w
  4584  0853  00B8               	movwf	___xxtofl@arg+1
  4585  0854  092F               	comf	___xxtofl@val+2,w
  4586  0855  00B9               	movwf	___xxtofl@arg+2
  4587  0856  0930               	comf	___xxtofl@val+3,w
  4588  0857  00BA               	movwf	___xxtofl@arg+3
  4589  0858  0AB7               	incf	___xxtofl@arg,f
  4590  0859  1903               	skipnz
  4591  085A  0AB8               	incf	___xxtofl@arg+1,f
  4592  085B  1903               	skipnz
  4593  085C  0AB9               	incf	___xxtofl@arg+2,f
  4594  085D  1903               	skipnz
  4595  085E  0ABA               	incf	___xxtofl@arg+3,f
  4596  085F  2868               	goto	l805
  4597  0860                     l4153:
  4598  0860  0830               	movf	___xxtofl@val+3,w
  4599  0861  00BA               	movwf	___xxtofl@arg+3
  4600  0862  082F               	movf	___xxtofl@val+2,w
  4601  0863  00B9               	movwf	___xxtofl@arg+2
  4602  0864  082E               	movf	___xxtofl@val+1,w
  4603  0865  00B8               	movwf	___xxtofl@arg+1
  4604  0866  082D               	movf	___xxtofl@val,w
  4605  0867  00B7               	movwf	___xxtofl@arg
  4606  0868                     l805:
  4607  0868  0830               	movf	___xxtofl@val+3,w
  4608  0869  042F               	iorwf	___xxtofl@val+2,w
  4609  086A  042E               	iorwf	___xxtofl@val+1,w
  4610  086B  042D               	iorwf	___xxtofl@val,w
  4611  086C  1D03               	skipz
  4612  086D  286F               	goto	u6091
  4613  086E  2870               	goto	u6090
  4614  086F                     u6091:
  4615  086F  2879               	goto	l4159
  4616  0870                     u6090:
  4617  0870                     l4155:
  4618  0870  3000               	movlw	0
  4619  0871  00B0               	movwf	?___xxtofl+3
  4620  0872  3000               	movlw	0
  4621  0873  00AF               	movwf	?___xxtofl+2
  4622  0874  3000               	movlw	0
  4623  0875  00AE               	movwf	?___xxtofl+1
  4624  0876  3000               	movlw	0
  4625  0877  00AD               	movwf	?___xxtofl
  4626  0878  28FF               	goto	l807
  4627  0879                     l4159:
  4628  0879  3096               	movlw	150
  4629  087A  00B1               	movwf	??___xxtofl
  4630  087B  0831               	movf	??___xxtofl,w
  4631  087C  00B6               	movwf	___xxtofl@exp
  4632  087D  288B               	goto	l4163
  4633  087E                     l4161:
  4634  087E  3001               	movlw	1
  4635  087F  00B1               	movwf	??___xxtofl
  4636  0880  0831               	movf	??___xxtofl,w
  4637  0881  07B6               	addwf	___xxtofl@exp,f
  4638  0882  3001               	movlw	1
  4639  0883                     u6105:
  4640  0883  1003               	clrc
  4641  0884  0CBA               	rrf	___xxtofl@arg+3,f
  4642  0885  0CB9               	rrf	___xxtofl@arg+2,f
  4643  0886  0CB8               	rrf	___xxtofl@arg+1,f
  4644  0887  0CB7               	rrf	___xxtofl@arg,f
  4645  0888  3EFF               	addlw	-1
  4646  0889  1D03               	skipz
  4647  088A  2883               	goto	u6105
  4648  088B                     l4163:
  4649  088B  30FE               	movlw	254
  4650  088C  053A               	andwf	___xxtofl@arg+3,w
  4651  088D  1D03               	btfss	3,2
  4652  088E  2890               	goto	u6111
  4653  088F  2891               	goto	u6110
  4654  0890                     u6111:
  4655  0890  287E               	goto	l4161
  4656  0891                     u6110:
  4657  0891  28AD               	goto	l811
  4658  0892                     l4165:
  4659  0892  3001               	movlw	1
  4660  0893  00B1               	movwf	??___xxtofl
  4661  0894  0831               	movf	??___xxtofl,w
  4662  0895  07B6               	addwf	___xxtofl@exp,f
  4663  0896                     l4167:
  4664  0896  3001               	movlw	1
  4665  0897  07B7               	addwf	___xxtofl@arg,f
  4666  0898  3000               	movlw	0
  4667  0899  1803               	skipnc
  4668  089A  3001               	movlw	1
  4669  089B  07B8               	addwf	___xxtofl@arg+1,f
  4670  089C  3000               	movlw	0
  4671  089D  1803               	skipnc
  4672  089E  3001               	movlw	1
  4673  089F  07B9               	addwf	___xxtofl@arg+2,f
  4674  08A0  3000               	movlw	0
  4675  08A1  1803               	skipnc
  4676  08A2  3001               	movlw	1
  4677  08A3  07BA               	addwf	___xxtofl@arg+3,f
  4678  08A4                     l4169:
  4679  08A4  3001               	movlw	1
  4680  08A5                     u6125:
  4681  08A5  1003               	clrc
  4682  08A6  0CBA               	rrf	___xxtofl@arg+3,f
  4683  08A7  0CB9               	rrf	___xxtofl@arg+2,f
  4684  08A8  0CB8               	rrf	___xxtofl@arg+1,f
  4685  08A9  0CB7               	rrf	___xxtofl@arg,f
  4686  08AA  3EFF               	addlw	-1
  4687  08AB  1D03               	skipz
  4688  08AC  28A5               	goto	u6125
  4689  08AD                     l811:
  4690  08AD  30FF               	movlw	255
  4691  08AE  053A               	andwf	___xxtofl@arg+3,w
  4692  08AF  1D03               	btfss	3,2
  4693  08B0  28B2               	goto	u6131
  4694  08B1  28B3               	goto	u6130
  4695  08B2                     u6131:
  4696  08B2  2892               	goto	l4165
  4697  08B3                     u6130:
  4698  08B3  28BF               	goto	l4173
  4699  08B4                     l4171:
  4700  08B4  3001               	movlw	1
  4701  08B5  02B6               	subwf	___xxtofl@exp,f
  4702  08B6  3001               	movlw	1
  4703  08B7  00B1               	movwf	??___xxtofl
  4704  08B8                     u6145:
  4705  08B8  1003               	clrc
  4706  08B9  0DB7               	rlf	___xxtofl@arg,f
  4707  08BA  0DB8               	rlf	___xxtofl@arg+1,f
  4708  08BB  0DB9               	rlf	___xxtofl@arg+2,f
  4709  08BC  0DBA               	rlf	___xxtofl@arg+3,f
  4710  08BD  0BB1               	decfsz	??___xxtofl,f
  4711  08BE  28B8               	goto	u6145
  4712  08BF                     l4173:
  4713  08BF  1BB9               	btfsc	___xxtofl@arg+2,7
  4714  08C0  28C2               	goto	u6151
  4715  08C1  28C3               	goto	u6150
  4716  08C2                     u6151:
  4717  08C2  28C9               	goto	l818
  4718  08C3                     u6150:
  4719  08C3                     l4175:
  4720  08C3  3002               	movlw	2
  4721  08C4  0236               	subwf	___xxtofl@exp,w
  4722  08C5  1803               	skipnc
  4723  08C6  28C8               	goto	u6161
  4724  08C7  28C9               	goto	u6160
  4725  08C8                     u6161:
  4726  08C8  28B4               	goto	l4171
  4727  08C9                     u6160:
  4728  08C9                     l818:
  4729  08C9  1836               	btfsc	___xxtofl@exp,0
  4730  08CA  28CC               	goto	u6171
  4731  08CB  28CD               	goto	u6170
  4732  08CC                     u6171:
  4733  08CC  28D5               	goto	l819
  4734  08CD                     u6170:
  4735  08CD                     l4177:
  4736  08CD  30FF               	movlw	255
  4737  08CE  05B7               	andwf	___xxtofl@arg,f
  4738  08CF  30FF               	movlw	255
  4739  08D0  05B8               	andwf	___xxtofl@arg+1,f
  4740  08D1  307F               	movlw	127
  4741  08D2  05B9               	andwf	___xxtofl@arg+2,f
  4742  08D3  30FF               	movlw	255
  4743  08D4  05BA               	andwf	___xxtofl@arg+3,f
  4744  08D5                     l819:
  4745  08D5  1003               	clrc
  4746  08D6  0CB6               	rrf	___xxtofl@exp,f
  4747  08D7                     l4179:
  4748  08D7  0836               	movf	___xxtofl@exp,w
  4749  08D8  00B1               	movwf	??___xxtofl
  4750  08D9  01B2               	clrf	??___xxtofl+1
  4751  08DA  01B3               	clrf	??___xxtofl+2
  4752  08DB  01B4               	clrf	??___xxtofl+3
  4753  08DC  3018               	movlw	24
  4754  08DD                     u6185:
  4755  08DD  1003               	clrc
  4756  08DE  0DB1               	rlf	??___xxtofl,f
  4757  08DF  0DB2               	rlf	??___xxtofl+1,f
  4758  08E0  0DB3               	rlf	??___xxtofl+2,f
  4759  08E1  0DB4               	rlf	??___xxtofl+3,f
  4760  08E2                     u6180:
  4761  08E2  3EFF               	addlw	-1
  4762  08E3  1D03               	skipz
  4763  08E4  28DD               	goto	u6185
  4764  08E5  0831               	movf	??___xxtofl,w
  4765  08E6  04B7               	iorwf	___xxtofl@arg,f
  4766  08E7  0832               	movf	??___xxtofl+1,w
  4767  08E8  04B8               	iorwf	___xxtofl@arg+1,f
  4768  08E9  0833               	movf	??___xxtofl+2,w
  4769  08EA  04B9               	iorwf	___xxtofl@arg+2,f
  4770  08EB  0834               	movf	??___xxtofl+3,w
  4771  08EC  04BA               	iorwf	___xxtofl@arg+3,f
  4772  08ED                     l4181:
  4773  08ED  0835               	movf	___xxtofl@sign,w
  4774  08EE  1903               	btfsc	3,2
  4775  08EF  28F1               	goto	u6191
  4776  08F0  28F2               	goto	u6190
  4777  08F1                     u6191:
  4778  08F1  28F7               	goto	l4187
  4779  08F2                     u6190:
  4780  08F2                     l4183:
  4781  08F2  1FB0               	btfss	___xxtofl@val+3,7
  4782  08F3  28F5               	goto	u6201
  4783  08F4  28F6               	goto	u6200
  4784  08F5                     u6201:
  4785  08F5  28F7               	goto	l4187
  4786  08F6                     u6200:
  4787  08F6                     l4185:
  4788  08F6  17BA               	bsf	___xxtofl@arg+3,7
  4789  08F7                     l4187:
  4790  08F7  083A               	movf	___xxtofl@arg+3,w
  4791  08F8  00B0               	movwf	?___xxtofl+3
  4792  08F9  0839               	movf	___xxtofl@arg+2,w
  4793  08FA  00AF               	movwf	?___xxtofl+2
  4794  08FB  0838               	movf	___xxtofl@arg+1,w
  4795  08FC  00AE               	movwf	?___xxtofl+1
  4796  08FD  0837               	movf	___xxtofl@arg,w
  4797  08FE  00AD               	movwf	?___xxtofl
  4798  08FF                     l807:
  4799  08FF  0008               	return
  4800  0900                     __end_of___xxtofl:
  4801                           
  4802                           	psect	text15
  4803  149C                     __ptext15:	
  4804 ;; *************** function ___wmul *****************
  4805 ;; Defined at:
  4806 ;;		line 15 in file "C:\Program Files\Microchip\xc8\v2.31\pic\sources\c90\common\Umul16.c"
  4807 ;; Parameters:    Size  Location     Type
  4808 ;;  multiplier      2    7[BANK0 ] unsigned int 
  4809 ;;  multiplicand    2    9[BANK0 ] unsigned int 
  4810 ;; Auto vars:     Size  Location     Type
  4811 ;;  product         2   11[BANK0 ] unsigned int 
  4812 ;; Return value:  Size  Location     Type
  4813 ;;                  2    7[BANK0 ] unsigned int 
  4814 ;; Registers used:
  4815 ;;		wreg, status,2, status,0
  4816 ;; Tracked objects:
  4817 ;;		On entry : 0/0
  4818 ;;		On exit  : 0/0
  4819 ;;		Unchanged: 0/0
  4820 ;; Data sizes:     COMMON   BANK0   BANK1   BANK3   BANK2
  4821 ;;      Params:         0       4       0       0       0
  4822 ;;      Locals:         0       2       0       0       0
  4823 ;;      Temps:          0       0       0       0       0
  4824 ;;      Totals:         0       6       0       0       0
  4825 ;;Total ram usage:        6 bytes
  4826 ;; Hardware stack levels used:    1
  4827 ;; Hardware stack levels required when called:    1
  4828 ;; This function calls:
  4829 ;;		Nothing
  4830 ;; This function is called by:
  4831 ;;		_convert
  4832 ;;		_atoi
  4833 ;; This function uses a non-reentrant model
  4834 ;;
  4835                           
  4836                           
  4837                           ;psect for function ___wmul
  4838  149C                     ___wmul:
  4839  149C                     l3391:	
  4840                           ;incstack = 0
  4841                           ; Regs used in ___wmul: [wreg+status,2+status,0]
  4842                           
  4843  149C  1283               	bcf	3,5	;RP0=0, select bank0
  4844  149D  1303               	bcf	3,6	;RP1=0, select bank0
  4845  149E  01AB               	clrf	___wmul@product
  4846  149F  01AC               	clrf	___wmul@product+1
  4847  14A0                     l3393:
  4848  14A0  1C27               	btfss	___wmul@multiplier,0
  4849  14A1  2CA3               	goto	u4441
  4850  14A2  2CA4               	goto	u4440
  4851  14A3                     u4441:
  4852  14A3  2CAA               	goto	l372
  4853  14A4                     u4440:
  4854  14A4                     l3395:
  4855  14A4  0829               	movf	___wmul@multiplicand,w
  4856  14A5  07AB               	addwf	___wmul@product,f
  4857  14A6  1803               	skipnc
  4858  14A7  0AAC               	incf	___wmul@product+1,f
  4859  14A8  082A               	movf	___wmul@multiplicand+1,w
  4860  14A9  07AC               	addwf	___wmul@product+1,f
  4861  14AA                     l372:
  4862  14AA  3001               	movlw	1
  4863  14AB                     u4455:
  4864  14AB  1003               	clrc
  4865  14AC  0DA9               	rlf	___wmul@multiplicand,f
  4866  14AD  0DAA               	rlf	___wmul@multiplicand+1,f
  4867  14AE  3EFF               	addlw	-1
  4868  14AF  1D03               	skipz
  4869  14B0  2CAB               	goto	u4455
  4870  14B1                     l3397:
  4871  14B1  3001               	movlw	1
  4872  14B2                     u4465:
  4873  14B2  1003               	clrc
  4874  14B3  0CA8               	rrf	___wmul@multiplier+1,f
  4875  14B4  0CA7               	rrf	___wmul@multiplier,f
  4876  14B5  3EFF               	addlw	-1
  4877  14B6  1D03               	skipz
  4878  14B7  2CB2               	goto	u4465
  4879  14B8                     l3399:
  4880  14B8  0827               	movf	___wmul@multiplier,w
  4881  14B9  0428               	iorwf	___wmul@multiplier+1,w
  4882  14BA  1D03               	btfss	3,2
  4883  14BB  2CBD               	goto	u4471
  4884  14BC  2CBE               	goto	u4470
  4885  14BD                     u4471:
  4886  14BD  2CA0               	goto	l3393
  4887  14BE                     u4470:
  4888  14BE                     l3401:
  4889  14BE  082C               	movf	___wmul@product+1,w
  4890  14BF  00A8               	movwf	?___wmul+1
  4891  14C0  082B               	movf	___wmul@product,w
  4892  14C1  00A7               	movwf	?___wmul
  4893  14C2                     l374:
  4894  14C2  0008               	return
  4895  14C3                     __end_of___wmul:
  4896                           
  4897                           	psect	text16
  4898  165D                     __ptext16:	
  4899 ;; *************** function ___fltol *****************
  4900 ;; Defined at:
  4901 ;;		line 43 in file "C:\Program Files\Microchip\xc8\v2.31\pic\sources\c90\common\fltol.c"
  4902 ;; Parameters:    Size  Location     Type
  4903 ;;  f1              4    3[COMMON] unsigned int 
  4904 ;; Auto vars:     Size  Location     Type
  4905 ;;  exp1            1    6[BANK0 ] unsigned char 
  4906 ;;  sign1           1    5[BANK0 ] unsigned char 
  4907 ;; Return value:  Size  Location     Type
  4908 ;;                  4    3[COMMON] long 
  4909 ;; Registers used:
  4910 ;;		wreg, status,2, status,0
  4911 ;; Tracked objects:
  4912 ;;		On entry : 0/0
  4913 ;;		On exit  : 0/0
  4914 ;;		Unchanged: 0/0
  4915 ;; Data sizes:     COMMON   BANK0   BANK1   BANK3   BANK2
  4916 ;;      Params:         4       0       0       0       0
  4917 ;;      Locals:         0       2       0       0       0
  4918 ;;      Temps:          0       5       0       0       0
  4919 ;;      Totals:         4       7       0       0       0
  4920 ;;Total ram usage:       11 bytes
  4921 ;; Hardware stack levels used:    1
  4922 ;; Hardware stack levels required when called:    1
  4923 ;; This function calls:
  4924 ;;		Nothing
  4925 ;; This function is called by:
  4926 ;;		_convert
  4927 ;; This function uses a non-reentrant model
  4928 ;;
  4929                           
  4930                           
  4931                           ;psect for function ___fltol
  4932  165D                     ___fltol:
  4933  165D                     l3823:	
  4934                           ;incstack = 0
  4935                           ; Regs used in ___fltol: [wreg+status,2+status,0]
  4936                           
  4937  165D  1003               	clrc
  4938  165E  0D75               	rlf	___fltol@f1+2,w
  4939  165F  0D76               	rlf	___fltol@f1+3,w
  4940  1660  1283               	bcf	3,5	;RP0=0, select bank0
  4941  1661  1303               	bcf	3,6	;RP1=0, select bank0
  4942  1662  00A0               	movwf	??___fltol
  4943  1663  0820               	movf	??___fltol,w
  4944  1664  00A6               	movwf	___fltol@exp1
  4945  1665  0826               	movf	___fltol@exp1,w
  4946  1666  1D03               	btfss	3,2
  4947  1667  2E69               	goto	u5311
  4948  1668  2E6A               	goto	u5310
  4949  1669                     u5311:
  4950  1669  2E73               	goto	l3829
  4951  166A                     u5310:
  4952  166A                     l3825:
  4953  166A  3000               	movlw	0
  4954  166B  00F6               	movwf	?___fltol+3
  4955  166C  3000               	movlw	0
  4956  166D  00F5               	movwf	?___fltol+2
  4957  166E  3000               	movlw	0
  4958  166F  00F4               	movwf	?___fltol+1
  4959  1670  3000               	movlw	0
  4960  1671  00F3               	movwf	?___fltol
  4961  1672  2ED8               	goto	l558
  4962  1673                     l3829:
  4963  1673  0873               	movf	___fltol@f1,w
  4964  1674  00A0               	movwf	??___fltol
  4965  1675  0874               	movf	___fltol@f1+1,w
  4966  1676  00A1               	movwf	??___fltol+1
  4967  1677  0875               	movf	___fltol@f1+2,w
  4968  1678  00A2               	movwf	??___fltol+2
  4969  1679  0876               	movf	___fltol@f1+3,w
  4970  167A  00A3               	movwf	??___fltol+3
  4971  167B  301F               	movlw	31
  4972  167C                     u5325:
  4973  167C  1003               	clrc
  4974  167D  0CA3               	rrf	??___fltol+3,f
  4975  167E  0CA2               	rrf	??___fltol+2,f
  4976  167F  0CA1               	rrf	??___fltol+1,f
  4977  1680  0CA0               	rrf	??___fltol,f
  4978  1681                     u5320:
  4979  1681  3EFF               	addlw	-1
  4980  1682  1D03               	skipz
  4981  1683  2E7C               	goto	u5325
  4982  1684  0820               	movf	??___fltol,w
  4983  1685  00A4               	movwf	??___fltol+4
  4984  1686  0824               	movf	??___fltol+4,w
  4985  1687  00A5               	movwf	___fltol@sign1
  4986  1688                     l3831:
  4987  1688  17F5               	bsf	___fltol@f1+2,7
  4988  1689                     l3833:
  4989  1689  30FF               	movlw	255
  4990  168A  05F3               	andwf	___fltol@f1,f
  4991  168B  30FF               	movlw	255
  4992  168C  05F4               	andwf	___fltol@f1+1,f
  4993  168D  30FF               	movlw	255
  4994  168E  05F5               	andwf	___fltol@f1+2,f
  4995  168F  3000               	movlw	0
  4996  1690  05F6               	andwf	___fltol@f1+3,f
  4997  1691                     l3835:
  4998  1691  3096               	movlw	150
  4999  1692  02A6               	subwf	___fltol@exp1,f
  5000  1693                     l3837:
  5001  1693  1FA6               	btfss	___fltol@exp1,7
  5002  1694  2E96               	goto	u5331
  5003  1695  2E97               	goto	u5330
  5004  1696                     u5331:
  5005  1696  2EB1               	goto	l3847
  5006  1697                     u5330:
  5007  1697                     l3839:
  5008  1697  0826               	movf	___fltol@exp1,w
  5009  1698  3A80               	xorlw	128
  5010  1699  3E97               	addlw	151
  5011  169A  1803               	skipnc
  5012  169B  2E9D               	goto	u5341
  5013  169C  2E9E               	goto	u5340
  5014  169D                     u5341:
  5015  169D  2E9F               	goto	l3845
  5016  169E                     u5340:
  5017  169E  2E6A               	goto	l3825
  5018  169F                     l3845:
  5019  169F  3001               	movlw	1
  5020  16A0                     u5355:
  5021  16A0  1003               	clrc
  5022  16A1  0CF6               	rrf	___fltol@f1+3,f
  5023  16A2  0CF5               	rrf	___fltol@f1+2,f
  5024  16A3  0CF4               	rrf	___fltol@f1+1,f
  5025  16A4  0CF3               	rrf	___fltol@f1,f
  5026  16A5  3EFF               	addlw	-1
  5027  16A6  1D03               	skipz
  5028  16A7  2EA0               	goto	u5355
  5029  16A8  3001               	movlw	1
  5030  16A9  00A0               	movwf	??___fltol
  5031  16AA  0820               	movf	??___fltol,w
  5032  16AB  07A6               	addwf	___fltol@exp1,f
  5033  16AC  1D03               	btfss	3,2
  5034  16AD  2EAF               	goto	u5361
  5035  16AE  2EB0               	goto	u5360
  5036  16AF                     u5361:
  5037  16AF  2E9F               	goto	l3845
  5038  16B0                     u5360:
  5039  16B0  2EC8               	goto	l3855
  5040  16B1                     l3847:
  5041  16B1  3020               	movlw	32
  5042  16B2  0226               	subwf	___fltol@exp1,w
  5043  16B3  1C03               	skipc
  5044  16B4  2EB6               	goto	u5371
  5045  16B5  2EB7               	goto	u5370
  5046  16B6                     u5371:
  5047  16B6  2EC3               	goto	l565
  5048  16B7                     u5370:
  5049  16B7  2E6A               	goto	l3825
  5050  16B8                     l3853:
  5051  16B8  3001               	movlw	1
  5052  16B9  00A0               	movwf	??___fltol
  5053  16BA                     u5385:
  5054  16BA  1003               	clrc
  5055  16BB  0DF3               	rlf	___fltol@f1,f
  5056  16BC  0DF4               	rlf	___fltol@f1+1,f
  5057  16BD  0DF5               	rlf	___fltol@f1+2,f
  5058  16BE  0DF6               	rlf	___fltol@f1+3,f
  5059  16BF  0BA0               	decfsz	??___fltol,f
  5060  16C0  2EBA               	goto	u5385
  5061  16C1  3001               	movlw	1
  5062  16C2  02A6               	subwf	___fltol@exp1,f
  5063  16C3                     l565:
  5064  16C3  0826               	movf	___fltol@exp1,w
  5065  16C4  1D03               	btfss	3,2
  5066  16C5  2EC7               	goto	u5391
  5067  16C6  2EC8               	goto	u5390
  5068  16C7                     u5391:
  5069  16C7  2EB8               	goto	l3853
  5070  16C8                     u5390:
  5071  16C8                     l3855:
  5072  16C8  0825               	movf	___fltol@sign1,w
  5073  16C9  1903               	btfsc	3,2
  5074  16CA  2ECC               	goto	u5401
  5075  16CB  2ECD               	goto	u5400
  5076  16CC                     u5401:
  5077  16CC  2ED8               	goto	l568
  5078  16CD                     u5400:
  5079  16CD                     l3857:
  5080  16CD  09F3               	comf	___fltol@f1,f
  5081  16CE  09F4               	comf	___fltol@f1+1,f
  5082  16CF  09F5               	comf	___fltol@f1+2,f
  5083  16D0  09F6               	comf	___fltol@f1+3,f
  5084  16D1  0AF3               	incf	___fltol@f1,f
  5085  16D2  1903               	skipnz
  5086  16D3  0AF4               	incf	___fltol@f1+1,f
  5087  16D4  1903               	skipnz
  5088  16D5  0AF5               	incf	___fltol@f1+2,f
  5089  16D6  1903               	skipnz
  5090  16D7  0AF6               	incf	___fltol@f1+3,f
  5091  16D8                     l568:
  5092  16D8                     l558:
  5093  16D8  0008               	return
  5094  16D9                     __end_of___fltol:
  5095                           
  5096                           	psect	text17
  5097  1478                     __ptext17:	
  5098 ;; *************** function ___flsub *****************
  5099 ;; Defined at:
  5100 ;;		line 242 in file "C:\Program Files\Microchip\xc8\v2.31\pic\sources\c90\common\sprcadd.c"
  5101 ;; Parameters:    Size  Location     Type
  5102 ;;  a               4   27[BANK0 ] long 
  5103 ;;  b               4   31[BANK0 ] long 
  5104 ;; Auto vars:     Size  Location     Type
  5105 ;;		None
  5106 ;; Return value:  Size  Location     Type
  5107 ;;                  4   27[BANK0 ] long 
  5108 ;; Registers used:
  5109 ;;		wreg, status,2, status,0, btemp+1, pclath, cstack
  5110 ;; Tracked objects:
  5111 ;;		On entry : 0/0
  5112 ;;		On exit  : 0/0
  5113 ;;		Unchanged: 0/0
  5114 ;; Data sizes:     COMMON   BANK0   BANK1   BANK3   BANK2
  5115 ;;      Params:         0       8       0       0       0
  5116 ;;      Locals:         0       0       0       0       0
  5117 ;;      Temps:          0       0       0       0       0
  5118 ;;      Totals:         0       8       0       0       0
  5119 ;;Total ram usage:        8 bytes
  5120 ;; Hardware stack levels used:    1
  5121 ;; Hardware stack levels required when called:    2
  5122 ;; This function calls:
  5123 ;;		___fladd
  5124 ;; This function is called by:
  5125 ;;		_convert
  5126 ;; This function uses a non-reentrant model
  5127 ;;
  5128                           
  5129                           
  5130                           ;psect for function ___flsub
  5131  1478                     ___flsub:
  5132  1478                     l3859:	
  5133                           ;incstack = 0
  5134                           ; Regs used in ___flsub: [wreg+status,2+status,0+btemp+1+pclath+cstack]
  5135                           
  5136  1478  3080               	movlw	128
  5137  1479  1283               	bcf	3,5	;RP0=0, select bank0
  5138  147A  1303               	bcf	3,6	;RP1=0, select bank0
  5139  147B  06BE               	xorwf	___flsub@a+3,f
  5140  147C                     l3861:
  5141  147C  0842               	movf	___flsub@b+3,w
  5142  147D  00A3               	movwf	___fladd@b+3
  5143  147E  0841               	movf	___flsub@b+2,w
  5144  147F  00A2               	movwf	___fladd@b+2
  5145  1480  0840               	movf	___flsub@b+1,w
  5146  1481  00A1               	movwf	___fladd@b+1
  5147  1482  083F               	movf	___flsub@b,w
  5148  1483  00A0               	movwf	___fladd@b
  5149  1484  083E               	movf	___flsub@a+3,w
  5150  1485  00A7               	movwf	___fladd@a+3
  5151  1486  083D               	movf	___flsub@a+2,w
  5152  1487  00A6               	movwf	___fladd@a+2
  5153  1488  083C               	movf	___flsub@a+1,w
  5154  1489  00A5               	movwf	___fladd@a+1
  5155  148A  083B               	movf	___flsub@a,w
  5156  148B  00A4               	movwf	___fladd@a
  5157  148C  120A  158A  2570  160A  118A  	fcall	___fladd
  5158  1491  1283               	bcf	3,5	;RP0=0, select bank0
  5159  1492  1303               	bcf	3,6	;RP1=0, select bank0
  5160  1493  0823               	movf	?___fladd+3,w
  5161  1494  00BE               	movwf	?___flsub+3
  5162  1495  0822               	movf	?___fladd+2,w
  5163  1496  00BD               	movwf	?___flsub+2
  5164  1497  0821               	movf	?___fladd+1,w
  5165  1498  00BC               	movwf	?___flsub+1
  5166  1499  0820               	movf	?___fladd,w
  5167  149A  00BB               	movwf	?___flsub
  5168  149B                     l711:
  5169  149B  0008               	return
  5170  149C                     __end_of___flsub:
  5171                           
  5172                           	psect	text18
  5173  0D70                     __ptext18:	
  5174 ;; *************** function ___fladd *****************
  5175 ;; Defined at:
  5176 ;;		line 10 in file "C:\Program Files\Microchip\xc8\v2.31\pic\sources\c90\common\sprcadd.c"
  5177 ;; Parameters:    Size  Location     Type
  5178 ;;  b               4    0[BANK0 ] long 
  5179 ;;  a               4    4[BANK0 ] long 
  5180 ;; Auto vars:     Size  Location     Type
  5181 ;;  grs             1    6[COMMON] unsigned char 
  5182 ;;  bexp            1    5[COMMON] unsigned char 
  5183 ;;  aexp            1    4[COMMON] unsigned char 
  5184 ;;  signs           1    3[COMMON] unsigned char 
  5185 ;; Return value:  Size  Location     Type
  5186 ;;                  4    0[BANK0 ] unsigned char 
  5187 ;; Registers used:
  5188 ;;		wreg, status,2, status,0, btemp+1
  5189 ;; Tracked objects:
  5190 ;;		On entry : 0/0
  5191 ;;		On exit  : 0/0
  5192 ;;		Unchanged: 0/0
  5193 ;; Data sizes:     COMMON   BANK0   BANK1   BANK3   BANK2
  5194 ;;      Params:         0       8       0       0       0
  5195 ;;      Locals:         4       0       0       0       0
  5196 ;;      Temps:          0       8       0       0       0
  5197 ;;      Totals:         4      16       0       0       0
  5198 ;;Total ram usage:       20 bytes
  5199 ;; Hardware stack levels used:    1
  5200 ;; Hardware stack levels required when called:    1
  5201 ;; This function calls:
  5202 ;;		Nothing
  5203 ;; This function is called by:
  5204 ;;		___flsub
  5205 ;; This function uses a non-reentrant model
  5206 ;;
  5207                           
  5208                           
  5209                           ;psect for function ___fladd
  5210  0D70                     ___fladd:
  5211  0D70                     l3531:	
  5212                           ;incstack = 0
  5213                           ; Regs used in ___fladd: [wreg+status,2+status,0+btemp+1]
  5214                           
  5215  0D70  1283               	bcf	3,5	;RP0=0, select bank0
  5216  0D71  1303               	bcf	3,6	;RP1=0, select bank0
  5217  0D72  0823               	movf	___fladd@b+3,w
  5218  0D73  3980               	andlw	128
  5219  0D74  00A8               	movwf	??___fladd
  5220  0D75  0828               	movf	??___fladd,w
  5221  0D76  00F3               	movwf	___fladd@signs
  5222  0D77                     l3533:
  5223  0D77  0823               	movf	___fladd@b+3,w
  5224  0D78  00A8               	movwf	??___fladd
  5225  0D79  0728               	addwf	??___fladd,w
  5226  0D7A  00A9               	movwf	??___fladd+1
  5227  0D7B  0829               	movf	??___fladd+1,w
  5228  0D7C  00F5               	movwf	___fladd@bexp
  5229  0D7D                     l3535:
  5230  0D7D  1FA2               	btfss	___fladd@b+2,7
  5231  0D7E  2D80               	goto	u4651
  5232  0D7F  2D81               	goto	u4650
  5233  0D80                     u4651:
  5234  0D80  2D82               	goto	l3539
  5235  0D81                     u4650:
  5236  0D81                     l3537:
  5237  0D81  1475               	bsf	___fladd@bexp,0
  5238  0D82                     l3539:
  5239  0D82  0875               	movf	___fladd@bexp,w
  5240  0D83  1903               	btfsc	3,2
  5241  0D84  2D86               	goto	u4661
  5242  0D85  2D87               	goto	u4660
  5243  0D86                     u4661:
  5244  0D86  2D97               	goto	l3549
  5245  0D87                     u4660:
  5246  0D87                     l3541:
  5247  0D87  0A75               	incf	___fladd@bexp,w
  5248  0D88  1D03               	btfss	3,2
  5249  0D89  2D8B               	goto	u4671
  5250  0D8A  2D8C               	goto	u4670
  5251  0D8B                     u4671:
  5252  0D8B  2D94               	goto	l3545
  5253  0D8C                     u4670:
  5254  0D8C                     l3543:
  5255  0D8C  3000               	movlw	0
  5256  0D8D  00A3               	movwf	___fladd@b+3
  5257  0D8E  3000               	movlw	0
  5258  0D8F  00A2               	movwf	___fladd@b+2
  5259  0D90  3000               	movlw	0
  5260  0D91  00A1               	movwf	___fladd@b+1
  5261  0D92  3000               	movlw	0
  5262  0D93  00A0               	movwf	___fladd@b
  5263  0D94                     l3545:
  5264  0D94  17A2               	bsf	___fladd@b+2,7
  5265  0D95                     l3547:
  5266  0D95  01A3               	clrf	___fladd@b+3
  5267  0D96  2D9F               	goto	l3551
  5268  0D97                     l3549:
  5269  0D97  3000               	movlw	0
  5270  0D98  00A3               	movwf	___fladd@b+3
  5271  0D99  3000               	movlw	0
  5272  0D9A  00A2               	movwf	___fladd@b+2
  5273  0D9B  3000               	movlw	0
  5274  0D9C  00A1               	movwf	___fladd@b+1
  5275  0D9D  3000               	movlw	0
  5276  0D9E  00A0               	movwf	___fladd@b
  5277  0D9F                     l3551:
  5278  0D9F  0827               	movf	___fladd@a+3,w
  5279  0DA0  3980               	andlw	128
  5280  0DA1  00A8               	movwf	??___fladd
  5281  0DA2  0828               	movf	??___fladd,w
  5282  0DA3  00F4               	movwf	___fladd@aexp
  5283  0DA4                     l3553:
  5284  0DA4  0874               	movf	___fladd@aexp,w
  5285  0DA5  0673               	xorwf	___fladd@signs,w
  5286  0DA6  1903               	skipnz
  5287  0DA7  2DA9               	goto	u4681
  5288  0DA8  2DAA               	goto	u4680
  5289  0DA9                     u4681:
  5290  0DA9  2DAB               	goto	l3557
  5291  0DAA                     u4680:
  5292  0DAA                     l3555:
  5293  0DAA  1773               	bsf	___fladd@signs,6
  5294  0DAB                     l3557:
  5295  0DAB  0827               	movf	___fladd@a+3,w
  5296  0DAC  00A8               	movwf	??___fladd
  5297  0DAD  0728               	addwf	??___fladd,w
  5298  0DAE  00A9               	movwf	??___fladd+1
  5299  0DAF  0829               	movf	??___fladd+1,w
  5300  0DB0  00F4               	movwf	___fladd@aexp
  5301  0DB1                     l3559:
  5302  0DB1  1FA6               	btfss	___fladd@a+2,7
  5303  0DB2  2DB4               	goto	u4691
  5304  0DB3  2DB5               	goto	u4690
  5305  0DB4                     u4691:
  5306  0DB4  2DB6               	goto	l3563
  5307  0DB5                     u4690:
  5308  0DB5                     l3561:
  5309  0DB5  1474               	bsf	___fladd@aexp,0
  5310  0DB6                     l3563:
  5311  0DB6  0874               	movf	___fladd@aexp,w
  5312  0DB7  1903               	btfsc	3,2
  5313  0DB8  2DBA               	goto	u4701
  5314  0DB9  2DBB               	goto	u4700
  5315  0DBA                     u4701:
  5316  0DBA  2DCB               	goto	l3573
  5317  0DBB                     u4700:
  5318  0DBB                     l3565:
  5319  0DBB  0A74               	incf	___fladd@aexp,w
  5320  0DBC  1D03               	btfss	3,2
  5321  0DBD  2DBF               	goto	u4711
  5322  0DBE  2DC0               	goto	u4710
  5323  0DBF                     u4711:
  5324  0DBF  2DC8               	goto	l3569
  5325  0DC0                     u4710:
  5326  0DC0                     l3567:
  5327  0DC0  3000               	movlw	0
  5328  0DC1  00A7               	movwf	___fladd@a+3
  5329  0DC2  3000               	movlw	0
  5330  0DC3  00A6               	movwf	___fladd@a+2
  5331  0DC4  3000               	movlw	0
  5332  0DC5  00A5               	movwf	___fladd@a+1
  5333  0DC6  3000               	movlw	0
  5334  0DC7  00A4               	movwf	___fladd@a
  5335  0DC8                     l3569:
  5336  0DC8  17A6               	bsf	___fladd@a+2,7
  5337  0DC9                     l3571:
  5338  0DC9  01A7               	clrf	___fladd@a+3
  5339  0DCA  2DD3               	goto	l665
  5340  0DCB                     l3573:
  5341  0DCB  3000               	movlw	0
  5342  0DCC  00A7               	movwf	___fladd@a+3
  5343  0DCD  3000               	movlw	0
  5344  0DCE  00A6               	movwf	___fladd@a+2
  5345  0DCF  3000               	movlw	0
  5346  0DD0  00A5               	movwf	___fladd@a+1
  5347  0DD1  3000               	movlw	0
  5348  0DD2  00A4               	movwf	___fladd@a
  5349  0DD3                     l665:
  5350  0DD3  0875               	movf	___fladd@bexp,w
  5351  0DD4  0274               	subwf	___fladd@aexp,w
  5352  0DD5  1803               	skipnc
  5353  0DD6  2DD8               	goto	u4721
  5354  0DD7  2DD9               	goto	u4720
  5355  0DD8                     u4721:
  5356  0DD8  2E1D               	goto	l3609
  5357  0DD9                     u4720:
  5358  0DD9                     l3575:
  5359  0DD9  1F73               	btfss	___fladd@signs,6
  5360  0DDA  2DDC               	goto	u4731
  5361  0DDB  2DDD               	goto	u4730
  5362  0DDC                     u4731:
  5363  0DDC  2DE1               	goto	l3579
  5364  0DDD                     u4730:
  5365  0DDD                     l3577:
  5366  0DDD  3080               	movlw	128
  5367  0DDE  00A8               	movwf	??___fladd
  5368  0DDF  0828               	movf	??___fladd,w
  5369  0DE0  06F3               	xorwf	___fladd@signs,f
  5370  0DE1                     l3579:
  5371  0DE1  0875               	movf	___fladd@bexp,w
  5372  0DE2  00A8               	movwf	??___fladd
  5373  0DE3  0828               	movf	??___fladd,w
  5374  0DE4  00F6               	movwf	___fladd@grs
  5375  0DE5                     l3581:
  5376  0DE5  0874               	movf	___fladd@aexp,w
  5377  0DE6  00A8               	movwf	??___fladd
  5378  0DE7  0828               	movf	??___fladd,w
  5379  0DE8  00F5               	movwf	___fladd@bexp
  5380  0DE9                     l3583:
  5381  0DE9  0876               	movf	___fladd@grs,w
  5382  0DEA  00A8               	movwf	??___fladd
  5383  0DEB  0828               	movf	??___fladd,w
  5384  0DEC  00F4               	movwf	___fladd@aexp
  5385  0DED                     l3585:
  5386  0DED  0820               	movf	___fladd@b,w
  5387  0DEE  00A8               	movwf	??___fladd
  5388  0DEF  0828               	movf	??___fladd,w
  5389  0DF0  00F6               	movwf	___fladd@grs
  5390  0DF1                     l3587:
  5391  0DF1  0824               	movf	___fladd@a,w
  5392  0DF2  00A8               	movwf	??___fladd
  5393  0DF3  0828               	movf	??___fladd,w
  5394  0DF4  00A0               	movwf	___fladd@b
  5395  0DF5                     l3589:
  5396  0DF5  0876               	movf	___fladd@grs,w
  5397  0DF6  00A8               	movwf	??___fladd
  5398  0DF7  0828               	movf	??___fladd,w
  5399  0DF8  00A4               	movwf	___fladd@a
  5400  0DF9                     l3591:
  5401  0DF9  0821               	movf	___fladd@b+1,w
  5402  0DFA  00A8               	movwf	??___fladd
  5403  0DFB  0828               	movf	??___fladd,w
  5404  0DFC  00F6               	movwf	___fladd@grs
  5405  0DFD                     l3593:
  5406  0DFD  0825               	movf	___fladd@a+1,w
  5407  0DFE  00A8               	movwf	??___fladd
  5408  0DFF  0828               	movf	??___fladd,w
  5409  0E00  00A1               	movwf	___fladd@b+1
  5410  0E01                     l3595:
  5411  0E01  0876               	movf	___fladd@grs,w
  5412  0E02  00A8               	movwf	??___fladd
  5413  0E03  0828               	movf	??___fladd,w
  5414  0E04  00A5               	movwf	___fladd@a+1
  5415  0E05                     l3597:
  5416  0E05  0822               	movf	___fladd@b+2,w
  5417  0E06  00A8               	movwf	??___fladd
  5418  0E07  0828               	movf	??___fladd,w
  5419  0E08  00F6               	movwf	___fladd@grs
  5420  0E09                     l3599:
  5421  0E09  0826               	movf	___fladd@a+2,w
  5422  0E0A  00A8               	movwf	??___fladd
  5423  0E0B  0828               	movf	??___fladd,w
  5424  0E0C  00A2               	movwf	___fladd@b+2
  5425  0E0D                     l3601:
  5426  0E0D  0876               	movf	___fladd@grs,w
  5427  0E0E  00A8               	movwf	??___fladd
  5428  0E0F  0828               	movf	??___fladd,w
  5429  0E10  00A6               	movwf	___fladd@a+2
  5430  0E11                     l3603:
  5431  0E11  0823               	movf	___fladd@b+3,w
  5432  0E12  00A8               	movwf	??___fladd
  5433  0E13  0828               	movf	??___fladd,w
  5434  0E14  00F6               	movwf	___fladd@grs
  5435  0E15                     l3605:
  5436  0E15  0827               	movf	___fladd@a+3,w
  5437  0E16  00A8               	movwf	??___fladd
  5438  0E17  0828               	movf	??___fladd,w
  5439  0E18  00A3               	movwf	___fladd@b+3
  5440  0E19                     l3607:
  5441  0E19  0876               	movf	___fladd@grs,w
  5442  0E1A  00A8               	movwf	??___fladd
  5443  0E1B  0828               	movf	??___fladd,w
  5444  0E1C  00A7               	movwf	___fladd@a+3
  5445  0E1D                     l3609:
  5446  0E1D  01F6               	clrf	___fladd@grs
  5447  0E1E                     l3611:
  5448  0E1E  0874               	movf	___fladd@aexp,w
  5449  0E1F  00A8               	movwf	??___fladd
  5450  0E20  01A9               	clrf	??___fladd+1
  5451  0E21  0829               	movf	??___fladd+1,w
  5452  0E22  00AB               	movwf	??___fladd+3
  5453  0E23  0875               	movf	___fladd@bexp,w
  5454  0E24  0228               	subwf	??___fladd,w
  5455  0E25  00AA               	movwf	??___fladd+2
  5456  0E26  1C03               	skipc
  5457  0E27  03AB               	decf	??___fladd+3,f
  5458  0E28  082B               	movf	??___fladd+3,w
  5459  0E29  3A80               	xorlw	128
  5460  0E2A  00FF               	movwf	btemp+1
  5461  0E2B  3080               	movlw	128
  5462  0E2C  027F               	subwf	btemp+1,w
  5463  0E2D  1D03               	skipz
  5464  0E2E  2E31               	goto	u4745
  5465  0E2F  301A               	movlw	26
  5466  0E30  022A               	subwf	??___fladd+2,w
  5467  0E31                     u4745:
  5468  0E31  1C03               	skipc
  5469  0E32  2E34               	goto	u4741
  5470  0E33  2E35               	goto	u4740
  5471  0E34                     u4741:
  5472  0E34  2E76               	goto	l3627
  5473  0E35                     u4740:
  5474  0E35                     l3613:
  5475  0E35  1283               	bcf	3,5	;RP0=0, select bank0
  5476  0E36  1303               	bcf	3,6	;RP1=0, select bank0
  5477  0E37  0823               	movf	___fladd@b+3,w
  5478  0E38  0422               	iorwf	___fladd@b+2,w
  5479  0E39  0421               	iorwf	___fladd@b+1,w
  5480  0E3A  0420               	iorwf	___fladd@b,w
  5481  0E3B  1D03               	skipz
  5482  0E3C  2E3E               	goto	u4751
  5483  0E3D  2E40               	goto	u4750
  5484  0E3E                     u4751:
  5485  0E3E  3001               	movlw	1
  5486  0E3F  2E41               	goto	u4760
  5487  0E40                     u4750:
  5488  0E40  3000               	movlw	0
  5489  0E41                     u4760:
  5490  0E41  00A8               	movwf	??___fladd
  5491  0E42  0828               	movf	??___fladd,w
  5492  0E43  00F6               	movwf	___fladd@grs
  5493  0E44  3000               	movlw	0
  5494  0E45  00A3               	movwf	___fladd@b+3
  5495  0E46  3000               	movlw	0
  5496  0E47  00A2               	movwf	___fladd@b+2
  5497  0E48  3000               	movlw	0
  5498  0E49  00A1               	movwf	___fladd@b+1
  5499  0E4A  3000               	movlw	0
  5500  0E4B  00A0               	movwf	___fladd@b
  5501  0E4C  0874               	movf	___fladd@aexp,w
  5502  0E4D  00A8               	movwf	??___fladd
  5503  0E4E  0828               	movf	??___fladd,w
  5504  0E4F  00F5               	movwf	___fladd@bexp
  5505  0E50  2E7C               	goto	l669
  5506  0E51                     l671:
  5507  0E51  1C76               	btfss	___fladd@grs,0
  5508  0E52  2E54               	goto	u4771
  5509  0E53  2E55               	goto	u4770
  5510  0E54                     u4771:
  5511  0E54  2E60               	goto	l3617
  5512  0E55                     u4770:
  5513  0E55                     l3615:
  5514  0E55  0876               	movf	___fladd@grs,w
  5515  0E56  1283               	bcf	3,5	;RP0=0, select bank0
  5516  0E57  1303               	bcf	3,6	;RP1=0, select bank0
  5517  0E58  00A8               	movwf	??___fladd
  5518  0E59  1003               	clrc
  5519  0E5A  0C28               	rrf	??___fladd,w
  5520  0E5B  3801               	iorlw	1
  5521  0E5C  00A9               	movwf	??___fladd+1
  5522  0E5D  0829               	movf	??___fladd+1,w
  5523  0E5E  00F6               	movwf	___fladd@grs
  5524  0E5F  2E62               	goto	l3619
  5525  0E60                     l3617:
  5526  0E60  1003               	clrc
  5527  0E61  0CF6               	rrf	___fladd@grs,f
  5528  0E62                     l3619:
  5529  0E62  1283               	bcf	3,5	;RP0=0, select bank0
  5530  0E63  1303               	bcf	3,6	;RP1=0, select bank0
  5531  0E64  1C20               	btfss	___fladd@b,0
  5532  0E65  2E67               	goto	u4781
  5533  0E66  2E68               	goto	u4780
  5534  0E67                     u4781:
  5535  0E67  2E69               	goto	l3623
  5536  0E68                     u4780:
  5537  0E68                     l3621:
  5538  0E68  17F6               	bsf	___fladd@grs,7
  5539  0E69                     l3623:
  5540  0E69  3001               	movlw	1
  5541  0E6A  00A8               	movwf	??___fladd
  5542  0E6B                     u4795:
  5543  0E6B  0D23               	rlf	___fladd@b+3,w
  5544  0E6C  0CA3               	rrf	___fladd@b+3,f
  5545  0E6D  0CA2               	rrf	___fladd@b+2,f
  5546  0E6E  0CA1               	rrf	___fladd@b+1,f
  5547  0E6F  0CA0               	rrf	___fladd@b,f
  5548  0E70  0BA8               	decfsz	??___fladd& (0+127),f
  5549  0E71  2E6B               	goto	u4795
  5550  0E72                     l3625:
  5551  0E72  3001               	movlw	1
  5552  0E73  00A8               	movwf	??___fladd
  5553  0E74  0828               	movf	??___fladd,w
  5554  0E75  07F5               	addwf	___fladd@bexp,f
  5555  0E76                     l3627:
  5556  0E76  0874               	movf	___fladd@aexp,w
  5557  0E77  0275               	subwf	___fladd@bexp,w
  5558  0E78  1C03               	skipc
  5559  0E79  2E7B               	goto	u4801
  5560  0E7A  2E7C               	goto	u4800
  5561  0E7B                     u4801:
  5562  0E7B  2E51               	goto	l671
  5563  0E7C                     u4800:
  5564  0E7C                     l669:
  5565  0E7C  1B73               	btfsc	___fladd@signs,6
  5566  0E7D  2E7F               	goto	u4811
  5567  0E7E  2E80               	goto	u4810
  5568  0E7F                     u4811:
  5569  0E7F  2ECF               	goto	l3653
  5570  0E80                     u4810:
  5571  0E80                     l3629:
  5572  0E80  0875               	movf	___fladd@bexp,w
  5573  0E81  1D03               	btfss	3,2
  5574  0E82  2E84               	goto	u4821
  5575  0E83  2E85               	goto	u4820
  5576  0E84                     u4821:
  5577  0E84  2E90               	goto	l3635
  5578  0E85                     u4820:
  5579  0E85                     l3631:
  5580  0E85  3000               	movlw	0
  5581  0E86  1283               	bcf	3,5	;RP0=0, select bank0
  5582  0E87  1303               	bcf	3,6	;RP1=0, select bank0
  5583  0E88  00A3               	movwf	?___fladd+3
  5584  0E89  3000               	movlw	0
  5585  0E8A  00A2               	movwf	?___fladd+2
  5586  0E8B  3000               	movlw	0
  5587  0E8C  00A1               	movwf	?___fladd+1
  5588  0E8D  3000               	movlw	0
  5589  0E8E  00A0               	movwf	?___fladd
  5590  0E8F  2FFF               	goto	l678
  5591  0E90                     l3635:
  5592  0E90  1283               	bcf	3,5	;RP0=0, select bank0
  5593  0E91  1303               	bcf	3,6	;RP1=0, select bank0
  5594  0E92  0824               	movf	___fladd@a,w
  5595  0E93  07A0               	addwf	___fladd@b,f
  5596  0E94  0825               	movf	___fladd@a+1,w
  5597  0E95  1103               	clrz
  5598  0E96  1803               	skipnc
  5599  0E97  3E01               	addlw	1
  5600  0E98  1903               	skipnz
  5601  0E99  2E9B               	goto	u4831
  5602  0E9A  07A1               	addwf	___fladd@b+1,f
  5603  0E9B                     u4831:
  5604  0E9B  0826               	movf	___fladd@a+2,w
  5605  0E9C  1103               	clrz
  5606  0E9D  1803               	skipnc
  5607  0E9E  3E01               	addlw	1
  5608  0E9F  1903               	skipnz
  5609  0EA0  2EA2               	goto	u4832
  5610  0EA1  07A2               	addwf	___fladd@b+2,f
  5611  0EA2                     u4832:
  5612  0EA2  0827               	movf	___fladd@a+3,w
  5613  0EA3  1103               	clrz
  5614  0EA4  1803               	skipnc
  5615  0EA5  3E01               	addlw	1
  5616  0EA6  1903               	skipnz
  5617  0EA7  2EA9               	goto	u4833
  5618  0EA8  07A3               	addwf	___fladd@b+3,f
  5619  0EA9                     u4833:
  5620  0EA9                     l3637:
  5621  0EA9  1C23               	btfss	___fladd@b+3,0
  5622  0EAA  2EAC               	goto	u4841
  5623  0EAB  2EAD               	goto	u4840
  5624  0EAC                     u4841:
  5625  0EAC  2F85               	goto	l3687
  5626  0EAD                     u4840:
  5627  0EAD                     l3639:
  5628  0EAD  1C76               	btfss	___fladd@grs,0
  5629  0EAE  2EB0               	goto	u4851
  5630  0EAF  2EB1               	goto	u4850
  5631  0EB0                     u4851:
  5632  0EB0  2EBA               	goto	l3643
  5633  0EB1                     u4850:
  5634  0EB1                     l3641:
  5635  0EB1  0876               	movf	___fladd@grs,w
  5636  0EB2  00A8               	movwf	??___fladd
  5637  0EB3  1003               	clrc
  5638  0EB4  0C28               	rrf	??___fladd,w
  5639  0EB5  3801               	iorlw	1
  5640  0EB6  00A9               	movwf	??___fladd+1
  5641  0EB7  0829               	movf	??___fladd+1,w
  5642  0EB8  00F6               	movwf	___fladd@grs
  5643  0EB9  2EBC               	goto	l3645
  5644  0EBA                     l3643:
  5645  0EBA  1003               	clrc
  5646  0EBB  0CF6               	rrf	___fladd@grs,f
  5647  0EBC                     l3645:
  5648  0EBC  1C20               	btfss	___fladd@b,0
  5649  0EBD  2EBF               	goto	u4861
  5650  0EBE  2EC0               	goto	u4860
  5651  0EBF                     u4861:
  5652  0EBF  2EC1               	goto	l3649
  5653  0EC0                     u4860:
  5654  0EC0                     l3647:
  5655  0EC0  17F6               	bsf	___fladd@grs,7
  5656  0EC1                     l3649:
  5657  0EC1  3001               	movlw	1
  5658  0EC2  00A8               	movwf	??___fladd
  5659  0EC3                     u4875:
  5660  0EC3  0D23               	rlf	___fladd@b+3,w
  5661  0EC4  0CA3               	rrf	___fladd@b+3,f
  5662  0EC5  0CA2               	rrf	___fladd@b+2,f
  5663  0EC6  0CA1               	rrf	___fladd@b+1,f
  5664  0EC7  0CA0               	rrf	___fladd@b,f
  5665  0EC8  0BA8               	decfsz	??___fladd& (0+127),f
  5666  0EC9  2EC3               	goto	u4875
  5667  0ECA                     l3651:
  5668  0ECA  3001               	movlw	1
  5669  0ECB  00A8               	movwf	??___fladd
  5670  0ECC  0828               	movf	??___fladd,w
  5671  0ECD  07F5               	addwf	___fladd@bexp,f
  5672  0ECE  2F85               	goto	l3687
  5673  0ECF                     l3653:
  5674  0ECF  1283               	bcf	3,5	;RP0=0, select bank0
  5675  0ED0  1303               	bcf	3,6	;RP1=0, select bank0
  5676  0ED1  0823               	movf	___fladd@b+3,w
  5677  0ED2  3A80               	xorlw	128
  5678  0ED3  00FF               	movwf	btemp+1
  5679  0ED4  0827               	movf	___fladd@a+3,w
  5680  0ED5  3A80               	xorlw	128
  5681  0ED6  027F               	subwf	btemp+1,w
  5682  0ED7  1D03               	skipz
  5683  0ED8  2EE3               	goto	u4883
  5684  0ED9  0826               	movf	___fladd@a+2,w
  5685  0EDA  0222               	subwf	___fladd@b+2,w
  5686  0EDB  1D03               	skipz
  5687  0EDC  2EE3               	goto	u4883
  5688  0EDD  0825               	movf	___fladd@a+1,w
  5689  0EDE  0221               	subwf	___fladd@b+1,w
  5690  0EDF  1D03               	skipz
  5691  0EE0  2EE3               	goto	u4883
  5692  0EE1  0824               	movf	___fladd@a,w
  5693  0EE2  0220               	subwf	___fladd@b,w
  5694  0EE3                     u4883:
  5695  0EE3  1803               	skipnc
  5696  0EE4  2EE6               	goto	u4881
  5697  0EE5  2EE7               	goto	u4880
  5698  0EE6                     u4881:
  5699  0EE6  2F3F               	goto	l3663
  5700  0EE7                     u4880:
  5701  0EE7                     l3655:
  5702  0EE7  30FF               	movlw	255
  5703  0EE8  00A8               	movwf	??___fladd
  5704  0EE9  30FF               	movlw	255
  5705  0EEA  00A9               	movwf	??___fladd+1
  5706  0EEB  30FF               	movlw	255
  5707  0EEC  00AA               	movwf	??___fladd+2
  5708  0EED  30FF               	movlw	255
  5709  0EEE  00AB               	movwf	??___fladd+3
  5710  0EEF  0824               	movf	___fladd@a,w
  5711  0EF0  00AC               	movwf	??___fladd+4
  5712  0EF1  0825               	movf	___fladd@a+1,w
  5713  0EF2  00AD               	movwf	??___fladd+5
  5714  0EF3  0826               	movf	___fladd@a+2,w
  5715  0EF4  00AE               	movwf	??___fladd+6
  5716  0EF5  0827               	movf	___fladd@a+3,w
  5717  0EF6  00AF               	movwf	??___fladd+7
  5718  0EF7  0820               	movf	___fladd@b,w
  5719  0EF8  02AC               	subwf	??___fladd+4,f
  5720  0EF9  0821               	movf	___fladd@b+1,w
  5721  0EFA  1C03               	skipc
  5722  0EFB  0F21               	incfsz	___fladd@b+1,w
  5723  0EFC  2EFE               	goto	u4891
  5724  0EFD  2EFF               	goto	u4892
  5725  0EFE                     u4891:
  5726  0EFE  02AD               	subwf	??___fladd+5,f
  5727  0EFF                     u4892:
  5728  0EFF  0822               	movf	___fladd@b+2,w
  5729  0F00  1C03               	skipc
  5730  0F01  0F22               	incfsz	___fladd@b+2,w
  5731  0F02  2F04               	goto	u4893
  5732  0F03  2F05               	goto	u4894
  5733  0F04                     u4893:
  5734  0F04  02AE               	subwf	??___fladd+6,f
  5735  0F05                     u4894:
  5736  0F05  0823               	movf	___fladd@b+3,w
  5737  0F06  1C03               	skipc
  5738  0F07  0F23               	incfsz	___fladd@b+3,w
  5739  0F08  2F0A               	goto	u4895
  5740  0F09  2F0B               	goto	u4896
  5741  0F0A                     u4895:
  5742  0F0A  02AF               	subwf	??___fladd+7,f
  5743  0F0B                     u4896:
  5744  0F0B  082C               	movf	??___fladd+4,w
  5745  0F0C  07A8               	addwf	??___fladd,f
  5746  0F0D  082D               	movf	??___fladd+5,w
  5747  0F0E  1803               	skipnc
  5748  0F0F  0F2D               	incfsz	??___fladd+5,w
  5749  0F10  2F12               	goto	u4900
  5750  0F11  2F13               	goto	u4901
  5751  0F12                     u4900:
  5752  0F12  07A9               	addwf	??___fladd+1,f
  5753  0F13                     u4901:
  5754  0F13  082E               	movf	??___fladd+6,w
  5755  0F14  1803               	skipnc
  5756  0F15  0F2E               	incfsz	??___fladd+6,w
  5757  0F16  2F18               	goto	u4902
  5758  0F17  2F19               	goto	u4903
  5759  0F18                     u4902:
  5760  0F18  07AA               	addwf	??___fladd+2,f
  5761  0F19                     u4903:
  5762  0F19  082F               	movf	??___fladd+7,w
  5763  0F1A  1803               	skipnc
  5764  0F1B  0A2F               	incf	??___fladd+7,w
  5765  0F1C  07AB               	addwf	??___fladd+3,f
  5766  0F1D  082B               	movf	??___fladd+3,w
  5767  0F1E  00A3               	movwf	___fladd@b+3
  5768  0F1F  082A               	movf	??___fladd+2,w
  5769  0F20  00A2               	movwf	___fladd@b+2
  5770  0F21  0829               	movf	??___fladd+1,w
  5771  0F22  00A1               	movwf	___fladd@b+1
  5772  0F23  0828               	movf	??___fladd,w
  5773  0F24  00A0               	movwf	___fladd@b
  5774  0F25                     l3657:
  5775  0F25  3080               	movlw	128
  5776  0F26  00A8               	movwf	??___fladd
  5777  0F27  0828               	movf	??___fladd,w
  5778  0F28  06F3               	xorwf	___fladd@signs,f
  5779  0F29  09F6               	comf	___fladd@grs,f
  5780  0F2A  0AF6               	incf	___fladd@grs,f
  5781  0F2B                     l3659:
  5782  0F2B  0876               	movf	___fladd@grs,w
  5783  0F2C  1D03               	btfss	3,2
  5784  0F2D  2F2F               	goto	u4911
  5785  0F2E  2F30               	goto	u4910
  5786  0F2F                     u4911:
  5787  0F2F  2F4D               	goto	l686
  5788  0F30                     u4910:
  5789  0F30                     l3661:
  5790  0F30  3001               	movlw	1
  5791  0F31  07A0               	addwf	___fladd@b,f
  5792  0F32  3000               	movlw	0
  5793  0F33  1803               	skipnc
  5794  0F34  3001               	movlw	1
  5795  0F35  07A1               	addwf	___fladd@b+1,f
  5796  0F36  3000               	movlw	0
  5797  0F37  1803               	skipnc
  5798  0F38  3001               	movlw	1
  5799  0F39  07A2               	addwf	___fladd@b+2,f
  5800  0F3A  3000               	movlw	0
  5801  0F3B  1803               	skipnc
  5802  0F3C  3001               	movlw	1
  5803  0F3D  07A3               	addwf	___fladd@b+3,f
  5804  0F3E  2F4D               	goto	l686
  5805  0F3F                     l3663:
  5806  0F3F  0824               	movf	___fladd@a,w
  5807  0F40  02A0               	subwf	___fladd@b,f
  5808  0F41  0825               	movf	___fladd@a+1,w
  5809  0F42  1C03               	skipc
  5810  0F43  0F25               	incfsz	___fladd@a+1,w
  5811  0F44  02A1               	subwf	___fladd@b+1,f
  5812  0F45  0826               	movf	___fladd@a+2,w
  5813  0F46  1C03               	skipc
  5814  0F47  0F26               	incfsz	___fladd@a+2,w
  5815  0F48  02A2               	subwf	___fladd@b+2,f
  5816  0F49  0827               	movf	___fladd@a+3,w
  5817  0F4A  1C03               	skipc
  5818  0F4B  0F27               	incfsz	___fladd@a+3,w
  5819  0F4C  02A3               	subwf	___fladd@b+3,f
  5820  0F4D                     l686:
  5821  0F4D  0823               	movf	___fladd@b+3,w
  5822  0F4E  0422               	iorwf	___fladd@b+2,w
  5823  0F4F  0421               	iorwf	___fladd@b+1,w
  5824  0F50  0420               	iorwf	___fladd@b,w
  5825  0F51  1D03               	skipz
  5826  0F52  2F54               	goto	u4921
  5827  0F53  2F55               	goto	u4920
  5828  0F54                     u4921:
  5829  0F54  2F81               	goto	l3685
  5830  0F55                     u4920:
  5831  0F55                     l3665:
  5832  0F55  0876               	movf	___fladd@grs,w
  5833  0F56  1D03               	btfss	3,2
  5834  0F57  2F59               	goto	u4931
  5835  0F58  2F5A               	goto	u4930
  5836  0F59                     u4931:
  5837  0F59  2F81               	goto	l3685
  5838  0F5A                     u4930:
  5839  0F5A                     l3667:
  5840  0F5A  3000               	movlw	0
  5841  0F5B  00A3               	movwf	?___fladd+3
  5842  0F5C  3000               	movlw	0
  5843  0F5D  00A2               	movwf	?___fladd+2
  5844  0F5E  3000               	movlw	0
  5845  0F5F  00A1               	movwf	?___fladd+1
  5846  0F60  3000               	movlw	0
  5847  0F61  00A0               	movwf	?___fladd
  5848  0F62  2FFF               	goto	l678
  5849  0F63                     l3671:
  5850  0F63  3001               	movlw	1
  5851  0F64  00A8               	movwf	??___fladd
  5852  0F65                     u4945:
  5853  0F65  1003               	clrc
  5854  0F66  0DA0               	rlf	___fladd@b,f
  5855  0F67  0DA1               	rlf	___fladd@b+1,f
  5856  0F68  0DA2               	rlf	___fladd@b+2,f
  5857  0F69  0DA3               	rlf	___fladd@b+3,f
  5858  0F6A  0BA8               	decfsz	??___fladd,f
  5859  0F6B  2F65               	goto	u4945
  5860  0F6C                     l3673:
  5861  0F6C  1FF6               	btfss	___fladd@grs,7
  5862  0F6D  2F6F               	goto	u4951
  5863  0F6E  2F70               	goto	u4950
  5864  0F6F                     u4951:
  5865  0F6F  2F71               	goto	l690
  5866  0F70                     u4950:
  5867  0F70                     l3675:
  5868  0F70  1420               	bsf	___fladd@b,0
  5869  0F71                     l690:
  5870  0F71  1C76               	btfss	___fladd@grs,0
  5871  0F72  2F74               	goto	u4961
  5872  0F73  2F75               	goto	u4960
  5873  0F74                     u4961:
  5874  0F74  2F78               	goto	l3679
  5875  0F75                     u4960:
  5876  0F75                     l3677:
  5877  0F75  1403               	setc
  5878  0F76  0DF6               	rlf	___fladd@grs,f
  5879  0F77  2F7A               	goto	l3681
  5880  0F78                     l3679:
  5881  0F78  1003               	clrc
  5882  0F79  0DF6               	rlf	___fladd@grs,f
  5883  0F7A                     l3681:
  5884  0F7A  0875               	movf	___fladd@bexp,w
  5885  0F7B  1903               	btfsc	3,2
  5886  0F7C  2F7E               	goto	u4971
  5887  0F7D  2F7F               	goto	u4970
  5888  0F7E                     u4971:
  5889  0F7E  2F81               	goto	l3685
  5890  0F7F                     u4970:
  5891  0F7F                     l3683:
  5892  0F7F  3001               	movlw	1
  5893  0F80  02F5               	subwf	___fladd@bexp,f
  5894  0F81                     l3685:
  5895  0F81  1FA2               	btfss	___fladd@b+2,7
  5896  0F82  2F84               	goto	u4981
  5897  0F83  2F85               	goto	u4980
  5898  0F84                     u4981:
  5899  0F84  2F63               	goto	l3671
  5900  0F85                     u4980:
  5901  0F85                     l3687:
  5902  0F85  01F4               	clrf	___fladd@aexp
  5903  0F86                     l3689:
  5904  0F86  1FF6               	btfss	___fladd@grs,7
  5905  0F87  2F89               	goto	u4991
  5906  0F88  2F8A               	goto	u4990
  5907  0F89                     u4991:
  5908  0F89  2F98               	goto	l3697
  5909  0F8A                     u4990:
  5910  0F8A                     l3691:
  5911  0F8A  0876               	movf	___fladd@grs,w
  5912  0F8B  397F               	andlw	127
  5913  0F8C  1903               	btfsc	3,2
  5914  0F8D  2F8F               	goto	u5001
  5915  0F8E  2F90               	goto	u5000
  5916  0F8F                     u5001:
  5917  0F8F  2F93               	goto	l696
  5918  0F90                     u5000:
  5919  0F90                     l3693:
  5920  0F90  01F4               	clrf	___fladd@aexp
  5921  0F91  0AF4               	incf	___fladd@aexp,f
  5922  0F92  2F98               	goto	l3697
  5923  0F93                     l696:
  5924  0F93  1C20               	btfss	___fladd@b,0
  5925  0F94  2F96               	goto	u5011
  5926  0F95  2F97               	goto	u5010
  5927  0F96                     u5011:
  5928  0F96  2F98               	goto	l3697
  5929  0F97                     u5010:
  5930  0F97  2F90               	goto	l3693
  5931  0F98                     l3697:
  5932  0F98  0874               	movf	___fladd@aexp,w
  5933  0F99  1903               	btfsc	3,2
  5934  0F9A  2F9C               	goto	u5021
  5935  0F9B  2F9D               	goto	u5020
  5936  0F9C                     u5021:
  5937  0F9C  2FD1               	goto	l699
  5938  0F9D                     u5020:
  5939  0F9D                     l3699:
  5940  0F9D  3001               	movlw	1
  5941  0F9E  07A0               	addwf	___fladd@b,f
  5942  0F9F  3000               	movlw	0
  5943  0FA0  1803               	skipnc
  5944  0FA1  3001               	movlw	1
  5945  0FA2  07A1               	addwf	___fladd@b+1,f
  5946  0FA3  3000               	movlw	0
  5947  0FA4  1803               	skipnc
  5948  0FA5  3001               	movlw	1
  5949  0FA6  07A2               	addwf	___fladd@b+2,f
  5950  0FA7  3000               	movlw	0
  5951  0FA8  1803               	skipnc
  5952  0FA9  3001               	movlw	1
  5953  0FAA  07A3               	addwf	___fladd@b+3,f
  5954  0FAB                     l3701:
  5955  0FAB  1C23               	btfss	___fladd@b+3,0
  5956  0FAC  2FAE               	goto	u5031
  5957  0FAD  2FAF               	goto	u5030
  5958  0FAE                     u5031:
  5959  0FAE  2FD1               	goto	l699
  5960  0FAF                     u5030:
  5961  0FAF                     l3703:
  5962  0FAF  0820               	movf	___fladd@b,w
  5963  0FB0  00A8               	movwf	??___fladd
  5964  0FB1  0821               	movf	___fladd@b+1,w
  5965  0FB2  00A9               	movwf	??___fladd+1
  5966  0FB3  0822               	movf	___fladd@b+2,w
  5967  0FB4  00AA               	movwf	??___fladd+2
  5968  0FB5  0823               	movf	___fladd@b+3,w
  5969  0FB6  00AB               	movwf	??___fladd+3
  5970  0FB7  3001               	movlw	1
  5971  0FB8  00AC               	movwf	??___fladd+4
  5972  0FB9                     u5045:
  5973  0FB9  0D2B               	rlf	??___fladd+3,w
  5974  0FBA  0CAB               	rrf	??___fladd+3,f
  5975  0FBB  0CAA               	rrf	??___fladd+2,f
  5976  0FBC  0CA9               	rrf	??___fladd+1,f
  5977  0FBD  0CA8               	rrf	??___fladd,f
  5978  0FBE                     u5040:
  5979  0FBE  0BAC               	decfsz	??___fladd+4,f
  5980  0FBF  2FB9               	goto	u5045
  5981  0FC0  082B               	movf	??___fladd+3,w
  5982  0FC1  00A3               	movwf	___fladd@b+3
  5983  0FC2  082A               	movf	??___fladd+2,w
  5984  0FC3  00A2               	movwf	___fladd@b+2
  5985  0FC4  0829               	movf	??___fladd+1,w
  5986  0FC5  00A1               	movwf	___fladd@b+1
  5987  0FC6  0828               	movf	??___fladd,w
  5988  0FC7  00A0               	movwf	___fladd@b
  5989  0FC8  0A75               	incf	___fladd@bexp,w
  5990  0FC9  1903               	btfsc	3,2
  5991  0FCA  2FCC               	goto	u5051
  5992  0FCB  2FCD               	goto	u5050
  5993  0FCC                     u5051:
  5994  0FCC  2FD1               	goto	l699
  5995  0FCD                     u5050:
  5996  0FCD                     l3705:
  5997  0FCD  3001               	movlw	1
  5998  0FCE  00A8               	movwf	??___fladd
  5999  0FCF  0828               	movf	??___fladd,w
  6000  0FD0  07F5               	addwf	___fladd@bexp,f
  6001  0FD1                     l699:
  6002  0FD1  0A75               	incf	___fladd@bexp,w
  6003  0FD2  1903               	btfsc	3,2
  6004  0FD3  2FD5               	goto	u5061
  6005  0FD4  2FD6               	goto	u5060
  6006  0FD5                     u5061:
  6007  0FD5  2FDB               	goto	l3709
  6008  0FD6                     u5060:
  6009  0FD6                     l3707:
  6010  0FD6  0875               	movf	___fladd@bexp,w
  6011  0FD7  1D03               	btfss	3,2
  6012  0FD8  2FDA               	goto	u5071
  6013  0FD9  2FDB               	goto	u5070
  6014  0FDA                     u5071:
  6015  0FDA  2FE9               	goto	l3715
  6016  0FDB                     u5070:
  6017  0FDB                     l3709:
  6018  0FDB  3000               	movlw	0
  6019  0FDC  00A3               	movwf	___fladd@b+3
  6020  0FDD  3000               	movlw	0
  6021  0FDE  00A2               	movwf	___fladd@b+2
  6022  0FDF  3000               	movlw	0
  6023  0FE0  00A1               	movwf	___fladd@b+1
  6024  0FE1  3000               	movlw	0
  6025  0FE2  00A0               	movwf	___fladd@b
  6026  0FE3                     l3711:
  6027  0FE3  0875               	movf	___fladd@bexp,w
  6028  0FE4  1D03               	btfss	3,2
  6029  0FE5  2FE7               	goto	u5081
  6030  0FE6  2FE8               	goto	u5080
  6031  0FE7                     u5081:
  6032  0FE7  2FE9               	goto	l3715
  6033  0FE8                     u5080:
  6034  0FE8                     l3713:
  6035  0FE8  01F3               	clrf	___fladd@signs
  6036  0FE9                     l3715:
  6037  0FE9  1C75               	btfss	___fladd@bexp,0
  6038  0FEA  2FEC               	goto	u5091
  6039  0FEB  2FED               	goto	u5090
  6040  0FEC                     u5091:
  6041  0FEC  2FEF               	goto	l3719
  6042  0FED                     u5090:
  6043  0FED                     l3717:
  6044  0FED  17A2               	bsf	___fladd@b+2,7
  6045  0FEE  2FF3               	goto	l707
  6046  0FEF                     l3719:
  6047  0FEF  307F               	movlw	127
  6048  0FF0  00A8               	movwf	??___fladd
  6049  0FF1  0828               	movf	??___fladd,w
  6050  0FF2  05A2               	andwf	___fladd@b+2,f
  6051  0FF3                     l707:
  6052  0FF3  0875               	movf	___fladd@bexp,w
  6053  0FF4  00A8               	movwf	??___fladd
  6054  0FF5  1003               	clrc
  6055  0FF6  0C28               	rrf	??___fladd,w
  6056  0FF7  00A9               	movwf	??___fladd+1
  6057  0FF8  0829               	movf	??___fladd+1,w
  6058  0FF9  00A3               	movwf	___fladd@b+3
  6059  0FFA                     l3721:
  6060  0FFA  1FF3               	btfss	___fladd@signs,7
  6061  0FFB  2FFD               	goto	u5101
  6062  0FFC  2FFE               	goto	u5100
  6063  0FFD                     u5101:
  6064  0FFD  2FFF               	goto	l708
  6065  0FFE                     u5100:
  6066  0FFE                     l3723:
  6067  0FFE  17A3               	bsf	___fladd@b+3,7
  6068  0FFF                     l708:
  6069  0FFF                     l678:
  6070  0FFF  0008               	return
  6071  1000                     __end_of___fladd:
  6072                           
  6073                           	psect	text19
  6074  0431                     __ptext19:	
  6075 ;; *************** function ___flmul *****************
  6076 ;; Defined at:
  6077 ;;		line 8 in file "C:\Program Files\Microchip\xc8\v2.31\pic\sources\c90\common\sprcmul.c"
  6078 ;; Parameters:    Size  Location     Type
  6079 ;;  b               4   35[BANK0 ] unsigned char 
  6080 ;;  a               4   39[BANK0 ] unsigned char 
  6081 ;; Auto vars:     Size  Location     Type
  6082 ;;  prod            4   55[BANK0 ] struct .
  6083 ;;  grs             4   50[BANK0 ] unsigned long 
  6084 ;;  temp            2   59[BANK0 ] struct .
  6085 ;;  bexp            1   54[BANK0 ] unsigned char 
  6086 ;;  aexp            1   49[BANK0 ] unsigned char 
  6087 ;;  sign            1   48[BANK0 ] unsigned char 
  6088 ;; Return value:  Size  Location     Type
  6089 ;;                  4   35[BANK0 ] unsigned char 
  6090 ;; Registers used:
  6091 ;;		wreg, status,2, status,0, btemp+1, pclath, cstack
  6092 ;; Tracked objects:
  6093 ;;		On entry : 0/0
  6094 ;;		On exit  : 0/0
  6095 ;;		Unchanged: 0/0
  6096 ;; Data sizes:     COMMON   BANK0   BANK1   BANK3   BANK2
  6097 ;;      Params:         0       8       0       0       0
  6098 ;;      Locals:         0      13       0       0       0
  6099 ;;      Temps:          0       5       0       0       0
  6100 ;;      Totals:         0      26       0       0       0
  6101 ;;Total ram usage:       26 bytes
  6102 ;; Hardware stack levels used:    1
  6103 ;; Hardware stack levels required when called:    2
  6104 ;; This function calls:
  6105 ;;		__Umul8_16
  6106 ;; This function is called by:
  6107 ;;		_convert
  6108 ;; This function uses a non-reentrant model
  6109 ;;
  6110                           
  6111                           
  6112                           ;psect for function ___flmul
  6113  0431                     ___flmul:
  6114  0431                     l4007:	
  6115                           ;incstack = 0
  6116                           ; Regs used in ___flmul: [wreg+status,2+status,0+btemp+1+pclath+cstack]
  6117                           
  6118  0431  1283               	bcf	3,5	;RP0=0, select bank0
  6119  0432  1303               	bcf	3,6	;RP1=0, select bank0
  6120  0433  0846               	movf	___flmul@b+3,w
  6121  0434  3980               	andlw	128
  6122  0435  00CB               	movwf	??___flmul
  6123  0436  084B               	movf	??___flmul,w
  6124  0437  00D0               	movwf	___flmul@sign
  6125  0438                     l4009:
  6126  0438  0846               	movf	___flmul@b+3,w
  6127  0439  00CB               	movwf	??___flmul
  6128  043A  074B               	addwf	??___flmul,w
  6129  043B  00CC               	movwf	??___flmul+1
  6130  043C  084C               	movf	??___flmul+1,w
  6131  043D  00D6               	movwf	___flmul@bexp
  6132  043E                     l4011:
  6133  043E  1FC5               	btfss	___flmul@b+2,7
  6134  043F  2C41               	goto	u5701
  6135  0440  2C42               	goto	u5700
  6136  0441                     u5701:
  6137  0441  2C43               	goto	l4015
  6138  0442                     u5700:
  6139  0442                     l4013:
  6140  0442  1456               	bsf	___flmul@bexp,0
  6141  0443                     l4015:
  6142  0443  0856               	movf	___flmul@bexp,w
  6143  0444  1903               	btfsc	3,2
  6144  0445  2C47               	goto	u5711
  6145  0446  2C48               	goto	u5710
  6146  0447                     u5711:
  6147  0447  2C57               	goto	l4023
  6148  0448                     u5710:
  6149  0448                     l4017:
  6150  0448  0A56               	incf	___flmul@bexp,w
  6151  0449  1D03               	btfss	3,2
  6152  044A  2C4C               	goto	u5721
  6153  044B  2C4D               	goto	u5720
  6154  044C                     u5721:
  6155  044C  2C55               	goto	l4021
  6156  044D                     u5720:
  6157  044D                     l4019:
  6158  044D  3000               	movlw	0
  6159  044E  00C6               	movwf	___flmul@b+3
  6160  044F  3000               	movlw	0
  6161  0450  00C5               	movwf	___flmul@b+2
  6162  0451  3000               	movlw	0
  6163  0452  00C4               	movwf	___flmul@b+1
  6164  0453  3000               	movlw	0
  6165  0454  00C3               	movwf	___flmul@b
  6166  0455                     l4021:
  6167  0455  17C5               	bsf	___flmul@b+2,7
  6168  0456  2C5F               	goto	l4025
  6169  0457                     l4023:
  6170  0457  3000               	movlw	0
  6171  0458  00C6               	movwf	___flmul@b+3
  6172  0459  3000               	movlw	0
  6173  045A  00C5               	movwf	___flmul@b+2
  6174  045B  3000               	movlw	0
  6175  045C  00C4               	movwf	___flmul@b+1
  6176  045D  3000               	movlw	0
  6177  045E  00C3               	movwf	___flmul@b
  6178  045F                     l4025:
  6179  045F  084A               	movf	___flmul@a+3,w
  6180  0460  3980               	andlw	128
  6181  0461  00CB               	movwf	??___flmul
  6182  0462  084B               	movf	??___flmul,w
  6183  0463  06D0               	xorwf	___flmul@sign,f
  6184  0464                     l4027:
  6185  0464  084A               	movf	___flmul@a+3,w
  6186  0465  00CB               	movwf	??___flmul
  6187  0466  074B               	addwf	??___flmul,w
  6188  0467  00CC               	movwf	??___flmul+1
  6189  0468  084C               	movf	??___flmul+1,w
  6190  0469  00D1               	movwf	___flmul@aexp
  6191  046A                     l4029:
  6192  046A  1FC9               	btfss	___flmul@a+2,7
  6193  046B  2C6D               	goto	u5731
  6194  046C  2C6E               	goto	u5730
  6195  046D                     u5731:
  6196  046D  2C6F               	goto	l4033
  6197  046E                     u5730:
  6198  046E                     l4031:
  6199  046E  1451               	bsf	___flmul@aexp,0
  6200  046F                     l4033:
  6201  046F  0851               	movf	___flmul@aexp,w
  6202  0470  1903               	btfsc	3,2
  6203  0471  2C73               	goto	u5741
  6204  0472  2C74               	goto	u5740
  6205  0473                     u5741:
  6206  0473  2C83               	goto	l4041
  6207  0474                     u5740:
  6208  0474                     l4035:
  6209  0474  0A51               	incf	___flmul@aexp,w
  6210  0475  1D03               	btfss	3,2
  6211  0476  2C78               	goto	u5751
  6212  0477  2C79               	goto	u5750
  6213  0478                     u5751:
  6214  0478  2C81               	goto	l4039
  6215  0479                     u5750:
  6216  0479                     l4037:
  6217  0479  3000               	movlw	0
  6218  047A  00CA               	movwf	___flmul@a+3
  6219  047B  3000               	movlw	0
  6220  047C  00C9               	movwf	___flmul@a+2
  6221  047D  3000               	movlw	0
  6222  047E  00C8               	movwf	___flmul@a+1
  6223  047F  3000               	movlw	0
  6224  0480  00C7               	movwf	___flmul@a
  6225  0481                     l4039:
  6226  0481  17C9               	bsf	___flmul@a+2,7
  6227  0482  2C8B               	goto	l4043
  6228  0483                     l4041:
  6229  0483  3000               	movlw	0
  6230  0484  00CA               	movwf	___flmul@a+3
  6231  0485  3000               	movlw	0
  6232  0486  00C9               	movwf	___flmul@a+2
  6233  0487  3000               	movlw	0
  6234  0488  00C8               	movwf	___flmul@a+1
  6235  0489  3000               	movlw	0
  6236  048A  00C7               	movwf	___flmul@a
  6237  048B                     l4043:
  6238  048B  0851               	movf	___flmul@aexp,w
  6239  048C  1903               	btfsc	3,2
  6240  048D  2C8F               	goto	u5761
  6241  048E  2C90               	goto	u5760
  6242  048F                     u5761:
  6243  048F  2C95               	goto	l4047
  6244  0490                     u5760:
  6245  0490                     l4045:
  6246  0490  0856               	movf	___flmul@bexp,w
  6247  0491  1D03               	btfss	3,2
  6248  0492  2C94               	goto	u5771
  6249  0493  2C95               	goto	u5770
  6250  0494                     u5771:
  6251  0494  2C9E               	goto	l4051
  6252  0495                     u5770:
  6253  0495                     l4047:
  6254  0495  3000               	movlw	0
  6255  0496  00C6               	movwf	?___flmul+3
  6256  0497  3000               	movlw	0
  6257  0498  00C5               	movwf	?___flmul+2
  6258  0499  3000               	movlw	0
  6259  049A  00C4               	movwf	?___flmul+1
  6260  049B  3000               	movlw	0
  6261  049C  00C3               	movwf	?___flmul
  6262  049D  2F91               	goto	l761
  6263  049E                     l4051:
  6264  049E  0843               	movf	___flmul@b,w
  6265  049F  00CB               	movwf	??___flmul
  6266  04A0  084B               	movf	??___flmul,w
  6267  04A1  00F3               	movwf	__Umul8_16@multiplicand
  6268  04A2  0849               	movf	___flmul@a+2,w
  6269  04A3  160A  118A  24C3  120A  118A  	fcall	__Umul8_16
  6270  04A8  0874               	movf	?__Umul8_16+1,w
  6271  04A9  1283               	bcf	3,5	;RP0=0, select bank0
  6272  04AA  1303               	bcf	3,6	;RP1=0, select bank0
  6273  04AB  00DC               	movwf	___flmul@temp+1
  6274  04AC  0873               	movf	?__Umul8_16,w
  6275  04AD  00DB               	movwf	___flmul@temp
  6276  04AE                     l4053:
  6277  04AE  085B               	movf	___flmul@temp,w
  6278  04AF  00CB               	movwf	??___flmul
  6279  04B0  01CC               	clrf	??___flmul+1
  6280  04B1  01CD               	clrf	??___flmul+2
  6281  04B2  01CE               	clrf	??___flmul+3
  6282  04B3  084E               	movf	??___flmul+3,w
  6283  04B4  00D5               	movwf	___flmul@grs+3
  6284  04B5  084D               	movf	??___flmul+2,w
  6285  04B6  00D4               	movwf	___flmul@grs+2
  6286  04B7  084C               	movf	??___flmul+1,w
  6287  04B8  00D3               	movwf	___flmul@grs+1
  6288  04B9  084B               	movf	??___flmul,w
  6289  04BA  00D2               	movwf	___flmul@grs
  6290  04BB                     l4055:
  6291  04BB  085C               	movf	___flmul@temp+1,w
  6292  04BC  00CB               	movwf	??___flmul
  6293  04BD  01CC               	clrf	??___flmul+1
  6294  04BE  01CD               	clrf	??___flmul+2
  6295  04BF  01CE               	clrf	??___flmul+3
  6296  04C0  084E               	movf	??___flmul+3,w
  6297  04C1  00DA               	movwf	___flmul@prod+3
  6298  04C2  084D               	movf	??___flmul+2,w
  6299  04C3  00D9               	movwf	___flmul@prod+2
  6300  04C4  084C               	movf	??___flmul+1,w
  6301  04C5  00D8               	movwf	___flmul@prod+1
  6302  04C6  084B               	movf	??___flmul,w
  6303  04C7  00D7               	movwf	___flmul@prod
  6304  04C8  0844               	movf	___flmul@b+1,w
  6305  04C9  00CB               	movwf	??___flmul
  6306  04CA  084B               	movf	??___flmul,w
  6307  04CB  00F3               	movwf	__Umul8_16@multiplicand
  6308  04CC  0848               	movf	___flmul@a+1,w
  6309  04CD  160A  118A  24C3  120A  118A  	fcall	__Umul8_16
  6310  04D2  0874               	movf	?__Umul8_16+1,w
  6311  04D3  1283               	bcf	3,5	;RP0=0, select bank0
  6312  04D4  1303               	bcf	3,6	;RP1=0, select bank0
  6313  04D5  00DC               	movwf	___flmul@temp+1
  6314  04D6  0873               	movf	?__Umul8_16,w
  6315  04D7  00DB               	movwf	___flmul@temp
  6316  04D8                     l4057:
  6317  04D8  085B               	movf	___flmul@temp,w
  6318  04D9  00CB               	movwf	??___flmul
  6319  04DA  01CC               	clrf	??___flmul+1
  6320  04DB  01CD               	clrf	??___flmul+2
  6321  04DC  01CE               	clrf	??___flmul+3
  6322  04DD  084B               	movf	??___flmul,w
  6323  04DE  07D2               	addwf	___flmul@grs,f
  6324  04DF  084C               	movf	??___flmul+1,w
  6325  04E0  1103               	clrz
  6326  04E1  1803               	skipnc
  6327  04E2  3E01               	addlw	1
  6328  04E3  1903               	skipnz
  6329  04E4  2CE6               	goto	u5781
  6330  04E5  07D3               	addwf	___flmul@grs+1,f
  6331  04E6                     u5781:
  6332  04E6  084D               	movf	??___flmul+2,w
  6333  04E7  1103               	clrz
  6334  04E8  1803               	skipnc
  6335  04E9  3E01               	addlw	1
  6336  04EA  1903               	skipnz
  6337  04EB  2CED               	goto	u5782
  6338  04EC  07D4               	addwf	___flmul@grs+2,f
  6339  04ED                     u5782:
  6340  04ED  084E               	movf	??___flmul+3,w
  6341  04EE  1103               	clrz
  6342  04EF  1803               	skipnc
  6343  04F0  3E01               	addlw	1
  6344  04F1  1903               	skipnz
  6345  04F2  2CF4               	goto	u5783
  6346  04F3  07D5               	addwf	___flmul@grs+3,f
  6347  04F4                     u5783:
  6348  04F4                     l4059:
  6349  04F4  085C               	movf	___flmul@temp+1,w
  6350  04F5  00CB               	movwf	??___flmul
  6351  04F6  01CC               	clrf	??___flmul+1
  6352  04F7  01CD               	clrf	??___flmul+2
  6353  04F8  01CE               	clrf	??___flmul+3
  6354  04F9  084B               	movf	??___flmul,w
  6355  04FA  07D7               	addwf	___flmul@prod,f
  6356  04FB  084C               	movf	??___flmul+1,w
  6357  04FC  1103               	clrz
  6358  04FD  1803               	skipnc
  6359  04FE  3E01               	addlw	1
  6360  04FF  1903               	skipnz
  6361  0500  2D02               	goto	u5791
  6362  0501  07D8               	addwf	___flmul@prod+1,f
  6363  0502                     u5791:
  6364  0502  084D               	movf	??___flmul+2,w
  6365  0503  1103               	clrz
  6366  0504  1803               	skipnc
  6367  0505  3E01               	addlw	1
  6368  0506  1903               	skipnz
  6369  0507  2D09               	goto	u5792
  6370  0508  07D9               	addwf	___flmul@prod+2,f
  6371  0509                     u5792:
  6372  0509  084E               	movf	??___flmul+3,w
  6373  050A  1103               	clrz
  6374  050B  1803               	skipnc
  6375  050C  3E01               	addlw	1
  6376  050D  1903               	skipnz
  6377  050E  2D10               	goto	u5793
  6378  050F  07DA               	addwf	___flmul@prod+3,f
  6379  0510                     u5793:
  6380  0510  0845               	movf	___flmul@b+2,w
  6381  0511  00CB               	movwf	??___flmul
  6382  0512  084B               	movf	??___flmul,w
  6383  0513  00F3               	movwf	__Umul8_16@multiplicand
  6384  0514  0847               	movf	___flmul@a,w
  6385  0515  160A  118A  24C3  120A  118A  	fcall	__Umul8_16
  6386  051A  0874               	movf	?__Umul8_16+1,w
  6387  051B  1283               	bcf	3,5	;RP0=0, select bank0
  6388  051C  1303               	bcf	3,6	;RP1=0, select bank0
  6389  051D  00DC               	movwf	___flmul@temp+1
  6390  051E  0873               	movf	?__Umul8_16,w
  6391  051F  00DB               	movwf	___flmul@temp
  6392  0520                     l4061:
  6393  0520  085B               	movf	___flmul@temp,w
  6394  0521  00CB               	movwf	??___flmul
  6395  0522  01CC               	clrf	??___flmul+1
  6396  0523  01CD               	clrf	??___flmul+2
  6397  0524  01CE               	clrf	??___flmul+3
  6398  0525  084B               	movf	??___flmul,w
  6399  0526  07D2               	addwf	___flmul@grs,f
  6400  0527  084C               	movf	??___flmul+1,w
  6401  0528  1103               	clrz
  6402  0529  1803               	skipnc
  6403  052A  3E01               	addlw	1
  6404  052B  1903               	skipnz
  6405  052C  2D2E               	goto	u5801
  6406  052D  07D3               	addwf	___flmul@grs+1,f
  6407  052E                     u5801:
  6408  052E  084D               	movf	??___flmul+2,w
  6409  052F  1103               	clrz
  6410  0530  1803               	skipnc
  6411  0531  3E01               	addlw	1
  6412  0532  1903               	skipnz
  6413  0533  2D35               	goto	u5802
  6414  0534  07D4               	addwf	___flmul@grs+2,f
  6415  0535                     u5802:
  6416  0535  084E               	movf	??___flmul+3,w
  6417  0536  1103               	clrz
  6418  0537  1803               	skipnc
  6419  0538  3E01               	addlw	1
  6420  0539  1903               	skipnz
  6421  053A  2D3C               	goto	u5803
  6422  053B  07D5               	addwf	___flmul@grs+3,f
  6423  053C                     u5803:
  6424  053C                     l4063:
  6425  053C  085C               	movf	___flmul@temp+1,w
  6426  053D  00CB               	movwf	??___flmul
  6427  053E  01CC               	clrf	??___flmul+1
  6428  053F  01CD               	clrf	??___flmul+2
  6429  0540  01CE               	clrf	??___flmul+3
  6430  0541  084B               	movf	??___flmul,w
  6431  0542  07D7               	addwf	___flmul@prod,f
  6432  0543  084C               	movf	??___flmul+1,w
  6433  0544  1103               	clrz
  6434  0545  1803               	skipnc
  6435  0546  3E01               	addlw	1
  6436  0547  1903               	skipnz
  6437  0548  2D4A               	goto	u5811
  6438  0549  07D8               	addwf	___flmul@prod+1,f
  6439  054A                     u5811:
  6440  054A  084D               	movf	??___flmul+2,w
  6441  054B  1103               	clrz
  6442  054C  1803               	skipnc
  6443  054D  3E01               	addlw	1
  6444  054E  1903               	skipnz
  6445  054F  2D51               	goto	u5812
  6446  0550  07D9               	addwf	___flmul@prod+2,f
  6447  0551                     u5812:
  6448  0551  084E               	movf	??___flmul+3,w
  6449  0552  1103               	clrz
  6450  0553  1803               	skipnc
  6451  0554  3E01               	addlw	1
  6452  0555  1903               	skipnz
  6453  0556  2D58               	goto	u5813
  6454  0557  07DA               	addwf	___flmul@prod+3,f
  6455  0558                     u5813:
  6456  0558                     l4065:
  6457  0558  3008               	movlw	8
  6458  0559  00CB               	movwf	??___flmul
  6459  055A                     u5825:
  6460  055A  1003               	clrc
  6461  055B  0DD2               	rlf	___flmul@grs,f
  6462  055C  0DD3               	rlf	___flmul@grs+1,f
  6463  055D  0DD4               	rlf	___flmul@grs+2,f
  6464  055E  0DD5               	rlf	___flmul@grs+3,f
  6465  055F  0BCB               	decfsz	??___flmul,f
  6466  0560  2D5A               	goto	u5825
  6467  0561                     l4067:
  6468  0561  0844               	movf	___flmul@b+1,w
  6469  0562  00CB               	movwf	??___flmul
  6470  0563  084B               	movf	??___flmul,w
  6471  0564  00F3               	movwf	__Umul8_16@multiplicand
  6472  0565  0847               	movf	___flmul@a,w
  6473  0566  160A  118A  24C3  120A  118A  	fcall	__Umul8_16
  6474  056B  0874               	movf	?__Umul8_16+1,w
  6475  056C  1283               	bcf	3,5	;RP0=0, select bank0
  6476  056D  1303               	bcf	3,6	;RP1=0, select bank0
  6477  056E  00DC               	movwf	___flmul@temp+1
  6478  056F  0873               	movf	?__Umul8_16,w
  6479  0570  00DB               	movwf	___flmul@temp
  6480  0571                     l4069:
  6481  0571  085B               	movf	___flmul@temp,w
  6482  0572  00CB               	movwf	??___flmul
  6483  0573  085C               	movf	___flmul@temp+1,w
  6484  0574  00CC               	movwf	??___flmul+1
  6485  0575  01CD               	clrf	??___flmul+2
  6486  0576  01CE               	clrf	??___flmul+3
  6487  0577  084B               	movf	??___flmul,w
  6488  0578  07D2               	addwf	___flmul@grs,f
  6489  0579  084C               	movf	??___flmul+1,w
  6490  057A  1103               	clrz
  6491  057B  1803               	skipnc
  6492  057C  3E01               	addlw	1
  6493  057D  1903               	skipnz
  6494  057E  2D80               	goto	u5831
  6495  057F  07D3               	addwf	___flmul@grs+1,f
  6496  0580                     u5831:
  6497  0580  084D               	movf	??___flmul+2,w
  6498  0581  1103               	clrz
  6499  0582  1803               	skipnc
  6500  0583  3E01               	addlw	1
  6501  0584  1903               	skipnz
  6502  0585  2D87               	goto	u5832
  6503  0586  07D4               	addwf	___flmul@grs+2,f
  6504  0587                     u5832:
  6505  0587  084E               	movf	??___flmul+3,w
  6506  0588  1103               	clrz
  6507  0589  1803               	skipnc
  6508  058A  3E01               	addlw	1
  6509  058B  1903               	skipnz
  6510  058C  2D8E               	goto	u5833
  6511  058D  07D5               	addwf	___flmul@grs+3,f
  6512  058E                     u5833:
  6513  058E                     l4071:
  6514  058E  0843               	movf	___flmul@b,w
  6515  058F  00CB               	movwf	??___flmul
  6516  0590  084B               	movf	??___flmul,w
  6517  0591  00F3               	movwf	__Umul8_16@multiplicand
  6518  0592  0848               	movf	___flmul@a+1,w
  6519  0593  160A  118A  24C3  120A  118A  	fcall	__Umul8_16
  6520  0598  0874               	movf	?__Umul8_16+1,w
  6521  0599  1283               	bcf	3,5	;RP0=0, select bank0
  6522  059A  1303               	bcf	3,6	;RP1=0, select bank0
  6523  059B  00DC               	movwf	___flmul@temp+1
  6524  059C  0873               	movf	?__Umul8_16,w
  6525  059D  00DB               	movwf	___flmul@temp
  6526  059E                     l4073:
  6527  059E  085B               	movf	___flmul@temp,w
  6528  059F  00CB               	movwf	??___flmul
  6529  05A0  085C               	movf	___flmul@temp+1,w
  6530  05A1  00CC               	movwf	??___flmul+1
  6531  05A2  01CD               	clrf	??___flmul+2
  6532  05A3  01CE               	clrf	??___flmul+3
  6533  05A4  084B               	movf	??___flmul,w
  6534  05A5  07D2               	addwf	___flmul@grs,f
  6535  05A6  084C               	movf	??___flmul+1,w
  6536  05A7  1103               	clrz
  6537  05A8  1803               	skipnc
  6538  05A9  3E01               	addlw	1
  6539  05AA  1903               	skipnz
  6540  05AB  2DAD               	goto	u5841
  6541  05AC  07D3               	addwf	___flmul@grs+1,f
  6542  05AD                     u5841:
  6543  05AD  084D               	movf	??___flmul+2,w
  6544  05AE  1103               	clrz
  6545  05AF  1803               	skipnc
  6546  05B0  3E01               	addlw	1
  6547  05B1  1903               	skipnz
  6548  05B2  2DB4               	goto	u5842
  6549  05B3  07D4               	addwf	___flmul@grs+2,f
  6550  05B4                     u5842:
  6551  05B4  084E               	movf	??___flmul+3,w
  6552  05B5  1103               	clrz
  6553  05B6  1803               	skipnc
  6554  05B7  3E01               	addlw	1
  6555  05B8  1903               	skipnz
  6556  05B9  2DBB               	goto	u5843
  6557  05BA  07D5               	addwf	___flmul@grs+3,f
  6558  05BB                     u5843:
  6559  05BB                     l4075:
  6560  05BB  3008               	movlw	8
  6561  05BC  00CB               	movwf	??___flmul
  6562  05BD                     u5855:
  6563  05BD  1003               	clrc
  6564  05BE  0DD2               	rlf	___flmul@grs,f
  6565  05BF  0DD3               	rlf	___flmul@grs+1,f
  6566  05C0  0DD4               	rlf	___flmul@grs+2,f
  6567  05C1  0DD5               	rlf	___flmul@grs+3,f
  6568  05C2  0BCB               	decfsz	??___flmul,f
  6569  05C3  2DBD               	goto	u5855
  6570  05C4  0843               	movf	___flmul@b,w
  6571  05C5  00CB               	movwf	??___flmul
  6572  05C6  084B               	movf	??___flmul,w
  6573  05C7  00F3               	movwf	__Umul8_16@multiplicand
  6574  05C8  0847               	movf	___flmul@a,w
  6575  05C9  160A  118A  24C3  120A  118A  	fcall	__Umul8_16
  6576  05CE  0874               	movf	?__Umul8_16+1,w
  6577  05CF  1283               	bcf	3,5	;RP0=0, select bank0
  6578  05D0  1303               	bcf	3,6	;RP1=0, select bank0
  6579  05D1  00DC               	movwf	___flmul@temp+1
  6580  05D2  0873               	movf	?__Umul8_16,w
  6581  05D3  00DB               	movwf	___flmul@temp
  6582  05D4                     l4077:
  6583  05D4  085B               	movf	___flmul@temp,w
  6584  05D5  00CB               	movwf	??___flmul
  6585  05D6  085C               	movf	___flmul@temp+1,w
  6586  05D7  00CC               	movwf	??___flmul+1
  6587  05D8  01CD               	clrf	??___flmul+2
  6588  05D9  01CE               	clrf	??___flmul+3
  6589  05DA  084B               	movf	??___flmul,w
  6590  05DB  07D2               	addwf	___flmul@grs,f
  6591  05DC  084C               	movf	??___flmul+1,w
  6592  05DD  1103               	clrz
  6593  05DE  1803               	skipnc
  6594  05DF  3E01               	addlw	1
  6595  05E0  1903               	skipnz
  6596  05E1  2DE3               	goto	u5861
  6597  05E2  07D3               	addwf	___flmul@grs+1,f
  6598  05E3                     u5861:
  6599  05E3  084D               	movf	??___flmul+2,w
  6600  05E4  1103               	clrz
  6601  05E5  1803               	skipnc
  6602  05E6  3E01               	addlw	1
  6603  05E7  1903               	skipnz
  6604  05E8  2DEA               	goto	u5862
  6605  05E9  07D4               	addwf	___flmul@grs+2,f
  6606  05EA                     u5862:
  6607  05EA  084E               	movf	??___flmul+3,w
  6608  05EB  1103               	clrz
  6609  05EC  1803               	skipnc
  6610  05ED  3E01               	addlw	1
  6611  05EE  1903               	skipnz
  6612  05EF  2DF1               	goto	u5863
  6613  05F0  07D5               	addwf	___flmul@grs+3,f
  6614  05F1                     u5863:
  6615  05F1                     l4079:
  6616  05F1  0844               	movf	___flmul@b+1,w
  6617  05F2  00CB               	movwf	??___flmul
  6618  05F3  084B               	movf	??___flmul,w
  6619  05F4  00F3               	movwf	__Umul8_16@multiplicand
  6620  05F5  0849               	movf	___flmul@a+2,w
  6621  05F6  160A  118A  24C3  120A  118A  	fcall	__Umul8_16
  6622  05FB  0874               	movf	?__Umul8_16+1,w
  6623  05FC  1283               	bcf	3,5	;RP0=0, select bank0
  6624  05FD  1303               	bcf	3,6	;RP1=0, select bank0
  6625  05FE  00DC               	movwf	___flmul@temp+1
  6626  05FF  0873               	movf	?__Umul8_16,w
  6627  0600  00DB               	movwf	___flmul@temp
  6628  0601  085B               	movf	___flmul@temp,w
  6629  0602  00CB               	movwf	??___flmul
  6630  0603  085C               	movf	___flmul@temp+1,w
  6631  0604  00CC               	movwf	??___flmul+1
  6632  0605  01CD               	clrf	??___flmul+2
  6633  0606  01CE               	clrf	??___flmul+3
  6634  0607  084B               	movf	??___flmul,w
  6635  0608  07D7               	addwf	___flmul@prod,f
  6636  0609  084C               	movf	??___flmul+1,w
  6637  060A  1103               	clrz
  6638  060B  1803               	skipnc
  6639  060C  3E01               	addlw	1
  6640  060D  1903               	skipnz
  6641  060E  2E10               	goto	u5871
  6642  060F  07D8               	addwf	___flmul@prod+1,f
  6643  0610                     u5871:
  6644  0610  084D               	movf	??___flmul+2,w
  6645  0611  1103               	clrz
  6646  0612  1803               	skipnc
  6647  0613  3E01               	addlw	1
  6648  0614  1903               	skipnz
  6649  0615  2E17               	goto	u5872
  6650  0616  07D9               	addwf	___flmul@prod+2,f
  6651  0617                     u5872:
  6652  0617  084E               	movf	??___flmul+3,w
  6653  0618  1103               	clrz
  6654  0619  1803               	skipnc
  6655  061A  3E01               	addlw	1
  6656  061B  1903               	skipnz
  6657  061C  2E1E               	goto	u5873
  6658  061D  07DA               	addwf	___flmul@prod+3,f
  6659  061E                     u5873:
  6660  061E                     l4081:
  6661  061E  0845               	movf	___flmul@b+2,w
  6662  061F  00CB               	movwf	??___flmul
  6663  0620  084B               	movf	??___flmul,w
  6664  0621  00F3               	movwf	__Umul8_16@multiplicand
  6665  0622  0848               	movf	___flmul@a+1,w
  6666  0623  160A  118A  24C3  120A  118A  	fcall	__Umul8_16
  6667  0628  0874               	movf	?__Umul8_16+1,w
  6668  0629  1283               	bcf	3,5	;RP0=0, select bank0
  6669  062A  1303               	bcf	3,6	;RP1=0, select bank0
  6670  062B  00DC               	movwf	___flmul@temp+1
  6671  062C  0873               	movf	?__Umul8_16,w
  6672  062D  00DB               	movwf	___flmul@temp
  6673  062E                     l4083:
  6674  062E  085B               	movf	___flmul@temp,w
  6675  062F  00CB               	movwf	??___flmul
  6676  0630  085C               	movf	___flmul@temp+1,w
  6677  0631  00CC               	movwf	??___flmul+1
  6678  0632  01CD               	clrf	??___flmul+2
  6679  0633  01CE               	clrf	??___flmul+3
  6680  0634  084B               	movf	??___flmul,w
  6681  0635  07D7               	addwf	___flmul@prod,f
  6682  0636  084C               	movf	??___flmul+1,w
  6683  0637  1103               	clrz
  6684  0638  1803               	skipnc
  6685  0639  3E01               	addlw	1
  6686  063A  1903               	skipnz
  6687  063B  2E3D               	goto	u5881
  6688  063C  07D8               	addwf	___flmul@prod+1,f
  6689  063D                     u5881:
  6690  063D  084D               	movf	??___flmul+2,w
  6691  063E  1103               	clrz
  6692  063F  1803               	skipnc
  6693  0640  3E01               	addlw	1
  6694  0641  1903               	skipnz
  6695  0642  2E44               	goto	u5882
  6696  0643  07D9               	addwf	___flmul@prod+2,f
  6697  0644                     u5882:
  6698  0644  084E               	movf	??___flmul+3,w
  6699  0645  1103               	clrz
  6700  0646  1803               	skipnc
  6701  0647  3E01               	addlw	1
  6702  0648  1903               	skipnz
  6703  0649  2E4B               	goto	u5883
  6704  064A  07DA               	addwf	___flmul@prod+3,f
  6705  064B                     u5883:
  6706  064B  0845               	movf	___flmul@b+2,w
  6707  064C  00CB               	movwf	??___flmul
  6708  064D  084B               	movf	??___flmul,w
  6709  064E  00F3               	movwf	__Umul8_16@multiplicand
  6710  064F  0849               	movf	___flmul@a+2,w
  6711  0650  160A  118A  24C3  120A  118A  	fcall	__Umul8_16
  6712  0655  0874               	movf	?__Umul8_16+1,w
  6713  0656  1283               	bcf	3,5	;RP0=0, select bank0
  6714  0657  1303               	bcf	3,6	;RP1=0, select bank0
  6715  0658  00DC               	movwf	___flmul@temp+1
  6716  0659  0873               	movf	?__Umul8_16,w
  6717  065A  00DB               	movwf	___flmul@temp
  6718  065B                     l4085:
  6719  065B  085B               	movf	___flmul@temp,w
  6720  065C  00CB               	movwf	??___flmul
  6721  065D  085C               	movf	___flmul@temp+1,w
  6722  065E  00CC               	movwf	??___flmul+1
  6723  065F  01CD               	clrf	??___flmul+2
  6724  0660  01CE               	clrf	??___flmul+3
  6725  0661  3008               	movlw	8
  6726  0662                     u5895:
  6727  0662  1003               	clrc
  6728  0663  0DCB               	rlf	??___flmul,f
  6729  0664  0DCC               	rlf	??___flmul+1,f
  6730  0665  0DCD               	rlf	??___flmul+2,f
  6731  0666  0DCE               	rlf	??___flmul+3,f
  6732  0667                     u5890:
  6733  0667  3EFF               	addlw	-1
  6734  0668  1D03               	skipz
  6735  0669  2E62               	goto	u5895
  6736  066A  084B               	movf	??___flmul,w
  6737  066B  07D7               	addwf	___flmul@prod,f
  6738  066C  084C               	movf	??___flmul+1,w
  6739  066D  1103               	clrz
  6740  066E  1803               	skipnc
  6741  066F  3E01               	addlw	1
  6742  0670  1903               	skipnz
  6743  0671  2E73               	goto	u5901
  6744  0672  07D8               	addwf	___flmul@prod+1,f
  6745  0673                     u5901:
  6746  0673  084D               	movf	??___flmul+2,w
  6747  0674  1103               	clrz
  6748  0675  1803               	skipnc
  6749  0676  3E01               	addlw	1
  6750  0677  1903               	skipnz
  6751  0678  2E7A               	goto	u5902
  6752  0679  07D9               	addwf	___flmul@prod+2,f
  6753  067A                     u5902:
  6754  067A  084E               	movf	??___flmul+3,w
  6755  067B  1103               	clrz
  6756  067C  1803               	skipnc
  6757  067D  3E01               	addlw	1
  6758  067E  1903               	skipnz
  6759  067F  2E81               	goto	u5903
  6760  0680  07DA               	addwf	___flmul@prod+3,f
  6761  0681                     u5903:
  6762  0681                     l4087:
  6763  0681  0852               	movf	___flmul@grs,w
  6764  0682  00CB               	movwf	??___flmul
  6765  0683  0853               	movf	___flmul@grs+1,w
  6766  0684  00CC               	movwf	??___flmul+1
  6767  0685  0854               	movf	___flmul@grs+2,w
  6768  0686  00CD               	movwf	??___flmul+2
  6769  0687  0855               	movf	___flmul@grs+3,w
  6770  0688  00CE               	movwf	??___flmul+3
  6771  0689  3018               	movlw	24
  6772  068A                     u5915:
  6773  068A  1003               	clrc
  6774  068B  0CCE               	rrf	??___flmul+3,f
  6775  068C  0CCD               	rrf	??___flmul+2,f
  6776  068D  0CCC               	rrf	??___flmul+1,f
  6777  068E  0CCB               	rrf	??___flmul,f
  6778  068F                     u5910:
  6779  068F  3EFF               	addlw	-1
  6780  0690  1D03               	skipz
  6781  0691  2E8A               	goto	u5915
  6782  0692  084B               	movf	??___flmul,w
  6783  0693  07D7               	addwf	___flmul@prod,f
  6784  0694  084C               	movf	??___flmul+1,w
  6785  0695  1103               	clrz
  6786  0696  1803               	skipnc
  6787  0697  3E01               	addlw	1
  6788  0698  1903               	skipnz
  6789  0699  2E9B               	goto	u5921
  6790  069A  07D8               	addwf	___flmul@prod+1,f
  6791  069B                     u5921:
  6792  069B  084D               	movf	??___flmul+2,w
  6793  069C  1103               	clrz
  6794  069D  1803               	skipnc
  6795  069E  3E01               	addlw	1
  6796  069F  1903               	skipnz
  6797  06A0  2EA2               	goto	u5922
  6798  06A1  07D9               	addwf	___flmul@prod+2,f
  6799  06A2                     u5922:
  6800  06A2  084E               	movf	??___flmul+3,w
  6801  06A3  1103               	clrz
  6802  06A4  1803               	skipnc
  6803  06A5  3E01               	addlw	1
  6804  06A6  1903               	skipnz
  6805  06A7  2EA9               	goto	u5923
  6806  06A8  07DA               	addwf	___flmul@prod+3,f
  6807  06A9                     u5923:
  6808  06A9                     l4089:
  6809  06A9  3008               	movlw	8
  6810  06AA  00CB               	movwf	??___flmul
  6811  06AB                     u5935:
  6812  06AB  1003               	clrc
  6813  06AC  0DD2               	rlf	___flmul@grs,f
  6814  06AD  0DD3               	rlf	___flmul@grs+1,f
  6815  06AE  0DD4               	rlf	___flmul@grs+2,f
  6816  06AF  0DD5               	rlf	___flmul@grs+3,f
  6817  06B0  0BCB               	decfsz	??___flmul,f
  6818  06B1  2EAB               	goto	u5935
  6819  06B2                     l4091:
  6820  06B2  0856               	movf	___flmul@bexp,w
  6821  06B3  0751               	addwf	___flmul@aexp,w
  6822  06B4  00CB               	movwf	??___flmul
  6823  06B5  01CC               	clrf	??___flmul+1
  6824  06B6  0DCC               	rlf	??___flmul+1,f
  6825  06B7  084B               	movf	??___flmul,w
  6826  06B8  3E82               	addlw	130
  6827  06B9  00DB               	movwf	___flmul@temp
  6828  06BA  084C               	movf	??___flmul+1,w
  6829  06BB  1803               	skipnc
  6830  06BC  3E01               	addlw	1
  6831  06BD  3EFF               	addlw	255
  6832  06BE  00DC               	movwf	___flmul@temp+1
  6833  06BF  2EDD               	goto	l4103
  6834  06C0                     l4093:
  6835  06C0  3001               	movlw	1
  6836  06C1  00CB               	movwf	??___flmul
  6837  06C2                     u5945:
  6838  06C2  1003               	clrc
  6839  06C3  0DD7               	rlf	___flmul@prod,f
  6840  06C4  0DD8               	rlf	___flmul@prod+1,f
  6841  06C5  0DD9               	rlf	___flmul@prod+2,f
  6842  06C6  0DDA               	rlf	___flmul@prod+3,f
  6843  06C7  0BCB               	decfsz	??___flmul,f
  6844  06C8  2EC2               	goto	u5945
  6845  06C9                     l4095:
  6846  06C9  1FD5               	btfss	___flmul@grs+3,7
  6847  06CA  2ECC               	goto	u5951
  6848  06CB  2ECD               	goto	u5950
  6849  06CC                     u5951:
  6850  06CC  2ECE               	goto	l4099
  6851  06CD                     u5950:
  6852  06CD                     l4097:
  6853  06CD  1457               	bsf	___flmul@prod,0
  6854  06CE                     l4099:
  6855  06CE  3001               	movlw	1
  6856  06CF  00CB               	movwf	??___flmul
  6857  06D0                     u5965:
  6858  06D0  1003               	clrc
  6859  06D1  0DD2               	rlf	___flmul@grs,f
  6860  06D2  0DD3               	rlf	___flmul@grs+1,f
  6861  06D3  0DD4               	rlf	___flmul@grs+2,f
  6862  06D4  0DD5               	rlf	___flmul@grs+3,f
  6863  06D5  0BCB               	decfsz	??___flmul,f
  6864  06D6  2ED0               	goto	u5965
  6865  06D7                     l4101:
  6866  06D7  30FF               	movlw	255
  6867  06D8  07DB               	addwf	___flmul@temp,f
  6868  06D9  1803               	skipnc
  6869  06DA  0ADC               	incf	___flmul@temp+1,f
  6870  06DB  30FF               	movlw	255
  6871  06DC  07DC               	addwf	___flmul@temp+1,f
  6872  06DD                     l4103:
  6873  06DD  1FD9               	btfss	___flmul@prod+2,7
  6874  06DE  2EE0               	goto	u5971
  6875  06DF  2EE1               	goto	u5970
  6876  06E0                     u5971:
  6877  06E0  2EC0               	goto	l4093
  6878  06E1                     u5970:
  6879  06E1                     l4105:
  6880  06E1  01D1               	clrf	___flmul@aexp
  6881  06E2                     l4107:
  6882  06E2  1FD5               	btfss	___flmul@grs+3,7
  6883  06E3  2EE5               	goto	u5981
  6884  06E4  2EE6               	goto	u5980
  6885  06E5                     u5981:
  6886  06E5  2F02               	goto	l4115
  6887  06E6                     u5980:
  6888  06E6                     l4109:
  6889  06E6  30FF               	movlw	255
  6890  06E7  0552               	andwf	___flmul@grs,w
  6891  06E8  00CB               	movwf	??___flmul
  6892  06E9  30FF               	movlw	255
  6893  06EA  0553               	andwf	___flmul@grs+1,w
  6894  06EB  00CC               	movwf	??___flmul+1
  6895  06EC  30FF               	movlw	255
  6896  06ED  0554               	andwf	___flmul@grs+2,w
  6897  06EE  00CD               	movwf	??___flmul+2
  6898  06EF  307F               	movlw	127
  6899  06F0  0555               	andwf	___flmul@grs+3,w
  6900  06F1  00CE               	movwf	??___flmul+3
  6901  06F2  084E               	movf	??___flmul+3,w
  6902  06F3  044D               	iorwf	??___flmul+2,w
  6903  06F4  044C               	iorwf	??___flmul+1,w
  6904  06F5  044B               	iorwf	??___flmul,w
  6905  06F6  1903               	skipnz
  6906  06F7  2EF9               	goto	u5991
  6907  06F8  2EFA               	goto	u5990
  6908  06F9                     u5991:
  6909  06F9  2EFD               	goto	l767
  6910  06FA                     u5990:
  6911  06FA                     l4111:
  6912  06FA  01D1               	clrf	___flmul@aexp
  6913  06FB  0AD1               	incf	___flmul@aexp,f
  6914  06FC  2F02               	goto	l4115
  6915  06FD                     l767:
  6916  06FD  1C57               	btfss	___flmul@prod,0
  6917  06FE  2F00               	goto	u6001
  6918  06FF  2F01               	goto	u6000
  6919  0700                     u6001:
  6920  0700  2F02               	goto	l4115
  6921  0701                     u6000:
  6922  0701  2EFA               	goto	l4111
  6923  0702                     l4115:
  6924  0702  0851               	movf	___flmul@aexp,w
  6925  0703  1903               	btfsc	3,2
  6926  0704  2F06               	goto	u6011
  6927  0705  2F07               	goto	u6010
  6928  0706                     u6011:
  6929  0706  2F38               	goto	l4125
  6930  0707                     u6010:
  6931  0707                     l4117:
  6932  0707  3001               	movlw	1
  6933  0708  07D7               	addwf	___flmul@prod,f
  6934  0709  3000               	movlw	0
  6935  070A  1803               	skipnc
  6936  070B  3001               	movlw	1
  6937  070C  07D8               	addwf	___flmul@prod+1,f
  6938  070D  3000               	movlw	0
  6939  070E  1803               	skipnc
  6940  070F  3001               	movlw	1
  6941  0710  07D9               	addwf	___flmul@prod+2,f
  6942  0711  3000               	movlw	0
  6943  0712  1803               	skipnc
  6944  0713  3001               	movlw	1
  6945  0714  07DA               	addwf	___flmul@prod+3,f
  6946  0715                     l4119:
  6947  0715  1C5A               	btfss	___flmul@prod+3,0
  6948  0716  2F18               	goto	u6021
  6949  0717  2F19               	goto	u6020
  6950  0718                     u6021:
  6951  0718  2F38               	goto	l4125
  6952  0719                     u6020:
  6953  0719                     l4121:
  6954  0719  0857               	movf	___flmul@prod,w
  6955  071A  00CB               	movwf	??___flmul
  6956  071B  0858               	movf	___flmul@prod+1,w
  6957  071C  00CC               	movwf	??___flmul+1
  6958  071D  0859               	movf	___flmul@prod+2,w
  6959  071E  00CD               	movwf	??___flmul+2
  6960  071F  085A               	movf	___flmul@prod+3,w
  6961  0720  00CE               	movwf	??___flmul+3
  6962  0721  3001               	movlw	1
  6963  0722  00CF               	movwf	??___flmul+4
  6964  0723                     u6035:
  6965  0723  0D4E               	rlf	??___flmul+3,w
  6966  0724  0CCE               	rrf	??___flmul+3,f
  6967  0725  0CCD               	rrf	??___flmul+2,f
  6968  0726  0CCC               	rrf	??___flmul+1,f
  6969  0727  0CCB               	rrf	??___flmul,f
  6970  0728                     u6030:
  6971  0728  0BCF               	decfsz	??___flmul+4,f
  6972  0729  2F23               	goto	u6035
  6973  072A  084E               	movf	??___flmul+3,w
  6974  072B  00DA               	movwf	___flmul@prod+3
  6975  072C  084D               	movf	??___flmul+2,w
  6976  072D  00D9               	movwf	___flmul@prod+2
  6977  072E  084C               	movf	??___flmul+1,w
  6978  072F  00D8               	movwf	___flmul@prod+1
  6979  0730  084B               	movf	??___flmul,w
  6980  0731  00D7               	movwf	___flmul@prod
  6981  0732                     l4123:
  6982  0732  3001               	movlw	1
  6983  0733  07DB               	addwf	___flmul@temp,f
  6984  0734  1803               	skipnc
  6985  0735  0ADC               	incf	___flmul@temp+1,f
  6986  0736  3000               	movlw	0
  6987  0737  07DC               	addwf	___flmul@temp+1,f
  6988  0738                     l4125:
  6989  0738  085C               	movf	___flmul@temp+1,w
  6990  0739  3A80               	xorlw	128
  6991  073A  00FF               	movwf	btemp+1
  6992  073B  3080               	movlw	128
  6993  073C  027F               	subwf	btemp+1,w
  6994  073D  1D03               	skipz
  6995  073E  2F41               	goto	u6045
  6996  073F  30FF               	movlw	255
  6997  0740  025B               	subwf	___flmul@temp,w
  6998  0741                     u6045:
  6999  0741  1C03               	skipc
  7000  0742  2F44               	goto	u6041
  7001  0743  2F45               	goto	u6040
  7002  0744                     u6041:
  7003  0744  2F50               	goto	l4129
  7004  0745                     u6040:
  7005  0745                     l4127:
  7006  0745  307F               	movlw	127
  7007  0746  1283               	bcf	3,5	;RP0=0, select bank0
  7008  0747  1303               	bcf	3,6	;RP1=0, select bank0
  7009  0748  00DA               	movwf	___flmul@prod+3
  7010  0749  3080               	movlw	128
  7011  074A  00D9               	movwf	___flmul@prod+2
  7012  074B  3000               	movlw	0
  7013  074C  00D8               	movwf	___flmul@prod+1
  7014  074D  3000               	movlw	0
  7015  074E  00D7               	movwf	___flmul@prod
  7016  074F  2F85               	goto	l773
  7017  0750                     l4129:
  7018  0750  1283               	bcf	3,5	;RP0=0, select bank0
  7019  0751  1303               	bcf	3,6	;RP1=0, select bank0
  7020  0752  085C               	movf	___flmul@temp+1,w
  7021  0753  3A80               	xorlw	128
  7022  0754  00FF               	movwf	btemp+1
  7023  0755  3080               	movlw	128
  7024  0756  027F               	subwf	btemp+1,w
  7025  0757  1D03               	skipz
  7026  0758  2F5B               	goto	u6055
  7027  0759  3001               	movlw	1
  7028  075A  025B               	subwf	___flmul@temp,w
  7029  075B                     u6055:
  7030  075B  1803               	skipnc
  7031  075C  2F5E               	goto	u6051
  7032  075D  2F5F               	goto	u6050
  7033  075E                     u6051:
  7034  075E  2F6B               	goto	l4135
  7035  075F                     u6050:
  7036  075F                     l4131:
  7037  075F  3000               	movlw	0
  7038  0760  1283               	bcf	3,5	;RP0=0, select bank0
  7039  0761  1303               	bcf	3,6	;RP1=0, select bank0
  7040  0762  00DA               	movwf	___flmul@prod+3
  7041  0763  3000               	movlw	0
  7042  0764  00D9               	movwf	___flmul@prod+2
  7043  0765  3000               	movlw	0
  7044  0766  00D8               	movwf	___flmul@prod+1
  7045  0767  3000               	movlw	0
  7046  0768  00D7               	movwf	___flmul@prod
  7047  0769                     l4133:
  7048  0769  01D0               	clrf	___flmul@sign
  7049  076A  2F85               	goto	l773
  7050  076B                     l4135:
  7051  076B  1283               	bcf	3,5	;RP0=0, select bank0
  7052  076C  1303               	bcf	3,6	;RP1=0, select bank0
  7053  076D  085B               	movf	___flmul@temp,w
  7054  076E  00CB               	movwf	??___flmul
  7055  076F  084B               	movf	??___flmul,w
  7056  0770  00D6               	movwf	___flmul@bexp
  7057  0771  30FF               	movlw	255
  7058  0772  05D7               	andwf	___flmul@prod,f
  7059  0773  30FF               	movlw	255
  7060  0774  05D8               	andwf	___flmul@prod+1,f
  7061  0775  307F               	movlw	127
  7062  0776  05D9               	andwf	___flmul@prod+2,f
  7063  0777  3000               	movlw	0
  7064  0778  05DA               	andwf	___flmul@prod+3,f
  7065  0779                     l4137:
  7066  0779  1C56               	btfss	___flmul@bexp,0
  7067  077A  2F7C               	goto	u6061
  7068  077B  2F7D               	goto	u6060
  7069  077C                     u6061:
  7070  077C  2F7E               	goto	l4141
  7071  077D                     u6060:
  7072  077D                     l4139:
  7073  077D  17D9               	bsf	___flmul@prod+2,7
  7074  077E                     l4141:
  7075  077E  0856               	movf	___flmul@bexp,w
  7076  077F  00CB               	movwf	??___flmul
  7077  0780  1003               	clrc
  7078  0781  0C4B               	rrf	??___flmul,w
  7079  0782  00CC               	movwf	??___flmul+1
  7080  0783  084C               	movf	??___flmul+1,w
  7081  0784  00DA               	movwf	___flmul@prod+3
  7082  0785                     l773:
  7083  0785  0850               	movf	___flmul@sign,w
  7084  0786  00CB               	movwf	??___flmul
  7085  0787  084B               	movf	??___flmul,w
  7086  0788  04DA               	iorwf	___flmul@prod+3,f
  7087  0789                     l4143:
  7088  0789  085A               	movf	___flmul@prod+3,w
  7089  078A  00C6               	movwf	?___flmul+3
  7090  078B  0859               	movf	___flmul@prod+2,w
  7091  078C  00C5               	movwf	?___flmul+2
  7092  078D  0858               	movf	___flmul@prod+1,w
  7093  078E  00C4               	movwf	?___flmul+1
  7094  078F  0857               	movf	___flmul@prod,w
  7095  0790  00C3               	movwf	?___flmul
  7096  0791                     l761:
  7097  0791  0008               	return
  7098  0792                     __end_of___flmul:
  7099                           
  7100                           	psect	text20
  7101  14C3                     __ptext20:	
  7102 ;; *************** function __Umul8_16 *****************
  7103 ;; Defined at:
  7104 ;;		line 4 in file "C:\Program Files\Microchip\xc8\v2.31\pic\sources\c90\common\Umul8_16.c"
  7105 ;; Parameters:    Size  Location     Type
  7106 ;;  multiplier      1    wreg     unsigned char 
  7107 ;;  multiplicand    1    3[COMMON] unsigned char 
  7108 ;; Auto vars:     Size  Location     Type
  7109 ;;  multiplier      1    4[BANK0 ] unsigned char 
  7110 ;;  word_mpld       2    2[BANK0 ] unsigned int 
  7111 ;;  product         2    0[BANK0 ] unsigned int 
  7112 ;; Return value:  Size  Location     Type
  7113 ;;                  2    3[COMMON] unsigned int 
  7114 ;; Registers used:
  7115 ;;		wreg, status,2, status,0
  7116 ;; Tracked objects:
  7117 ;;		On entry : 0/0
  7118 ;;		On exit  : 0/0
  7119 ;;		Unchanged: 0/0
  7120 ;; Data sizes:     COMMON   BANK0   BANK1   BANK3   BANK2
  7121 ;;      Params:         2       0       0       0       0
  7122 ;;      Locals:         0       5       0       0       0
  7123 ;;      Temps:          2       0       0       0       0
  7124 ;;      Totals:         4       5       0       0       0
  7125 ;;Total ram usage:        9 bytes
  7126 ;; Hardware stack levels used:    1
  7127 ;; Hardware stack levels required when called:    1
  7128 ;; This function calls:
  7129 ;;		Nothing
  7130 ;; This function is called by:
  7131 ;;		___flmul
  7132 ;; This function uses a non-reentrant model
  7133 ;;
  7134                           
  7135                           
  7136                           ;psect for function __Umul8_16
  7137  14C3                     __Umul8_16:
  7138                           
  7139                           ;incstack = 0
  7140                           ; Regs used in __Umul8_16: [wreg+status,2+status,0]
  7141                           ;__Umul8_16@multiplier stored from wreg
  7142  14C3  1283               	bcf	3,5	;RP0=0, select bank0
  7143  14C4  1303               	bcf	3,6	;RP1=0, select bank0
  7144  14C5  00A4               	movwf	__Umul8_16@multiplier
  7145  14C6                     l3725:
  7146  14C6  01A0               	clrf	__Umul8_16@product
  7147  14C7  01A1               	clrf	__Umul8_16@product+1
  7148  14C8                     l3727:
  7149  14C8  0873               	movf	__Umul8_16@multiplicand,w
  7150  14C9  00F5               	movwf	??__Umul8_16
  7151  14CA  01F6               	clrf	??__Umul8_16+1
  7152  14CB  0875               	movf	??__Umul8_16,w
  7153  14CC  00A2               	movwf	__Umul8_16@word_mpld
  7154  14CD  0876               	movf	??__Umul8_16+1,w
  7155  14CE  00A3               	movwf	__Umul8_16@word_mpld+1
  7156  14CF                     l3729:
  7157  14CF  1C24               	btfss	__Umul8_16@multiplier,0
  7158  14D0  2CD2               	goto	u5111
  7159  14D1  2CD3               	goto	u5110
  7160  14D2                     u5111:
  7161  14D2  2CD9               	goto	l780
  7162  14D3                     u5110:
  7163  14D3                     l3731:
  7164  14D3  0822               	movf	__Umul8_16@word_mpld,w
  7165  14D4  07A0               	addwf	__Umul8_16@product,f
  7166  14D5  1803               	skipnc
  7167  14D6  0AA1               	incf	__Umul8_16@product+1,f
  7168  14D7  0823               	movf	__Umul8_16@word_mpld+1,w
  7169  14D8  07A1               	addwf	__Umul8_16@product+1,f
  7170  14D9                     l780:
  7171  14D9  3001               	movlw	1
  7172  14DA                     u5125:
  7173  14DA  1003               	clrc
  7174  14DB  0DA2               	rlf	__Umul8_16@word_mpld,f
  7175  14DC  0DA3               	rlf	__Umul8_16@word_mpld+1,f
  7176  14DD  3EFF               	addlw	-1
  7177  14DE  1D03               	skipz
  7178  14DF  2CDA               	goto	u5125
  7179  14E0  1003               	clrc
  7180  14E1  0CA4               	rrf	__Umul8_16@multiplier,f
  7181  14E2                     l3733:
  7182  14E2  0824               	movf	__Umul8_16@multiplier,w
  7183  14E3  1D03               	btfss	3,2
  7184  14E4  2CE6               	goto	u5131
  7185  14E5  2CE7               	goto	u5130
  7186  14E6                     u5131:
  7187  14E6  2CCF               	goto	l3729
  7188  14E7                     u5130:
  7189  14E7                     l3735:
  7190  14E7  0821               	movf	__Umul8_16@product+1,w
  7191  14E8  00F4               	movwf	?__Umul8_16+1
  7192  14E9  0820               	movf	__Umul8_16@product,w
  7193  14EA  00F3               	movwf	?__Umul8_16
  7194  14EB                     l782:
  7195  14EB  0008               	return
  7196  14EC                     __end_of__Umul8_16:
  7197                           
  7198                           	psect	text21
  7199  175C                     __ptext21:	
  7200 ;; *************** function ___flge *****************
  7201 ;; Defined at:
  7202 ;;		line 4 in file "C:\Program Files\Microchip\xc8\v2.31\pic\sources\c90\common\flge.c"
  7203 ;; Parameters:    Size  Location     Type
  7204 ;;  ff1             4    0[BANK0 ] unsigned int 
  7205 ;;  ff2             4    4[BANK0 ] unsigned int 
  7206 ;; Auto vars:     Size  Location     Type
  7207 ;;		None
  7208 ;; Return value:  Size  Location     Type
  7209 ;;		None               void
  7210 ;; Registers used:
  7211 ;;		wreg, status,2, status,0
  7212 ;; Tracked objects:
  7213 ;;		On entry : 0/0
  7214 ;;		On exit  : 0/0
  7215 ;;		Unchanged: 0/0
  7216 ;; Data sizes:     COMMON   BANK0   BANK1   BANK3   BANK2
  7217 ;;      Params:         0       8       0       0       0
  7218 ;;      Locals:         0       0       0       0       0
  7219 ;;      Temps:          4       0       0       0       0
  7220 ;;      Totals:         4       8       0       0       0
  7221 ;;Total ram usage:       12 bytes
  7222 ;; Hardware stack levels used:    1
  7223 ;; Hardware stack levels required when called:    1
  7224 ;; This function calls:
  7225 ;;		Nothing
  7226 ;; This function is called by:
  7227 ;;		_convert
  7228 ;; This function uses a non-reentrant model
  7229 ;;
  7230                           
  7231                           
  7232                           ;psect for function ___flge
  7233  175C                     ___flge:
  7234  175C                     l3803:	
  7235                           ;incstack = 0
  7236                           ; Regs used in ___flge: [wreg+status,2+status,0]
  7237                           
  7238  175C  3000               	movlw	0
  7239  175D  1283               	bcf	3,5	;RP0=0, select bank0
  7240  175E  1303               	bcf	3,6	;RP1=0, select bank0
  7241  175F  0520               	andwf	___flge@ff1,w
  7242  1760  00F3               	movwf	??___flge
  7243  1761  3000               	movlw	0
  7244  1762  0521               	andwf	___flge@ff1+1,w
  7245  1763  00F4               	movwf	??___flge+1
  7246  1764  3080               	movlw	128
  7247  1765  0522               	andwf	___flge@ff1+2,w
  7248  1766  00F5               	movwf	??___flge+2
  7249  1767  307F               	movlw	127
  7250  1768  0523               	andwf	___flge@ff1+3,w
  7251  1769  00F6               	movwf	??___flge+3
  7252  176A  0876               	movf	??___flge+3,w
  7253  176B  0475               	iorwf	??___flge+2,w
  7254  176C  0474               	iorwf	??___flge+1,w
  7255  176D  0473               	iorwf	??___flge,w
  7256  176E  1D03               	skipz
  7257  176F  2F71               	goto	u5241
  7258  1770  2F72               	goto	u5240
  7259  1771                     u5241:
  7260  1771  2F7A               	goto	l546
  7261  1772                     u5240:
  7262  1772                     l3805:
  7263  1772  3000               	movlw	0
  7264  1773  00A3               	movwf	___flge@ff1+3
  7265  1774  3000               	movlw	0
  7266  1775  00A2               	movwf	___flge@ff1+2
  7267  1776  3000               	movlw	0
  7268  1777  00A1               	movwf	___flge@ff1+1
  7269  1778  3000               	movlw	0
  7270  1779  00A0               	movwf	___flge@ff1
  7271  177A                     l546:
  7272  177A  3000               	movlw	0
  7273  177B  0524               	andwf	___flge@ff2,w
  7274  177C  00F3               	movwf	??___flge
  7275  177D  3000               	movlw	0
  7276  177E  0525               	andwf	___flge@ff2+1,w
  7277  177F  00F4               	movwf	??___flge+1
  7278  1780  3080               	movlw	128
  7279  1781  0526               	andwf	___flge@ff2+2,w
  7280  1782  00F5               	movwf	??___flge+2
  7281  1783  307F               	movlw	127
  7282  1784  0527               	andwf	___flge@ff2+3,w
  7283  1785  00F6               	movwf	??___flge+3
  7284  1786  0876               	movf	??___flge+3,w
  7285  1787  0475               	iorwf	??___flge+2,w
  7286  1788  0474               	iorwf	??___flge+1,w
  7287  1789  0473               	iorwf	??___flge,w
  7288  178A  1D03               	skipz
  7289  178B  2F8D               	goto	u5251
  7290  178C  2F8E               	goto	u5250
  7291  178D                     u5251:
  7292  178D  2F96               	goto	l3809
  7293  178E                     u5250:
  7294  178E                     l3807:
  7295  178E  3000               	movlw	0
  7296  178F  00A7               	movwf	___flge@ff2+3
  7297  1790  3000               	movlw	0
  7298  1791  00A6               	movwf	___flge@ff2+2
  7299  1792  3000               	movlw	0
  7300  1793  00A5               	movwf	___flge@ff2+1
  7301  1794  3000               	movlw	0
  7302  1795  00A4               	movwf	___flge@ff2
  7303  1796                     l3809:
  7304  1796  1FA3               	btfss	___flge@ff1+3,7
  7305  1797  2F99               	goto	u5261
  7306  1798  2F9A               	goto	u5260
  7307  1799                     u5261:
  7308  1799  2FBE               	goto	l3813
  7309  179A                     u5260:
  7310  179A                     l3811:
  7311  179A  3000               	movlw	0
  7312  179B  00F3               	movwf	??___flge
  7313  179C  3000               	movlw	0
  7314  179D  00F4               	movwf	??___flge+1
  7315  179E  3000               	movlw	0
  7316  179F  00F5               	movwf	??___flge+2
  7317  17A0  3080               	movlw	128
  7318  17A1  00F6               	movwf	??___flge+3
  7319  17A2  0820               	movf	___flge@ff1,w
  7320  17A3  02F3               	subwf	??___flge,f
  7321  17A4  0821               	movf	___flge@ff1+1,w
  7322  17A5  1C03               	skipc
  7323  17A6  0F21               	incfsz	___flge@ff1+1,w
  7324  17A7  2FA9               	goto	u5271
  7325  17A8  2FAA               	goto	u5272
  7326  17A9                     u5271:
  7327  17A9  02F4               	subwf	??___flge+1,f
  7328  17AA                     u5272:
  7329  17AA  0822               	movf	___flge@ff1+2,w
  7330  17AB  1C03               	skipc
  7331  17AC  0F22               	incfsz	___flge@ff1+2,w
  7332  17AD  2FAF               	goto	u5273
  7333  17AE  2FB0               	goto	u5274
  7334  17AF                     u5273:
  7335  17AF  02F5               	subwf	??___flge+2,f
  7336  17B0                     u5274:
  7337  17B0  0823               	movf	___flge@ff1+3,w
  7338  17B1  1C03               	skipc
  7339  17B2  0F23               	incfsz	___flge@ff1+3,w
  7340  17B3  2FB5               	goto	u5275
  7341  17B4  2FB6               	goto	u5276
  7342  17B5                     u5275:
  7343  17B5  02F6               	subwf	??___flge+3,f
  7344  17B6                     u5276:
  7345  17B6  0876               	movf	??___flge+3,w
  7346  17B7  00A3               	movwf	___flge@ff1+3
  7347  17B8  0875               	movf	??___flge+2,w
  7348  17B9  00A2               	movwf	___flge@ff1+2
  7349  17BA  0874               	movf	??___flge+1,w
  7350  17BB  00A1               	movwf	___flge@ff1+1
  7351  17BC  0873               	movf	??___flge,w
  7352  17BD  00A0               	movwf	___flge@ff1
  7353  17BE                     l3813:
  7354  17BE  1FA7               	btfss	___flge@ff2+3,7
  7355  17BF  2FC1               	goto	u5281
  7356  17C0  2FC2               	goto	u5280
  7357  17C1                     u5281:
  7358  17C1  2FE6               	goto	l549
  7359  17C2                     u5280:
  7360  17C2                     l3815:
  7361  17C2  3000               	movlw	0
  7362  17C3  00F3               	movwf	??___flge
  7363  17C4  3000               	movlw	0
  7364  17C5  00F4               	movwf	??___flge+1
  7365  17C6  3000               	movlw	0
  7366  17C7  00F5               	movwf	??___flge+2
  7367  17C8  3080               	movlw	128
  7368  17C9  00F6               	movwf	??___flge+3
  7369  17CA  0824               	movf	___flge@ff2,w
  7370  17CB  02F3               	subwf	??___flge,f
  7371  17CC  0825               	movf	___flge@ff2+1,w
  7372  17CD  1C03               	skipc
  7373  17CE  0F25               	incfsz	___flge@ff2+1,w
  7374  17CF  2FD1               	goto	u5291
  7375  17D0  2FD2               	goto	u5292
  7376  17D1                     u5291:
  7377  17D1  02F4               	subwf	??___flge+1,f
  7378  17D2                     u5292:
  7379  17D2  0826               	movf	___flge@ff2+2,w
  7380  17D3  1C03               	skipc
  7381  17D4  0F26               	incfsz	___flge@ff2+2,w
  7382  17D5  2FD7               	goto	u5293
  7383  17D6  2FD8               	goto	u5294
  7384  17D7                     u5293:
  7385  17D7  02F5               	subwf	??___flge+2,f
  7386  17D8                     u5294:
  7387  17D8  0827               	movf	___flge@ff2+3,w
  7388  17D9  1C03               	skipc
  7389  17DA  0F27               	incfsz	___flge@ff2+3,w
  7390  17DB  2FDD               	goto	u5295
  7391  17DC  2FDE               	goto	u5296
  7392  17DD                     u5295:
  7393  17DD  02F6               	subwf	??___flge+3,f
  7394  17DE                     u5296:
  7395  17DE  0876               	movf	??___flge+3,w
  7396  17DF  00A7               	movwf	___flge@ff2+3
  7397  17E0  0875               	movf	??___flge+2,w
  7398  17E1  00A6               	movwf	___flge@ff2+2
  7399  17E2  0874               	movf	??___flge+1,w
  7400  17E3  00A5               	movwf	___flge@ff2+1
  7401  17E4  0873               	movf	??___flge,w
  7402  17E5  00A4               	movwf	___flge@ff2
  7403  17E6                     l549:
  7404  17E6  3080               	movlw	128
  7405  17E7  06A3               	xorwf	___flge@ff1+3,f
  7406  17E8  3080               	movlw	128
  7407  17E9  06A7               	xorwf	___flge@ff2+3,f
  7408  17EA  0827               	movf	___flge@ff2+3,w
  7409  17EB  0223               	subwf	___flge@ff1+3,w
  7410  17EC  1D03               	skipz
  7411  17ED  2FF8               	goto	u5305
  7412  17EE  0826               	movf	___flge@ff2+2,w
  7413  17EF  0222               	subwf	___flge@ff1+2,w
  7414  17F0  1D03               	skipz
  7415  17F1  2FF8               	goto	u5305
  7416  17F2  0825               	movf	___flge@ff2+1,w
  7417  17F3  0221               	subwf	___flge@ff1+1,w
  7418  17F4  1D03               	skipz
  7419  17F5  2FF8               	goto	u5305
  7420  17F6  0824               	movf	___flge@ff2,w
  7421  17F7  0220               	subwf	___flge@ff1,w
  7422  17F8                     u5305:
  7423  17F8  1803               	skipnc
  7424  17F9  2FFB               	goto	u5301
  7425  17FA  2FFC               	goto	u5300
  7426  17FB                     u5301:
  7427  17FB  2FFE               	goto	l3819
  7428  17FC                     u5300:
  7429  17FC                     l3817:
  7430  17FC  1003               	clrc
  7431  17FD  2FFF               	goto	l550
  7432  17FE                     l3819:
  7433  17FE  1403               	setc
  7434  17FF                     l550:
  7435  17FF  0008               	return
  7436  1800                     __end_of___flge:
  7437                           
  7438                           	psect	text22
  7439  0B93                     __ptext22:	
  7440 ;; *************** function ___fldiv *****************
  7441 ;; Defined at:
  7442 ;;		line 8 in file "C:\Program Files\Microchip\xc8\v2.31\pic\sources\c90\common\sprcdiv.c"
  7443 ;; Parameters:    Size  Location     Type
  7444 ;;  a               4   27[BANK0 ] unsigned int 
  7445 ;;  b               4   31[BANK0 ] unsigned int 
  7446 ;; Auto vars:     Size  Location     Type
  7447 ;;  grs             4   47[BANK0 ] unsigned long 
  7448 ;;  rem             4   40[BANK0 ] unsigned long 
  7449 ;;  new_exp         2   45[BANK0 ] int 
  7450 ;;  aexp            1   52[BANK0 ] unsigned char 
  7451 ;;  bexp            1   51[BANK0 ] unsigned char 
  7452 ;;  sign            1   44[BANK0 ] unsigned char 
  7453 ;; Return value:  Size  Location     Type
  7454 ;;                  4   27[BANK0 ] unsigned char 
  7455 ;; Registers used:
  7456 ;;		wreg, status,2, status,0, btemp+1
  7457 ;; Tracked objects:
  7458 ;;		On entry : 0/0
  7459 ;;		On exit  : 0/0
  7460 ;;		Unchanged: 0/0
  7461 ;; Data sizes:     COMMON   BANK0   BANK1   BANK3   BANK2
  7462 ;;      Params:         0       8       0       0       0
  7463 ;;      Locals:         0      13       0       0       0
  7464 ;;      Temps:          0       5       0       0       0
  7465 ;;      Totals:         0      26       0       0       0
  7466 ;;Total ram usage:       26 bytes
  7467 ;; Hardware stack levels used:    1
  7468 ;; Hardware stack levels required when called:    1
  7469 ;; This function calls:
  7470 ;;		Nothing
  7471 ;; This function is called by:
  7472 ;;		_convert
  7473 ;; This function uses a non-reentrant model
  7474 ;;
  7475                           
  7476                           
  7477                           ;psect for function ___fldiv
  7478  0B93                     ___fldiv:
  7479  0B93                     l3865:	
  7480                           ;incstack = 0
  7481                           ; Regs used in ___fldiv: [wreg+status,2+status,0+btemp+1]
  7482                           
  7483  0B93  1283               	bcf	3,5	;RP0=0, select bank0
  7484  0B94  1303               	bcf	3,6	;RP1=0, select bank0
  7485  0B95  0842               	movf	___fldiv@b+3,w
  7486  0B96  3980               	andlw	128
  7487  0B97  00C3               	movwf	??___fldiv
  7488  0B98  0843               	movf	??___fldiv,w
  7489  0B99  00CC               	movwf	___fldiv@sign
  7490  0B9A                     l3867:
  7491  0B9A  0842               	movf	___fldiv@b+3,w
  7492  0B9B  00C3               	movwf	??___fldiv
  7493  0B9C  0743               	addwf	??___fldiv,w
  7494  0B9D  00C4               	movwf	??___fldiv+1
  7495  0B9E  0844               	movf	??___fldiv+1,w
  7496  0B9F  00D3               	movwf	___fldiv@bexp
  7497  0BA0                     l3869:
  7498  0BA0  1FC1               	btfss	___fldiv@b+2,7
  7499  0BA1  2BA3               	goto	u5411
  7500  0BA2  2BA4               	goto	u5410
  7501  0BA3                     u5411:
  7502  0BA3  2BA5               	goto	l3873
  7503  0BA4                     u5410:
  7504  0BA4                     l3871:
  7505  0BA4  1453               	bsf	___fldiv@bexp,0
  7506  0BA5                     l3873:
  7507  0BA5  0853               	movf	___fldiv@bexp,w
  7508  0BA6  1903               	btfsc	3,2
  7509  0BA7  2BA9               	goto	u5421
  7510  0BA8  2BAA               	goto	u5420
  7511  0BA9                     u5421:
  7512  0BA9  2BBA               	goto	l3883
  7513  0BAA                     u5420:
  7514  0BAA                     l3875:
  7515  0BAA  0A53               	incf	___fldiv@bexp,w
  7516  0BAB  1D03               	btfss	3,2
  7517  0BAC  2BAE               	goto	u5431
  7518  0BAD  2BAF               	goto	u5430
  7519  0BAE                     u5431:
  7520  0BAE  2BB7               	goto	l3879
  7521  0BAF                     u5430:
  7522  0BAF                     l3877:
  7523  0BAF  3000               	movlw	0
  7524  0BB0  00C2               	movwf	___fldiv@b+3
  7525  0BB1  3000               	movlw	0
  7526  0BB2  00C1               	movwf	___fldiv@b+2
  7527  0BB3  3000               	movlw	0
  7528  0BB4  00C0               	movwf	___fldiv@b+1
  7529  0BB5  3000               	movlw	0
  7530  0BB6  00BF               	movwf	___fldiv@b
  7531  0BB7                     l3879:
  7532  0BB7  17C1               	bsf	___fldiv@b+2,7
  7533  0BB8                     l3881:
  7534  0BB8  01C2               	clrf	___fldiv@b+3
  7535  0BB9  2BC2               	goto	l3885
  7536  0BBA                     l3883:
  7537  0BBA  3000               	movlw	0
  7538  0BBB  00C2               	movwf	___fldiv@b+3
  7539  0BBC  3000               	movlw	0
  7540  0BBD  00C1               	movwf	___fldiv@b+2
  7541  0BBE  3000               	movlw	0
  7542  0BBF  00C0               	movwf	___fldiv@b+1
  7543  0BC0  3000               	movlw	0
  7544  0BC1  00BF               	movwf	___fldiv@b
  7545  0BC2                     l3885:
  7546  0BC2  083E               	movf	___fldiv@a+3,w
  7547  0BC3  3980               	andlw	128
  7548  0BC4  00C3               	movwf	??___fldiv
  7549  0BC5  0843               	movf	??___fldiv,w
  7550  0BC6  06CC               	xorwf	___fldiv@sign,f
  7551  0BC7                     l3887:
  7552  0BC7  083E               	movf	___fldiv@a+3,w
  7553  0BC8  00C3               	movwf	??___fldiv
  7554  0BC9  0743               	addwf	??___fldiv,w
  7555  0BCA  00C4               	movwf	??___fldiv+1
  7556  0BCB  0844               	movf	??___fldiv+1,w
  7557  0BCC  00D4               	movwf	___fldiv@aexp
  7558  0BCD                     l3889:
  7559  0BCD  1FBD               	btfss	___fldiv@a+2,7
  7560  0BCE  2BD0               	goto	u5441
  7561  0BCF  2BD1               	goto	u5440
  7562  0BD0                     u5441:
  7563  0BD0  2BD2               	goto	l3893
  7564  0BD1                     u5440:
  7565  0BD1                     l3891:
  7566  0BD1  1454               	bsf	___fldiv@aexp,0
  7567  0BD2                     l3893:
  7568  0BD2  0854               	movf	___fldiv@aexp,w
  7569  0BD3  1903               	btfsc	3,2
  7570  0BD4  2BD6               	goto	u5451
  7571  0BD5  2BD7               	goto	u5450
  7572  0BD6                     u5451:
  7573  0BD6  2BE7               	goto	l3903
  7574  0BD7                     u5450:
  7575  0BD7                     l3895:
  7576  0BD7  0A54               	incf	___fldiv@aexp,w
  7577  0BD8  1D03               	btfss	3,2
  7578  0BD9  2BDB               	goto	u5461
  7579  0BDA  2BDC               	goto	u5460
  7580  0BDB                     u5461:
  7581  0BDB  2BE4               	goto	l3899
  7582  0BDC                     u5460:
  7583  0BDC                     l3897:
  7584  0BDC  3000               	movlw	0
  7585  0BDD  00BE               	movwf	___fldiv@a+3
  7586  0BDE  3000               	movlw	0
  7587  0BDF  00BD               	movwf	___fldiv@a+2
  7588  0BE0  3000               	movlw	0
  7589  0BE1  00BC               	movwf	___fldiv@a+1
  7590  0BE2  3000               	movlw	0
  7591  0BE3  00BB               	movwf	___fldiv@a
  7592  0BE4                     l3899:
  7593  0BE4  17BD               	bsf	___fldiv@a+2,7
  7594  0BE5                     l3901:
  7595  0BE5  01BE               	clrf	___fldiv@a+3
  7596  0BE6  2BEF               	goto	l721
  7597  0BE7                     l3903:
  7598  0BE7  3000               	movlw	0
  7599  0BE8  00BE               	movwf	___fldiv@a+3
  7600  0BE9  3000               	movlw	0
  7601  0BEA  00BD               	movwf	___fldiv@a+2
  7602  0BEB  3000               	movlw	0
  7603  0BEC  00BC               	movwf	___fldiv@a+1
  7604  0BED  3000               	movlw	0
  7605  0BEE  00BB               	movwf	___fldiv@a
  7606  0BEF                     l721:
  7607  0BEF  083E               	movf	___fldiv@a+3,w
  7608  0BF0  043D               	iorwf	___fldiv@a+2,w
  7609  0BF1  043C               	iorwf	___fldiv@a+1,w
  7610  0BF2  043B               	iorwf	___fldiv@a,w
  7611  0BF3  1D03               	skipz
  7612  0BF4  2BF6               	goto	u5471
  7613  0BF5  2BF7               	goto	u5470
  7614  0BF6                     u5471:
  7615  0BF6  2C10               	goto	l3913
  7616  0BF7                     u5470:
  7617  0BF7                     l3905:
  7618  0BF7  3000               	movlw	0
  7619  0BF8  00C2               	movwf	___fldiv@b+3
  7620  0BF9  3000               	movlw	0
  7621  0BFA  00C1               	movwf	___fldiv@b+2
  7622  0BFB  3000               	movlw	0
  7623  0BFC  00C0               	movwf	___fldiv@b+1
  7624  0BFD  3000               	movlw	0
  7625  0BFE  00BF               	movwf	___fldiv@b
  7626  0BFF  3080               	movlw	128
  7627  0C00  04C1               	iorwf	___fldiv@b+2,f
  7628  0C01  307F               	movlw	127
  7629  0C02  04C2               	iorwf	___fldiv@b+3,f
  7630  0C03                     l3907:
  7631  0C03  084C               	movf	___fldiv@sign,w
  7632  0C04  00C3               	movwf	??___fldiv
  7633  0C05  0843               	movf	??___fldiv,w
  7634  0C06  04C2               	iorwf	___fldiv@b+3,f
  7635  0C07                     l3909:
  7636  0C07  0842               	movf	___fldiv@b+3,w
  7637  0C08  00BE               	movwf	?___fldiv+3
  7638  0C09  0841               	movf	___fldiv@b+2,w
  7639  0C0A  00BD               	movwf	?___fldiv+2
  7640  0C0B  0840               	movf	___fldiv@b+1,w
  7641  0C0C  00BC               	movwf	?___fldiv+1
  7642  0C0D  083F               	movf	___fldiv@b,w
  7643  0C0E  00BB               	movwf	?___fldiv
  7644  0C0F  2D6F               	goto	l723
  7645  0C10                     l3913:
  7646  0C10  0853               	movf	___fldiv@bexp,w
  7647  0C11  1D03               	btfss	3,2
  7648  0C12  2C14               	goto	u5481
  7649  0C13  2C15               	goto	u5480
  7650  0C14                     u5481:
  7651  0C14  2C1E               	goto	l3919
  7652  0C15                     u5480:
  7653  0C15                     l3915:
  7654  0C15  3000               	movlw	0
  7655  0C16  00BE               	movwf	?___fldiv+3
  7656  0C17  3000               	movlw	0
  7657  0C18  00BD               	movwf	?___fldiv+2
  7658  0C19  3000               	movlw	0
  7659  0C1A  00BC               	movwf	?___fldiv+1
  7660  0C1B  3000               	movlw	0
  7661  0C1C  00BB               	movwf	?___fldiv
  7662  0C1D  2D6F               	goto	l723
  7663  0C1E                     l3919:
  7664  0C1E  0853               	movf	___fldiv@bexp,w
  7665  0C1F  00C3               	movwf	??___fldiv
  7666  0C20  01C4               	clrf	??___fldiv+1
  7667  0C21  0844               	movf	??___fldiv+1,w
  7668  0C22  00C6               	movwf	??___fldiv+3
  7669  0C23  0854               	movf	___fldiv@aexp,w
  7670  0C24  0243               	subwf	??___fldiv,w
  7671  0C25  00C5               	movwf	??___fldiv+2
  7672  0C26  1C03               	skipc
  7673  0C27  03C6               	decf	??___fldiv+3,f
  7674  0C28  0845               	movf	??___fldiv+2,w
  7675  0C29  3E7F               	addlw	127
  7676  0C2A  00CD               	movwf	___fldiv@new_exp
  7677  0C2B  0846               	movf	??___fldiv+3,w
  7678  0C2C  1803               	skipnc
  7679  0C2D  3E01               	addlw	1
  7680  0C2E  3E00               	addlw	0
  7681  0C2F  00CE               	movwf	___fldiv@new_exp+1
  7682  0C30                     l3921:
  7683  0C30  0842               	movf	___fldiv@b+3,w
  7684  0C31  00CB               	movwf	___fldiv@rem+3
  7685  0C32  0841               	movf	___fldiv@b+2,w
  7686  0C33  00CA               	movwf	___fldiv@rem+2
  7687  0C34  0840               	movf	___fldiv@b+1,w
  7688  0C35  00C9               	movwf	___fldiv@rem+1
  7689  0C36  083F               	movf	___fldiv@b,w
  7690  0C37  00C8               	movwf	___fldiv@rem
  7691  0C38                     l3923:
  7692  0C38  3000               	movlw	0
  7693  0C39  00C2               	movwf	___fldiv@b+3
  7694  0C3A  3000               	movlw	0
  7695  0C3B  00C1               	movwf	___fldiv@b+2
  7696  0C3C  3000               	movlw	0
  7697  0C3D  00C0               	movwf	___fldiv@b+1
  7698  0C3E  3000               	movlw	0
  7699  0C3F  00BF               	movwf	___fldiv@b
  7700  0C40                     l3925:
  7701  0C40  3000               	movlw	0
  7702  0C41  00D2               	movwf	___fldiv@grs+3
  7703  0C42  3000               	movlw	0
  7704  0C43  00D1               	movwf	___fldiv@grs+2
  7705  0C44  3000               	movlw	0
  7706  0C45  00D0               	movwf	___fldiv@grs+1
  7707  0C46  3000               	movlw	0
  7708  0C47  00CF               	movwf	___fldiv@grs
  7709  0C48                     l3927:
  7710  0C48  01D4               	clrf	___fldiv@aexp
  7711  0C49  2C94               	goto	l3947
  7712  0C4A                     l3929:
  7713  0C4A  0854               	movf	___fldiv@aexp,w
  7714  0C4B  1903               	btfsc	3,2
  7715  0C4C  2C4E               	goto	u5491
  7716  0C4D  2C4F               	goto	u5490
  7717  0C4E                     u5491:
  7718  0C4E  2C6F               	goto	l3939
  7719  0C4F                     u5490:
  7720  0C4F                     l3931:
  7721  0C4F  3001               	movlw	1
  7722  0C50  00C3               	movwf	??___fldiv
  7723  0C51                     u5505:
  7724  0C51  1003               	clrc
  7725  0C52  0DC8               	rlf	___fldiv@rem,f
  7726  0C53  0DC9               	rlf	___fldiv@rem+1,f
  7727  0C54  0DCA               	rlf	___fldiv@rem+2,f
  7728  0C55  0DCB               	rlf	___fldiv@rem+3,f
  7729  0C56  0BC3               	decfsz	??___fldiv,f
  7730  0C57  2C51               	goto	u5505
  7731  0C58  3001               	movlw	1
  7732  0C59  00C3               	movwf	??___fldiv
  7733  0C5A                     u5515:
  7734  0C5A  1003               	clrc
  7735  0C5B  0DBF               	rlf	___fldiv@b,f
  7736  0C5C  0DC0               	rlf	___fldiv@b+1,f
  7737  0C5D  0DC1               	rlf	___fldiv@b+2,f
  7738  0C5E  0DC2               	rlf	___fldiv@b+3,f
  7739  0C5F  0BC3               	decfsz	??___fldiv,f
  7740  0C60  2C5A               	goto	u5515
  7741  0C61                     l3933:
  7742  0C61  1FD2               	btfss	___fldiv@grs+3,7
  7743  0C62  2C64               	goto	u5521
  7744  0C63  2C65               	goto	u5520
  7745  0C64                     u5521:
  7746  0C64  2C66               	goto	l3937
  7747  0C65                     u5520:
  7748  0C65                     l3935:
  7749  0C65  143F               	bsf	___fldiv@b,0
  7750  0C66                     l3937:
  7751  0C66  3001               	movlw	1
  7752  0C67  00C3               	movwf	??___fldiv
  7753  0C68                     u5535:
  7754  0C68  1003               	clrc
  7755  0C69  0DCF               	rlf	___fldiv@grs,f
  7756  0C6A  0DD0               	rlf	___fldiv@grs+1,f
  7757  0C6B  0DD1               	rlf	___fldiv@grs+2,f
  7758  0C6C  0DD2               	rlf	___fldiv@grs+3,f
  7759  0C6D  0BC3               	decfsz	??___fldiv,f
  7760  0C6E  2C68               	goto	u5535
  7761  0C6F                     l3939:
  7762  0C6F  083E               	movf	___fldiv@a+3,w
  7763  0C70  024B               	subwf	___fldiv@rem+3,w
  7764  0C71  1D03               	skipz
  7765  0C72  2C7D               	goto	u5545
  7766  0C73  083D               	movf	___fldiv@a+2,w
  7767  0C74  024A               	subwf	___fldiv@rem+2,w
  7768  0C75  1D03               	skipz
  7769  0C76  2C7D               	goto	u5545
  7770  0C77  083C               	movf	___fldiv@a+1,w
  7771  0C78  0249               	subwf	___fldiv@rem+1,w
  7772  0C79  1D03               	skipz
  7773  0C7A  2C7D               	goto	u5545
  7774  0C7B  083B               	movf	___fldiv@a,w
  7775  0C7C  0248               	subwf	___fldiv@rem,w
  7776  0C7D                     u5545:
  7777  0C7D  1C03               	skipc
  7778  0C7E  2C80               	goto	u5541
  7779  0C7F  2C81               	goto	u5540
  7780  0C80                     u5541:
  7781  0C80  2C90               	goto	l3945
  7782  0C81                     u5540:
  7783  0C81                     l3941:
  7784  0C81  1752               	bsf	___fldiv@grs+3,6
  7785  0C82                     l3943:
  7786  0C82  083B               	movf	___fldiv@a,w
  7787  0C83  02C8               	subwf	___fldiv@rem,f
  7788  0C84  083C               	movf	___fldiv@a+1,w
  7789  0C85  1C03               	skipc
  7790  0C86  0F3C               	incfsz	___fldiv@a+1,w
  7791  0C87  02C9               	subwf	___fldiv@rem+1,f
  7792  0C88  083D               	movf	___fldiv@a+2,w
  7793  0C89  1C03               	skipc
  7794  0C8A  0F3D               	incfsz	___fldiv@a+2,w
  7795  0C8B  02CA               	subwf	___fldiv@rem+2,f
  7796  0C8C  083E               	movf	___fldiv@a+3,w
  7797  0C8D  1C03               	skipc
  7798  0C8E  0F3E               	incfsz	___fldiv@a+3,w
  7799  0C8F  02CB               	subwf	___fldiv@rem+3,f
  7800  0C90                     l3945:
  7801  0C90  3001               	movlw	1
  7802  0C91  00C3               	movwf	??___fldiv
  7803  0C92  0843               	movf	??___fldiv,w
  7804  0C93  07D4               	addwf	___fldiv@aexp,f
  7805  0C94                     l3947:
  7806  0C94  301A               	movlw	26
  7807  0C95  0254               	subwf	___fldiv@aexp,w
  7808  0C96  1C03               	skipc
  7809  0C97  2C99               	goto	u5551
  7810  0C98  2C9A               	goto	u5550
  7811  0C99                     u5551:
  7812  0C99  2C4A               	goto	l3929
  7813  0C9A                     u5550:
  7814  0C9A                     l3949:
  7815  0C9A  084B               	movf	___fldiv@rem+3,w
  7816  0C9B  044A               	iorwf	___fldiv@rem+2,w
  7817  0C9C  0449               	iorwf	___fldiv@rem+1,w
  7818  0C9D  0448               	iorwf	___fldiv@rem,w
  7819  0C9E  1903               	skipnz
  7820  0C9F  2CA1               	goto	u5561
  7821  0CA0  2CA2               	goto	u5560
  7822  0CA1                     u5561:
  7823  0CA1  2CC1               	goto	l3963
  7824  0CA2                     u5560:
  7825  0CA2                     l3951:
  7826  0CA2  144F               	bsf	___fldiv@grs,0
  7827  0CA3  2CC1               	goto	l3963
  7828  0CA4                     l3953:
  7829  0CA4  3001               	movlw	1
  7830  0CA5  00C3               	movwf	??___fldiv
  7831  0CA6                     u5575:
  7832  0CA6  1003               	clrc
  7833  0CA7  0DBF               	rlf	___fldiv@b,f
  7834  0CA8  0DC0               	rlf	___fldiv@b+1,f
  7835  0CA9  0DC1               	rlf	___fldiv@b+2,f
  7836  0CAA  0DC2               	rlf	___fldiv@b+3,f
  7837  0CAB  0BC3               	decfsz	??___fldiv,f
  7838  0CAC  2CA6               	goto	u5575
  7839  0CAD                     l3955:
  7840  0CAD  1FD2               	btfss	___fldiv@grs+3,7
  7841  0CAE  2CB0               	goto	u5581
  7842  0CAF  2CB1               	goto	u5580
  7843  0CB0                     u5581:
  7844  0CB0  2CB2               	goto	l3959
  7845  0CB1                     u5580:
  7846  0CB1                     l3957:
  7847  0CB1  143F               	bsf	___fldiv@b,0
  7848  0CB2                     l3959:
  7849  0CB2  3001               	movlw	1
  7850  0CB3  00C3               	movwf	??___fldiv
  7851  0CB4                     u5595:
  7852  0CB4  1003               	clrc
  7853  0CB5  0DCF               	rlf	___fldiv@grs,f
  7854  0CB6  0DD0               	rlf	___fldiv@grs+1,f
  7855  0CB7  0DD1               	rlf	___fldiv@grs+2,f
  7856  0CB8  0DD2               	rlf	___fldiv@grs+3,f
  7857  0CB9  0BC3               	decfsz	??___fldiv,f
  7858  0CBA  2CB4               	goto	u5595
  7859  0CBB                     l3961:
  7860  0CBB  30FF               	movlw	255
  7861  0CBC  07CD               	addwf	___fldiv@new_exp,f
  7862  0CBD  1803               	skipnc
  7863  0CBE  0ACE               	incf	___fldiv@new_exp+1,f
  7864  0CBF  30FF               	movlw	255
  7865  0CC0  07CE               	addwf	___fldiv@new_exp+1,f
  7866  0CC1                     l3963:
  7867  0CC1  1FC1               	btfss	___fldiv@b+2,7
  7868  0CC2  2CC4               	goto	u5601
  7869  0CC3  2CC5               	goto	u5600
  7870  0CC4                     u5601:
  7871  0CC4  2CA4               	goto	l3953
  7872  0CC5                     u5600:
  7873  0CC5                     l3965:
  7874  0CC5  01D4               	clrf	___fldiv@aexp
  7875  0CC6                     l3967:
  7876  0CC6  1FD2               	btfss	___fldiv@grs+3,7
  7877  0CC7  2CC9               	goto	u5611
  7878  0CC8  2CCA               	goto	u5610
  7879  0CC9                     u5611:
  7880  0CC9  2CE6               	goto	l3975
  7881  0CCA                     u5610:
  7882  0CCA                     l3969:
  7883  0CCA  30FF               	movlw	255
  7884  0CCB  054F               	andwf	___fldiv@grs,w
  7885  0CCC  00C3               	movwf	??___fldiv
  7886  0CCD  30FF               	movlw	255
  7887  0CCE  0550               	andwf	___fldiv@grs+1,w
  7888  0CCF  00C4               	movwf	??___fldiv+1
  7889  0CD0  30FF               	movlw	255
  7890  0CD1  0551               	andwf	___fldiv@grs+2,w
  7891  0CD2  00C5               	movwf	??___fldiv+2
  7892  0CD3  307F               	movlw	127
  7893  0CD4  0552               	andwf	___fldiv@grs+3,w
  7894  0CD5  00C6               	movwf	??___fldiv+3
  7895  0CD6  0846               	movf	??___fldiv+3,w
  7896  0CD7  0445               	iorwf	??___fldiv+2,w
  7897  0CD8  0444               	iorwf	??___fldiv+1,w
  7898  0CD9  0443               	iorwf	??___fldiv,w
  7899  0CDA  1903               	skipnz
  7900  0CDB  2CDD               	goto	u5621
  7901  0CDC  2CDE               	goto	u5620
  7902  0CDD                     u5621:
  7903  0CDD  2CE1               	goto	l737
  7904  0CDE                     u5620:
  7905  0CDE                     l3971:
  7906  0CDE  01D4               	clrf	___fldiv@aexp
  7907  0CDF  0AD4               	incf	___fldiv@aexp,f
  7908  0CE0  2CE6               	goto	l3975
  7909  0CE1                     l737:
  7910  0CE1  1C3F               	btfss	___fldiv@b,0
  7911  0CE2  2CE4               	goto	u5631
  7912  0CE3  2CE5               	goto	u5630
  7913  0CE4                     u5631:
  7914  0CE4  2CE6               	goto	l3975
  7915  0CE5                     u5630:
  7916  0CE5  2CDE               	goto	l3971
  7917  0CE6                     l3975:
  7918  0CE6  0854               	movf	___fldiv@aexp,w
  7919  0CE7  1903               	btfsc	3,2
  7920  0CE8  2CEA               	goto	u5641
  7921  0CE9  2CEB               	goto	u5640
  7922  0CEA                     u5641:
  7923  0CEA  2D1C               	goto	l3985
  7924  0CEB                     u5640:
  7925  0CEB                     l3977:
  7926  0CEB  3001               	movlw	1
  7927  0CEC  07BF               	addwf	___fldiv@b,f
  7928  0CED  3000               	movlw	0
  7929  0CEE  1803               	skipnc
  7930  0CEF  3001               	movlw	1
  7931  0CF0  07C0               	addwf	___fldiv@b+1,f
  7932  0CF1  3000               	movlw	0
  7933  0CF2  1803               	skipnc
  7934  0CF3  3001               	movlw	1
  7935  0CF4  07C1               	addwf	___fldiv@b+2,f
  7936  0CF5  3000               	movlw	0
  7937  0CF6  1803               	skipnc
  7938  0CF7  3001               	movlw	1
  7939  0CF8  07C2               	addwf	___fldiv@b+3,f
  7940  0CF9                     l3979:
  7941  0CF9  1C42               	btfss	___fldiv@b+3,0
  7942  0CFA  2CFC               	goto	u5651
  7943  0CFB  2CFD               	goto	u5650
  7944  0CFC                     u5651:
  7945  0CFC  2D1C               	goto	l3985
  7946  0CFD                     u5650:
  7947  0CFD                     l3981:
  7948  0CFD  083F               	movf	___fldiv@b,w
  7949  0CFE  00C3               	movwf	??___fldiv
  7950  0CFF  0840               	movf	___fldiv@b+1,w
  7951  0D00  00C4               	movwf	??___fldiv+1
  7952  0D01  0841               	movf	___fldiv@b+2,w
  7953  0D02  00C5               	movwf	??___fldiv+2
  7954  0D03  0842               	movf	___fldiv@b+3,w
  7955  0D04  00C6               	movwf	??___fldiv+3
  7956  0D05  3001               	movlw	1
  7957  0D06  00C7               	movwf	??___fldiv+4
  7958  0D07                     u5665:
  7959  0D07  0D46               	rlf	??___fldiv+3,w
  7960  0D08  0CC6               	rrf	??___fldiv+3,f
  7961  0D09  0CC5               	rrf	??___fldiv+2,f
  7962  0D0A  0CC4               	rrf	??___fldiv+1,f
  7963  0D0B  0CC3               	rrf	??___fldiv,f
  7964  0D0C                     u5660:
  7965  0D0C  0BC7               	decfsz	??___fldiv+4,f
  7966  0D0D  2D07               	goto	u5665
  7967  0D0E  0846               	movf	??___fldiv+3,w
  7968  0D0F  00C2               	movwf	___fldiv@b+3
  7969  0D10  0845               	movf	??___fldiv+2,w
  7970  0D11  00C1               	movwf	___fldiv@b+2
  7971  0D12  0844               	movf	??___fldiv+1,w
  7972  0D13  00C0               	movwf	___fldiv@b+1
  7973  0D14  0843               	movf	??___fldiv,w
  7974  0D15  00BF               	movwf	___fldiv@b
  7975  0D16                     l3983:
  7976  0D16  3001               	movlw	1
  7977  0D17  07CD               	addwf	___fldiv@new_exp,f
  7978  0D18  1803               	skipnc
  7979  0D19  0ACE               	incf	___fldiv@new_exp+1,f
  7980  0D1A  3000               	movlw	0
  7981  0D1B  07CE               	addwf	___fldiv@new_exp+1,f
  7982  0D1C                     l3985:
  7983  0D1C  084E               	movf	___fldiv@new_exp+1,w
  7984  0D1D  3A80               	xorlw	128
  7985  0D1E  00FF               	movwf	btemp+1
  7986  0D1F  3080               	movlw	128
  7987  0D20  027F               	subwf	btemp+1,w
  7988  0D21  1D03               	skipz
  7989  0D22  2D25               	goto	u5675
  7990  0D23  30FF               	movlw	255
  7991  0D24  024D               	subwf	___fldiv@new_exp,w
  7992  0D25                     u5675:
  7993  0D25  1C03               	skipc
  7994  0D26  2D28               	goto	u5671
  7995  0D27  2D29               	goto	u5670
  7996  0D28                     u5671:
  7997  0D28  2D37               	goto	l3989
  7998  0D29                     u5670:
  7999  0D29                     l3987:
  8000  0D29  30FF               	movlw	255
  8001  0D2A  1283               	bcf	3,5	;RP0=0, select bank0
  8002  0D2B  1303               	bcf	3,6	;RP1=0, select bank0
  8003  0D2C  00CD               	movwf	___fldiv@new_exp
  8004  0D2D  3000               	movlw	0
  8005  0D2E  00CE               	movwf	___fldiv@new_exp+1
  8006  0D2F  3000               	movlw	0
  8007  0D30  00C2               	movwf	___fldiv@b+3
  8008  0D31  3000               	movlw	0
  8009  0D32  00C1               	movwf	___fldiv@b+2
  8010  0D33  3000               	movlw	0
  8011  0D34  00C0               	movwf	___fldiv@b+1
  8012  0D35  3000               	movlw	0
  8013  0D36  00BF               	movwf	___fldiv@b
  8014  0D37                     l3989:
  8015  0D37  1283               	bcf	3,5	;RP0=0, select bank0
  8016  0D38  1303               	bcf	3,6	;RP1=0, select bank0
  8017  0D39  084E               	movf	___fldiv@new_exp+1,w
  8018  0D3A  3A80               	xorlw	128
  8019  0D3B  00FF               	movwf	btemp+1
  8020  0D3C  3080               	movlw	128
  8021  0D3D  027F               	subwf	btemp+1,w
  8022  0D3E  1D03               	skipz
  8023  0D3F  2D42               	goto	u5685
  8024  0D40  3001               	movlw	1
  8025  0D41  024D               	subwf	___fldiv@new_exp,w
  8026  0D42                     u5685:
  8027  0D42  1803               	skipnc
  8028  0D43  2D45               	goto	u5681
  8029  0D44  2D46               	goto	u5680
  8030  0D45                     u5681:
  8031  0D45  2D53               	goto	l743
  8032  0D46                     u5680:
  8033  0D46                     l3991:
  8034  0D46  1283               	bcf	3,5	;RP0=0, select bank0
  8035  0D47  1303               	bcf	3,6	;RP1=0, select bank0
  8036  0D48  01CD               	clrf	___fldiv@new_exp
  8037  0D49  01CE               	clrf	___fldiv@new_exp+1
  8038  0D4A                     l3993:
  8039  0D4A  3000               	movlw	0
  8040  0D4B  00C2               	movwf	___fldiv@b+3
  8041  0D4C  3000               	movlw	0
  8042  0D4D  00C1               	movwf	___fldiv@b+2
  8043  0D4E  3000               	movlw	0
  8044  0D4F  00C0               	movwf	___fldiv@b+1
  8045  0D50  3000               	movlw	0
  8046  0D51  00BF               	movwf	___fldiv@b
  8047  0D52                     l3995:
  8048  0D52  01CC               	clrf	___fldiv@sign
  8049  0D53                     l743:
  8050  0D53  1283               	bcf	3,5	;RP0=0, select bank0
  8051  0D54  1303               	bcf	3,6	;RP1=0, select bank0
  8052  0D55  084D               	movf	___fldiv@new_exp,w
  8053  0D56  00C3               	movwf	??___fldiv
  8054  0D57  0843               	movf	??___fldiv,w
  8055  0D58  00D3               	movwf	___fldiv@bexp
  8056  0D59                     l3997:
  8057  0D59  1C53               	btfss	___fldiv@bexp,0
  8058  0D5A  2D5C               	goto	u5691
  8059  0D5B  2D5D               	goto	u5690
  8060  0D5C                     u5691:
  8061  0D5C  2D5F               	goto	l4001
  8062  0D5D                     u5690:
  8063  0D5D                     l3999:
  8064  0D5D  17C1               	bsf	___fldiv@b+2,7
  8065  0D5E  2D63               	goto	l745
  8066  0D5F                     l4001:
  8067  0D5F  307F               	movlw	127
  8068  0D60  00C3               	movwf	??___fldiv
  8069  0D61  0843               	movf	??___fldiv,w
  8070  0D62  05C1               	andwf	___fldiv@b+2,f
  8071  0D63                     l745:
  8072  0D63  0853               	movf	___fldiv@bexp,w
  8073  0D64  00C3               	movwf	??___fldiv
  8074  0D65  1003               	clrc
  8075  0D66  0C43               	rrf	??___fldiv,w
  8076  0D67  00C4               	movwf	??___fldiv+1
  8077  0D68  0844               	movf	??___fldiv+1,w
  8078  0D69  00C2               	movwf	___fldiv@b+3
  8079  0D6A  084C               	movf	___fldiv@sign,w
  8080  0D6B  00C3               	movwf	??___fldiv
  8081  0D6C  0843               	movf	??___fldiv,w
  8082  0D6D  04C2               	iorwf	___fldiv@b+3,f
  8083  0D6E  2C07               	goto	l3909
  8084  0D6F                     l723:
  8085  0D6F  0008               	return
  8086  0D70                     __end_of___fldiv:
  8087                           
  8088                           	psect	text23
  8089  0792                     __ptext23:	
  8090 ;; *************** function ___awdiv *****************
  8091 ;; Defined at:
  8092 ;;		line 5 in file "C:\Program Files\Microchip\xc8\v2.31\pic\sources\c90\common\awdiv.c"
  8093 ;; Parameters:    Size  Location     Type
  8094 ;;  divisor         2    3[COMMON] int 
  8095 ;;  dividend        2    5[COMMON] int 
  8096 ;; Auto vars:     Size  Location     Type
  8097 ;;  quotient        2    2[BANK0 ] int 
  8098 ;;  sign            1    1[BANK0 ] unsigned char 
  8099 ;;  counter         1    0[BANK0 ] unsigned char 
  8100 ;; Return value:  Size  Location     Type
  8101 ;;                  2    3[COMMON] int 
  8102 ;; Registers used:
  8103 ;;		wreg, status,2, status,0
  8104 ;; Tracked objects:
  8105 ;;		On entry : 0/0
  8106 ;;		On exit  : 0/0
  8107 ;;		Unchanged: 0/0
  8108 ;; Data sizes:     COMMON   BANK0   BANK1   BANK3   BANK2
  8109 ;;      Params:         4       0       0       0       0
  8110 ;;      Locals:         0       4       0       0       0
  8111 ;;      Temps:          1       0       0       0       0
  8112 ;;      Totals:         5       4       0       0       0
  8113 ;;Total ram usage:        9 bytes
  8114 ;; Hardware stack levels used:    1
  8115 ;; Hardware stack levels required when called:    1
  8116 ;; This function calls:
  8117 ;;		Nothing
  8118 ;; This function is called by:
  8119 ;;		_convert
  8120 ;; This function uses a non-reentrant model
  8121 ;;
  8122                           
  8123                           
  8124                           ;psect for function ___awdiv
  8125  0792                     ___awdiv:
  8126  0792                     l3759:	
  8127                           ;incstack = 0
  8128                           ; Regs used in ___awdiv: [wreg+status,2+status,0]
  8129                           
  8130  0792  1283               	bcf	3,5	;RP0=0, select bank0
  8131  0793  1303               	bcf	3,6	;RP1=0, select bank0
  8132  0794  01A1               	clrf	___awdiv@sign
  8133  0795                     l3761:
  8134  0795  1FF4               	btfss	___awdiv@divisor+1,7
  8135  0796  2F98               	goto	u5141
  8136  0797  2F99               	goto	u5140
  8137  0798                     u5141:
  8138  0798  2FA0               	goto	l3767
  8139  0799                     u5140:
  8140  0799                     l3763:
  8141  0799  09F3               	comf	___awdiv@divisor,f
  8142  079A  09F4               	comf	___awdiv@divisor+1,f
  8143  079B  0AF3               	incf	___awdiv@divisor,f
  8144  079C  1903               	skipnz
  8145  079D  0AF4               	incf	___awdiv@divisor+1,f
  8146  079E                     l3765:
  8147  079E  01A1               	clrf	___awdiv@sign
  8148  079F  0AA1               	incf	___awdiv@sign,f
  8149  07A0                     l3767:
  8150  07A0  1FF6               	btfss	___awdiv@dividend+1,7
  8151  07A1  2FA3               	goto	u5151
  8152  07A2  2FA4               	goto	u5150
  8153  07A3                     u5151:
  8154  07A3  2FAD               	goto	l3773
  8155  07A4                     u5150:
  8156  07A4                     l3769:
  8157  07A4  09F5               	comf	___awdiv@dividend,f
  8158  07A5  09F6               	comf	___awdiv@dividend+1,f
  8159  07A6  0AF5               	incf	___awdiv@dividend,f
  8160  07A7  1903               	skipnz
  8161  07A8  0AF6               	incf	___awdiv@dividend+1,f
  8162  07A9                     l3771:
  8163  07A9  3001               	movlw	1
  8164  07AA  00F7               	movwf	??___awdiv
  8165  07AB  0877               	movf	??___awdiv,w
  8166  07AC  06A1               	xorwf	___awdiv@sign,f
  8167  07AD                     l3773:
  8168  07AD  01A2               	clrf	___awdiv@quotient
  8169  07AE  01A3               	clrf	___awdiv@quotient+1
  8170  07AF                     l3775:
  8171  07AF  0873               	movf	___awdiv@divisor,w
  8172  07B0  0474               	iorwf	___awdiv@divisor+1,w
  8173  07B1  1903               	btfsc	3,2
  8174  07B2  2FB4               	goto	u5161
  8175  07B3  2FB5               	goto	u5160
  8176  07B4                     u5161:
  8177  07B4  2FEC               	goto	l3795
  8178  07B5                     u5160:
  8179  07B5                     l3777:
  8180  07B5  01A0               	clrf	___awdiv@counter
  8181  07B6  0AA0               	incf	___awdiv@counter,f
  8182  07B7  2FC3               	goto	l3783
  8183  07B8                     l3779:
  8184  07B8  3001               	movlw	1
  8185  07B9                     u5175:
  8186  07B9  1003               	clrc
  8187  07BA  0DF3               	rlf	___awdiv@divisor,f
  8188  07BB  0DF4               	rlf	___awdiv@divisor+1,f
  8189  07BC  3EFF               	addlw	-1
  8190  07BD  1D03               	skipz
  8191  07BE  2FB9               	goto	u5175
  8192  07BF                     l3781:
  8193  07BF  3001               	movlw	1
  8194  07C0  00F7               	movwf	??___awdiv
  8195  07C1  0877               	movf	??___awdiv,w
  8196  07C2  07A0               	addwf	___awdiv@counter,f
  8197  07C3                     l3783:
  8198  07C3  1FF4               	btfss	___awdiv@divisor+1,7
  8199  07C4  2FC6               	goto	u5181
  8200  07C5  2FC7               	goto	u5180
  8201  07C6                     u5181:
  8202  07C6  2FB8               	goto	l3779
  8203  07C7                     u5180:
  8204  07C7                     l3785:
  8205  07C7  3001               	movlw	1
  8206  07C8                     u5195:
  8207  07C8  1003               	clrc
  8208  07C9  0DA2               	rlf	___awdiv@quotient,f
  8209  07CA  0DA3               	rlf	___awdiv@quotient+1,f
  8210  07CB  3EFF               	addlw	-1
  8211  07CC  1D03               	skipz
  8212  07CD  2FC8               	goto	u5195
  8213  07CE  0874               	movf	___awdiv@divisor+1,w
  8214  07CF  0276               	subwf	___awdiv@dividend+1,w
  8215  07D0  1D03               	skipz
  8216  07D1  2FD4               	goto	u5205
  8217  07D2  0873               	movf	___awdiv@divisor,w
  8218  07D3  0275               	subwf	___awdiv@dividend,w
  8219  07D4                     u5205:
  8220  07D4  1C03               	skipc
  8221  07D5  2FD7               	goto	u5201
  8222  07D6  2FD8               	goto	u5200
  8223  07D7                     u5201:
  8224  07D7  2FDF               	goto	l3791
  8225  07D8                     u5200:
  8226  07D8                     l3787:
  8227  07D8  0873               	movf	___awdiv@divisor,w
  8228  07D9  02F5               	subwf	___awdiv@dividend,f
  8229  07DA  0874               	movf	___awdiv@divisor+1,w
  8230  07DB  1C03               	skipc
  8231  07DC  03F6               	decf	___awdiv@dividend+1,f
  8232  07DD  02F6               	subwf	___awdiv@dividend+1,f
  8233  07DE                     l3789:
  8234  07DE  1422               	bsf	___awdiv@quotient,0
  8235  07DF                     l3791:
  8236  07DF  3001               	movlw	1
  8237  07E0                     u5215:
  8238  07E0  1003               	clrc
  8239  07E1  0CF4               	rrf	___awdiv@divisor+1,f
  8240  07E2  0CF3               	rrf	___awdiv@divisor,f
  8241  07E3  3EFF               	addlw	-1
  8242  07E4  1D03               	skipz
  8243  07E5  2FE0               	goto	u5215
  8244  07E6                     l3793:
  8245  07E6  3001               	movlw	1
  8246  07E7  02A0               	subwf	___awdiv@counter,f
  8247  07E8  1D03               	btfss	3,2
  8248  07E9  2FEB               	goto	u5221
  8249  07EA  2FEC               	goto	u5220
  8250  07EB                     u5221:
  8251  07EB  2FC7               	goto	l3785
  8252  07EC                     u5220:
  8253  07EC                     l3795:
  8254  07EC  0821               	movf	___awdiv@sign,w
  8255  07ED  1903               	btfsc	3,2
  8256  07EE  2FF0               	goto	u5231
  8257  07EF  2FF1               	goto	u5230
  8258  07F0                     u5231:
  8259  07F0  2FF6               	goto	l3799
  8260  07F1                     u5230:
  8261  07F1                     l3797:
  8262  07F1  09A2               	comf	___awdiv@quotient,f
  8263  07F2  09A3               	comf	___awdiv@quotient+1,f
  8264  07F3  0AA2               	incf	___awdiv@quotient,f
  8265  07F4  1903               	skipnz
  8266  07F5  0AA3               	incf	___awdiv@quotient+1,f
  8267  07F6                     l3799:
  8268  07F6  0823               	movf	___awdiv@quotient+1,w
  8269  07F7  00F4               	movwf	?___awdiv+1
  8270  07F8  0822               	movf	___awdiv@quotient,w
  8271  07F9  00F3               	movwf	?___awdiv
  8272  07FA                     l525:
  8273  07FA  0008               	return
  8274  07FB                     __end_of___awdiv:
  8275                           
  8276                           	psect	text24
  8277  1515                     __ptext24:	
  8278 ;; *************** function _isr *****************
  8279 ;; Defined at:
  8280 ;;		line 182 in file "Lab05.c"
  8281 ;; Parameters:    Size  Location     Type
  8282 ;;		None
  8283 ;; Auto vars:     Size  Location     Type
  8284 ;;		None
  8285 ;; Return value:  Size  Location     Type
  8286 ;;                  1    wreg      void 
  8287 ;; Registers used:
  8288 ;;		wreg, status,2, status,0
  8289 ;; Tracked objects:
  8290 ;;		On entry : 0/0
  8291 ;;		On exit  : 0/0
  8292 ;;		Unchanged: 0/0
  8293 ;; Data sizes:     COMMON   BANK0   BANK1   BANK3   BANK2
  8294 ;;      Params:         0       0       0       0       0
  8295 ;;      Locals:         0       0       0       0       0
  8296 ;;      Temps:          3       0       0       0       0
  8297 ;;      Totals:         3       0       0       0       0
  8298 ;;Total ram usage:        3 bytes
  8299 ;; Hardware stack levels used:    1
  8300 ;; This function calls:
  8301 ;;		Nothing
  8302 ;; This function is called by:
  8303 ;;		Interrupt level 1
  8304 ;; This function uses a non-reentrant model
  8305 ;;
  8306                           
  8307                           
  8308                           ;psect for function _isr
  8309  1515                     _isr:
  8310  1515                     i1l3315:
  8311                           
  8312                           ;Lab05.c: 184:    if (INTCONbits.RBIF == 1){
  8313  1515  1C0B               	btfss	11,0	;volatile
  8314  1516  2D18               	goto	u434_21
  8315  1517  2D19               	goto	u434_20
  8316  1518                     u434_21:
  8317  1518  2D39               	goto	i1l240
  8318  1519                     u434_20:
  8319  1519                     i1l3317:
  8320                           
  8321                           ;Lab05.c: 186:        if(PORTBbits.RB0 == 1){
  8322  1519  1283               	bcf	3,5	;RP0=0, select bank0
  8323  151A  1303               	bcf	3,6	;RP1=0, select bank0
  8324  151B  1C06               	btfss	6,0	;volatile
  8325  151C  2D1E               	goto	u435_21
  8326  151D  2D1F               	goto	u435_20
  8327  151E                     u435_21:
  8328  151E  2D2A               	goto	i1l3323
  8329  151F                     u435_20:
  8330  151F                     i1l3319:
  8331                           
  8332                           ;Lab05.c: 187:            contador++;
  8333  151F  3001               	movlw	1
  8334  1520  00F0               	movwf	??_isr
  8335  1521  0870               	movf	??_isr,w
  8336  1522  1683               	bsf	3,5	;RP0=1, select bank1
  8337  1523  1303               	bcf	3,6	;RP1=0, select bank1
  8338  1524  07CA               	addwf	_contador^(0+128),f
  8339  1525                     i1l3321:
  8340                           
  8341                           ;Lab05.c: 188:            contador = contador & 0x0f;
  8342  1525  084A               	movf	_contador^(0+128),w
  8343  1526  390F               	andlw	15
  8344  1527  00F0               	movwf	??_isr
  8345  1528  0870               	movf	??_isr,w
  8346  1529  00CA               	movwf	_contador^(0+128)
  8347  152A                     i1l3323:
  8348                           
  8349                           ;Lab05.c: 190:        if(PORTBbits.RB1 == 1){
  8350  152A  1283               	bcf	3,5	;RP0=0, select bank0
  8351  152B  1C86               	btfss	6,1	;volatile
  8352  152C  2D2E               	goto	u436_21
  8353  152D  2D2F               	goto	u436_20
  8354  152E                     u436_21:
  8355  152E  2D38               	goto	i1l3329
  8356  152F                     u436_20:
  8357  152F                     i1l3325:
  8358                           
  8359                           ;Lab05.c: 191:            contador--;
  8360  152F  3001               	movlw	1
  8361  1530  1683               	bsf	3,5	;RP0=1, select bank1
  8362  1531  1303               	bcf	3,6	;RP1=0, select bank1
  8363  1532  02CA               	subwf	_contador^(0+128),f
  8364  1533                     i1l3327:
  8365                           
  8366                           ;Lab05.c: 192:            contador = contador & 0x0f;
  8367  1533  084A               	movf	_contador^(0+128),w
  8368  1534  390F               	andlw	15
  8369  1535  00F0               	movwf	??_isr
  8370  1536  0870               	movf	??_isr,w
  8371  1537  00CA               	movwf	_contador^(0+128)
  8372  1538                     i1l3329:
  8373                           
  8374                           ;Lab05.c: 194:        INTCONbits.RBIF = 0;
  8375  1538  100B               	bcf	11,0	;volatile
  8376  1539                     i1l240:
  8377  1539  0872               	movf	??_isr+2,w
  8378  153A  008A               	movwf	10
  8379  153B  0E71               	swapf	??_isr+1,w
  8380  153C  0083               	movwf	3
  8381  153D  0EFE               	swapf	btemp,f
  8382  153E  0E7E               	swapf	btemp,w
  8383  153F  0009               	retfie
  8384  1540                     __end_of_isr:
  8385  0002                     
  8386                           	psect	intentry
  8387  0004                     __pintentry:	
  8388                           ;incstack = 0
  8389                           ; Regs used in _isr: [wreg+status,2+status,0]
  8390                           
  8391  0004                     interrupt_function:
  8392  007E                     saved_w	set	btemp
  8393  0004  00FE               	movwf	btemp
  8394  0005  0E03               	swapf	3,w
  8395  0006  00F1               	movwf	??_isr+1
  8396  0007  080A               	movf	10,w
  8397  0008  00F2               	movwf	??_isr+2
  8398  0009  160A  118A  2D15   	ljmp	_isr
  8399                           
  8400                           	psect	functab
  8401  0034                     __pfunctab:
  8402  0034                     __fptable:
  8403  0034                     fptable:
  8404  0034  00FF               	movwf	(btemp+1)& (0+127)
  8405  0035  3000               	movlw	high fptable
  8406  0036  008A               	movwf	10
  8407  0037  087F               	movf	(btemp+1)& (0+127),w
  8408  0038  0782               	addwf	2,f
  8409  0039                     fpbase:
  8410  0039  2839               	goto	fpbase	; Call via a null pointer and you will get stuck here.
  8411  003A                     fp__putch:
  8412  003A  160A  118A  2BFD   	ljmp	_putch
  8413  003D                     __end_of__fptable:
  8414  007E                     btemp	set	126	;btemp
  8415  007E                     wtemp0	set	126
  8416                           
  8417                           	psect	config
  8418                           
  8419                           ;Config register CONFIG1 @ 0x2007
  8420                           ;	Oscillator Selection bits
  8421                           ;	FOSC = INTRC_NOCLKOUT, INTOSCIO oscillator: I/O function on RA6/OSC2/CLKOUT pin, I/O f
      +                          unction on RA7/OSC1/CLKIN
  8422                           ;	Watchdog Timer Enable bit
  8423                           ;	WDTE = OFF, WDT disabled and can be enabled by SWDTEN bit of the WDTCON register
  8424                           ;	Power-up Timer Enable bit
  8425                           ;	PWRTE = ON, PWRT enabled
  8426                           ;	RE3/MCLR pin function select bit
  8427                           ;	MCLRE = OFF, RE3/MCLR pin function is digital input, MCLR internally tied to VDD
  8428                           ;	Code Protection bit
  8429                           ;	CP = OFF, Program memory code protection is disabled
  8430                           ;	Data Code Protection bit
  8431                           ;	CPD = OFF, Data memory code protection is disabled
  8432                           ;	Brown Out Reset Selection bits
  8433                           ;	BOREN = OFF, BOR disabled
  8434                           ;	Internal External Switchover bit
  8435                           ;	IESO = OFF, Internal/External Switchover mode is disabled
  8436                           ;	Fail-Safe Clock Monitor Enabled bit
  8437                           ;	FCMEN = OFF, Fail-Safe Clock Monitor is disabled
  8438                           ;	Low Voltage Programming Enable bit
  8439                           ;	LVP = OFF, RB3 pin has digital I/O, HV on MCLR must be used for programming
  8440                           ;	In-Circuit Debugger Mode bit
  8441                           ;	DEBUG = 0x1, unprogrammed default
  8442  2007                     	org	8199
  8443  2007  20C4               	dw	8388
  8444                           
  8445                           ;Config register CONFIG2 @ 0x2008
  8446                           ;	Brown-out Reset Selection bit
  8447                           ;	BOR4V = BOR40V, Brown-out Reset set to 4.0V
  8448                           ;	Flash Program Memory Self Write Enable bits
  8449                           ;	WRT = OFF, Write protection off
  8450  2008                     	org	8200
  8451  2008  3FFF               	dw	16383

Data Sizes:
    Strings     138
    Constant    10
    Data        16
    BSS         17
    Persistent  0
    Stack       0

Auto Spaces:
    Space          Size  Autos    Used
    COMMON           14      8      11
    BANK0            80     77      77
    BANK1            80     23      53
    BANK3            96      0       0
    BANK2            96      0       0

Pointer List with Targets:

    strcat@from	PTR const unsigned char  size(1) Largest target is 20
		 -> concatenar@s2(BANK0[20]), 

    strcat@to	PTR unsigned char  size(1) Largest target is 20
		 -> concatenar@s1(BANK0[20]), 

    strcat@cp	PTR unsigned char  size(1) Largest target is 20
		 -> concatenar@s1(BANK0[20]), 

    sprintf@f	PTR const unsigned char  size(1) Largest target is 3
		 -> STR_8(CODE[3]), STR_7(CODE[3]), 

    sprintf@ap	PTR void [1] size(1) Largest target is 2
		 -> ?_sprintf(BANK0[2]), ?_printf(BANK0[2]), 

    sprintf@wh	PTR unsigned char  size(1) Largest target is 20
		 -> concatenar@s2(BANK0[20]), concatenar@s1(BANK0[20]), 

    pb.func	PTR FTN(unsigned char ,)void  size(1) Largest target is 1
		 -> Absolute function(), putch(), 

    pb.ptr	PTR unsigned char  size(1) Largest target is 20
		 -> NULL(NULL[0]), concatenar@s2(BANK0[20]), concatenar@s1(BANK0[20]), 

    _doprnt@ap	PTR PTR void  size(1) Largest target is 1
		 -> sprintf@ap(BANK0[1]), printf@ap(BANK0[1]), 

    _doprnt@f	PTR const unsigned char  size(2) Largest target is 30
		 -> STR_8(CODE[3]), STR_7(CODE[3]), STR_6(CODE[25]), STR_5(CODE[21]), 
		 -> STR_4(CODE[20]), STR_3(CODE[30]), STR_2(CODE[18]), STR_1(CODE[24]), 
		 -> contador_string(BANK1[10]), 

    _doprnt@pb.func	PTR FTN(unsigned char ,)void  size(1) Largest target is 1
		 -> Absolute function(), putch(), 

    _doprnt@pb.ptr	PTR unsigned char  size(1) Largest target is 20
		 -> NULL(NULL[0]), concatenar@s2(BANK0[20]), concatenar@s1(BANK0[20]), 

    _doprnt@pb	PTR struct __prbuf size(1) Largest target is 3
		 -> sprintf@pb(BANK0[2]), printf@pb(BANK0[2]), 

    printf@f	PTR const unsigned char  size(2) Largest target is 30
		 -> STR_6(CODE[25]), STR_5(CODE[21]), STR_4(CODE[20]), STR_3(CODE[30]), 
		 -> STR_2(CODE[18]), STR_1(CODE[24]), contador_string(BANK1[10]), 

    printf@ap	PTR void [1] size(1) Largest target is 2
		 -> ?_sprintf(BANK0[2]), ?_printf(BANK0[2]), 

    S1131__prbuf$func	PTR FTN(unsigned char ,)void  size(1) Largest target is 1
		 -> Absolute function(), putch(), 

    pb.func	PTR FTN(unsigned char ,)void  size(1) Largest target is 1
		 -> Absolute function(), putch(), 

    S1131__prbuf$ptr	PTR unsigned char  size(1) Largest target is 20
		 -> NULL(NULL[0]), concatenar@s2(BANK0[20]), concatenar@s1(BANK0[20]), 

    pb.ptr	PTR unsigned char  size(1) Largest target is 20
		 -> NULL(NULL[0]), concatenar@s2(BANK0[20]), concatenar@s1(BANK0[20]), 

    atoi@s	PTR const unsigned char  size(1) Largest target is 20
		 -> concatenar@s1(BANK0[20]), 

    sp__strcat	PTR unsigned char  size(1) Largest target is 20
		 -> concatenar@s1(BANK0[20]), 

    convert@data	PTR unsigned char  size(1) Largest target is 10
		 -> contador_string(BANK1[10]), 


Critical Paths under _main in COMMON

    __doprnt->___lwdiv
    ___lwmod->___lwdiv
    _convert->___awdiv
    ___xxtofl->___fltol
    ___wmul->___fltol
    ___flsub->___fladd
    ___flsub->___fltol
    ___flmul->__Umul8_16
    ___flmul->___fltol

Critical Paths under _isr in COMMON

    None.

Critical Paths under _main in BANK0

    _mensaje->_concatenar
    _printf->__doprnt
    _concatenar->_sprintf
    _sprintf->__doprnt
    __doprnt->___lwmod
    ___lwmod->___lwdiv
    _atoi->___wmul
    _convert->___flmul
    ___xxtofl->___wmul
    ___wmul->___fltol
    ___flsub->___xxtofl
    ___flmul->___flsub
    ___fldiv->___xxtofl

Critical Paths under _isr in BANK0

    None.

Critical Paths under _main in BANK1

    _main->_convert

Critical Paths under _isr in BANK1

    None.

Critical Paths under _main in BANK3

    None.

Critical Paths under _isr in BANK3

    None.

Critical Paths under _main in BANK2

    None.

Critical Paths under _isr in BANK2

    None.

Call Graph Tables:

 ---------------------------------------------------------------------------------
 (Depth) Function   	        Calls       Base Space   Used Autos Params    Refs
 ---------------------------------------------------------------------------------
 (0) _main                                                 8     8      0   25636
                                             15 BANK1      8     8      0
                           ___xxtofl
                            _convert
                            _mensaje
                              _setup
 ---------------------------------------------------------------------------------
 (1) _setup                                                0     0      0       0
 ---------------------------------------------------------------------------------
 (1) _mensaje                                              5     5      0    9074
                                              0 BANK1      5     5      0
                         _concatenar
                             _printf
 ---------------------------------------------------------------------------------
 (2) _printf                                               8     4      4    3407
                                             22 BANK0      8     4      4
                            __doprnt
 ---------------------------------------------------------------------------------
 (2) _concatenar                                          47    43      4    5667
                                             30 BANK0     47    43      4
                               _atoi
                            _sprintf
                             _strcat
 ---------------------------------------------------------------------------------
 (3) _strcat                                               4     3      1     207
                                              3 COMMON     4     3      1
 ---------------------------------------------------------------------------------
 (3) _sprintf                                              8     5      3    3105
                                             22 BANK0      8     5      3
                            __doprnt
 ---------------------------------------------------------------------------------
 (3) __doprnt                                             21    18      3    2575
                                              9 BANK0     13    10      3
                   Absolute function *
                            ___lwdiv
                            ___lwmod
                              _putch *
 ---------------------------------------------------------------------------------
 (4) _putch                                                1     0      1     234
                                              3 COMMON     1     0      1
 ---------------------------------------------------------------------------------
 (4) ___lwmod                                              6     2      4     311
                                              3 BANK0      6     2      4
                            ___lwdiv (ARG)
 ---------------------------------------------------------------------------------
 (4) ___lwdiv                                              8     4      4     421
                                              3 COMMON     5     1      4
                                              0 BANK0      3     3      0
 ---------------------------------------------------------------------------------
 (4) Absolute function(Fake)                               1     0      1       0
 ---------------------------------------------------------------------------------
 (3) _atoi                                                 8     6      2    1654
                                             13 BANK0      8     6      2
                             ___wmul
                            _isdigit
 ---------------------------------------------------------------------------------
 (4) _isdigit                                              2     2      0      68
                                              3 COMMON     2     2      0
 ---------------------------------------------------------------------------------
 (1) _convert                                             23    17      6   15422
                                             61 BANK0      8     2      6
                                              0 BANK1     15    15      0
                            ___awdiv
                            ___fldiv
                             ___flge
                            ___flmul
                            ___flsub
                            ___fltol
                             ___wmul
                           ___xxtofl
 ---------------------------------------------------------------------------------
 (2) ___xxtofl                                            14    10      4    1106
                                             13 BANK0     14    10      4
                            ___fltol (ARG)
                             ___wmul (ARG)
 ---------------------------------------------------------------------------------
 (4) ___wmul                                               6     2      4    1216
                                              7 BANK0      6     2      4
                            ___fltol (ARG)
 ---------------------------------------------------------------------------------
 (2) ___fltol                                             11     7      4     967
                                              3 COMMON     4     0      4
                                              0 BANK0      7     7      0
 ---------------------------------------------------------------------------------
 (2) ___flsub                                              8     0      8    3727
                                             27 BANK0      8     0      8
                            ___fladd
                            ___fltol (ARG)
                             ___wmul (ARG)
                           ___xxtofl (ARG)
 ---------------------------------------------------------------------------------
 (3) ___fladd                                             20    12      8    3122
                                              3 COMMON     4     4      0
                                              0 BANK0     16     8      8
 ---------------------------------------------------------------------------------
 (2) ___flmul                                             26    18      8    3533
                                             35 BANK0     26    18      8
                          __Umul8_16
                            ___flsub (ARG)
                            ___fltol (ARG)
                           ___xxtofl (ARG)
 ---------------------------------------------------------------------------------
 (3) __Umul8_16                                            9     7      2     980
                                              3 COMMON     4     2      2
                                              0 BANK0      5     5      0
 ---------------------------------------------------------------------------------
 (2) ___flge                                              12     4      8     446
                                              3 COMMON     4     4      0
                                              0 BANK0      8     0      8
 ---------------------------------------------------------------------------------
 (2) ___fldiv                                             26    18      8    2043
                                             27 BANK0     26    18      8
                           ___xxtofl (ARG)
 ---------------------------------------------------------------------------------
 (2) ___awdiv                                              9     5      4     625
                                              3 COMMON     5     1      4
                                              0 BANK0      4     4      0
 ---------------------------------------------------------------------------------
 Estimated maximum stack depth 4
 ---------------------------------------------------------------------------------
 (Depth) Function   	        Calls       Base Space   Used Autos Params    Refs
 ---------------------------------------------------------------------------------
 (6) _isr                                                  3     3      0       0
                                              0 COMMON     3     3      0
 ---------------------------------------------------------------------------------
 Estimated maximum stack depth 6
 ---------------------------------------------------------------------------------

 Call Graph Graphs:

 _main (ROOT)
   ___xxtofl
     ___fltol (ARG)
     ___wmul (ARG)
       ___fltol (ARG)
   _convert
     ___awdiv
     ___fldiv
       ___xxtofl (ARG)
         ___fltol (ARG)
         ___wmul (ARG)
           ___fltol (ARG)
     ___flge
     ___flmul
       __Umul8_16
       ___flsub (ARG)
         ___fladd
         ___fltol (ARG)
         ___wmul (ARG)
           ___fltol (ARG)
         ___xxtofl (ARG)
           ___fltol (ARG)
           ___wmul (ARG)
             ___fltol (ARG)
       ___fltol (ARG)
       ___xxtofl (ARG)
         ___fltol (ARG)
         ___wmul (ARG)
           ___fltol (ARG)
     ___flsub
       ___fladd
       ___fltol (ARG)
       ___wmul (ARG)
         ___fltol (ARG)
       ___xxtofl (ARG)
         ___fltol (ARG)
         ___wmul (ARG)
           ___fltol (ARG)
     ___fltol
     ___wmul
       ___fltol (ARG)
     ___xxtofl
       ___fltol (ARG)
       ___wmul (ARG)
         ___fltol (ARG)
   _mensaje
     _concatenar
       _atoi
         ___wmul
           ___fltol (ARG)
         _isdigit
       _sprintf
         __doprnt
           Absolute function(Fake) *
           ___lwdiv *
           ___lwmod *
             ___lwdiv (ARG)
           _putch *
       _strcat
     _printf
       __doprnt
         Absolute function(Fake) *
         ___lwdiv *
         ___lwmod *
           ___lwdiv (ARG)
         _putch *
   _setup

 _isr (ROOT)

 Address spaces:
Name               Size   Autos  Total    Cost      Usage
BANK3               60      0       0       9        0.0%
BITBANK3            60      0       0       8        0.0%
SFR3                 0      0       0       4        0.0%
BITSFR3              0      0       0       4        0.0%
BANK2               60      0       0      11        0.0%
BITBANK2            60      0       0      10        0.0%
SFR2                 0      0       0       5        0.0%
BITSFR2              0      0       0       5        0.0%
BANK1               50     17      35       7       66.2%
BITBANK1            50      0       0       6        0.0%
SFR1                 0      0       0       2        0.0%
BITSFR1              0      0       0       2        0.0%
BANK0               50     4D      4D       5       96.2%
BITBANK0            50      0       0       4        0.0%
SFR0                 0      0       0       1        0.0%
BITSFR0              0      0       0       1        0.0%
COMMON               E      8       B       1       78.6%
BITCOMMON            E      0       0       0        0.0%
CODE                 0      0       0       0        0.0%
DATA                 0      0      8D      12        0.0%
ABS                  0      0      8D       3        0.0%
NULL                 0      0       0       0        0.0%
STACK                0      0       0       2        0.0%
EEDATA             100      0       0       0        0.0%


Microchip Technology PIC Macro Assembler V2.31 build 20201012212115 
Symbol Table                                                                                   Wed Aug 18 21:49:11 2021

           ___fldiv@aexp 0054             ___fldiv@bexp 0053                        pc 0002  
           ___fldiv@sign 004C             ___awdiv@sign 0021                       fsr 0004  
    ___wmul@multiplicand 0029              concatenar@a 003E              concatenar@b 0040  
            concatenar@c 006B      __Umul8_16@word_mpld 0022                      l122 0430  
                    l252 0948                      l280 13FD                      l274 0A29  
                    l283 1405                      l267 098B                      l259 0966  
                    l372 14AA                      l525 07FA                      l277 0843  
                    l550 17FF                      l374 14C2                      l286 156B  
                    l711 149B                      l721 0BEF                      l546 177A  
                    l723 0D6F                      l707 0FF3                      l811 08AD  
                    l708 0FFF                      l644 15ED                      l549 17E6  
                    l565 16C3                      l805 0868                      l558 16D8  
                    l654 15A7                      l743 0D53                      l671 0E51  
                    l807 08FF                      l568 16D8                      l840 1427  
                    l745 0D63                      l737 0CE1                      l761 0791  
                    l665 0DD3                      l690 0F71                      l818 08C9  
                    l819 08D5                      l835 175B                      l907 1514  
                    l780 14D9                      l773 0785                      l669 0E7C  
                    l782 14EB                      l686 0F4D                      l678 0FFF  
                    l767 06FD                      l696 0F93                      l849 1454  
                    l699 0FD1                      l891 0B92                      l898 1477  
                    _isr 1515                      fsr0 0004                      indf 0000  
           ___flmul@aexp 0051             ___flmul@bexp 0056             concatenar@s1 0057  
           concatenar@s2 0043             ___flmul@sign 0050             ___flmul@temp 005B  
           ___flmul@prod 0057             ___fltol@exp1 0026                     l2301 1590  
                   l2303 1596                     l4001 0D5F                     l2305 159D  
                   l4011 043E                     l2331 1424                     l2307 15A3  
                   l4101 06D7                     l4021 0455                     l4013 0442  
                   l2333 1426                     l2325 1417                     l4111 06FA  
                   l4103 06DD                     l4031 046E                     l4023 0457  
                   l4015 0443                     l4007 0431                     l2327 1418  
                   l2431 14F2                     l4121 0719                     l4105 06E1  
                   l4041 0483                     l4033 046F                     l4025 045F  
                   l4017 0448                     l4009 0438                     l3401 14BE  
                   l4201 005D                     l2329 141E                     l2257 13FD  
                   l2433 14F6                     l3241 154C                     l4131 075F  
                   l4123 0732                     l4115 0702                     l4107 06E2  
                   l4051 049E                     l4043 048B                     l4035 0474  
                   l4027 0464                     l4019 044D                     l4211 00AD  
                   l4203 005D                     l2291 1574                     l2259 1403  
                   l3411 0A3C                     l2435 14FF                     l3251 1553  
                   l3243 154D                     l3235 1540                     l4141 077E  
                   l4133 0769                     l4117 0707                     l4125 0738  
                   l4109 06E6                     l4061 0520                     l4053 04AE  
                   l4045 0490                     l4037 0479                     l4029 046A  
                   l4221 00DA                     l4213 00C0                     l4205 0078  
                   l3501 16E1                     l2293 1577                     l3421 0A64  
                   l3413 0A4B                     l3405 0A2D                     l2437 1507  
                   l2429 14ED                     l4301 0955                     l3261 1560  
                   l3253 1554                     l3245 1550                     l3237 1547  
                   l4143 0789                     l4135 076B                     l4127 0745  
                   l4119 0715                     l4071 058E                     l4063 053C  
                   l4055 04BB                     l4047 0495                     l4039 0481  
                   l4151 0850                     l4231 01B8                     l4223 00DF  
                   l4207 0099                     l4215 00C6                     l3511 1706  
                   l3503 16EA                     l2295 157E                     l3431 0AA5  
                   l3423 0A73                     l3415 0A53                     l3407 0A2E  
                   l4311 0981                     l4303 095D                     l3271 1567  
                   l3263 1561                     l3255 1555                     l3247 1551  
                   l3239 1549                     l4137 0779                     l4129 0750  
                   l4081 061E                     l4073 059E                     l4065 0558  
                   l4057 04D8                     l3601 0E0D                     l4161 087E  
                   l4153 0860                     l4241 01F0                     l4233 01D8  
                   l4225 0100                     l4217 00CF                     l4209 00A4  
                   l3521 1744                     l3513 170E                     l3505 16F2  
                   l2297 1582                     l2289 156C                     l3433 0AB3  
                   l3425 0A7B                     l3409 0A34                     l3417 0A5A  
                   l4321 09AC                     l4313 0991                     l4305 096C  
                   l3273 1568                     l3265 1562                     l3257 1558  
                   l3249 1552                     l4139 077D                     l4091 06B2  
                   l4083 062E                     l4075 05BB                     l4067 0561  
                   l4059 04F4                     l3611 0E1E                     l3603 0E11  
                   l3531 0D70                     l4171 08B4                     l4163 088B  
                   l4155 0870                     l4147 0847                     l4251 022E  
                   l4243 0200                     l4235 01E0                     l4227 0106  
                   l4219 00D5                     l3523 174B                     l3515 1713  
                   l3507 16F5                     l3371 15B5                     l2299 1586  
                   l3451 0AE8                     l3435 0AB7                     l3419 0A5C  
                   l4323 0A04                     l4315 099E                     l3275 1569  
                   l3267 1565                     l3259 155D                     l4331 15F3  
                   l4093 06C0                     l4085 065B                     l4077 05D4  
                   l4069 0571                     l3701 0FAB                     l3621 0E68  
                   l3613 0E35                     l3605 0E15                     l3541 0D87  
                   l3533 0D77                     l4181 08ED                     l4173 08BF  
                   l4165 0892                     l4149 084C                     l4261 02EC  
                   l4253 0234                     l4245 0208                     l4237 01E6  
                   l4229 011C                     l3509 16FD                     l3381 15DB  
                   l3373 15BC                     l3365 15A8                     l3453 0AEE  
                   l3461 0B11                     l3445 0AC2                     l3437 0ABB  
                   l3429 0A82                     l4325 0A12                     l4309 0979  
                   l3277 156A                     l3269 1566                     l4333 15F8  
                   l4095 06C9                     l4087 0681                     l4079 05F1  
                   l3711 0FE3                     l3703 0FAF                     l3631 0E85  
                   l3623 0E69                     l3615 0E55                     l3607 0E19  
                   l3551 0D9F                     l3543 0D8C                     l3535 0D7D  
                   l3391 149C                     l4183 08F2                     l4175 08C3  
                   l4167 0896                     l4159 0879                     l4271 030A  
                   l4263 02EC                     l4255 024C                     l4247 0208  
                   l4239 01EA                     l4191 0040                     l3527 1757  
                   l3519 1738                     l3383 15DC                     l3375 15C0  
                   l3367 15AC                     l3471 0B65                     l3463 0B18  
                   l3455 0AF6                     l3439 0AC0                     l4319 09A4  
                   l4335 15FE                     l4097 06CD                     l4089 06A9  
                   l3721 0FFA                     l3713 0FE8                     l3705 0FCD  
                   l3641 0EB1                     l3625 0E72                     l3617 0E60  
                   l3609 0E1D                     l3561 0DB5                     l3553 0DA4  
                   l3545 0D94                     l3537 0D81                     l3393 14A0  
                   l4185 08F6                     l4177 08CD                     l4169 08A4  
                   l4281 03E8                     l4273 030F                     l4265 02F2  
                   l4257 02C9                     l4249 020D                     l4193 0055  
                   l3385 15E3                     l3377 15C4                     l3369 15B2  
                   l3465 0B48                     l3473 0B6B                     l3457 0B03  
                   l3449 0ADE                     l4337 1639                     l4329 15EE  
                   l3811 179A                     l3803 175C                     l3731 14D3  
                   l4099 06CE                     l3723 0FFE                     l3715 0FE9  
                   l3707 0FD6                     l3651 0ECA                     l3643 0EBA  
                   l3635 0E90                     l3619 0E62                     l3627 0E76  
                   l3571 0DC9                     l3563 0DB6                     l3555 0DAA  
                   l3547 0D95                     l3539 0D82                     l3395 14A4  
                   l4187 08F7                     l4179 08D7                     l4291 0420  
                   l4283 0408                     l4275 0330                     l4267 02FF  
                   l4259 02DF                     l4195 0055                     l3379 15D5  
                   l3387 15E9                     l3467 0B50                     l3459 0B0B  
                   l3475 0B76                     l3491 1461                     l3901 0BE5  
                   l3813 17BE                     l3805 1772                     l3733 14E2  
                   l3725 14C6                     l3717 0FED                     l3709 0FDB  
                   l3661 0F30                     l3645 0EBC                     l3637 0EA9  
                   l3629 0E80                     l3653 0ECF                     l3581 0DE5  
                   l3565 0DBB                     l3573 0DCB                     l3557 0DAB  
                   l3549 0D97                     l3397 14B1                     l4285 0410  
                   l4277 0336                     l4269 0305                     l4197 0057  
                   l3469 0B5D                     l3477 0B90                     l3493 1471  
                   l3485 1458                     l3741 143E                     l4293 0900  
                   l3903 0BE7                     l3815 17C2                     l3807 178E  
                   l3735 14E7                     l3727 14C8                     l3719 0FEF  
                   l3671 0F63                     l3655 0EE7                     l3663 0F3F  
                   l3647 0EC0                     l3639 0EAD                     l3591 0DF9  
                   l3583 0DE9                     l3575 0DD9                     l3567 0DC0  
                   l3559 0DB1                     l3831 1688                     l3823 165D  
                   l3399 14B8                     l4287 0416                     l4279 034C  
                   l4199 0059                     l4359 0A9A                     l3487 145C  
                   l3751 0827                     l3743 1442                     l4295 090E  
                   l3761 0795                     l3921 0C30                     l3905 0BF7  
                   l3913 0C10                     l3817 17FC                     l3809 1796  
                   l3729 14CF                     l3681 0F7A                     l3673 0F6C  
                   l3665 0F55                     l3657 0F25                     l3649 0EC1  
                   l3593 0DFD                     l3585 0DED                     l3577 0DDD  
                   l3569 0DC8                     l3833 1689                     l3825 166A  
                   l4289 041A                     l3497 16DC                     l3489 145D  
                   l3753 0833                     l3745 1446                     l4297 0919  
                   l3771 07A9                     l3763 0799                     l3931 0C4F  
                   l3923 0C38                     l3915 0C15                     l3907 0C03  
                   l3819 17FE                     l3691 0F8A                     l3683 0F7F  
                   l3675 0F70                     l3667 0F5A                     l3659 0F2B  
                   l3595 0E01                     l3587 0DF1                     l3579 0DE1  
                   l3835 1691                     l3499 16DD                     l3755 083F  
                   l3739 143B                     l4299 094E                     l3781 07BF  
                   l3773 07AD                     l3765 079E                     l3941 0C81  
                   l3933 0C61                     l3925 0C40                     l3909 0C07  
                   l3693 0F90                     l3677 0F75                     l3685 0F81  
                   l3597 0E05                     l3589 0DF5                     l3861 147C  
                   l3853 16B8                     l3845 169F                     l3837 1693  
                   l3829 1673                     l3749 0807                     l3791 07DF  
                   l3783 07C3                     l3775 07AF                     l3767 07A0  
                   l3759 0792                     l3951 0CA2                     l3943 0C82  
                   l3935 0C65                     l3927 0C48                     l3919 0C1E  
                   l3871 0BA4                     l3679 0F78                     l3687 0F85  
                   l3599 0E09                     l3855 16C8                     l3839 1697  
                   l3847 16B1                     l3793 07E6                     l3785 07C7  
                   l3777 07B5                     l3769 07A4                     l3961 0CBB  
                   l3953 0CA4                     l3945 0C90                     l3937 0C66  
                   l3929 0C4A                     l3881 0BB8                     l3873 0BA5  
                   l3865 0B93                     l3697 0F98                     l3689 0F86  
                   l3857 16CD                     l3787 07D8                     l3779 07B8  
                   l3795 07EC                     l3971 0CDE                     l3955 0CAD  
                   l3963 0CC1                     l3939 0C6F                     l3947 0C94  
                   l3891 0BD1                     l3875 0BAA                     l3883 0BBA  
                   l3867 0B9A                     l3699 0F9D                     l3859 1478  
                   l3797 07F1                     l3789 07DE                     l3981 0CFD  
                   l3965 0CC5                     l3957 0CB1                     l3949 0C9A  
                   l3893 0BD2                     l3885 0BC2                     l3877 0BAF  
                   l3869 0BA0                     l3799 07F6                     l3991 0D46  
                   l3983 0D16                     l3975 0CE6                     l3967 0CC6  
                   l3959 0CB2                     l3895 0BD7                     l3887 0BC7  
                   l3879 0BB7                     l3993 0D4A                     l3977 0CEB  
                   l3985 0D1C                     l3969 0CCA                     l3897 0BDC  
                   l3889 0BCD                     l3995 0D52                     l3987 0D29  
                   l3979 0CF9                     l3899 0BE4                     ?_isr 0070  
                   l3997 0D59                     l3989 0D37                     l3999 0D5D  
                   STR_1 1051                     STR_2 1092                     STR_3 101A  
                   STR_4 107E                     STR_5 1069                     STR_6 1038  
                   STR_7 104E                     STR_8 104E                     u2210 1403  
                   u2211 1402                     u2310 1586                     u2311 1585  
                   u2400 1424                     u2320 1590                     u2401 1423  
                   u2321 158F                     u2305 1578                     u2340 15A3  
                   u2341 15A2                     u2325 158C                     u2335 1597  
                   u5000 0F90                     u2520 14FE                     u5001 0F8F  
                   u2521 14FD                     u5010 0F97                     u2290 1574  
                   u2530 1514                     u5011 0F96                     u2291 1573  
                   u2531 1513                     u5100 0FFE                     u5020 0F9D  
                   u5101 0FFD                     u5021 0F9C                     u5110 14D3  
                   u5030 0FAF                     u2390 141E                     u5111 14D2  
                   u5031 0FAE                     u2391 141D                     u5200 07D8  
                   u6000 0701                     u5040 0FBE                     u5201 07D7  
                   u6001 0700                     u5130 14E7                     u6010 0707  
                   u5050 0FCD                     u4410 15D5                     u5131 14E6  
                   u6011 0706                     u5051 0FCC                     u4411 15D4  
                   u5220 07EC                     u5140 0799                     u5300 17FC  
                   u6020 0719                     u5060 0FD6                     u4500 0A64  
                   u5221 07EB                     u5205 07D4                     u5141 0798  
                   u5301 17FB                     u5125 14DA                     u6021 0718  
                   u5061 0FD5                     u5045 0FB9                     u4405 15C5  
                   u4501 0A63                     u5230 07F1                     u5150 07A4  
                   u6030 0728                     u5070 0FDB                     u5310 166A  
                   u6110 0891                     u4430 15E9                     u4510 0AB7  
                   u5231 07F0                     u5215 07E0                     u5151 07A3  
                   u5071 0FDA                     u5311 1669                     u6111 0890  
                   u4431 15E8                     u4415 15D1                     u4511 0AB6  
                   u5160 07B5                     u5240 1772                     u6040 0745  
                   u5080 0FE8                     u5400 16CD                     u5320 1681  
                   u4440 14A4                     u6200 08F6                     u4600 16F2  
                   u4520 0ADD                     u5161 07B4                     u5305 17F8  
                   u5241 1771                     u6041 0744                     u5081 0FE7  
                   u5401 16CC                     u4441 14A3                     u6201 08F5  
                   u6105 0883                     u4601 16F1                     u4425 15DD  
                   u4521 0ADC                     u5410 0BA4                     u5250 178E  
                   u6050 075F                     u5090 0FED                     u5330 1697  
                   u6130 08B3                     u6210 0078                     u4610 16FD  
                   u4370 15B2                     u4530 0AE8                     u5411 0BA3  
                   u5251 178D                     u6051 075E                     u6035 0723  
                   u5091 0FEC                     u5331 1696                     u6131 08B2  
                   u6211 0077                     u4611 16FC                     u4371 15B1  
                   u4531 0AE7                     u5180 07C7                     u5420 0BAA  
                   u5260 179A                     u6060 077D                     u4700 0DBB  
                   u5340 169E                     u6220 00CE                     u4620 170E  
                   u4540 0AEE                     u6300 094E                     u5181 07C6  
                   u5421 0BA9                     u5261 1799                     u6061 077C  
                   u6045 0741                     u4701 0DBA                     u5341 169D  
                   u5325 167C                     u6125 08A5                     u6221 00CD  
                   u4621 170D                     u4541 0AED                     u4525 0AD9  
                   u6301 094D                     u5430 0BAF                     u4710 0DC0  
                   u4470 14BE                     u6150 08C3                     u6070 084C  
                   u6230 00D5                     u4630 1744                     u4390 15C4  
                   u4550 0AF6                     u6310 095D                     u5175 07B9  
                   u5431 0BAE                     u5271 17A9                     u6055 075B  
                   u4711 0DBF                     u4471 14BD                     u4455 14AB  
                   u6151 08C2                     u6071 084B                     u6231 00D4  
                   u4631 1743                     u4391 15C3                     u4551 0AF5  
                   u6311 095C                     u5600 0CC5                     u5520 0C65  
                   u5440 0BD1                     u5280 17C2                     u5272 17AA  
                   u4800 0E7C                     u4720 0DD9                     u5360 16B0  
                   u6160 08C9                     u6080 0850                     u6240 011C  
                   u4640 174B                     u4560 0B50                     u4480 0A34  
                   u6320 096C                     u5601 0CC4                     u5521 0C64  
                   u5505 0C51                     u5441 0BD0                     u5281 17C1  
                   u5273 17AF                     u4801 0E7B                     u4721 0DD8  
                   u5361 16AF                     u4465 14B2                     u6161 08C8  
                   u6145 08B8                     u6081 084F                     u6241 011B  
                   u4641 174A                     u4385 15B6                     u4561 0B4F  
                   u4481 0A33                     u6321 096B                     u5610 0CCA  
                   u5450 0BD7                     u5274 17B0                     u4810 0E80  
                   u4730 0DDD                     u4650 0D81                     u5370 16B7  
                   u6170 08CD                     u6090 0870                     u6250 01F0  
                   u4570 0B76                     u4490 0A3C                     u6330 0979  
                   u5195 07C8                     u5611 0CC9                     u5515 0C5A  
                   u5451 0BD6                     u5291 17D1                     u5275 17B5  
                   u4811 0E7F                     u4731 0DDC                     u4651 0D80  
                   u5371 16B6                     u5355 16A0                     u6171 08CC  
                   u6091 086F                     u6251 01EF                     u4571 0B75  
                   u4491 0A3B                     u6331 0978                     u5620 0CDE  
                   u5540 0C81                     u5460 0BDC                     u5292 17D2  
                   u5276 17B6                     u5700 0442                     u4900 0F12  
                   u4820 0E85                     u4740 0E35                     u4660 0D87  
                   u6180 08E2                     u6260 024C                     u4580 0B90  
                   u6340 0981                     _RCIF 0065                     u5621 0CDD  
                   u5541 0C80                     u5461 0BDB                     u5293 17D7  
                   u5701 0441                     u4901 0F13                     u4821 0E84  
                   u4741 0E34                     u4661 0D86                     u6261 024B  
                   u6245 0118                     u4581 0B8F                     u6341 0980  
                   u5630 0CE5                     u5550 0C9A                     u5470 0BF7  
                   u5294 17D8                     u5710 0448                     u4910 0F30  
                   u4902 0F18                     u4750 0E40                     u4670 0D8C  
                   u5390 16C8                     u6190 08F2                     u6270 0305  
                   u4590 16EA                     u6350 0991                     u5631 0CE4  
                   u5551 0C99                     u5535 0C68                     u5471 0BF6  
                   u5295 17DD                     u5711 0447                     u4911 0F2F  
                   u4903 0F19                     u4831 0E9B                     u4751 0E3E  
                   u4671 0D8B                     u5391 16C7                     u6191 08F1  
                   u6271 0304                     u4591 16E9                     u6351 0990  
                   u6407 0921                     u5640 0CEB                     u5560 0CA2  
                   u5480 0C15                     u5296 17DE                     u5720 044D  
                   u4920 0F55                     u4840 0EAD                     u4832 0EA2  
                   u4760 0E41                     u4680 0DAA                     u6280 034C  
                   u6360 099E                     u5641 0CEA                     u5561 0CA1  
                   u5545 0C7D                     u5481 0C14                     u5801 052E  
                   u5721 044C                     u4921 0F54                     u4841 0EAC  
                   u4833 0EA9                     u4745 0E31                     u4681 0DA9  
                   u5385 16BA                     u6185 08DD                     u6281 034B  
                   u6265 0248                     u6417 0A0C                     u6361 099D  
                   u5650 0CFD                     u5490 0C4F                     u5802 0535  
                   u5730 046E                     u4930 0F5A                     u4850 0EB1  
                   u4770 0E55                     u4690 0DB5                     u6290 0420  
                   u6370 09A4                     u5651 0CFC                     u5491 0C4E  
                   u5811 054A                     u5803 053C                     u5731 046D  
                   u4931 0F59                     u4851 0EB0                     u4771 0E54  
                   u4691 0DB4                     u6291 041F                     u6371 09A3  
                   u5660 0D0C                     u5580 0CB1                     u5812 0551  
                   u5740 0474                     u4860 0EC0                     u4780 0E68  
                   u6380 09AC                     u5581 0CB0                     u5901 0673  
                   u5813 0558                     u5741 0473                     u4861 0EBF  
                   u4781 0E67                     u6285 0348                     u6381 09AB  
                   u5670 0D29                     u5910 068F                     u5902 067A  
                   u5750 0479                     u4950 0F70                     u5671 0D28  
                   u5575 0CA6                     u5903 0681                     u5831 0580  
                   u5751 0478                     u4951 0F6F                     u5680 0D46  
                   u5832 0587                     u5760 0490                     u4960 0F75  
                   u4880 0EE7                     u5681 0D45                     u5665 0D07  
                   u5921 069B                     u5841 05AD                     u5833 058E  
                   u5825 055A                     u5761 048F                     u4961 0F74  
                   u4945 0F65                     u4881 0EE6                     u5690 0D5D  
                   u5922 06A2                     u5842 05B4                     u5770 0495  
                   u4970 0F7F                     u5691 0D5C                     u5675 0D25  
                   u5595 0CB4                     u5923 06A9                     u5915 068A  
                   u5843 05BB                     u5771 0494                     u4971 0F7E  
                   u4891 0EFE                     u4883 0EE3                     u4875 0EC3  
                   u4795 0E6B                     u4980 0F85                     u4892 0EFF  
                   u5685 0D42                     u5861 05E3                     u5781 04E6  
                   u4981 0F84                     u4893 0F04                     u6397 0908  
                   u5950 06CD                     u5862 05EA                     u5782 04ED  
                   u4990 0F8A                     u4894 0F05                     u5951 06CC  
                   u5935 06AB                     u5871 0610                     u5863 05F1  
                   u5855 05BD                     u5791 0502                     u5783 04F4  
                   u4991 0F89                     u4895 0F0A                     u5872 0617  
                   u5792 0509                     u4896 0F0B                     u5945 06C2  
                   u5881 063D                     u5873 061E                     u5793 0510  
                   u5970 06E1                     u5890 0667                     u5882 0644  
                   u5971 06E0                     u5883 064B                     u5980 06E6  
                   u5981 06E5                     u5965 06D0                     u5990 06FA  
                   u5991 06F9                     u5895 0662                     _TXIF 0064  
                   _atoi 16D9                     _main 15EE                     _full 00C7  
                   btemp 007E                     start 000C          ___fldiv@new_exp 004D  
                  ??_isr 0070            ___fltol@sign1 0025                    ?_atoi 002D  
        __end_of___fladd 1000                    ?_main 0070          __end_of___fldiv 0D70  
        __end_of___awdiv 07FB          __end_of___flmul 0792          __end_of___flsub 149C  
        __end_of___fltol 16D9                    _ANSEL 0188          ___awdiv@divisor 0073  
        __end_of___lwdiv 15EE                    i1l240 1539          __end_of___lwmod 15A8  
        ___awdiv@counter 0020                    _RCREG 001A                    _SPBRG 0099  
                  _PORTA 0005                    _PORTB 0006          __end_of__doprnt 0B93  
                  _TRISA 0085                    _TRISB 0086                    _TXREG 0019  
            convert@data 00A4          _contador_string 00CB              convert@temp 00A0  
        __end_of_convert 0431          __end_of_dpowers 101A                    _tabla 00B7  
        __end_of_isdigit 1428          __end_of_mensaje 0A2A                    atoi@a 0032  
                  _setup 1540                    atoi@s 0034                    _putch 13FD  
                  fpbase 0039                    pclath 000A                    status 0003  
                  wtemp0 007E          __end_of_sprintf 1478          __initialization 000F  
           __end_of_atoi 175C             __end_of_main 165D                   ??_atoi 002F  
                 ??_main 00AF         ___awdiv@dividend 0075                   ?_setup 0070  
                 ?_putch 0073                   _ANSELH 0189                   i1l3321 1525  
                 i1l3323 152A                   i1l3315 1515                   i1l3325 152F  
                 i1l3317 1519                   i1l3327 1533                   i1l3319 151F  
                 i1l3329 1538                   u434_20 1519                   u434_21 1518  
                 u435_20 151F                   u435_21 151E                   u436_20 152F  
                 u436_21 152E                   _SPBRGH 009A         __end_of__fptable 003D  
       __end_of___xxtofl 0900                   ___flge 175C             convert@place 0061  
              ??___fladd 0028                   ___wmul 149C                ??___fldiv 0043  
              ??___awdiv 0077                   _decena 0079                ??___flmul 004B  
              ??___flsub 0077                ??___fltol 0020                ??___lwdiv 0077  
              ??___lwmod 0027                ??__doprnt 002C         ___awdiv@quotient 0022  
           __doprnt@flag 0030                   _printf 143B                   _unidad 007A  
           __doprnt@prec 0031                   _strcat 14EC                ??_convert 0063  
                 fptable 0034                   fptotal 0002                ??_isdigit 0073  
              ??_mensaje 00A0       __size_of__Umul8_16 0029                   saved_w 007E  
              ??_sprintf 0039               ___flge@ff1 0020               ___flge@ff2 0024  
           ___xxtofl@arg 0037             ___xxtofl@exp 0036             ___xxtofl@val 002D  
__end_of__initialization 0030               ___fltol@f1 0073           __pcstackCOMMON 0070  
           __pidataBANK1 1406            __end_of_setup 156C            __end_of_putch 1406  
         _OPTION_REGbits 0081               __doprnt@ap 002B               __doprnt@pb 0035  
                ??_setup 0073                  ??_putch 0074               __pbssBANK1 00C7  
      __end_of__Umul8_16 14EC               __pmaintext 15EE                  ?___flge 0020  
                ?___wmul 0027               __pintentry 0004                  ?_printf 0036  
                ?_strcat 0073                ?___xxtofl 002D               _concatenar 0807  
             __stringtab 1000            convert@digits 00AB          __size_of___flge 00A4  
                ___fladd 0D70                  ___fldiv 0B93                  ___awdiv 0792  
                ___flmul 0431                  ___flsub 1478                  ___fltol 165D  
        __size_of___wmul 0027                  ___lwdiv 15A8                  ___lwmod 156C  
                __doprnt 0A2A                _ANSELbits 0188                  _centena 0078  
                __ptext1 1540                  __ptext2 0900                  __ptext3 143B  
                __ptext4 0807                  __ptext5 14EC                  __ptext6 1455  
                __ptext7 0A2A                  __ptext8 13FD                  __ptext9 156C  
        __size_of_printf 001A          __size_of_strcat 0029                  _convert 003D  
                _dpowers 1010                  _isdigit 1416             __size_of_isr 002B  
                _mensaje 0900               ??___xxtofl 0031                  _sprintf 1455  
   end_of_initialization 0030                _RCSTAbits 0018                  printf@f 0036  
              _PORTBbits 0006              ___fladd@grs 0076              ?_concatenar 003E  
          ___xxtofl@sign 0035              ___fldiv@grs 004F              ___fldiv@rem 0048  
            ___flmul@grs 0052                _TXSTAbits 0098           __end_of___flge 1800  
         __end_of___wmul 14C3              _BAUDCTLbits 0187           __end_of_printf 1455  
         __end_of_strcat 1515      start_initialization 000F              __end_of_isr 1540  
    __size_of_concatenar 003D                 ??___flge 0073                 ??___wmul 0077  
             init_fetch0 1428                __Umul8_16 14C3              __doprnt@val 0032  
            __pdataBANK1 00B7                 ??_printf 003A                 ??_strcat 0074  
              ___fladd@a 0024                ___fladd@b 0020                ___fldiv@a 003B  
              ___fldiv@b 003F                ___flmul@a 0047                ___flmul@b 0043  
            __pbssCOMMON 0078                ___flsub@a 003B                ___flsub@b 003F  
              ___latbits 0002            __pcstackBANK0 0020            __pcstackBANK1 00A0  
      __size_of__fptable 0009        __size_of___xxtofl 00BC             _isdigit$1129 0073  
              __doprnt@c 0034                __doprnt@f 0029                _main$1413 00B3  
       ___lwdiv@dividend 0075                __pfunctab 0034                 ?___fladd 0020  
               ?___fldiv 003B                 ?___awdiv 0073                 ?___flmul 0043  
               ?___flsub 003B                 ?___fltol 0073               ?__Umul8_16 0073  
               ?___lwdiv 0073                 ?___lwmod 0023                 ?__doprnt 0029  
              __pstrings 1000                 ?_convert 005D                 ?_isdigit 0070  
               ?_mensaje 0070         ___lwdiv@quotient 0021                 ?_sprintf 0036  
         __size_of_setup 002C           __size_of_putch 0009        interrupt_function 0004  
         ___wmul@product 002B                 _IOCBbits 0096              _concatenado 00C9  
               _PIE1bits 008C                 _PIR1bits 000C               _ADCON0bits 001F  
            __stringbase 100F               _ADCON1bits 009F        ___wmul@multiplier 0027  
           ??_concatenar 0042                convert@mu 00AD       __end_of_concatenar 0844  
            ??__Umul8_16 0075         __size_of___fladd 0290         __size_of___fldiv 01DD  
       __size_of___awdiv 0069         __size_of___flmul 0361         __size_of___flsub 0024  
       __size_of___fltol 007C         __size_of___lwdiv 0046         __size_of___lwmod 003C  
       __size_of__doprnt 0169       __end_of__stringtab 1010               _ANSELHbits 0189  
               __fptable 0034         __size_of_convert 03F4                 ___xxtofl 0844  
             strcat@from 0073         __size_of_isdigit 0012         __size_of_mensaje 012A  
        ___lwdiv@divisor 0073          ___lwdiv@counter 0020                 __ptext10 15A8  
               __ptext11 16D9                 __ptext20 14C3                 __ptext12 1416  
               __ptext21 175C                 __ptext13 003D                 __ptext22 0B93  
               __ptext14 0844                 __ptext23 0792                 __ptext15 149C  
               __ptext24 1515                 __ptext16 165D                 __ptext17 1478  
               __ptext18 0D70                 __ptext19 0431                 _contador 00CA  
       __size_of_sprintf 0023            __size_of_atoi 0083            __size_of_main 006F  
               atoi@sign 0031                 fp__putch 003A                 convert@a 005D  
               convert@i 00A9                 convert@j 00A2                 convert@x 00A5  
              putch@dato 0073               _INTCONbits 000B                 init_ram0 142C  
               isdigit@c 0074                 intlevel1 0034                sprintf@ap 003B  
              sprintf@pb 003C                sprintf@wh 003A         ___lwmod@dividend 0025  
              stringcode 100A               _OSCCONbits 008F                 printf@ap 003B  
               printf@pb 003C   __Umul8_16@multiplicand 0073                 sprintf@f 0036  
               strcat@cp 0076                 strcat@to 0075          ___lwmod@divisor 0023  
        ___lwmod@counter 0028                 stringdir 100A                 stringtab 1000  
          ___fladd@signs 0073             ___fladd@aexp 0074             ___fladd@bexp 0075  
   __Umul8_16@multiplier 0024        __Umul8_16@product 0020  
