

Microchip MPLAB XC8 Assembler V2.31 build 20201012212115 
                                                                                               Sun Aug 15 23:10:35 2021

Microchip MPLAB XC8 C Compiler v2.31 (Free license) build 20201012212115 Og1 
     1                           	processor	16F887
     2                           	pagewidth 120
     3                           	opt	flic
     4                           	psect	strings,global,class=STRING,delta=2,noexec
     5                           	psect	cinit,global,class=CODE,merge=1,delta=2
     6                           	psect	bssCOMMON,global,class=COMMON,space=1,delta=1,noexec
     7                           	psect	bssBANK1,global,class=BANK1,space=1,delta=1,noexec
     8                           	psect	cstackBANK1,global,class=BANK1,space=1,delta=1,noexec
     9                           	psect	cstackCOMMON,global,class=COMMON,space=1,delta=1,noexec
    10                           	psect	cstackBANK0,global,class=BANK0,space=1,delta=1,noexec
    11                           	psect	maintext,global,class=CODE,split=1,delta=2
    12                           	psect	text1,local,class=CODE,merge=1,delta=2
    13                           	psect	text2,local,class=CODE,merge=1,delta=2
    14                           	psect	text3,local,class=CODE,merge=1,delta=2,group=3
    15                           	psect	text4,local,class=CODE,merge=1,delta=2
    16                           	psect	text5,local,class=CODE,merge=1,delta=2,group=3
    17                           	psect	text6,local,class=CODE,merge=1,delta=2,group=3
    18                           	psect	text7,local,class=CODE,merge=1,delta=2,group=1
    19                           	psect	text8,local,class=CODE,merge=1,delta=2
    20                           	psect	text9,local,class=CODE,merge=1,delta=2,group=2
    21                           	psect	text10,local,class=CODE,merge=1,delta=2,group=2
    22                           	psect	text11,local,class=CODE,merge=1,delta=2,group=3
    23                           	psect	text12,local,class=CODE,merge=1,delta=2,group=3
    24                           	psect	text13,local,class=CODE,merge=1,delta=2
    25                           	psect	text14,local,class=CODE,merge=1,delta=2,group=2
    26                           	psect	text15,local,class=CODE,merge=1,delta=2,group=2
    27                           	psect	text16,local,class=CODE,merge=1,delta=2,group=2
    28                           	psect	text17,local,class=CODE,merge=1,delta=2,group=2
    29                           	psect	text18,local,class=CODE,merge=1,delta=2,group=2
    30                           	psect	text19,local,class=CODE,merge=1,delta=2,group=2
    31                           	psect	text20,local,class=CODE,merge=1,delta=2,group=2
    32                           	psect	text21,local,class=CODE,merge=1,delta=2,group=2
    33                           	psect	text22,local,class=CODE,merge=1,delta=2,group=2
    34                           	psect	text23,local,class=CODE,merge=1,delta=2,group=2
    35                           	psect	text24,local,class=CODE,merge=1,delta=2
    36                           	psect	intentry,global,class=CODE,delta=2
    37                           	psect	functab,global,class=ENTRY,delta=2
    38                           	psect	config,global,abs,ovrld,class=CONFIG,space=4,delta=2,noexec
    39                           	dabs	1,0x7E,2
    40  0000                     
    41                           ; Version 2.20
    42                           ; Generated 12/02/2020 GMT
    43                           ; 
    44                           ; Copyright © 2020, Microchip Technology Inc. and its subsidiaries ("Microchip")
    45                           ; All rights reserved.
    46                           ; 
    47                           ; This software is developed by Microchip Technology Inc. and its subsidiaries ("Microch
      +                          ip").
    48                           ; 
    49                           ; Redistribution and use in source and binary forms, with or without modification, are
    50                           ; permitted provided that the following conditions are met:
    51                           ; 
    52                           ;     1. Redistributions of source code must retain the above copyright notice, this lis
      +                          t of
    53                           ;        conditions and the following disclaimer.
    54                           ; 
    55                           ;     2. Redistributions in binary form must reproduce the above copyright notice, this 
      +                          list
    56                           ;        of conditions and the following disclaimer in the documentation and/or other
    57                           ;        materials provided with the distribution.
    58                           ; 
    59                           ;     3. Microchip's name may not be used to endorse or promote products derived from th
      +                          is
    60                           ;        software without specific prior written permission.
    61                           ; 
    62                           ; THIS SOFTWARE IS PROVIDED BY MICROCHIP "AS IS" AND ANY EXPRESS OR IMPLIED WARRANTIES,
    63                           ; INCLUDING, BUT NOT LIMITED TO, THE IMPLIED WARRANTIES OF MERCHANTABILITY AND FITNESS F
      +                          OR
    64                           ; PURPOSE ARE DISCLAIMED.  IN NO EVENT SHALL MICROCHIP BE LIABLE FOR ANY DIRECT, INDIREC
      +                          T,
    65                           ; INCIDENTAL, SPECIAL, EXEMPLARY, OR CONSEQUENTIAL DAMAGES (INCLUDING BUT NOT LIMITED TO
    66                           ; PROCUREMENT OF SUBSTITUTE GOODS OR SERVICES; LOSS OF USE, DATA OR PROFITS; OR BUSINESS
    67                           ; INTERRUPTION) HOWSOEVER CAUSED AND ON ANY THEORY OF LIABILITY, WHETHER IN CONTRACT, ST
      +                          RICT
    68                           ; LIABILITY, OR TORT (INCLUDING NEGLIGENCE OR OTHERWISE) ARISING IN ANY WAY OUT OF THE U
      +                          SE OF
    69                           ; THIS SOFTWARE, EVEN IF ADVISED OF THE POSSIBILITY OF SUCH DAMAGE.
    70                           ; 
    71                           ; 
    72                           ; Code-generator required, PIC16F887 Definitions
    73                           ; 
    74                           ; SFR Addresses
    75  0000                     	;# 
    76  0001                     	;# 
    77  0002                     	;# 
    78  0003                     	;# 
    79  0004                     	;# 
    80  0005                     	;# 
    81  0006                     	;# 
    82  0007                     	;# 
    83  0008                     	;# 
    84  0009                     	;# 
    85  000A                     	;# 
    86  000B                     	;# 
    87  000C                     	;# 
    88  000D                     	;# 
    89  000E                     	;# 
    90  000E                     	;# 
    91  000F                     	;# 
    92  0010                     	;# 
    93  0011                     	;# 
    94  0012                     	;# 
    95  0013                     	;# 
    96  0014                     	;# 
    97  0015                     	;# 
    98  0015                     	;# 
    99  0016                     	;# 
   100  0017                     	;# 
   101  0018                     	;# 
   102  0019                     	;# 
   103  001A                     	;# 
   104  001B                     	;# 
   105  001B                     	;# 
   106  001C                     	;# 
   107  001D                     	;# 
   108  001E                     	;# 
   109  001F                     	;# 
   110  0081                     	;# 
   111  0085                     	;# 
   112  0086                     	;# 
   113  0087                     	;# 
   114  0088                     	;# 
   115  0089                     	;# 
   116  008C                     	;# 
   117  008D                     	;# 
   118  008E                     	;# 
   119  008F                     	;# 
   120  0090                     	;# 
   121  0091                     	;# 
   122  0092                     	;# 
   123  0093                     	;# 
   124  0093                     	;# 
   125  0093                     	;# 
   126  0094                     	;# 
   127  0095                     	;# 
   128  0096                     	;# 
   129  0097                     	;# 
   130  0098                     	;# 
   131  0099                     	;# 
   132  009A                     	;# 
   133  009B                     	;# 
   134  009C                     	;# 
   135  009D                     	;# 
   136  009E                     	;# 
   137  009F                     	;# 
   138  0105                     	;# 
   139  0107                     	;# 
   140  0108                     	;# 
   141  0109                     	;# 
   142  010C                     	;# 
   143  010C                     	;# 
   144  010D                     	;# 
   145  010E                     	;# 
   146  010F                     	;# 
   147  0185                     	;# 
   148  0187                     	;# 
   149  0188                     	;# 
   150  0189                     	;# 
   151  018C                     	;# 
   152  018D                     	;# 
   153  0000                     	;# 
   154  0001                     	;# 
   155  0002                     	;# 
   156  0003                     	;# 
   157  0004                     	;# 
   158  0005                     	;# 
   159  0006                     	;# 
   160  0007                     	;# 
   161  0008                     	;# 
   162  0009                     	;# 
   163  000A                     	;# 
   164  000B                     	;# 
   165  000C                     	;# 
   166  000D                     	;# 
   167  000E                     	;# 
   168  000E                     	;# 
   169  000F                     	;# 
   170  0010                     	;# 
   171  0011                     	;# 
   172  0012                     	;# 
   173  0013                     	;# 
   174  0014                     	;# 
   175  0015                     	;# 
   176  0015                     	;# 
   177  0016                     	;# 
   178  0017                     	;# 
   179  0018                     	;# 
   180  0019                     	;# 
   181  001A                     	;# 
   182  001B                     	;# 
   183  001B                     	;# 
   184  001C                     	;# 
   185  001D                     	;# 
   186  001E                     	;# 
   187  001F                     	;# 
   188  0081                     	;# 
   189  0085                     	;# 
   190  0086                     	;# 
   191  0087                     	;# 
   192  0088                     	;# 
   193  0089                     	;# 
   194  008C                     	;# 
   195  008D                     	;# 
   196  008E                     	;# 
   197  008F                     	;# 
   198  0090                     	;# 
   199  0091                     	;# 
   200  0092                     	;# 
   201  0093                     	;# 
   202  0093                     	;# 
   203  0093                     	;# 
   204  0094                     	;# 
   205  0095                     	;# 
   206  0096                     	;# 
   207  0097                     	;# 
   208  0098                     	;# 
   209  0099                     	;# 
   210  009A                     	;# 
   211  009B                     	;# 
   212  009C                     	;# 
   213  009D                     	;# 
   214  009E                     	;# 
   215  009F                     	;# 
   216  0105                     	;# 
   217  0107                     	;# 
   218  0108                     	;# 
   219  0109                     	;# 
   220  010C                     	;# 
   221  010C                     	;# 
   222  010D                     	;# 
   223  010E                     	;# 
   224  010F                     	;# 
   225  0185                     	;# 
   226  0187                     	;# 
   227  0188                     	;# 
   228  0189                     	;# 
   229  018C                     	;# 
   230  018D                     	;# 
   231  0000                     	;# 
   232  0001                     	;# 
   233  0002                     	;# 
   234  0003                     	;# 
   235  0004                     	;# 
   236  0005                     	;# 
   237  0006                     	;# 
   238  0007                     	;# 
   239  0008                     	;# 
   240  0009                     	;# 
   241  000A                     	;# 
   242  000B                     	;# 
   243  000C                     	;# 
   244  000D                     	;# 
   245  000E                     	;# 
   246  000E                     	;# 
   247  000F                     	;# 
   248  0010                     	;# 
   249  0011                     	;# 
   250  0012                     	;# 
   251  0013                     	;# 
   252  0014                     	;# 
   253  0015                     	;# 
   254  0015                     	;# 
   255  0016                     	;# 
   256  0017                     	;# 
   257  0018                     	;# 
   258  0019                     	;# 
   259  001A                     	;# 
   260  001B                     	;# 
   261  001B                     	;# 
   262  001C                     	;# 
   263  001D                     	;# 
   264  001E                     	;# 
   265  001F                     	;# 
   266  0081                     	;# 
   267  0085                     	;# 
   268  0086                     	;# 
   269  0087                     	;# 
   270  0088                     	;# 
   271  0089                     	;# 
   272  008C                     	;# 
   273  008D                     	;# 
   274  008E                     	;# 
   275  008F                     	;# 
   276  0090                     	;# 
   277  0091                     	;# 
   278  0092                     	;# 
   279  0093                     	;# 
   280  0093                     	;# 
   281  0093                     	;# 
   282  0094                     	;# 
   283  0095                     	;# 
   284  0096                     	;# 
   285  0097                     	;# 
   286  0098                     	;# 
   287  0099                     	;# 
   288  009A                     	;# 
   289  009B                     	;# 
   290  009C                     	;# 
   291  009D                     	;# 
   292  009E                     	;# 
   293  009F                     	;# 
   294  0105                     	;# 
   295  0107                     	;# 
   296  0108                     	;# 
   297  0109                     	;# 
   298  010C                     	;# 
   299  010C                     	;# 
   300  010D                     	;# 
   301  010E                     	;# 
   302  010F                     	;# 
   303  0185                     	;# 
   304  0187                     	;# 
   305  0188                     	;# 
   306  0189                     	;# 
   307  018C                     	;# 
   308  018D                     	;# 
   309                           
   310                           	psect	strings
   311  1000                     __pstrings:
   312  1000                     stringtab:
   313  1000                     __stringtab:
   314                           
   315                           ;	String table - string pointers are 1 byte each
   316  1000  1BFF               	btfsc	btemp+1,7
   317  1001  280A               	ljmp	stringcode
   318  1002  1383               	bcf	3,7
   319  1003  187F               	btfsc	btemp+1,0
   320  1004  1783               	bsf	3,7
   321  1005  0800               	movf	0,w
   322  1006  0A84               	incf	4,f
   323  1007  1903               	skipnz
   324  1008  0AFF               	incf	btemp+1,f
   325  1009  0008               	return
   326  100A                     stringcode:
   327  100A                     stringdir:
   328  100A  3010               	movlw	high stringdir
   329  100B  008A               	movwf	10
   330  100C  0804               	movf	4,w
   331  100D  0A84               	incf	4,f
   332  100E  0782               	addwf	2,f
   333  100F                     __stringbase:
   334  100F  3400               	retlw	0
   335  1010                     __end_of__stringtab:
   336  1010                     _dpowers:
   337  1010  3401               	retlw	1
   338  1011  3400               	retlw	0
   339  1012  340A               	retlw	10
   340  1013  3400               	retlw	0
   341  1014  3464               	retlw	100
   342  1015  3400               	retlw	0
   343  1016  34E8               	retlw	232
   344  1017  3403               	retlw	3
   345  1018  3410               	retlw	16
   346  1019  3427               	retlw	39
   347  101A                     __end_of_dpowers:
   348  0018                     _RCSTAbits	set	24
   349  0006                     _PORTB	set	6
   350  0019                     _TXREG	set	25
   351  001A                     _RCREG	set	26
   352  0005                     _PORTA	set	5
   353  0006                     _PORTBbits	set	6
   354  000B                     _INTCONbits	set	11
   355  000C                     _PIR1bits	set	12
   356  001F                     _ADCON0bits	set	31
   357  0064                     _TXIF	set	100
   358  0065                     _RCIF	set	101
   359  0096                     _IOCBbits	set	150
   360  009A                     _SPBRGH	set	154
   361  0099                     _SPBRG	set	153
   362  0098                     _TXSTAbits	set	152
   363  008F                     _OSCCONbits	set	143
   364  0086                     _TRISB	set	134
   365  0085                     _TRISA	set	133
   366  009F                     _ADCON1bits	set	159
   367  008C                     _PIE1bits	set	140
   368  0187                     _BAUDCTLbits	set	391
   369  0189                     _ANSELH	set	393
   370  0188                     _ANSEL	set	392
   371  0189                     _ANSELHbits	set	393
   372  0188                     _ANSELbits	set	392
   373  101A                     STR_3:
   374  101A  3449               	retlw	73	;'I'
   375  101B  346E               	retlw	110	;'n'
   376  101C  3467               	retlw	103	;'g'
   377  101D  3472               	retlw	114	;'r'
   378  101E  3465               	retlw	101	;'e'
   379  101F  3473               	retlw	115	;'s'
   380  1020  3461               	retlw	97	;'a'
   381  1021  3472               	retlw	114	;'r'
   382  1022  3420               	retlw	32	;' '
   383  1023  3443               	retlw	67	;'C'
   384  1024  3465               	retlw	101	;'e'
   385  1025  346E               	retlw	110	;'n'
   386  1026  3474               	retlw	116	;'t'
   387  1027  3465               	retlw	101	;'e'
   388  1028  346E               	retlw	110	;'n'
   389  1029  3461               	retlw	97	;'a'
   390  102A  343A               	retlw	58	;':'
   391  102B  3420               	retlw	32	;' '
   392  102C  3452               	retlw	82	;'R'
   393  102D  3461               	retlw	97	;'a'
   394  102E  346E               	retlw	110	;'n'
   395  102F  3467               	retlw	103	;'g'
   396  1030  346F               	retlw	111	;'o'
   397  1031  3428               	retlw	40	;'('
   398  1032  3430               	retlw	48	;'0'
   399  1033  342D               	retlw	45	;'-'
   400  1034  3432               	retlw	50	;'2'
   401  1035  3429               	retlw	41	;')'
   402  1036  340D               	retlw	13
   403  1037  3400               	retlw	0
   404  1038                     STR_6:
   405  1038  3445               	retlw	69	;'E'
   406  1039  346C               	retlw	108	;'l'
   407  103A  3420               	retlw	32	;' '
   408  103B  346E               	retlw	110	;'n'
   409  103C  3475               	retlw	117	;'u'
   410  103D  346D               	retlw	109	;'m'
   411  103E  3465               	retlw	101	;'e'
   412  103F  3472               	retlw	114	;'r'
   413  1040  346F               	retlw	111	;'o'
   414  1041  3420               	retlw	32	;' '
   415  1042  3465               	retlw	101	;'e'
   416  1043  346C               	retlw	108	;'l'
   417  1044  3465               	retlw	101	;'e'
   418  1045  3467               	retlw	103	;'g'
   419  1046  3469               	retlw	105	;'i'
   420  1047  3464               	retlw	100	;'d'
   421  1048  346F               	retlw	111	;'o'
   422  1049  3420               	retlw	32	;' '
   423  104A  3465               	retlw	101	;'e'
   424  104B  3473               	retlw	115	;'s'
   425  104C  343A               	retlw	58	;':'
   426  104D  3420               	retlw	32	;' '
   427  104E  3425               	retlw	37	;'%'
   428  104F  3464               	retlw	100	;'d'
   429  1050  3400               	retlw	0
   430  1051                     STR_1:
   431  1051  340D               	retlw	13
   432  1052  3420               	retlw	32	;' '
   433  1053  3476               	retlw	118	;'v'
   434  1054  3461               	retlw	97	;'a'
   435  1055  346C               	retlw	108	;'l'
   436  1056  346F               	retlw	111	;'o'
   437  1057  3472               	retlw	114	;'r'
   438  1058  3420               	retlw	32	;' '
   439  1059  3464               	retlw	100	;'d'
   440  105A  3465               	retlw	101	;'e'
   441  105B  346C               	retlw	108	;'l'
   442  105C  3420               	retlw	32	;' '
   443  105D  3463               	retlw	99	;'c'
   444  105E  346F               	retlw	111	;'o'
   445  105F  346E               	retlw	110	;'n'
   446  1060  3474               	retlw	116	;'t'
   447  1061  3461               	retlw	97	;'a'
   448  1062  3464               	retlw	100	;'d'
   449  1063  346F               	retlw	111	;'o'
   450  1064  3472               	retlw	114	;'r'
   451  1065  343A               	retlw	58	;':'
   452  1066  3420               	retlw	32	;' '
   453  1067  340D               	retlw	13
   454  1068  3400               	retlw	0
   455  1069                     STR_5:
   456  1069  3449               	retlw	73	;'I'
   457  106A  346E               	retlw	110	;'n'
   458  106B  3467               	retlw	103	;'g'
   459  106C  3472               	retlw	114	;'r'
   460  106D  3465               	retlw	101	;'e'
   461  106E  3473               	retlw	115	;'s'
   462  106F  3461               	retlw	97	;'a'
   463  1070  3472               	retlw	114	;'r'
   464  1071  3420               	retlw	32	;' '
   465  1072  3455               	retlw	85	;'U'
   466  1073  346E               	retlw	110	;'n'
   467  1074  3469               	retlw	105	;'i'
   468  1075  3464               	retlw	100	;'d'
   469  1076  3461               	retlw	97	;'a'
   470  1077  3464               	retlw	100	;'d'
   471  1078  3465               	retlw	101	;'e'
   472  1079  3473               	retlw	115	;'s'
   473  107A  343A               	retlw	58	;':'
   474  107B  3420               	retlw	32	;' '
   475  107C  340D               	retlw	13
   476  107D  3400               	retlw	0
   477  107E                     STR_4:
   478  107E  3449               	retlw	73	;'I'
   479  107F  346E               	retlw	110	;'n'
   480  1080  3467               	retlw	103	;'g'
   481  1081  3472               	retlw	114	;'r'
   482  1082  3465               	retlw	101	;'e'
   483  1083  3473               	retlw	115	;'s'
   484  1084  3461               	retlw	97	;'a'
   485  1085  3472               	retlw	114	;'r'
   486  1086  3420               	retlw	32	;' '
   487  1087  3444               	retlw	68	;'D'
   488  1088  3465               	retlw	101	;'e'
   489  1089  3463               	retlw	99	;'c'
   490  108A  3465               	retlw	101	;'e'
   491  108B  346E               	retlw	110	;'n'
   492  108C  3461               	retlw	97	;'a'
   493  108D  3473               	retlw	115	;'s'
   494  108E  343A               	retlw	58	;':'
   495  108F  3420               	retlw	32	;' '
   496  1090  340D               	retlw	13
   497  1091  3400               	retlw	0
   498  1092                     STR_2:
   499  1092  340D               	retlw	13
   500  1093  342D               	retlw	45	;'-'
   501  1094  342D               	retlw	45	;'-'
   502  1095  342D               	retlw	45	;'-'
   503  1096  342D               	retlw	45	;'-'
   504  1097  342D               	retlw	45	;'-'
   505  1098  342D               	retlw	45	;'-'
   506  1099  342D               	retlw	45	;'-'
   507  109A  342D               	retlw	45	;'-'
   508  109B  342D               	retlw	45	;'-'
   509  109C  342D               	retlw	45	;'-'
   510  109D  342D               	retlw	45	;'-'
   511  109E  342D               	retlw	45	;'-'
   512  109F  342D               	retlw	45	;'-'
   513  10A0  342D               	retlw	45	;'-'
   514  10A1  342D               	retlw	45	;'-'
   515  10A2  340D               	retlw	13
   516  10A3  3400               	retlw	0
   517  104E                     
   518                           	psect	cinit
   519  000F                     start_initialization:	
   520                           ; #config settings
   521                           
   522  000F                     __initialization:
   523                           
   524                           ; Clear objects allocated to COMMON
   525  000F  01F8               	clrf	__pbssCOMMON& (0+127)
   526  0010  01F9               	clrf	(__pbssCOMMON+1)& (0+127)
   527  0011  01FA               	clrf	(__pbssCOMMON+2)& (0+127)
   528                           
   529                           ; Clear objects allocated to BANK1
   530  0012  1683               	bsf	3,5	;RP0=1, select bank1
   531  0013  1303               	bcf	3,6	;RP1=0, select bank1
   532  0014  01B7               	clrf	__pbssBANK1& (0+127)
   533  0015  01B8               	clrf	(__pbssBANK1+1)& (0+127)
   534  0016  01B9               	clrf	(__pbssBANK1+2)& (0+127)
   535  0017  01BA               	clrf	(__pbssBANK1+3)& (0+127)
   536  0018  01BB               	clrf	(__pbssBANK1+4)& (0+127)
   537  0019  01BC               	clrf	(__pbssBANK1+5)& (0+127)
   538  001A  01BD               	clrf	(__pbssBANK1+6)& (0+127)
   539  001B  01BE               	clrf	(__pbssBANK1+7)& (0+127)
   540  001C  01BF               	clrf	(__pbssBANK1+8)& (0+127)
   541  001D  01C0               	clrf	(__pbssBANK1+9)& (0+127)
   542  001E  01C1               	clrf	(__pbssBANK1+10)& (0+127)
   543  001F  01C2               	clrf	(__pbssBANK1+11)& (0+127)
   544  0020  01C3               	clrf	(__pbssBANK1+12)& (0+127)
   545  0021  01C4               	clrf	(__pbssBANK1+13)& (0+127)
   546  0022                     end_of_initialization:	
   547                           ;End of C runtime variable initialization code
   548                           
   549  0022                     __end_of__initialization:
   550  0022  0183               	clrf	3
   551  0023  160A  118A  2E6A   	ljmp	_main	;jump to C main() function
   552                           
   553                           	psect	bssCOMMON
   554  0078                     __pbssCOMMON:
   555  0078                     _centena:
   556  0078                     	ds	1
   557  0079                     _decena:
   558  0079                     	ds	1
   559  007A                     _unidad:
   560  007A                     	ds	1
   561                           
   562                           	psect	bssBANK1
   563  00B7                     __pbssBANK1:
   564  00B7                     _full:
   565  00B7                     	ds	2
   566  00B9                     _concatenado:
   567  00B9                     	ds	1
   568  00BA                     _contador:
   569  00BA                     	ds	1
   570  00BB                     _contador_string:
   571  00BB                     	ds	10
   572                           
   573                           	psect	cstackBANK1
   574  00A0                     __pcstackBANK1:
   575  00A0                     ??_mensaje:
   576  00A0                     convert@temp:	
   577                           ; 1 bytes @ 0x0
   578                           
   579                           
   580                           ; 2 bytes @ 0x0
   581  00A0                     	ds	2
   582  00A2                     convert@j:
   583                           
   584                           ; 2 bytes @ 0x2
   585  00A2                     	ds	2
   586  00A4                     convert@data:
   587                           
   588                           ; 1 bytes @ 0x4
   589  00A4                     	ds	1
   590  00A5                     convert@x:
   591                           
   592                           ; 4 bytes @ 0x5
   593  00A5                     	ds	4
   594  00A9                     convert@i:
   595                           
   596                           ; 2 bytes @ 0x9
   597  00A9                     	ds	2
   598  00AB                     convert@digits:
   599                           
   600                           ; 2 bytes @ 0xB
   601  00AB                     	ds	2
   602  00AD                     convert@mu:
   603                           
   604                           ; 2 bytes @ 0xD
   605  00AD                     	ds	2
   606  00AF                     ??_main:
   607                           
   608                           ; 1 bytes @ 0xF
   609  00AF                     	ds	4
   610  00B3                     _main$1275:
   611                           
   612                           ; 4 bytes @ 0x13
   613  00B3                     	ds	4
   614                           
   615                           	psect	cstackCOMMON
   616  0070                     __pcstackCOMMON:
   617  0070                     ?_isdigit:
   618  0070                     ?_setup:	
   619                           ; 1 bit 
   620                           
   621  0070                     ?_mensaje:	
   622                           ; 1 bytes @ 0x0
   623                           
   624  0070                     ?_isr:	
   625                           ; 1 bytes @ 0x0
   626                           
   627  0070                     ??_isr:	
   628                           ; 1 bytes @ 0x0
   629                           
   630  0070                     ?_main:	
   631                           ; 1 bytes @ 0x0
   632                           
   633                           
   634                           ; 1 bytes @ 0x0
   635  0070                     	ds	3
   636  0073                     ??_setup:
   637  0073                     ?_strcat:	
   638                           ; 1 bytes @ 0x3
   639                           
   640  0073                     ??_isdigit:	
   641                           ; 1 bytes @ 0x3
   642                           
   643  0073                     ?_putch:	
   644                           ; 1 bytes @ 0x3
   645                           
   646  0073                     ??___flge:	
   647                           ; 1 bytes @ 0x3
   648                           
   649  0073                     ?__Umul8_16:	
   650                           ; 1 bytes @ 0x3
   651                           
   652  0073                     ?___awdiv:	
   653                           ; 2 bytes @ 0x3
   654                           
   655  0073                     ?___lwdiv:	
   656                           ; 2 bytes @ 0x3
   657                           
   658  0073                     ?___fltol:	
   659                           ; 2 bytes @ 0x3
   660                           
   661  0073                     putch@dato:	
   662                           ; 4 bytes @ 0x3
   663                           
   664  0073                     ___fladd@signs:	
   665                           ; 1 bytes @ 0x3
   666                           
   667  0073                     __Umul8_16@multiplicand:	
   668                           ; 1 bytes @ 0x3
   669                           
   670  0073                     _isdigit$1008:	
   671                           ; 1 bytes @ 0x3
   672                           
   673  0073                     strcat@from:	
   674                           ; 1 bytes @ 0x3
   675                           
   676  0073                     ___awdiv@divisor:	
   677                           ; 1 bytes @ 0x3
   678                           
   679  0073                     ___lwdiv@divisor:	
   680                           ; 2 bytes @ 0x3
   681                           
   682  0073                     ___fltol@f1:	
   683                           ; 2 bytes @ 0x3
   684                           
   685                           
   686                           ; 4 bytes @ 0x3
   687  0073                     	ds	1
   688  0074                     ??_strcat:
   689  0074                     ??_putch:	
   690                           ; 1 bytes @ 0x4
   691                           
   692  0074                     ___fladd@aexp:	
   693                           ; 1 bytes @ 0x4
   694                           
   695  0074                     isdigit@c:	
   696                           ; 1 bytes @ 0x4
   697                           
   698                           
   699                           ; 1 bytes @ 0x4
   700  0074                     	ds	1
   701  0075                     ??__Umul8_16:
   702  0075                     ___fladd@bexp:	
   703                           ; 1 bytes @ 0x5
   704                           
   705  0075                     strcat@to:	
   706                           ; 1 bytes @ 0x5
   707                           
   708  0075                     ___awdiv@dividend:	
   709                           ; 1 bytes @ 0x5
   710                           
   711  0075                     ___lwdiv@dividend:	
   712                           ; 2 bytes @ 0x5
   713                           
   714                           
   715                           ; 2 bytes @ 0x5
   716  0075                     	ds	1
   717  0076                     ___fladd@grs:
   718  0076                     strcat@cp:	
   719                           ; 1 bytes @ 0x6
   720                           
   721                           
   722                           ; 1 bytes @ 0x6
   723  0076                     	ds	1
   724  0077                     ??___wmul:
   725  0077                     ??___awdiv:	
   726                           ; 1 bytes @ 0x7
   727                           
   728  0077                     ??___lwdiv:	
   729                           ; 1 bytes @ 0x7
   730                           
   731  0077                     ??___flsub:	
   732                           ; 1 bytes @ 0x7
   733                           
   734                           
   735                           ; 1 bytes @ 0x7
   736  0077                     	ds	1
   737                           
   738                           	psect	cstackBANK0
   739  0020                     __pcstackBANK0:
   740  0020                     ?___flge:
   741  0020                     ??___fltol:	
   742                           ; 1 bit 
   743                           
   744  0020                     ?___fladd:	
   745                           ; 1 bytes @ 0x0
   746                           
   747  0020                     ___awdiv@counter:	
   748                           ; 4 bytes @ 0x0
   749                           
   750  0020                     ___lwdiv@counter:	
   751                           ; 1 bytes @ 0x0
   752                           
   753  0020                     __Umul8_16@product:	
   754                           ; 1 bytes @ 0x0
   755                           
   756  0020                     ___flge@ff1:	
   757                           ; 2 bytes @ 0x0
   758                           
   759  0020                     ___fladd@b:	
   760                           ; 4 bytes @ 0x0
   761                           
   762                           
   763                           ; 4 bytes @ 0x0
   764  0020                     	ds	1
   765  0021                     ___awdiv@sign:
   766  0021                     ___lwdiv@quotient:	
   767                           ; 1 bytes @ 0x1
   768                           
   769                           
   770                           ; 2 bytes @ 0x1
   771  0021                     	ds	1
   772  0022                     ___awdiv@quotient:
   773  0022                     __Umul8_16@word_mpld:	
   774                           ; 2 bytes @ 0x2
   775                           
   776                           
   777                           ; 2 bytes @ 0x2
   778  0022                     	ds	1
   779  0023                     ?___lwmod:
   780  0023                     ___lwmod@divisor:	
   781                           ; 2 bytes @ 0x3
   782                           
   783                           
   784                           ; 2 bytes @ 0x3
   785  0023                     	ds	1
   786  0024                     __Umul8_16@multiplier:
   787  0024                     ___flge@ff2:	
   788                           ; 1 bytes @ 0x4
   789                           
   790  0024                     ___fladd@a:	
   791                           ; 4 bytes @ 0x4
   792                           
   793                           
   794                           ; 4 bytes @ 0x4
   795  0024                     	ds	1
   796  0025                     ___fltol@sign1:
   797  0025                     ___lwmod@dividend:	
   798                           ; 1 bytes @ 0x5
   799                           
   800                           
   801                           ; 2 bytes @ 0x5
   802  0025                     	ds	1
   803  0026                     ___fltol@exp1:
   804                           
   805                           ; 1 bytes @ 0x6
   806  0026                     	ds	1
   807  0027                     ??___lwmod:
   808  0027                     ?___wmul:	
   809                           ; 1 bytes @ 0x7
   810                           
   811  0027                     ___wmul@multiplier:	
   812                           ; 2 bytes @ 0x7
   813                           
   814                           
   815                           ; 2 bytes @ 0x7
   816  0027                     	ds	1
   817  0028                     ??___fladd:
   818  0028                     ___lwmod@counter:	
   819                           ; 1 bytes @ 0x8
   820                           
   821                           
   822                           ; 1 bytes @ 0x8
   823  0028                     	ds	1
   824  0029                     ?__doprnt:
   825  0029                     ___wmul@multiplicand:	
   826                           ; 2 bytes @ 0x9
   827                           
   828  0029                     __doprnt@f:	
   829                           ; 2 bytes @ 0x9
   830                           
   831                           
   832                           ; 2 bytes @ 0x9
   833  0029                     	ds	2
   834  002B                     __doprnt@ap:
   835  002B                     ___wmul@product:	
   836                           ; 1 bytes @ 0xB
   837                           
   838                           
   839                           ; 2 bytes @ 0xB
   840  002B                     	ds	1
   841  002C                     ??__doprnt:
   842                           
   843                           ; 1 bytes @ 0xC
   844  002C                     	ds	1
   845  002D                     ?_atoi:
   846  002D                     ?___xxtofl:	
   847                           ; 2 bytes @ 0xD
   848                           
   849  002D                     ___xxtofl@val:	
   850                           ; 4 bytes @ 0xD
   851                           
   852                           
   853                           ; 4 bytes @ 0xD
   854  002D                     	ds	2
   855  002F                     ??_atoi:
   856                           
   857                           ; 1 bytes @ 0xF
   858  002F                     	ds	1
   859  0030                     __doprnt@flag:
   860                           
   861                           ; 1 bytes @ 0x10
   862  0030                     	ds	1
   863  0031                     ??___xxtofl:
   864  0031                     atoi@sign:	
   865                           ; 1 bytes @ 0x11
   866                           
   867  0031                     __doprnt@prec:	
   868                           ; 1 bytes @ 0x11
   869                           
   870                           
   871                           ; 1 bytes @ 0x11
   872  0031                     	ds	1
   873  0032                     atoi@a:
   874  0032                     __doprnt@val:	
   875                           ; 2 bytes @ 0x12
   876                           
   877                           
   878                           ; 2 bytes @ 0x12
   879  0032                     	ds	2
   880  0034                     atoi@s:
   881  0034                     __doprnt@c:	
   882                           ; 1 bytes @ 0x14
   883                           
   884                           
   885                           ; 1 bytes @ 0x14
   886  0034                     	ds	1
   887  0035                     ___xxtofl@sign:
   888  0035                     __doprnt@pb:	
   889                           ; 1 bytes @ 0x15
   890                           
   891                           
   892                           ; 1 bytes @ 0x15
   893  0035                     	ds	1
   894  0036                     ?_printf:
   895  0036                     ?_sprintf:	
   896                           ; 2 bytes @ 0x16
   897                           
   898  0036                     ___xxtofl@exp:	
   899                           ; 2 bytes @ 0x16
   900                           
   901  0036                     sprintf@f:	
   902                           ; 1 bytes @ 0x16
   903                           
   904  0036                     printf@f:	
   905                           ; 1 bytes @ 0x16
   906                           
   907                           
   908                           ; 2 bytes @ 0x16
   909  0036                     	ds	1
   910  0037                     ___xxtofl@arg:
   911                           
   912                           ; 4 bytes @ 0x17
   913  0037                     	ds	2
   914  0039                     ??_sprintf:
   915                           
   916                           ; 1 bytes @ 0x19
   917  0039                     	ds	1
   918  003A                     ??_printf:
   919  003A                     sprintf@wh:	
   920                           ; 1 bytes @ 0x1A
   921                           
   922                           
   923                           ; 1 bytes @ 0x1A
   924  003A                     	ds	1
   925  003B                     ?___flsub:
   926  003B                     ?___fldiv:	
   927                           ; 4 bytes @ 0x1B
   928                           
   929  003B                     printf@ap:	
   930                           ; 4 bytes @ 0x1B
   931                           
   932  003B                     sprintf@ap:	
   933                           ; 1 bytes @ 0x1B
   934                           
   935  003B                     ___flsub@a:	
   936                           ; 1 bytes @ 0x1B
   937                           
   938  003B                     ___fldiv@a:	
   939                           ; 4 bytes @ 0x1B
   940                           
   941                           
   942                           ; 4 bytes @ 0x1B
   943  003B                     	ds	1
   944  003C                     printf@pb:
   945  003C                     sprintf@pb:	
   946                           ; 2 bytes @ 0x1C
   947                           
   948                           
   949                           ; 2 bytes @ 0x1C
   950  003C                     	ds	2
   951  003E                     ?_concatenar:
   952  003E                     concatenar@a:	
   953                           ; 2 bytes @ 0x1E
   954                           
   955                           
   956                           ; 2 bytes @ 0x1E
   957  003E                     	ds	1
   958  003F                     ___flsub@b:
   959  003F                     ___fldiv@b:	
   960                           ; 4 bytes @ 0x1F
   961                           
   962                           
   963                           ; 4 bytes @ 0x1F
   964  003F                     	ds	1
   965  0040                     concatenar@b:
   966                           
   967                           ; 2 bytes @ 0x20
   968  0040                     	ds	2
   969  0042                     ??_concatenar:
   970                           
   971                           ; 1 bytes @ 0x22
   972  0042                     	ds	1
   973  0043                     ??___fldiv:
   974  0043                     ?___flmul:	
   975                           ; 1 bytes @ 0x23
   976                           
   977  0043                     ___flmul@b:	
   978                           ; 4 bytes @ 0x23
   979                           
   980  0043                     concatenar@s2:	
   981                           ; 4 bytes @ 0x23
   982                           
   983                           
   984                           ; 20 bytes @ 0x23
   985  0043                     	ds	4
   986  0047                     ___flmul@a:
   987                           
   988                           ; 4 bytes @ 0x27
   989  0047                     	ds	1
   990  0048                     ___fldiv@rem:
   991                           
   992                           ; 4 bytes @ 0x28
   993  0048                     	ds	3
   994  004B                     ??___flmul:
   995                           
   996                           ; 1 bytes @ 0x2B
   997  004B                     	ds	1
   998  004C                     ___fldiv@sign:
   999                           
  1000                           ; 1 bytes @ 0x2C
  1001  004C                     	ds	1
  1002  004D                     ___fldiv@new_exp:
  1003                           
  1004                           ; 2 bytes @ 0x2D
  1005  004D                     	ds	2
  1006  004F                     ___fldiv@grs:
  1007                           
  1008                           ; 4 bytes @ 0x2F
  1009  004F                     	ds	1
  1010  0050                     ___flmul@sign:
  1011                           
  1012                           ; 1 bytes @ 0x30
  1013  0050                     	ds	1
  1014  0051                     ___flmul@aexp:
  1015                           
  1016                           ; 1 bytes @ 0x31
  1017  0051                     	ds	1
  1018  0052                     ___flmul@grs:
  1019                           
  1020                           ; 4 bytes @ 0x32
  1021  0052                     	ds	1
  1022  0053                     ___fldiv@bexp:
  1023                           
  1024                           ; 1 bytes @ 0x33
  1025  0053                     	ds	1
  1026  0054                     ___fldiv@aexp:
  1027                           
  1028                           ; 1 bytes @ 0x34
  1029  0054                     	ds	2
  1030  0056                     ___flmul@bexp:
  1031                           
  1032                           ; 1 bytes @ 0x36
  1033  0056                     	ds	1
  1034  0057                     ___flmul@prod:
  1035  0057                     concatenar@s1:	
  1036                           ; 4 bytes @ 0x37
  1037                           
  1038                           
  1039                           ; 20 bytes @ 0x37
  1040  0057                     	ds	4
  1041  005B                     ___flmul@temp:
  1042                           
  1043                           ; 2 bytes @ 0x3B
  1044  005B                     	ds	2
  1045  005D                     ?_convert:
  1046  005D                     convert@a:	
  1047                           ; 1 bytes @ 0x3D
  1048                           
  1049                           
  1050                           ; 4 bytes @ 0x3D
  1051  005D                     	ds	4
  1052  0061                     convert@place:
  1053                           
  1054                           ; 2 bytes @ 0x41
  1055  0061                     	ds	2
  1056  0063                     ??_convert:
  1057                           
  1058                           ; 1 bytes @ 0x43
  1059  0063                     	ds	8
  1060  006B                     concatenar@c:
  1061                           
  1062                           ; 2 bytes @ 0x4B
  1063  006B                     	ds	2
  1064                           
  1065                           	psect	maintext
  1066  166A                     __pmaintext:	
  1067 ;;
  1068 ;;Main: autosize = 0, tempsize = 4, incstack = 0, save=0
  1069 ;;
  1070 ;; *************** function _main *****************
  1071 ;; Defined at:
  1072 ;;		line 69 in file "Lab05.c"
  1073 ;; Parameters:    Size  Location     Type
  1074 ;;		None
  1075 ;; Auto vars:     Size  Location     Type
  1076 ;;		None
  1077 ;; Return value:  Size  Location     Type
  1078 ;;                  1    wreg      void 
  1079 ;; Registers used:
  1080 ;;		wreg, fsr0l, fsr0h, status,2, status,0, btemp+1, pclath, cstack
  1081 ;; Tracked objects:
  1082 ;;		On entry : B00/0
  1083 ;;		On exit  : 0/0
  1084 ;;		Unchanged: 0/0
  1085 ;; Data sizes:     COMMON   BANK0   BANK1   BANK3   BANK2
  1086 ;;      Params:         0       0       0       0       0
  1087 ;;      Locals:         0       0       4       0       0
  1088 ;;      Temps:          0       0       4       0       0
  1089 ;;      Totals:         0       0       8       0       0
  1090 ;;Total ram usage:        8 bytes
  1091 ;; Hardware stack levels required when called:    6
  1092 ;; This function calls:
  1093 ;;		___xxtofl
  1094 ;;		_convert
  1095 ;;		_mensaje
  1096 ;;		_setup
  1097 ;; This function is called by:
  1098 ;;		Startup code after reset
  1099 ;; This function uses a non-reentrant model
  1100 ;;
  1101                           
  1102                           
  1103                           ;psect for function _main
  1104  166A                     _main:
  1105  166A                     l4183:	
  1106                           ;incstack = 0
  1107                           ; Regs used in _main: [wreg-fsr0h+status,2+status,0+btemp+1+pclath+cstack]
  1108                           
  1109                           
  1110                           ;Lab05.c: 70:      setup();
  1111  166A  160A  118A  2553  160A  118A  	fcall	_setup
  1112  166F                     l4185:
  1113                           
  1114                           ;Lab05.c: 72:          mensaje();
  1115  166F  120A  158A  2100  160A  118A  	fcall	_mensaje
  1116  1674                     l4187:
  1117                           
  1118                           ;Lab05.c: 73:          PORTA = full;
  1119  1674  1683               	bsf	3,5	;RP0=1, select bank1
  1120  1675  1303               	bcf	3,6	;RP1=0, select bank1
  1121  1676  0837               	movf	_full^(0+128),w
  1122  1677  1283               	bcf	3,5	;RP0=0, select bank0
  1123  1678  1303               	bcf	3,6	;RP1=0, select bank0
  1124  1679  0085               	movwf	5	;volatile
  1125  167A                     l4189:
  1126                           
  1127                           ;Lab05.c: 74:          convert (contador_string, contador, 2);
  1128  167A  1683               	bsf	3,5	;RP0=1, select bank1
  1129  167B  1303               	bcf	3,6	;RP1=0, select bank1
  1130  167C  083A               	movf	_contador^(0+128),w
  1131  167D  00AF               	movwf	??_main^(0+128)
  1132  167E  01B0               	clrf	(??_main^(0+128)+1)
  1133  167F  01B1               	clrf	(??_main^(0+128)+2)
  1134  1680  01B2               	clrf	(??_main^(0+128)+3)
  1135  1681  0832               	movf	(??_main+3)^(0+128),w
  1136  1682  1283               	bcf	3,5	;RP0=0, select bank0
  1137  1683  1303               	bcf	3,6	;RP1=0, select bank0
  1138  1684  00B0               	movwf	___xxtofl@val+3
  1139  1685  1683               	bsf	3,5	;RP0=1, select bank1
  1140  1686  1303               	bcf	3,6	;RP1=0, select bank1
  1141  1687  0831               	movf	(??_main+2)^(0+128),w
  1142  1688  1283               	bcf	3,5	;RP0=0, select bank0
  1143  1689  1303               	bcf	3,6	;RP1=0, select bank0
  1144  168A  00AF               	movwf	___xxtofl@val+2
  1145  168B  1683               	bsf	3,5	;RP0=1, select bank1
  1146  168C  1303               	bcf	3,6	;RP1=0, select bank1
  1147  168D  0830               	movf	(??_main+1)^(0+128),w
  1148  168E  1283               	bcf	3,5	;RP0=0, select bank0
  1149  168F  1303               	bcf	3,6	;RP1=0, select bank0
  1150  1690  00AE               	movwf	___xxtofl@val+1
  1151  1691  1683               	bsf	3,5	;RP0=1, select bank1
  1152  1692  1303               	bcf	3,6	;RP1=0, select bank1
  1153  1693  082F               	movf	??_main^(0+128),w
  1154  1694  1283               	bcf	3,5	;RP0=0, select bank0
  1155  1695  1303               	bcf	3,6	;RP1=0, select bank0
  1156  1696  00AD               	movwf	___xxtofl@val
  1157  1697  3000               	movlw	0
  1158  1698  120A  158A  2044  160A  118A  	fcall	___xxtofl
  1159  169D  1283               	bcf	3,5	;RP0=0, select bank0
  1160  169E  1303               	bcf	3,6	;RP1=0, select bank0
  1161  169F  0830               	movf	?___xxtofl+3,w
  1162  16A0  1683               	bsf	3,5	;RP0=1, select bank1
  1163  16A1  1303               	bcf	3,6	;RP1=0, select bank1
  1164  16A2  00B6               	movwf	(_main$1275+3)^(0+128)
  1165  16A3  1283               	bcf	3,5	;RP0=0, select bank0
  1166  16A4  1303               	bcf	3,6	;RP1=0, select bank0
  1167  16A5  082F               	movf	?___xxtofl+2,w
  1168  16A6  1683               	bsf	3,5	;RP0=1, select bank1
  1169  16A7  1303               	bcf	3,6	;RP1=0, select bank1
  1170  16A8  00B5               	movwf	(_main$1275+2)^(0+128)
  1171  16A9  1283               	bcf	3,5	;RP0=0, select bank0
  1172  16AA  1303               	bcf	3,6	;RP1=0, select bank0
  1173  16AB  082E               	movf	?___xxtofl+1,w
  1174  16AC  1683               	bsf	3,5	;RP0=1, select bank1
  1175  16AD  1303               	bcf	3,6	;RP1=0, select bank1
  1176  16AE  00B4               	movwf	(_main$1275+1)^(0+128)
  1177  16AF  1283               	bcf	3,5	;RP0=0, select bank0
  1178  16B0  1303               	bcf	3,6	;RP1=0, select bank0
  1179  16B1  082D               	movf	?___xxtofl,w
  1180  16B2  1683               	bsf	3,5	;RP0=1, select bank1
  1181  16B3  1303               	bcf	3,6	;RP1=0, select bank1
  1182  16B4  00B3               	movwf	_main$1275^(0+128)
  1183  16B5                     l4191:
  1184                           
  1185                           ;Lab05.c: 74:          convert (contador_string, contador, 2);
  1186  16B5  0836               	movf	(_main$1275+3)^(0+128),w
  1187  16B6  1283               	bcf	3,5	;RP0=0, select bank0
  1188  16B7  1303               	bcf	3,6	;RP1=0, select bank0
  1189  16B8  00E0               	movwf	convert@a+3
  1190  16B9  1683               	bsf	3,5	;RP0=1, select bank1
  1191  16BA  1303               	bcf	3,6	;RP1=0, select bank1
  1192  16BB  0835               	movf	(_main$1275+2)^(0+128),w
  1193  16BC  1283               	bcf	3,5	;RP0=0, select bank0
  1194  16BD  1303               	bcf	3,6	;RP1=0, select bank0
  1195  16BE  00DF               	movwf	convert@a+2
  1196  16BF  1683               	bsf	3,5	;RP0=1, select bank1
  1197  16C0  1303               	bcf	3,6	;RP1=0, select bank1
  1198  16C1  0834               	movf	(_main$1275+1)^(0+128),w
  1199  16C2  1283               	bcf	3,5	;RP0=0, select bank0
  1200  16C3  1303               	bcf	3,6	;RP1=0, select bank0
  1201  16C4  00DE               	movwf	convert@a+1
  1202  16C5  1683               	bsf	3,5	;RP0=1, select bank1
  1203  16C6  1303               	bcf	3,6	;RP1=0, select bank1
  1204  16C7  0833               	movf	_main$1275^(0+128),w
  1205  16C8  1283               	bcf	3,5	;RP0=0, select bank0
  1206  16C9  1303               	bcf	3,6	;RP1=0, select bank0
  1207  16CA  00DD               	movwf	convert@a
  1208  16CB  3002               	movlw	2
  1209  16CC  00E1               	movwf	convert@place
  1210  16CD  3000               	movlw	0
  1211  16CE  00E2               	movwf	convert@place+1
  1212  16CF  30BB               	movlw	(low (_contador_string| 0))& (0+255)
  1213  16D0  120A  118A  202F  160A  118A  	fcall	_convert
  1214  16D5  2E6F               	goto	l4185
  1215  16D6  120A  118A  280C   	ljmp	start
  1216  16D9                     __end_of_main:
  1217                           
  1218                           	psect	text1
  1219  1553                     __ptext1:	
  1220 ;; *************** function _setup *****************
  1221 ;; Defined at:
  1222 ;;		line 148 in file "Lab05.c"
  1223 ;; Parameters:    Size  Location     Type
  1224 ;;		None
  1225 ;; Auto vars:     Size  Location     Type
  1226 ;;		None
  1227 ;; Return value:  Size  Location     Type
  1228 ;;                  1    wreg      void 
  1229 ;; Registers used:
  1230 ;;		wreg, status,2
  1231 ;; Tracked objects:
  1232 ;;		On entry : 0/0
  1233 ;;		On exit  : 0/0
  1234 ;;		Unchanged: 0/0
  1235 ;; Data sizes:     COMMON   BANK0   BANK1   BANK3   BANK2
  1236 ;;      Params:         0       0       0       0       0
  1237 ;;      Locals:         0       0       0       0       0
  1238 ;;      Temps:          0       0       0       0       0
  1239 ;;      Totals:         0       0       0       0       0
  1240 ;;Total ram usage:        0 bytes
  1241 ;; Hardware stack levels used:    1
  1242 ;; Hardware stack levels required when called:    1
  1243 ;; This function calls:
  1244 ;;		Nothing
  1245 ;; This function is called by:
  1246 ;;		_main
  1247 ;; This function uses a non-reentrant model
  1248 ;;
  1249                           
  1250                           
  1251                           ;psect for function _setup
  1252  1553                     _setup:
  1253  1553                     l3089:	
  1254                           ;incstack = 0
  1255                           ; Regs used in _setup: [wreg+status,2]
  1256                           
  1257                           
  1258                           ;Lab05.c: 149:      ANSEL = 0X00;
  1259  1553  1683               	bsf	3,5	;RP0=1, select bank3
  1260  1554  1703               	bsf	3,6	;RP1=1, select bank3
  1261  1555  0188               	clrf	8	;volatile
  1262                           
  1263                           ;Lab05.c: 150:      ANSELH = 0X00;
  1264  1556  0189               	clrf	9	;volatile
  1265                           
  1266                           ;Lab05.c: 152:      TRISA = 0X00;
  1267  1557  1683               	bsf	3,5	;RP0=1, select bank1
  1268  1558  1303               	bcf	3,6	;RP1=0, select bank1
  1269  1559  0185               	clrf	5	;volatile
  1270  155A                     l3091:
  1271                           
  1272                           ;Lab05.c: 153:      TRISB = 0x03;
  1273  155A  3003               	movlw	3
  1274  155B  0086               	movwf	6	;volatile
  1275  155C                     l3093:
  1276                           
  1277                           ;Lab05.c: 155:      PORTA = 0X00;
  1278  155C  1283               	bcf	3,5	;RP0=0, select bank0
  1279  155D  1303               	bcf	3,6	;RP1=0, select bank0
  1280  155E  0185               	clrf	5	;volatile
  1281  155F                     l3095:
  1282                           
  1283                           ;Lab05.c: 156:      PORTB = 0x00;
  1284  155F  0186               	clrf	6	;volatile
  1285  1560                     l3097:
  1286                           
  1287                           ;Lab05.c: 159:     OSCCONbits.IRCF2 = 1;
  1288  1560  1683               	bsf	3,5	;RP0=1, select bank1
  1289  1561  1303               	bcf	3,6	;RP1=0, select bank1
  1290  1562  170F               	bsf	15,6	;volatile
  1291  1563                     l3099:
  1292                           
  1293                           ;Lab05.c: 160:     OSCCONbits.IRCF1 = 1;
  1294  1563  168F               	bsf	15,5	;volatile
  1295  1564                     l3101:
  1296                           
  1297                           ;Lab05.c: 161:     OSCCONbits.IRCF0 = 1;
  1298  1564  160F               	bsf	15,4	;volatile
  1299  1565                     l3103:
  1300                           
  1301                           ;Lab05.c: 162:     OSCCONbits.SCS = 1;
  1302  1565  140F               	bsf	15,0	;volatile
  1303  1566                     l3105:
  1304                           
  1305                           ;Lab05.c: 166:     TXSTAbits.SYNC = 0;
  1306  1566  1218               	bcf	24,4	;volatile
  1307  1567                     l3107:
  1308                           
  1309                           ;Lab05.c: 167:     TXSTAbits.BRGH = 1;
  1310  1567  1518               	bsf	24,2	;volatile
  1311  1568                     l3109:
  1312                           
  1313                           ;Lab05.c: 168:     BAUDCTLbits.BRG16 = 1;
  1314  1568  1683               	bsf	3,5	;RP0=1, select bank3
  1315  1569  1703               	bsf	3,6	;RP1=1, select bank3
  1316  156A  1587               	bsf	7,3	;volatile
  1317  156B                     l3111:
  1318                           
  1319                           ;Lab05.c: 170:     SPBRG = 207;
  1320  156B  30CF               	movlw	207
  1321  156C  1683               	bsf	3,5	;RP0=1, select bank1
  1322  156D  1303               	bcf	3,6	;RP1=0, select bank1
  1323  156E  0099               	movwf	25	;volatile
  1324                           
  1325                           ;Lab05.c: 171:     SPBRGH = 0;
  1326  156F  019A               	clrf	26	;volatile
  1327  1570                     l3113:
  1328                           
  1329                           ;Lab05.c: 173:     RCSTAbits.SPEN = 1;
  1330  1570  1283               	bcf	3,5	;RP0=0, select bank0
  1331  1571  1303               	bcf	3,6	;RP1=0, select bank0
  1332  1572  1798               	bsf	24,7	;volatile
  1333  1573                     l3115:
  1334                           
  1335                           ;Lab05.c: 174:     RCSTAbits.RX9 = 0;
  1336  1573  1318               	bcf	24,6	;volatile
  1337  1574                     l3117:
  1338                           
  1339                           ;Lab05.c: 175:     RCSTAbits.CREN = 1;
  1340  1574  1618               	bsf	24,4	;volatile
  1341  1575                     l3119:
  1342                           
  1343                           ;Lab05.c: 176:     TXSTAbits.TXEN = 1;
  1344  1575  1683               	bsf	3,5	;RP0=1, select bank1
  1345  1576  1303               	bcf	3,6	;RP1=0, select bank1
  1346  1577  1698               	bsf	24,5	;volatile
  1347  1578                     l3121:
  1348                           
  1349                           ;Lab05.c: 180:     INTCONbits.GIE = 1;
  1350  1578  178B               	bsf	11,7	;volatile
  1351  1579                     l3123:
  1352                           
  1353                           ;Lab05.c: 181:     INTCONbits.PEIE = 1;
  1354  1579  170B               	bsf	11,6	;volatile
  1355  157A                     l3125:
  1356                           
  1357                           ;Lab05.c: 182:     INTCONbits.RBIE = 1;
  1358  157A  158B               	bsf	11,3	;volatile
  1359  157B                     l3127:
  1360                           
  1361                           ;Lab05.c: 184:     INTCONbits.RBIF = 0;
  1362  157B  100B               	bcf	11,0	;volatile
  1363  157C                     l3129:
  1364                           
  1365                           ;Lab05.c: 186:     IOCBbits.IOCB0 = 1;
  1366  157C  1416               	bsf	22,0	;volatile
  1367  157D                     l3131:
  1368                           
  1369                           ;Lab05.c: 187:     IOCBbits.IOCB1 = 1;
  1370  157D  1496               	bsf	22,1	;volatile
  1371  157E                     l222:
  1372  157E  0008               	return
  1373  157F                     __end_of_setup:
  1374                           
  1375                           	psect	text2
  1376  0900                     __ptext2:	
  1377 ;; *************** function _mensaje *****************
  1378 ;; Defined at:
  1379 ;;		line 79 in file "Lab05.c"
  1380 ;; Parameters:    Size  Location     Type
  1381 ;;		None
  1382 ;; Auto vars:     Size  Location     Type
  1383 ;;		None
  1384 ;; Return value:  Size  Location     Type
  1385 ;;                  1    wreg      void 
  1386 ;; Registers used:
  1387 ;;		wreg, fsr0l, fsr0h, status,2, status,0, btemp+1, pclath, cstack
  1388 ;; Tracked objects:
  1389 ;;		On entry : 0/0
  1390 ;;		On exit  : 0/0
  1391 ;;		Unchanged: 0/0
  1392 ;; Data sizes:     COMMON   BANK0   BANK1   BANK3   BANK2
  1393 ;;      Params:         0       0       0       0       0
  1394 ;;      Locals:         0       0       0       0       0
  1395 ;;      Temps:          0       0       5       0       0
  1396 ;;      Totals:         0       0       5       0       0
  1397 ;;Total ram usage:        5 bytes
  1398 ;; Hardware stack levels used:    1
  1399 ;; Hardware stack levels required when called:    5
  1400 ;; This function calls:
  1401 ;;		_concatenar
  1402 ;;		_printf
  1403 ;; This function is called by:
  1404 ;;		_main
  1405 ;; This function uses a non-reentrant model
  1406 ;;
  1407                           
  1408                           
  1409                           ;psect for function _mensaje
  1410  0900                     _mensaje:
  1411  0900                     l4147:	
  1412                           ;incstack = 0
  1413                           ; Regs used in _mensaje: [wreg-fsr0h+status,2+status,0+btemp+1+pclath+cstack]
  1414                           
  1415                           
  1416                           ;Lab05.c: 80:     _delay((unsigned long)((300)*(8000000/4000.0)));
  1417  0900  3004               	movlw	4
  1418  0901  1683               	bsf	3,5	;RP0=1, select bank1
  1419  0902  1303               	bcf	3,6	;RP1=0, select bank1
  1420  0903  00A2               	movwf	(??_mensaje^(0+128)+2)
  1421  0904  300C               	movlw	12
  1422  0905  00A1               	movwf	(??_mensaje^(0+128)+1)
  1423  0906  3033               	movlw	51
  1424  0907  00A0               	movwf	??_mensaje^(0+128)
  1425  0908                     u6377:
  1426  0908  0BA0               	decfsz	??_mensaje^(0+128),f
  1427  0909  2908               	goto	u6377
  1428  090A  0BA1               	decfsz	(??_mensaje^(0+128)+1),f
  1429  090B  2908               	goto	u6377
  1430  090C  0BA2               	decfsz	(??_mensaje^(0+128)+2),f
  1431  090D  2908               	goto	u6377
  1432  090E                     l4149:
  1433                           
  1434                           ;Lab05.c: 81:     printf("\r valor del contador: \r");
  1435  090E  3042               	movlw	(low ((STR_1-__stringbase)| (0+32768)))& (0+255)
  1436  090F  1283               	bcf	3,5	;RP0=0, select bank0
  1437  0910  1303               	bcf	3,6	;RP1=0, select bank0
  1438  0911  00B6               	movwf	printf@f
  1439  0912  3080               	movlw	128
  1440  0913  00B7               	movwf	printf@f+1
  1441  0914  160A  118A  244E  120A  158A  	fcall	_printf
  1442  0919                     l4151:
  1443                           
  1444                           ;Lab05.c: 82:     _delay((unsigned long)((300)*(8000000/4000.0)));
  1445  0919  3004               	movlw	4
  1446  091A  1683               	bsf	3,5	;RP0=1, select bank1
  1447  091B  1303               	bcf	3,6	;RP1=0, select bank1
  1448  091C  00A2               	movwf	(??_mensaje^(0+128)+2)
  1449  091D  300C               	movlw	12
  1450  091E  00A1               	movwf	(??_mensaje^(0+128)+1)
  1451  091F  3033               	movlw	51
  1452  0920  00A0               	movwf	??_mensaje^(0+128)
  1453  0921                     u6387:
  1454  0921  0BA0               	decfsz	??_mensaje^(0+128),f
  1455  0922  2921               	goto	u6387
  1456  0923  0BA1               	decfsz	(??_mensaje^(0+128)+1),f
  1457  0924  2921               	goto	u6387
  1458  0925  0BA2               	decfsz	(??_mensaje^(0+128)+2),f
  1459  0926  2921               	goto	u6387
  1460                           
  1461                           ;Lab05.c: 83:     printf(contador_string);
  1462  0927  30BB               	movlw	(low (_contador_string| 0))& (0+255)
  1463  0928  1283               	bcf	3,5	;RP0=0, select bank0
  1464  0929  1303               	bcf	3,6	;RP1=0, select bank0
  1465  092A  00B6               	movwf	printf@f
  1466  092B  3000               	movlw	0
  1467  092C  00B7               	movwf	printf@f+1
  1468  092D  160A  118A  244E  120A  158A  	fcall	_printf
  1469                           
  1470                           ;Lab05.c: 84:     printf("\r---------------\r");
  1471  0932  3083               	movlw	(low ((STR_2-__stringbase)| (0+32768)))& (0+255)
  1472  0933  1283               	bcf	3,5	;RP0=0, select bank0
  1473  0934  1303               	bcf	3,6	;RP1=0, select bank0
  1474  0935  00B6               	movwf	printf@f
  1475  0936  3080               	movlw	128
  1476  0937  00B7               	movwf	printf@f+1
  1477  0938  160A  118A  244E  120A  158A  	fcall	_printf
  1478                           
  1479                           ;Lab05.c: 86:     printf("Ingresar Centena: Rango(0-2)\r");
  1480  093D  300B               	movlw	(low ((STR_3-__stringbase)| (0+32768)))& (0+255)
  1481  093E  1283               	bcf	3,5	;RP0=0, select bank0
  1482  093F  1303               	bcf	3,6	;RP1=0, select bank0
  1483  0940  00B6               	movwf	printf@f
  1484  0941  3080               	movlw	128
  1485  0942  00B7               	movwf	printf@f+1
  1486  0943  160A  118A  244E  120A  158A  	fcall	_printf
  1487  0948                     l188:
  1488  0948  1283               	bcf	3,5	;RP0=0, select bank0
  1489  0949  1303               	bcf	3,6	;RP1=0, select bank0
  1490  094A  1E8C               	btfss	12,5	;volatile
  1491  094B  294D               	goto	u6281
  1492  094C  294E               	goto	u6280
  1493  094D                     u6281:
  1494  094D  2948               	goto	l188
  1495  094E                     u6280:
  1496  094E                     l4153:
  1497                           
  1498                           ;Lab05.c: 89:         centena = RCREG -48;
  1499  094E  081A               	movf	26,w	;volatile
  1500  094F  3ED0               	addlw	208
  1501  0950  1683               	bsf	3,5	;RP0=1, select bank1
  1502  0951  1303               	bcf	3,6	;RP1=0, select bank1
  1503  0952  00A0               	movwf	??_mensaje^(0+128)
  1504  0953  0820               	movf	??_mensaje^(0+128),w
  1505  0954  00F8               	movwf	_centena
  1506  0955                     l4155:	
  1507                           ;Lab05.c: 91:        while(RCREG > '2'){
  1508                           
  1509                           
  1510                           ;Lab05.c: 91:        while(RCREG > '2'){
  1511  0955  3033               	movlw	51
  1512  0956  1283               	bcf	3,5	;RP0=0, select bank0
  1513  0957  1303               	bcf	3,6	;RP1=0, select bank0
  1514  0958  021A               	subwf	26,w	;volatile
  1515  0959  1803               	skipnc
  1516  095A  295C               	goto	u6291
  1517  095B  295D               	goto	u6290
  1518  095C                     u6291:
  1519  095C  2948               	goto	l188
  1520  095D                     u6290:
  1521  095D                     l4157:
  1522                           
  1523                           ;Lab05.c: 96:     printf("Ingresar Decenas: \r");
  1524  095D  306F               	movlw	(low ((STR_4-__stringbase)| (0+32768)))& (0+255)
  1525  095E  00B6               	movwf	printf@f
  1526  095F  3080               	movlw	128
  1527  0960  00B7               	movwf	printf@f+1
  1528  0961  160A  118A  244E  120A  158A  	fcall	_printf
  1529  0966                     l195:
  1530  0966  1283               	bcf	3,5	;RP0=0, select bank0
  1531  0967  1303               	bcf	3,6	;RP1=0, select bank0
  1532  0968  1E8C               	btfss	12,5	;volatile
  1533  0969  296B               	goto	u6301
  1534  096A  296C               	goto	u6300
  1535  096B                     u6301:
  1536  096B  2966               	goto	l195
  1537  096C                     u6300:
  1538  096C                     l4159:
  1539                           
  1540                           ;Lab05.c: 99:          decena = RCREG -48;
  1541  096C  081A               	movf	26,w	;volatile
  1542  096D  3ED0               	addlw	208
  1543  096E  1683               	bsf	3,5	;RP0=1, select bank1
  1544  096F  1303               	bcf	3,6	;RP1=0, select bank1
  1545  0970  00A0               	movwf	??_mensaje^(0+128)
  1546  0971  0820               	movf	??_mensaje^(0+128),w
  1547  0972  00F9               	movwf	_decena
  1548                           
  1549                           ;Lab05.c: 101:         if(centena == 2){
  1550  0973  3002               	movlw	2
  1551  0974  0678               	xorwf	_centena,w
  1552  0975  1D03               	btfss	3,2
  1553  0976  2978               	goto	u6311
  1554  0977  2979               	goto	u6310
  1555  0978                     u6311:
  1556  0978  2981               	goto	l4165
  1557  0979                     u6310:
  1558  0979                     l4163:
  1559                           
  1560                           ;Lab05.c: 102:            while(RCREG > '5'){
  1561  0979  3036               	movlw	54
  1562  097A  1283               	bcf	3,5	;RP0=0, select bank0
  1563  097B  1303               	bcf	3,6	;RP1=0, select bank0
  1564  097C  021A               	subwf	26,w	;volatile
  1565  097D  1803               	skipnc
  1566  097E  2980               	goto	u6321
  1567  097F  2981               	goto	u6320
  1568  0980                     u6321:
  1569  0980  2966               	goto	l195
  1570  0981                     u6320:
  1571  0981                     l4165:
  1572                           
  1573                           ;Lab05.c: 107:     printf("Ingresar Unidades: \r");
  1574  0981  305A               	movlw	(low ((STR_5-__stringbase)| (0+32768)))& (0+255)
  1575  0982  1283               	bcf	3,5	;RP0=0, select bank0
  1576  0983  00B6               	movwf	printf@f
  1577  0984  3080               	movlw	128
  1578  0985  00B7               	movwf	printf@f+1
  1579  0986  160A  118A  244E  120A  158A  	fcall	_printf
  1580  098B                     l203:
  1581  098B  1283               	bcf	3,5	;RP0=0, select bank0
  1582  098C  1303               	bcf	3,6	;RP1=0, select bank0
  1583  098D  1E8C               	btfss	12,5	;volatile
  1584  098E  2990               	goto	u6331
  1585  098F  2991               	goto	u6330
  1586  0990                     u6331:
  1587  0990  298B               	goto	l203
  1588  0991                     u6330:
  1589  0991                     l4167:
  1590                           
  1591                           ;Lab05.c: 110:         unidad = RCREG - 48;
  1592  0991  081A               	movf	26,w	;volatile
  1593  0992  3ED0               	addlw	208
  1594  0993  1683               	bsf	3,5	;RP0=1, select bank1
  1595  0994  1303               	bcf	3,6	;RP1=0, select bank1
  1596  0995  00A0               	movwf	??_mensaje^(0+128)
  1597  0996  0820               	movf	??_mensaje^(0+128),w
  1598  0997  00FA               	movwf	_unidad
  1599                           
  1600                           ;Lab05.c: 112:        if(centena == 2 && decena == 5){
  1601  0998  3002               	movlw	2
  1602  0999  0678               	xorwf	_centena,w
  1603  099A  1D03               	btfss	3,2
  1604  099B  299D               	goto	u6341
  1605  099C  299E               	goto	u6340
  1606  099D                     u6341:
  1607  099D  29AC               	goto	l4175
  1608  099E                     u6340:
  1609  099E                     l4169:
  1610  099E  3005               	movlw	5
  1611  099F  0679               	xorwf	_decena,w
  1612  09A0  1D03               	btfss	3,2
  1613  09A1  29A3               	goto	u6351
  1614  09A2  29A4               	goto	u6350
  1615  09A3                     u6351:
  1616  09A3  29AC               	goto	l4175
  1617  09A4                     u6350:
  1618  09A4                     l4173:
  1619                           
  1620                           ;Lab05.c: 113:            while(RCREG > '5'){
  1621  09A4  3036               	movlw	54
  1622  09A5  1283               	bcf	3,5	;RP0=0, select bank0
  1623  09A6  1303               	bcf	3,6	;RP1=0, select bank0
  1624  09A7  021A               	subwf	26,w	;volatile
  1625  09A8  1803               	skipnc
  1626  09A9  29AB               	goto	u6361
  1627  09AA  29AC               	goto	u6360
  1628  09AB                     u6361:
  1629  09AB  298B               	goto	l203
  1630  09AC                     u6360:
  1631  09AC                     l4175:
  1632                           
  1633                           ;Lab05.c: 117:       concatenado = concatenar(centena, decena);
  1634  09AC  0878               	movf	_centena,w
  1635  09AD  1683               	bsf	3,5	;RP0=1, select bank1
  1636  09AE  1303               	bcf	3,6	;RP1=0, select bank1
  1637  09AF  00A0               	movwf	??_mensaje^(0+128)
  1638  09B0  01A1               	clrf	(??_mensaje^(0+128)+1)
  1639  09B1  0820               	movf	??_mensaje^(0+128),w
  1640  09B2  1283               	bcf	3,5	;RP0=0, select bank0
  1641  09B3  1303               	bcf	3,6	;RP1=0, select bank0
  1642  09B4  00BE               	movwf	concatenar@a
  1643  09B5  1683               	bsf	3,5	;RP0=1, select bank1
  1644  09B6  1303               	bcf	3,6	;RP1=0, select bank1
  1645  09B7  0821               	movf	(??_mensaje+1)^(0+128),w
  1646  09B8  1283               	bcf	3,5	;RP0=0, select bank0
  1647  09B9  1303               	bcf	3,6	;RP1=0, select bank0
  1648  09BA  00BF               	movwf	concatenar@a+1
  1649  09BB  0879               	movf	_decena,w
  1650  09BC  1683               	bsf	3,5	;RP0=1, select bank1
  1651  09BD  1303               	bcf	3,6	;RP1=0, select bank1
  1652  09BE  00A2               	movwf	(??_mensaje+2)^(0+128)
  1653  09BF  01A3               	clrf	((??_mensaje+2)^(0+128)+1)
  1654  09C0  0822               	movf	(??_mensaje+2)^(0+128),w
  1655  09C1  1283               	bcf	3,5	;RP0=0, select bank0
  1656  09C2  1303               	bcf	3,6	;RP1=0, select bank0
  1657  09C3  00C0               	movwf	concatenar@b
  1658  09C4  1683               	bsf	3,5	;RP0=1, select bank1
  1659  09C5  1303               	bcf	3,6	;RP1=0, select bank1
  1660  09C6  0823               	movf	(??_mensaje+3)^(0+128),w
  1661  09C7  1283               	bcf	3,5	;RP0=0, select bank0
  1662  09C8  1303               	bcf	3,6	;RP1=0, select bank0
  1663  09C9  00C1               	movwf	concatenar@b+1
  1664  09CA  120A  158A  2007  120A  158A  	fcall	_concatenar
  1665  09CF  1283               	bcf	3,5	;RP0=0, select bank0
  1666  09D0  1303               	bcf	3,6	;RP1=0, select bank0
  1667  09D1  083E               	movf	?_concatenar,w
  1668  09D2  1683               	bsf	3,5	;RP0=1, select bank1
  1669  09D3  1303               	bcf	3,6	;RP1=0, select bank1
  1670  09D4  00A4               	movwf	(??_mensaje+4)^(0+128)
  1671  09D5  0824               	movf	(??_mensaje+4)^(0+128),w
  1672  09D6  00B9               	movwf	_concatenado^(0+128)
  1673                           
  1674                           ;Lab05.c: 118:       full = concatenar(concatenado, unidad);
  1675  09D7  0839               	movf	_concatenado^(0+128),w
  1676  09D8  00A0               	movwf	??_mensaje^(0+128)
  1677  09D9  01A1               	clrf	(??_mensaje^(0+128)+1)
  1678  09DA  0820               	movf	??_mensaje^(0+128),w
  1679  09DB  1283               	bcf	3,5	;RP0=0, select bank0
  1680  09DC  1303               	bcf	3,6	;RP1=0, select bank0
  1681  09DD  00BE               	movwf	concatenar@a
  1682  09DE  1683               	bsf	3,5	;RP0=1, select bank1
  1683  09DF  1303               	bcf	3,6	;RP1=0, select bank1
  1684  09E0  0821               	movf	(??_mensaje+1)^(0+128),w
  1685  09E1  1283               	bcf	3,5	;RP0=0, select bank0
  1686  09E2  1303               	bcf	3,6	;RP1=0, select bank0
  1687  09E3  00BF               	movwf	concatenar@a+1
  1688  09E4  087A               	movf	_unidad,w
  1689  09E5  1683               	bsf	3,5	;RP0=1, select bank1
  1690  09E6  1303               	bcf	3,6	;RP1=0, select bank1
  1691  09E7  00A2               	movwf	(??_mensaje+2)^(0+128)
  1692  09E8  01A3               	clrf	((??_mensaje+2)^(0+128)+1)
  1693  09E9  0822               	movf	(??_mensaje+2)^(0+128),w
  1694  09EA  1283               	bcf	3,5	;RP0=0, select bank0
  1695  09EB  1303               	bcf	3,6	;RP1=0, select bank0
  1696  09EC  00C0               	movwf	concatenar@b
  1697  09ED  1683               	bsf	3,5	;RP0=1, select bank1
  1698  09EE  1303               	bcf	3,6	;RP1=0, select bank1
  1699  09EF  0823               	movf	(??_mensaje+3)^(0+128),w
  1700  09F0  1283               	bcf	3,5	;RP0=0, select bank0
  1701  09F1  1303               	bcf	3,6	;RP1=0, select bank0
  1702  09F2  00C1               	movwf	concatenar@b+1
  1703  09F3  120A  158A  2007  120A  158A  	fcall	_concatenar
  1704  09F8  1283               	bcf	3,5	;RP0=0, select bank0
  1705  09F9  1303               	bcf	3,6	;RP1=0, select bank0
  1706  09FA  083F               	movf	?_concatenar+1,w
  1707  09FB  1683               	bsf	3,5	;RP0=1, select bank1
  1708  09FC  1303               	bcf	3,6	;RP1=0, select bank1
  1709  09FD  00B8               	movwf	(_full+1)^(0+128)
  1710  09FE  1283               	bcf	3,5	;RP0=0, select bank0
  1711  09FF  1303               	bcf	3,6	;RP1=0, select bank0
  1712  0A00  083E               	movf	?_concatenar,w
  1713  0A01  1683               	bsf	3,5	;RP0=1, select bank1
  1714  0A02  1303               	bcf	3,6	;RP1=0, select bank1
  1715  0A03  00B7               	movwf	_full^(0+128)
  1716  0A04                     l4177:
  1717                           
  1718                           ;Lab05.c: 119:       _delay((unsigned long)((250)*(8000000/4000.0)));
  1719  0A04  3003               	movlw	3
  1720  0A05  1683               	bsf	3,5	;RP0=1, select bank1
  1721  0A06  1303               	bcf	3,6	;RP1=0, select bank1
  1722  0A07  00A2               	movwf	(??_mensaje^(0+128)+2)
  1723  0A08  308A               	movlw	138
  1724  0A09  00A1               	movwf	(??_mensaje^(0+128)+1)
  1725  0A0A  3055               	movlw	85
  1726  0A0B  00A0               	movwf	??_mensaje^(0+128)
  1727  0A0C                     u6397:
  1728  0A0C  0BA0               	decfsz	??_mensaje^(0+128),f
  1729  0A0D  2A0C               	goto	u6397
  1730  0A0E  0BA1               	decfsz	(??_mensaje^(0+128)+1),f
  1731  0A0F  2A0C               	goto	u6397
  1732  0A10  0BA2               	decfsz	(??_mensaje^(0+128)+2),f
  1733  0A11  2A0C               	goto	u6397
  1734  0A12                     l4179:
  1735                           
  1736                           ;Lab05.c: 120:     printf("El numero elegido es: %d", full);
  1737  0A12  3029               	movlw	(low ((STR_6-__stringbase)| (0+32768)))& (0+255)
  1738  0A13  1283               	bcf	3,5	;RP0=0, select bank0
  1739  0A14  1303               	bcf	3,6	;RP1=0, select bank0
  1740  0A15  00B6               	movwf	printf@f
  1741  0A16  3080               	movlw	128
  1742  0A17  00B7               	movwf	printf@f+1
  1743  0A18  1683               	bsf	3,5	;RP0=1, select bank1
  1744  0A19  1303               	bcf	3,6	;RP1=0, select bank1
  1745  0A1A  0838               	movf	(_full+1)^(0+128),w
  1746  0A1B  1283               	bcf	3,5	;RP0=0, select bank0
  1747  0A1C  1303               	bcf	3,6	;RP1=0, select bank0
  1748  0A1D  00B9               	movwf	?_printf+3
  1749  0A1E  1683               	bsf	3,5	;RP0=1, select bank1
  1750  0A1F  1303               	bcf	3,6	;RP1=0, select bank1
  1751  0A20  0837               	movf	_full^(0+128),w
  1752  0A21  1283               	bcf	3,5	;RP0=0, select bank0
  1753  0A22  1303               	bcf	3,6	;RP1=0, select bank0
  1754  0A23  00B8               	movwf	?_printf+2
  1755  0A24  160A  118A  244E  120A  158A  	fcall	_printf
  1756  0A29                     l210:
  1757  0A29  0008               	return
  1758  0A2A                     __end_of_mensaje:
  1759                           
  1760                           	psect	text3
  1761  144E                     __ptext3:	
  1762 ;; *************** function _printf *****************
  1763 ;; Defined at:
  1764 ;;		line 13 in file "C:\Program Files\Microchip\xc8\v2.31\pic\sources\c90\common\printf.c"
  1765 ;; Parameters:    Size  Location     Type
  1766 ;;  f               2   22[BANK0 ] PTR const unsigned char 
  1767 ;;		 -> STR_6(25), STR_5(21), STR_4(20), STR_3(30), 
  1768 ;;		 -> STR_2(18), STR_1(24), contador_string(10), 
  1769 ;; Auto vars:     Size  Location     Type
  1770 ;;  pb              2   28[BANK0 ] struct __prbuf
  1771 ;;  ap              1   27[BANK0 ] PTR void [1]
  1772 ;;		 -> ?_sprintf(2), ?_printf(2), 
  1773 ;; Return value:  Size  Location     Type
  1774 ;;                  2   22[BANK0 ] int 
  1775 ;; Registers used:
  1776 ;;		wreg, fsr0l, fsr0h, status,2, status,0, btemp+1, pclath, cstack
  1777 ;; Tracked objects:
  1778 ;;		On entry : 0/0
  1779 ;;		On exit  : 0/0
  1780 ;;		Unchanged: 0/0
  1781 ;; Data sizes:     COMMON   BANK0   BANK1   BANK3   BANK2
  1782 ;;      Params:         0       4       0       0       0
  1783 ;;      Locals:         0       3       0       0       0
  1784 ;;      Temps:          0       1       0       0       0
  1785 ;;      Totals:         0       8       0       0       0
  1786 ;;Total ram usage:        8 bytes
  1787 ;; Hardware stack levels used:    1
  1788 ;; Hardware stack levels required when called:    3
  1789 ;; This function calls:
  1790 ;;		__doprnt
  1791 ;; This function is called by:
  1792 ;;		_mensaje
  1793 ;; This function uses a non-reentrant model
  1794 ;;
  1795                           
  1796                           
  1797                           ;psect for function _printf
  1798  144E                     _printf:
  1799  144E                     l3593:	
  1800                           ;incstack = 0
  1801                           ; Regs used in _printf: [wreg-fsr0h+status,2+status,0+btemp+1+pclath+cstack]
  1802                           
  1803  144E  1283               	bcf	3,5	;RP0=0, select bank0
  1804  144F  1303               	bcf	3,6	;RP1=0, select bank0
  1805  1450  01BC               	clrf	printf@pb
  1806  1451                     l3595:
  1807  1451  3001               	movlw	(low (fp__putch-fpbase))& (0+255)
  1808  1452  00BA               	movwf	??_printf
  1809  1453  083A               	movf	??_printf,w
  1810  1454  00BD               	movwf	low ((printf@pb| 0+1))
  1811  1455                     l3597:
  1812  1455  3038               	movlw	(low ((?_printf| 0+2)))& (0+255)
  1813  1456  00BA               	movwf	??_printf
  1814  1457  083A               	movf	??_printf,w
  1815  1458  00BB               	movwf	printf@ap
  1816  1459                     l3599:
  1817                           
  1818                           ;	Return value of _printf is never used
  1819  1459  0836               	movf	printf@f,w
  1820  145A  00A9               	movwf	__doprnt@f
  1821  145B  0837               	movf	printf@f+1,w
  1822  145C  00AA               	movwf	__doprnt@f+1
  1823  145D  303B               	movlw	(low (printf@ap| 0))& (0+255)
  1824  145E  00BA               	movwf	??_printf
  1825  145F  083A               	movf	??_printf,w
  1826  1460  00AB               	movwf	__doprnt@ap
  1827  1461  303C               	movlw	(low (printf@pb| 0))& (0+255)
  1828  1462  120A  158A  222A  160A  118A  	fcall	__doprnt
  1829  1467                     l785:
  1830  1467  0008               	return
  1831  1468                     __end_of_printf:
  1832                           
  1833                           	psect	text4
  1834  0807                     __ptext4:	
  1835 ;; *************** function _concatenar *****************
  1836 ;; Defined at:
  1837 ;;		line 125 in file "Lab05.c"
  1838 ;; Parameters:    Size  Location     Type
  1839 ;;  a               2   30[BANK0 ] int 
  1840 ;;  b               2   32[BANK0 ] int 
  1841 ;; Auto vars:     Size  Location     Type
  1842 ;;  s1             20   55[BANK0 ] unsigned char [20]
  1843 ;;  s2             20   35[BANK0 ] unsigned char [20]
  1844 ;;  c               2   75[BANK0 ] int 
  1845 ;; Return value:  Size  Location     Type
  1846 ;;                  2   30[BANK0 ] int 
  1847 ;; Registers used:
  1848 ;;		wreg, fsr0l, fsr0h, status,2, status,0, btemp+1, pclath, cstack
  1849 ;; Tracked objects:
  1850 ;;		On entry : 0/0
  1851 ;;		On exit  : 0/0
  1852 ;;		Unchanged: 0/0
  1853 ;; Data sizes:     COMMON   BANK0   BANK1   BANK3   BANK2
  1854 ;;      Params:         0       4       0       0       0
  1855 ;;      Locals:         0      42       0       0       0
  1856 ;;      Temps:          0       1       0       0       0
  1857 ;;      Totals:         0      47       0       0       0
  1858 ;;Total ram usage:       47 bytes
  1859 ;; Hardware stack levels used:    1
  1860 ;; Hardware stack levels required when called:    4
  1861 ;; This function calls:
  1862 ;;		_atoi
  1863 ;;		_sprintf
  1864 ;;		_strcat
  1865 ;; This function is called by:
  1866 ;;		_mensaje
  1867 ;; This function uses a non-reentrant model
  1868 ;;
  1869                           
  1870                           
  1871                           ;psect for function _concatenar
  1872  0807                     _concatenar:
  1873  0807                     l3603:	
  1874                           ;incstack = 0
  1875                           ; Regs used in _concatenar: [wreg-fsr0h+status,2+status,0+btemp+1+pclath+cstack]
  1876                           
  1877                           
  1878                           ;Lab05.c: 126:     char s1[20];;Lab05.c: 127:     char s2[20];;Lab05.c: 130:     sprintf
      +                          (s1, "%d", a);
  1879  0807  303F               	movlw	(low (((STR_6+22)-__stringbase)| (0+32768)))& (0+255)
  1880  0808  1283               	bcf	3,5	;RP0=0, select bank0
  1881  0809  1303               	bcf	3,6	;RP1=0, select bank0
  1882  080A  00C2               	movwf	??_concatenar
  1883  080B  0842               	movf	??_concatenar,w
  1884  080C  00B6               	movwf	sprintf@f
  1885  080D  083F               	movf	concatenar@a+1,w
  1886  080E  00B8               	movwf	?_sprintf+2
  1887  080F  083E               	movf	concatenar@a,w
  1888  0810  00B7               	movwf	?_sprintf+1
  1889  0811  3057               	movlw	(low (concatenar@s1| 0))& (0+255)
  1890  0812  160A  118A  2468  120A  158A  	fcall	_sprintf
  1891                           
  1892                           ;Lab05.c: 131:     sprintf(s2, "%d", b);
  1893  0817  303F               	movlw	(low (((STR_6+22)-__stringbase)| (0+32768)))& (0+255)
  1894  0818  1283               	bcf	3,5	;RP0=0, select bank0
  1895  0819  1303               	bcf	3,6	;RP1=0, select bank0
  1896  081A  00C2               	movwf	??_concatenar
  1897  081B  0842               	movf	??_concatenar,w
  1898  081C  00B6               	movwf	sprintf@f
  1899  081D  0841               	movf	concatenar@b+1,w
  1900  081E  00B8               	movwf	?_sprintf+2
  1901  081F  0840               	movf	concatenar@b,w
  1902  0820  00B7               	movwf	?_sprintf+1
  1903  0821  3043               	movlw	(low (concatenar@s2| 0))& (0+255)
  1904  0822  160A  118A  2468  120A  158A  	fcall	_sprintf
  1905  0827                     l3605:
  1906                           
  1907                           ;Lab05.c: 134:     strcat(s1, s2);
  1908  0827  3043               	movlw	(low (concatenar@s2| 0))& (0+255)
  1909  0828  1283               	bcf	3,5	;RP0=0, select bank0
  1910  0829  1303               	bcf	3,6	;RP1=0, select bank0
  1911  082A  00C2               	movwf	??_concatenar
  1912  082B  0842               	movf	??_concatenar,w
  1913  082C  00F3               	movwf	strcat@from
  1914  082D  3057               	movlw	(low (concatenar@s1| 0))& (0+255)
  1915  082E  160A  118A  24FF  120A  158A  	fcall	_strcat
  1916  0833                     l3607:
  1917                           
  1918                           ;Lab05.c: 137:     int c = atoi(s1);
  1919  0833  3057               	movlw	(low (concatenar@s1| 0))& (0+255)
  1920  0834  160A  118A  26D9  120A  158A  	fcall	_atoi
  1921  0839  1283               	bcf	3,5	;RP0=0, select bank0
  1922  083A  1303               	bcf	3,6	;RP1=0, select bank0
  1923  083B  082E               	movf	?_atoi+1,w
  1924  083C  00EC               	movwf	concatenar@c+1
  1925  083D  082D               	movf	?_atoi,w
  1926  083E  00EB               	movwf	concatenar@c
  1927  083F                     l3609:
  1928                           
  1929                           ;Lab05.c: 140:     return c;
  1930  083F  086C               	movf	concatenar@c+1,w
  1931  0840  00BF               	movwf	?_concatenar+1
  1932  0841  086B               	movf	concatenar@c,w
  1933  0842  00BE               	movwf	?_concatenar
  1934  0843                     l213:
  1935  0843  0008               	return
  1936  0844                     __end_of_concatenar:
  1937                           
  1938                           	psect	text5
  1939  14FF                     __ptext5:	
  1940 ;; *************** function _strcat *****************
  1941 ;; Defined at:
  1942 ;;		line 8 in file "C:\Program Files\Microchip\xc8\v2.31\pic\sources\c90\common\strcat.c"
  1943 ;; Parameters:    Size  Location     Type
  1944 ;;  to              1    wreg     PTR unsigned char 
  1945 ;;		 -> concatenar@s1(20), 
  1946 ;;  from            1    3[COMMON] PTR const unsigned char 
  1947 ;;		 -> concatenar@s2(20), 
  1948 ;; Auto vars:     Size  Location     Type
  1949 ;;  to              1    5[COMMON] PTR unsigned char 
  1950 ;;		 -> concatenar@s1(20), 
  1951 ;;  cp              1    6[COMMON] PTR unsigned char 
  1952 ;;		 -> concatenar@s1(20), 
  1953 ;; Return value:  Size  Location     Type
  1954 ;;                  1    wreg      PTR unsigned char 
  1955 ;; Registers used:
  1956 ;;		wreg, fsr0l, fsr0h, status,2, status,0
  1957 ;; Tracked objects:
  1958 ;;		On entry : 0/0
  1959 ;;		On exit  : 0/0
  1960 ;;		Unchanged: 0/0
  1961 ;; Data sizes:     COMMON   BANK0   BANK1   BANK3   BANK2
  1962 ;;      Params:         1       0       0       0       0
  1963 ;;      Locals:         2       0       0       0       0
  1964 ;;      Temps:          1       0       0       0       0
  1965 ;;      Totals:         4       0       0       0       0
  1966 ;;Total ram usage:        4 bytes
  1967 ;; Hardware stack levels used:    1
  1968 ;; Hardware stack levels required when called:    1
  1969 ;; This function calls:
  1970 ;;		Nothing
  1971 ;; This function is called by:
  1972 ;;		_concatenar
  1973 ;; This function uses a non-reentrant model
  1974 ;;
  1975                           
  1976                           
  1977                           ;psect for function _strcat
  1978  14FF                     _strcat:
  1979                           
  1980                           ;incstack = 0
  1981                           ; Regs used in _strcat: [wreg-fsr0h+status,2+status,0]
  1982                           ;strcat@to stored from wreg
  1983  14FF  00F5               	movwf	strcat@to
  1984  1500                     l2283:
  1985  1500  0875               	movf	strcat@to,w
  1986  1501  00F4               	movwf	??_strcat
  1987  1502  0874               	movf	??_strcat,w
  1988  1503  00F6               	movwf	strcat@cp
  1989  1504  2D09               	goto	l2287
  1990  1505                     l2285:
  1991  1505  3001               	movlw	1
  1992  1506  00F4               	movwf	??_strcat
  1993  1507  0874               	movf	??_strcat,w
  1994  1508  07F6               	addwf	strcat@cp,f
  1995  1509                     l2287:
  1996  1509  0876               	movf	strcat@cp,w
  1997  150A  0084               	movwf	4
  1998  150B  1383               	bcf	3,7	;select IRP bank0
  1999  150C  0800               	movf	0,w
  2000  150D  1D03               	btfss	3,2
  2001  150E  2D10               	goto	u2501
  2002  150F  2D11               	goto	u2500
  2003  1510                     u2501:
  2004  1510  2D05               	goto	l2285
  2005  1511                     u2500:
  2006  1511  2D1A               	goto	l2291
  2007  1512                     l2289:
  2008  1512  3001               	movlw	1
  2009  1513  00F4               	movwf	??_strcat
  2010  1514  0874               	movf	??_strcat,w
  2011  1515  07F6               	addwf	strcat@cp,f
  2012  1516  3001               	movlw	1
  2013  1517  00F4               	movwf	??_strcat
  2014  1518  0874               	movf	??_strcat,w
  2015  1519  07F3               	addwf	strcat@from,f
  2016  151A                     l2291:
  2017  151A  0873               	movf	strcat@from,w
  2018  151B  0084               	movwf	4
  2019  151C  0800               	movf	0,w
  2020  151D  00F4               	movwf	??_strcat
  2021  151E  0876               	movf	strcat@cp,w
  2022  151F  0084               	movwf	4
  2023  1520  0874               	movf	??_strcat,w
  2024  1521  0080               	movwf	0
  2025  1522  0800               	movf	0,w
  2026  1523  1D03               	btfss	3,2
  2027  1524  2D26               	goto	u2511
  2028  1525  2D27               	goto	u2510
  2029  1526                     u2511:
  2030  1526  2D12               	goto	l2289
  2031  1527                     u2510:
  2032  1527                     l843:
  2033  1527  0008               	return
  2034  1528                     __end_of_strcat:
  2035                           
  2036                           	psect	text6
  2037  1468                     __ptext6:	
  2038 ;; *************** function _sprintf *****************
  2039 ;; Defined at:
  2040 ;;		line 13 in file "C:\Program Files\Microchip\xc8\v2.31\pic\sources\c90\common\sprintf.c"
  2041 ;; Parameters:    Size  Location     Type
  2042 ;;  wh              1    wreg     PTR unsigned char 
  2043 ;;		 -> concatenar@s2(20), concatenar@s1(20), 
  2044 ;;  f               1   22[BANK0 ] PTR const unsigned char 
  2045 ;;		 -> STR_8(3), STR_7(3), 
  2046 ;; Auto vars:     Size  Location     Type
  2047 ;;  wh              1   26[BANK0 ] PTR unsigned char 
  2048 ;;		 -> concatenar@s2(20), concatenar@s1(20), 
  2049 ;;  pb              2   28[BANK0 ] struct __prbuf
  2050 ;;  ap              1   27[BANK0 ] PTR void [1]
  2051 ;;		 -> ?_sprintf(2), ?_printf(2), 
  2052 ;; Return value:  Size  Location     Type
  2053 ;;                  2   22[BANK0 ] int 
  2054 ;; Registers used:
  2055 ;;		wreg, fsr0l, fsr0h, status,2, status,0, btemp+1, pclath, cstack
  2056 ;; Tracked objects:
  2057 ;;		On entry : 0/0
  2058 ;;		On exit  : 0/0
  2059 ;;		Unchanged: 0/0
  2060 ;; Data sizes:     COMMON   BANK0   BANK1   BANK3   BANK2
  2061 ;;      Params:         0       3       0       0       0
  2062 ;;      Locals:         0       4       0       0       0
  2063 ;;      Temps:          0       1       0       0       0
  2064 ;;      Totals:         0       8       0       0       0
  2065 ;;Total ram usage:        8 bytes
  2066 ;; Hardware stack levels used:    1
  2067 ;; Hardware stack levels required when called:    3
  2068 ;; This function calls:
  2069 ;;		__doprnt
  2070 ;; This function is called by:
  2071 ;;		_concatenar
  2072 ;; This function uses a non-reentrant model
  2073 ;;
  2074                           
  2075                           
  2076                           ;psect for function _sprintf
  2077  1468                     _sprintf:
  2078                           
  2079                           ;incstack = 0
  2080                           ; Regs used in _sprintf: [wreg-fsr0h+status,2+status,0+btemp+1+pclath+cstack]
  2081                           ;sprintf@wh stored from wreg
  2082  1468  1283               	bcf	3,5	;RP0=0, select bank0
  2083  1469  1303               	bcf	3,6	;RP1=0, select bank0
  2084  146A  00BA               	movwf	sprintf@wh
  2085  146B                     l3339:
  2086  146B  083A               	movf	sprintf@wh,w
  2087  146C  00B9               	movwf	??_sprintf
  2088  146D  0839               	movf	??_sprintf,w
  2089  146E  00BC               	movwf	sprintf@pb
  2090  146F                     l3341:
  2091  146F  01BD               	clrf	low ((sprintf@pb| 0+1))
  2092  1470                     l3343:
  2093  1470  3037               	movlw	(low ((?_sprintf| 0+1)))& (0+255)
  2094  1471  00B9               	movwf	??_sprintf
  2095  1472  0839               	movf	??_sprintf,w
  2096  1473  00BB               	movwf	sprintf@ap
  2097  1474                     l3345:
  2098  1474  0836               	movf	sprintf@f,w
  2099  1475  00A9               	movwf	__doprnt@f
  2100  1476  3000               	movlw	0
  2101  1477  1D03               	btfss	3,2
  2102  1478  3080               	movlw	128
  2103  1479  00AA               	movwf	__doprnt@f+1
  2104  147A  303B               	movlw	(low (sprintf@ap| 0))& (0+255)
  2105  147B  00B9               	movwf	??_sprintf
  2106  147C  0839               	movf	??_sprintf,w
  2107  147D  00AB               	movwf	__doprnt@ap
  2108  147E  303C               	movlw	(low (sprintf@pb| 0))& (0+255)
  2109  147F  120A  158A  222A  160A  118A  	fcall	__doprnt
  2110  1484                     l3347:
  2111  1484  1283               	bcf	3,5	;RP0=0, select bank0
  2112  1485  1303               	bcf	3,6	;RP1=0, select bank0
  2113  1486  083C               	movf	sprintf@pb,w
  2114  1487  0084               	movwf	4
  2115  1488  1383               	bcf	3,7	;select IRP bank0
  2116  1489  0180               	clrf	0
  2117  148A                     l834:
  2118  148A  0008               	return
  2119  148B                     __end_of_sprintf:
  2120                           
  2121                           	psect	text7
  2122  0A2A                     __ptext7:	
  2123 ;; *************** function __doprnt *****************
  2124 ;; Defined at:
  2125 ;;		line 471 in file "C:\Program Files\Microchip\xc8\v2.31\pic\sources\c90\common\doprnt.c"
  2126 ;; Parameters:    Size  Location     Type
  2127 ;;  pb              1    wreg     PTR struct __prbuf
  2128 ;;		 -> sprintf@pb(2), printf@pb(2), 
  2129 ;;  f               2    9[BANK0 ] PTR const unsigned char 
  2130 ;;		 -> STR_8(3), STR_7(3), STR_6(25), STR_5(21), 
  2131 ;;		 -> STR_4(20), STR_3(30), STR_2(18), STR_1(24), 
  2132 ;;		 -> contador_string(10), 
  2133 ;;  ap              1   11[BANK0 ] PTR PTR void 
  2134 ;;		 -> sprintf@ap(1), printf@ap(1), 
  2135 ;; Auto vars:     Size  Location     Type
  2136 ;;  pb              1   21[BANK0 ] PTR struct __prbuf
  2137 ;;		 -> sprintf@pb(2), printf@pb(2), 
  2138 ;;  tmpval          4    0        struct .
  2139 ;;  val             2   18[BANK0 ] unsigned int 
  2140 ;;  cp              2    0        PTR const unsigned char 
  2141 ;;  len             2    0        unsigned int 
  2142 ;;  c               1   20[BANK0 ] unsigned char 
  2143 ;;  prec            1   17[BANK0 ] char 
  2144 ;;  flag            1   16[BANK0 ] unsigned char 
  2145 ;; Return value:  Size  Location     Type
  2146 ;;                  2    9[BANK0 ] int 
  2147 ;; Registers used:
  2148 ;;		wreg, fsr0l, fsr0h, status,2, status,0, btemp+1, pclath, cstack
  2149 ;; Tracked objects:
  2150 ;;		On entry : 0/0
  2151 ;;		On exit  : 0/0
  2152 ;;		Unchanged: 0/0
  2153 ;; Data sizes:     COMMON   BANK0   BANK1   BANK3   BANK2
  2154 ;;      Params:         0       3       0       0       0
  2155 ;;      Locals:         0       6       0       0       0
  2156 ;;      Temps:          0       4       0       0       0
  2157 ;;      Totals:         0      13       0       0       0
  2158 ;;Total ram usage:       13 bytes
  2159 ;; Hardware stack levels used:    1
  2160 ;; Hardware stack levels required when called:    2
  2161 ;; This function calls:
  2162 ;;		Absolute function
  2163 ;;		___lwdiv
  2164 ;;		___lwmod
  2165 ;;		_putch
  2166 ;; This function is called by:
  2167 ;;		_printf
  2168 ;;		_sprintf
  2169 ;; This function uses a non-reentrant model
  2170 ;;
  2171                           
  2172                           
  2173                           ;psect for function __doprnt
  2174  0A2A                     __doprnt:
  2175                           
  2176                           ;incstack = 0
  2177                           ; Regs used in __doprnt: [wreg-fsr0h+status,2+status,0+btemp+1+pclath+cstack]
  2178                           ;__doprnt@pb stored from wreg
  2179  0A2A  1283               	bcf	3,5	;RP0=0, select bank0
  2180  0A2B  1303               	bcf	3,6	;RP1=0, select bank0
  2181  0A2C  00B5               	movwf	__doprnt@pb
  2182  0A2D                     l3259:
  2183                           
  2184                           ;C:\Program Files\Microchip\xc8\v2.31\pic\sources\c90\common\doprnt.c: 471: _doprnt(stru
      +                          ct __prbuf * pb, register const char * f, register va_list ap);C:\Program Files\Microchi
      +                          p\xc8\v2.31\pic\sources\c90\common\doprnt.c: 472: {;C:\Program Files\Microchip\xc8\v2.31
      +                          \pic\sources\c90\common\doprnt.c: 512:  char c;;C:\Program Files\Microchip\xc8\v2.31\pic
      +                          \sources\c90\common\doprnt.c: 521:  signed char prec;;C:\Program Files\Microchip\xc8\v2.
      +                          31\pic\sources\c90\common\doprnt.c: 525:  unsigned char flag;;C:\Program Files\Microchip
      +                          \xc8\v2.31\pic\sources\c90\common\doprnt.c: 543:  } tmpval;
  2185  0A2D  2B76               	goto	l3329
  2186  0A2E                     l3261:
  2187                           
  2188                           ;C:\Program Files\Microchip\xc8\v2.31\pic\sources\c90\common\doprnt.c: 555:   if(c != '%
      +                          ')
  2189  0A2E  3025               	movlw	37
  2190  0A2F  0634               	xorwf	__doprnt@c,w
  2191  0A30  1903               	btfsc	3,2
  2192  0A31  2A33               	goto	u4461
  2193  0A32  2A34               	goto	u4460
  2194  0A33                     u4461:
  2195  0A33  2A5A               	goto	l3271
  2196  0A34                     u4460:
  2197  0A34                     l3263:
  2198  0A34  0A35               	incf	__doprnt@pb,w
  2199  0A35  0084               	movwf	4
  2200  0A36  1383               	bcf	3,7	;select IRP bank0
  2201  0A37  0800               	movf	0,w
  2202  0A38  1903               	btfsc	3,2
  2203  0A39  2A3B               	goto	u4471
  2204  0A3A  2A3C               	goto	u4470
  2205  0A3B                     u4471:
  2206  0A3B  2A4B               	goto	l3267
  2207  0A3C                     u4470:
  2208  0A3C                     l3265:
  2209  0A3C  0834               	movf	__doprnt@c,w
  2210  0A3D  00AC               	movwf	??__doprnt
  2211  0A3E  082C               	movf	??__doprnt,w
  2212  0A3F  00F3               	movwf	putch@dato
  2213  0A40  0A35               	incf	__doprnt@pb,w
  2214  0A41  0084               	movwf	4
  2215  0A42  0800               	movf	0,w
  2216  0A43  120A  118A  2026  120A  158A  	fcall	fptable
  2217  0A48  1283               	bcf	3,5	;RP0=0, select bank0
  2218  0A49  1303               	bcf	3,6	;RP1=0, select bank0
  2219  0A4A  2A2D               	goto	l3259
  2220  0A4B                     l3267:
  2221  0A4B  0834               	movf	__doprnt@c,w
  2222  0A4C  00AC               	movwf	??__doprnt
  2223  0A4D  0835               	movf	__doprnt@pb,w
  2224  0A4E  0084               	movwf	4
  2225  0A4F  0800               	movf	0,w
  2226  0A50  0084               	movwf	4
  2227  0A51  082C               	movf	??__doprnt,w
  2228  0A52  0080               	movwf	0
  2229  0A53                     l3269:
  2230  0A53  3001               	movlw	1
  2231  0A54  00AC               	movwf	??__doprnt
  2232  0A55  0835               	movf	__doprnt@pb,w
  2233  0A56  0084               	movwf	4
  2234  0A57  082C               	movf	??__doprnt,w
  2235  0A58  0780               	addwf	0,f
  2236  0A59  2A2D               	goto	l3259
  2237  0A5A                     l3271:
  2238                           
  2239                           ;C:\Program Files\Microchip\xc8\v2.31\pic\sources\c90\common\doprnt.c: 565:   flag = 0;
  2240  0A5A  01B0               	clrf	__doprnt@flag
  2241                           
  2242                           ;C:\Program Files\Microchip\xc8\v2.31\pic\sources\c90\common\doprnt.c: 661:   switch(c =
      +                           *f++) {
  2243  0A5B  2A82               	goto	l3283
  2244  0A5C                     l3273:
  2245  0A5C  0A35               	incf	__doprnt@pb,w
  2246  0A5D  0084               	movwf	4
  2247  0A5E  1383               	bcf	3,7	;select IRP bank0
  2248  0A5F  0800               	movf	0,w
  2249  0A60  1903               	btfsc	3,2
  2250  0A61  2A63               	goto	u4481
  2251  0A62  2A64               	goto	u4480
  2252  0A63                     u4481:
  2253  0A63  2A73               	goto	l3277
  2254  0A64                     u4480:
  2255  0A64                     l3275:
  2256  0A64  0834               	movf	__doprnt@c,w
  2257  0A65  00AC               	movwf	??__doprnt
  2258  0A66  082C               	movf	??__doprnt,w
  2259  0A67  00F3               	movwf	putch@dato
  2260  0A68  0A35               	incf	__doprnt@pb,w
  2261  0A69  0084               	movwf	4
  2262  0A6A  0800               	movf	0,w
  2263  0A6B  120A  118A  2026  120A  158A  	fcall	fptable
  2264  0A70  1283               	bcf	3,5	;RP0=0, select bank0
  2265  0A71  1303               	bcf	3,6	;RP1=0, select bank0
  2266  0A72  2A2D               	goto	l3259
  2267  0A73                     l3277:
  2268  0A73  0834               	movf	__doprnt@c,w
  2269  0A74  00AC               	movwf	??__doprnt
  2270  0A75  0835               	movf	__doprnt@pb,w
  2271  0A76  0084               	movwf	4
  2272  0A77  0800               	movf	0,w
  2273  0A78  0084               	movwf	4
  2274  0A79  082C               	movf	??__doprnt,w
  2275  0A7A  0080               	movwf	0
  2276  0A7B                     l3279:
  2277  0A7B  3001               	movlw	1
  2278  0A7C  00AC               	movwf	??__doprnt
  2279  0A7D  0835               	movf	__doprnt@pb,w
  2280  0A7E  0084               	movwf	4
  2281  0A7F  082C               	movf	??__doprnt,w
  2282  0A80  0780               	addwf	0,f
  2283  0A81  2A2D               	goto	l3259
  2284  0A82                     l3283:
  2285  0A82  082A               	movf	__doprnt@f+1,w
  2286  0A83  00AD               	movwf	??__doprnt+1
  2287  0A84  0829               	movf	__doprnt@f,w
  2288  0A85  00AC               	movwf	??__doprnt
  2289  0A86  0AA9               	incf	__doprnt@f,f
  2290  0A87  1903               	skipnz
  2291  0A88  0AAA               	incf	__doprnt@f+1,f
  2292  0A89  082D               	movf	??__doprnt+1,w
  2293  0A8A  00FF               	movwf	btemp+1
  2294  0A8B  082C               	movf	??__doprnt,w
  2295  0A8C  0084               	movwf	4
  2296  0A8D  160A  118A  2000  120A  158A  	fcall	stringtab
  2297  0A92  00B4               	movwf	__doprnt@c
  2298  0A93  00AE               	movwf	??__doprnt+2
  2299  0A94  01AF               	clrf	??__doprnt+3
  2300                           
  2301                           ; Switch on 2 bytes has been partitioned into a top level switch of size 1, and 1 sub-sw
      +                          itches
  2302                           ; Switch size 1, requested type "simple"
  2303                           ; Number of cases is 1, Range of values is 0 to 0
  2304                           ; switch strategies available:
  2305                           ; Name         Instructions Cycles
  2306                           ; simple_byte            4     3 (average)
  2307                           ; direct_byte           11     8 (fixed)
  2308                           ; jumptable            260     6 (fixed)
  2309                           ;	Chosen strategy is simple_byte
  2310  0A95  082F               	movf	??__doprnt+3,w
  2311  0A96  3A00               	xorlw	0	; case 0
  2312  0A97  1903               	skipnz
  2313  0A98  2A9A               	goto	l4213
  2314  0A99  2A5C               	goto	l3273
  2315  0A9A                     l4213:
  2316                           
  2317                           ; Switch size 1, requested type "simple"
  2318                           ; Number of cases is 3, Range of values is 0 to 105
  2319                           ; switch strategies available:
  2320                           ; Name         Instructions Cycles
  2321                           ; simple_byte           10     6 (average)
  2322                           ; jumptable            260     6 (fixed)
  2323                           ;	Chosen strategy is simple_byte
  2324  0A9A  082E               	movf	??__doprnt+2,w
  2325  0A9B  3A00               	xorlw	0	; case 0
  2326  0A9C  1903               	skipnz
  2327  0A9D  2B90               	goto	l3331
  2328  0A9E  3A64               	xorlw	100	; case 100
  2329  0A9F  1903               	skipnz
  2330  0AA0  2AA5               	goto	l3285
  2331  0AA1  3A0D               	xorlw	13	; case 105
  2332  0AA2  1903               	skipnz
  2333  0AA3  2AA5               	goto	l3285
  2334  0AA4  2A5C               	goto	l3273
  2335  0AA5                     l3285:
  2336                           
  2337                           ;C:\Program Files\Microchip\xc8\v2.31\pic\sources\c90\common\doprnt.c: 1279:   {;C:\Prog
      +                          ram Files\Microchip\xc8\v2.31\pic\sources\c90\common\doprnt.c: 1285:     val = (unsigned
      +                           int)(*(int *)__va_arg((*(int **)ap), (int)0));
  2338  0AA5  082B               	movf	__doprnt@ap,w
  2339  0AA6  0084               	movwf	4
  2340  0AA7  1383               	bcf	3,7	;select IRP bank0
  2341  0AA8  0800               	movf	0,w
  2342  0AA9  00AC               	movwf	??__doprnt
  2343  0AAA  3002               	movlw	2
  2344  0AAB  0780               	addwf	0,f
  2345  0AAC  082C               	movf	??__doprnt,w
  2346  0AAD  0084               	movwf	4
  2347  0AAE  0800               	movf	0,w
  2348  0AAF  00B2               	movwf	__doprnt@val
  2349  0AB0  0A84               	incf	4,f
  2350  0AB1  0800               	movf	0,w
  2351  0AB2  00B3               	movwf	__doprnt@val+1
  2352  0AB3                     l3287:
  2353                           
  2354                           ;C:\Program Files\Microchip\xc8\v2.31\pic\sources\c90\common\doprnt.c: 1287:    if((int)
      +                          val < 0) {
  2355  0AB3  1FB3               	btfss	__doprnt@val+1,7
  2356  0AB4  2AB6               	goto	u4491
  2357  0AB5  2AB7               	goto	u4490
  2358  0AB6                     u4491:
  2359  0AB6  2AC0               	goto	l3293
  2360  0AB7                     u4490:
  2361  0AB7                     l3289:
  2362                           
  2363                           ;C:\Program Files\Microchip\xc8\v2.31\pic\sources\c90\common\doprnt.c: 1288:     flag |=
      +                           0x03;
  2364  0AB7  3003               	movlw	3
  2365  0AB8  00AC               	movwf	??__doprnt
  2366  0AB9  082C               	movf	??__doprnt,w
  2367  0ABA  04B0               	iorwf	__doprnt@flag,f
  2368  0ABB                     l3291:
  2369                           
  2370                           ;C:\Program Files\Microchip\xc8\v2.31\pic\sources\c90\common\doprnt.c: 1289:     val = -
      +                          val;
  2371  0ABB  09B2               	comf	__doprnt@val,f
  2372  0ABC  09B3               	comf	__doprnt@val+1,f
  2373  0ABD  0AB2               	incf	__doprnt@val,f
  2374  0ABE  1903               	skipnz
  2375  0ABF  0AB3               	incf	__doprnt@val+1,f
  2376  0AC0                     l3293:
  2377                           
  2378                           ;C:\Program Files\Microchip\xc8\v2.31\pic\sources\c90\common\doprnt.c: 1292:   };C:\Prog
      +                          ram Files\Microchip\xc8\v2.31\pic\sources\c90\common\doprnt.c: 1331:    for(c = 1 ; c !=
      +                           sizeof dpowers/sizeof dpowers[0] ; c++)
  2379  0AC0  01B4               	clrf	__doprnt@c
  2380  0AC1  0AB4               	incf	__doprnt@c,f
  2381  0AC2                     l3299:
  2382                           
  2383                           ;C:\Program Files\Microchip\xc8\v2.31\pic\sources\c90\common\doprnt.c: 1332:     if(val 
      +                          < dpowers[c])
  2384  0AC2  0834               	movf	__doprnt@c,w
  2385  0AC3  00AC               	movwf	??__doprnt
  2386  0AC4  072C               	addwf	??__doprnt,w
  2387  0AC5  3E01               	addlw	low ((_dpowers-__stringbase)| (0+32768))
  2388  0AC6  0084               	movwf	4
  2389  0AC7  160A  118A  200A  120A  158A  	fcall	stringdir
  2390  0ACC  00AD               	movwf	??__doprnt+1
  2391  0ACD  160A  118A  200A  120A  158A  	fcall	stringdir
  2392  0AD2  00AE               	movwf	??__doprnt+2
  2393  0AD3  082E               	movf	??__doprnt+2,w
  2394  0AD4  0233               	subwf	__doprnt@val+1,w
  2395  0AD5  1D03               	skipz
  2396  0AD6  2AD9               	goto	u4505
  2397  0AD7  082D               	movf	??__doprnt+1,w
  2398  0AD8  0232               	subwf	__doprnt@val,w
  2399  0AD9                     u4505:
  2400  0AD9  1803               	skipnc
  2401  0ADA  2ADC               	goto	u4501
  2402  0ADB  2ADD               	goto	u4500
  2403  0ADC                     u4501:
  2404  0ADC  2ADE               	goto	l3303
  2405  0ADD                     u4500:
  2406  0ADD  2AE8               	goto	l3305
  2407  0ADE                     l3303:
  2408  0ADE  3001               	movlw	1
  2409  0ADF  00AC               	movwf	??__doprnt
  2410  0AE0  082C               	movf	??__doprnt,w
  2411  0AE1  07B4               	addwf	__doprnt@c,f
  2412  0AE2  3005               	movlw	5
  2413  0AE3  0634               	xorwf	__doprnt@c,w
  2414  0AE4  1D03               	btfss	3,2
  2415  0AE5  2AE7               	goto	u4511
  2416  0AE6  2AE8               	goto	u4510
  2417  0AE7                     u4511:
  2418  0AE7  2AC2               	goto	l3299
  2419  0AE8                     u4510:
  2420  0AE8                     l3305:
  2421                           
  2422                           ;C:\Program Files\Microchip\xc8\v2.31\pic\sources\c90\common\doprnt.c: 1448:   {;C:\Prog
      +                          ram Files\Microchip\xc8\v2.31\pic\sources\c90\common\doprnt.c: 1464:    if(flag & 0x03)
  2423  0AE8  0830               	movf	__doprnt@flag,w
  2424  0AE9  3903               	andlw	3
  2425  0AEA  1903               	btfsc	3,2
  2426  0AEB  2AED               	goto	u4521
  2427  0AEC  2AEE               	goto	u4520
  2428  0AED                     u4521:
  2429  0AED  2B11               	goto	l3315
  2430  0AEE                     u4520:
  2431  0AEE                     l3307:
  2432  0AEE  0A35               	incf	__doprnt@pb,w
  2433  0AEF  0084               	movwf	4
  2434  0AF0  1383               	bcf	3,7	;select IRP bank0
  2435  0AF1  0800               	movf	0,w
  2436  0AF2  1903               	btfsc	3,2
  2437  0AF3  2AF5               	goto	u4531
  2438  0AF4  2AF6               	goto	u4530
  2439  0AF5                     u4531:
  2440  0AF5  2B03               	goto	l3311
  2441  0AF6                     u4530:
  2442  0AF6                     l3309:
  2443  0AF6  302D               	movlw	45
  2444  0AF7  00AC               	movwf	??__doprnt
  2445  0AF8  082C               	movf	??__doprnt,w
  2446  0AF9  00F3               	movwf	putch@dato
  2447  0AFA  0A35               	incf	__doprnt@pb,w
  2448  0AFB  0084               	movwf	4
  2449  0AFC  0800               	movf	0,w
  2450  0AFD  120A  118A  2026  120A  158A  	fcall	fptable
  2451  0B02  2B11               	goto	l3315
  2452  0B03                     l3311:
  2453  0B03  302D               	movlw	45
  2454  0B04  00AC               	movwf	??__doprnt
  2455  0B05  0835               	movf	__doprnt@pb,w
  2456  0B06  0084               	movwf	4
  2457  0B07  0800               	movf	0,w
  2458  0B08  0084               	movwf	4
  2459  0B09  082C               	movf	??__doprnt,w
  2460  0B0A  0080               	movwf	0
  2461  0B0B                     l3313:
  2462  0B0B  3001               	movlw	1
  2463  0B0C  00AC               	movwf	??__doprnt
  2464  0B0D  0835               	movf	__doprnt@pb,w
  2465  0B0E  0084               	movwf	4
  2466  0B0F  082C               	movf	??__doprnt,w
  2467  0B10  0780               	addwf	0,f
  2468  0B11                     l3315:
  2469                           
  2470                           ;C:\Program Files\Microchip\xc8\v2.31\pic\sources\c90\common\doprnt.c: 1495:   };C:\Prog
      +                          ram Files\Microchip\xc8\v2.31\pic\sources\c90\common\doprnt.c: 1498:   prec = c;
  2471  0B11  1283               	bcf	3,5	;RP0=0, select bank0
  2472  0B12  1303               	bcf	3,6	;RP1=0, select bank0
  2473  0B13  0834               	movf	__doprnt@c,w
  2474  0B14  00AC               	movwf	??__doprnt
  2475  0B15  082C               	movf	??__doprnt,w
  2476  0B16  00B1               	movwf	__doprnt@prec
  2477                           
  2478                           ;C:\Program Files\Microchip\xc8\v2.31\pic\sources\c90\common\doprnt.c: 1500:   while(pre
      +                          c--) {
  2479  0B17  2B6B               	goto	l3327
  2480  0B18                     l3317:
  2481                           
  2482                           ;C:\Program Files\Microchip\xc8\v2.31\pic\sources\c90\common\doprnt.c: 1504:    {;C:\Pro
      +                          gram Files\Microchip\xc8\v2.31\pic\sources\c90\common\doprnt.c: 1515:     c = (val / dpo
      +                          wers[(unsigned char)prec]) % 10 + '0';
  2483  0B18  300A               	movlw	10
  2484  0B19  00A3               	movwf	___lwmod@divisor
  2485  0B1A  3000               	movlw	0
  2486  0B1B  00A4               	movwf	___lwmod@divisor+1
  2487  0B1C  0831               	movf	__doprnt@prec,w
  2488  0B1D  00AC               	movwf	??__doprnt
  2489  0B1E  072C               	addwf	??__doprnt,w
  2490  0B1F  3E01               	addlw	low ((_dpowers-__stringbase)| (0+32768))
  2491  0B20  0084               	movwf	4
  2492  0B21  160A  118A  200A  120A  158A  	fcall	stringdir
  2493  0B26  00F3               	movwf	___lwdiv@divisor
  2494  0B27  160A  118A  200A  120A  158A  	fcall	stringdir
  2495  0B2C  00F4               	movwf	___lwdiv@divisor+1
  2496  0B2D  0833               	movf	__doprnt@val+1,w
  2497  0B2E  00F6               	movwf	___lwdiv@dividend+1
  2498  0B2F  0832               	movf	__doprnt@val,w
  2499  0B30  00F5               	movwf	___lwdiv@dividend
  2500  0B31  160A  118A  25BB  120A  158A  	fcall	___lwdiv
  2501  0B36  0874               	movf	?___lwdiv+1,w
  2502  0B37  1283               	bcf	3,5	;RP0=0, select bank0
  2503  0B38  1303               	bcf	3,6	;RP1=0, select bank0
  2504  0B39  00A6               	movwf	___lwmod@dividend+1
  2505  0B3A  0873               	movf	?___lwdiv,w
  2506  0B3B  00A5               	movwf	___lwmod@dividend
  2507  0B3C  160A  118A  257F  120A  158A  	fcall	___lwmod
  2508  0B41  1283               	bcf	3,5	;RP0=0, select bank0
  2509  0B42  1303               	bcf	3,6	;RP1=0, select bank0
  2510  0B43  0823               	movf	?___lwmod,w
  2511  0B44  3E30               	addlw	48
  2512  0B45  00AD               	movwf	??__doprnt+1
  2513  0B46  082D               	movf	??__doprnt+1,w
  2514  0B47  00B4               	movwf	__doprnt@c
  2515  0B48                     l3319:
  2516  0B48  0A35               	incf	__doprnt@pb,w
  2517  0B49  0084               	movwf	4
  2518  0B4A  1383               	bcf	3,7	;select IRP bank0
  2519  0B4B  0800               	movf	0,w
  2520  0B4C  1903               	btfsc	3,2
  2521  0B4D  2B4F               	goto	u4541
  2522  0B4E  2B50               	goto	u4540
  2523  0B4F                     u4541:
  2524  0B4F  2B5D               	goto	l3323
  2525  0B50                     u4540:
  2526  0B50                     l3321:
  2527  0B50  0834               	movf	__doprnt@c,w
  2528  0B51  00AC               	movwf	??__doprnt
  2529  0B52  082C               	movf	??__doprnt,w
  2530  0B53  00F3               	movwf	putch@dato
  2531  0B54  0A35               	incf	__doprnt@pb,w
  2532  0B55  0084               	movwf	4
  2533  0B56  0800               	movf	0,w
  2534  0B57  120A  118A  2026  120A  158A  	fcall	fptable
  2535  0B5C  2B6B               	goto	l3327
  2536  0B5D                     l3323:
  2537  0B5D  0834               	movf	__doprnt@c,w
  2538  0B5E  00AC               	movwf	??__doprnt
  2539  0B5F  0835               	movf	__doprnt@pb,w
  2540  0B60  0084               	movwf	4
  2541  0B61  0800               	movf	0,w
  2542  0B62  0084               	movwf	4
  2543  0B63  082C               	movf	??__doprnt,w
  2544  0B64  0080               	movwf	0
  2545  0B65                     l3325:
  2546  0B65  3001               	movlw	1
  2547  0B66  00AC               	movwf	??__doprnt
  2548  0B67  0835               	movf	__doprnt@pb,w
  2549  0B68  0084               	movwf	4
  2550  0B69  082C               	movf	??__doprnt,w
  2551  0B6A  0780               	addwf	0,f
  2552  0B6B                     l3327:
  2553                           
  2554                           ;C:\Program Files\Microchip\xc8\v2.31\pic\sources\c90\common\doprnt.c: 1500:   while(pre
      +                          c--) {
  2555  0B6B  30FF               	movlw	255
  2556  0B6C  1283               	bcf	3,5	;RP0=0, select bank0
  2557  0B6D  1303               	bcf	3,6	;RP1=0, select bank0
  2558  0B6E  00AC               	movwf	??__doprnt
  2559  0B6F  082C               	movf	??__doprnt,w
  2560  0B70  07B1               	addwf	__doprnt@prec,f
  2561  0B71  0A31               	incf	__doprnt@prec,w
  2562  0B72  1D03               	btfss	3,2
  2563  0B73  2B75               	goto	u4551
  2564  0B74  2B76               	goto	u4550
  2565  0B75                     u4551:
  2566  0B75  2B18               	goto	l3317
  2567  0B76                     u4550:
  2568  0B76                     l3329:
  2569                           
  2570                           ;C:\Program Files\Microchip\xc8\v2.31\pic\sources\c90\common\doprnt.c: 553:  while((c = 
      +                          *f++)) {
  2571  0B76  1283               	bcf	3,5	;RP0=0, select bank0
  2572  0B77  1303               	bcf	3,6	;RP1=0, select bank0
  2573  0B78  082A               	movf	__doprnt@f+1,w
  2574  0B79  00AD               	movwf	??__doprnt+1
  2575  0B7A  0829               	movf	__doprnt@f,w
  2576  0B7B  00AC               	movwf	??__doprnt
  2577  0B7C  0AA9               	incf	__doprnt@f,f
  2578  0B7D  1903               	skipnz
  2579  0B7E  0AAA               	incf	__doprnt@f+1,f
  2580  0B7F  082D               	movf	??__doprnt+1,w
  2581  0B80  00FF               	movwf	btemp+1
  2582  0B81  082C               	movf	??__doprnt,w
  2583  0B82  0084               	movwf	4
  2584  0B83  160A  118A  2000  120A  158A  	fcall	stringtab
  2585  0B88  00AE               	movwf	??__doprnt+2
  2586  0B89  082E               	movf	??__doprnt+2,w
  2587  0B8A  00B4               	movwf	__doprnt@c
  2588  0B8B  0834               	movf	__doprnt@c,w
  2589  0B8C  1D03               	btfss	3,2
  2590  0B8D  2B8F               	goto	u4561
  2591  0B8E  2B90               	goto	u4560
  2592  0B8F                     u4561:
  2593  0B8F  2A2E               	goto	l3261
  2594  0B90                     u4560:
  2595  0B90                     l3331:
  2596                           
  2597                           ;C:\Program Files\Microchip\xc8\v2.31\pic\sources\c90\common\doprnt.c: 1566:  return 0;
  2598  0B90  01A9               	clrf	?__doprnt
  2599  0B91  01AA               	clrf	?__doprnt+1
  2600  0B92                     l827:
  2601  0B92  0008               	return
  2602  0B93                     __end_of__doprnt:
  2603                           
  2604                           	psect	text8
  2605  1433                     __ptext8:	
  2606 ;; *************** function _putch *****************
  2607 ;; Defined at:
  2608 ;;		line 142 in file "Lab05.c"
  2609 ;; Parameters:    Size  Location     Type
  2610 ;;  dato            1    3[COMMON] unsigned char 
  2611 ;; Auto vars:     Size  Location     Type
  2612 ;;		None
  2613 ;; Return value:  Size  Location     Type
  2614 ;;                  1    wreg      void 
  2615 ;; Registers used:
  2616 ;;		wreg
  2617 ;; Tracked objects:
  2618 ;;		On entry : 0/0
  2619 ;;		On exit  : 0/0
  2620 ;;		Unchanged: 0/0
  2621 ;; Data sizes:     COMMON   BANK0   BANK1   BANK3   BANK2
  2622 ;;      Params:         1       0       0       0       0
  2623 ;;      Locals:         0       0       0       0       0
  2624 ;;      Temps:          0       0       0       0       0
  2625 ;;      Totals:         1       0       0       0       0
  2626 ;;Total ram usage:        1 bytes
  2627 ;; Hardware stack levels used:    1
  2628 ;; Hardware stack levels required when called:    1
  2629 ;; This function calls:
  2630 ;;		Nothing
  2631 ;; This function is called by:
  2632 ;;		_printf
  2633 ;;		__doprnt
  2634 ;; This function uses a non-reentrant model
  2635 ;;
  2636                           
  2637                           
  2638                           ;psect for function _putch
  2639  1433                     _putch:
  2640  1433                     l2111:	
  2641                           ;incstack = 0
  2642                           ; Regs used in _putch: [wreg]
  2643                           
  2644  1433                     l216:	
  2645                           ;Lab05.c: 143:     while(TXIF == 0);
  2646                           
  2647  1433  1283               	bcf	3,5	;RP0=0, select bank0
  2648  1434  1303               	bcf	3,6	;RP1=0, select bank0
  2649  1435  1E0C               	btfss	12,4	;volatile
  2650  1436  2C38               	goto	u2191
  2651  1437  2C39               	goto	u2190
  2652  1438                     u2191:
  2653  1438  2C33               	goto	l216
  2654  1439                     u2190:
  2655  1439                     l2113:
  2656                           
  2657                           ;Lab05.c: 144:     TXREG = dato;
  2658  1439  0873               	movf	putch@dato,w
  2659  143A  0099               	movwf	25	;volatile
  2660  143B                     l219:
  2661  143B  0008               	return
  2662  143C                     __end_of_putch:
  2663                           
  2664                           	psect	text9
  2665  157F                     __ptext9:	
  2666 ;; *************** function ___lwmod *****************
  2667 ;; Defined at:
  2668 ;;		line 5 in file "C:\Program Files\Microchip\xc8\v2.31\pic\sources\c90\common\lwmod.c"
  2669 ;; Parameters:    Size  Location     Type
  2670 ;;  divisor         2    3[BANK0 ] unsigned int 
  2671 ;;  dividend        2    5[BANK0 ] unsigned int 
  2672 ;; Auto vars:     Size  Location     Type
  2673 ;;  counter         1    8[BANK0 ] unsigned char 
  2674 ;; Return value:  Size  Location     Type
  2675 ;;                  2    3[BANK0 ] unsigned int 
  2676 ;; Registers used:
  2677 ;;		wreg, status,2, status,0
  2678 ;; Tracked objects:
  2679 ;;		On entry : 0/0
  2680 ;;		On exit  : 0/0
  2681 ;;		Unchanged: 0/0
  2682 ;; Data sizes:     COMMON   BANK0   BANK1   BANK3   BANK2
  2683 ;;      Params:         0       4       0       0       0
  2684 ;;      Locals:         0       1       0       0       0
  2685 ;;      Temps:          0       1       0       0       0
  2686 ;;      Totals:         0       6       0       0       0
  2687 ;;Total ram usage:        6 bytes
  2688 ;; Hardware stack levels used:    1
  2689 ;; Hardware stack levels required when called:    1
  2690 ;; This function calls:
  2691 ;;		Nothing
  2692 ;; This function is called by:
  2693 ;;		__doprnt
  2694 ;; This function uses a non-reentrant model
  2695 ;;
  2696                           
  2697                           
  2698                           ;psect for function ___lwmod
  2699  157F                     ___lwmod:
  2700  157F                     l2143:	
  2701                           ;incstack = 0
  2702                           ; Regs used in ___lwmod: [wreg+status,2+status,0]
  2703                           
  2704  157F  1283               	bcf	3,5	;RP0=0, select bank0
  2705  1580  1303               	bcf	3,6	;RP1=0, select bank0
  2706  1581  0823               	movf	___lwmod@divisor,w
  2707  1582  0424               	iorwf	___lwmod@divisor+1,w
  2708  1583  1903               	btfsc	3,2
  2709  1584  2D86               	goto	u2271
  2710  1585  2D87               	goto	u2270
  2711  1586                     u2271:
  2712  1586  2DB6               	goto	l2161
  2713  1587                     u2270:
  2714  1587                     l2145:
  2715  1587  01A8               	clrf	___lwmod@counter
  2716  1588  0AA8               	incf	___lwmod@counter,f
  2717  1589  2D95               	goto	l2151
  2718  158A                     l2147:
  2719  158A  3001               	movlw	1
  2720  158B                     u2285:
  2721  158B  1003               	clrc
  2722  158C  0DA3               	rlf	___lwmod@divisor,f
  2723  158D  0DA4               	rlf	___lwmod@divisor+1,f
  2724  158E  3EFF               	addlw	-1
  2725  158F  1D03               	skipz
  2726  1590  2D8B               	goto	u2285
  2727  1591                     l2149:
  2728  1591  3001               	movlw	1
  2729  1592  00A7               	movwf	??___lwmod
  2730  1593  0827               	movf	??___lwmod,w
  2731  1594  07A8               	addwf	___lwmod@counter,f
  2732  1595                     l2151:
  2733  1595  1FA4               	btfss	___lwmod@divisor+1,7
  2734  1596  2D98               	goto	u2291
  2735  1597  2D99               	goto	u2290
  2736  1598                     u2291:
  2737  1598  2D8A               	goto	l2147
  2738  1599                     u2290:
  2739  1599                     l2153:
  2740  1599  0824               	movf	___lwmod@divisor+1,w
  2741  159A  0226               	subwf	___lwmod@dividend+1,w
  2742  159B  1D03               	skipz
  2743  159C  2D9F               	goto	u2305
  2744  159D  0823               	movf	___lwmod@divisor,w
  2745  159E  0225               	subwf	___lwmod@dividend,w
  2746  159F                     u2305:
  2747  159F  1C03               	skipc
  2748  15A0  2DA2               	goto	u2301
  2749  15A1  2DA3               	goto	u2300
  2750  15A2                     u2301:
  2751  15A2  2DA9               	goto	l2157
  2752  15A3                     u2300:
  2753  15A3                     l2155:
  2754  15A3  0823               	movf	___lwmod@divisor,w
  2755  15A4  02A5               	subwf	___lwmod@dividend,f
  2756  15A5  0824               	movf	___lwmod@divisor+1,w
  2757  15A6  1C03               	skipc
  2758  15A7  03A6               	decf	___lwmod@dividend+1,f
  2759  15A8  02A6               	subwf	___lwmod@dividend+1,f
  2760  15A9                     l2157:
  2761  15A9  3001               	movlw	1
  2762  15AA                     u2315:
  2763  15AA  1003               	clrc
  2764  15AB  0CA4               	rrf	___lwmod@divisor+1,f
  2765  15AC  0CA3               	rrf	___lwmod@divisor,f
  2766  15AD  3EFF               	addlw	-1
  2767  15AE  1D03               	skipz
  2768  15AF  2DAA               	goto	u2315
  2769  15B0                     l2159:
  2770  15B0  3001               	movlw	1
  2771  15B1  02A8               	subwf	___lwmod@counter,f
  2772  15B2  1D03               	btfss	3,2
  2773  15B3  2DB5               	goto	u2321
  2774  15B4  2DB6               	goto	u2320
  2775  15B5                     u2321:
  2776  15B5  2D99               	goto	l2153
  2777  15B6                     u2320:
  2778  15B6                     l2161:
  2779  15B6  0826               	movf	___lwmod@dividend+1,w
  2780  15B7  00A4               	movwf	?___lwmod+1
  2781  15B8  0825               	movf	___lwmod@dividend,w
  2782  15B9  00A3               	movwf	?___lwmod
  2783  15BA                     l590:
  2784  15BA  0008               	return
  2785  15BB                     __end_of___lwmod:
  2786                           
  2787                           	psect	text10
  2788  15BB                     __ptext10:	
  2789 ;; *************** function ___lwdiv *****************
  2790 ;; Defined at:
  2791 ;;		line 5 in file "C:\Program Files\Microchip\xc8\v2.31\pic\sources\c90\common\lwdiv.c"
  2792 ;; Parameters:    Size  Location     Type
  2793 ;;  divisor         2    3[COMMON] unsigned int 
  2794 ;;  dividend        2    5[COMMON] unsigned int 
  2795 ;; Auto vars:     Size  Location     Type
  2796 ;;  quotient        2    1[BANK0 ] unsigned int 
  2797 ;;  counter         1    0[BANK0 ] unsigned char 
  2798 ;; Return value:  Size  Location     Type
  2799 ;;                  2    3[COMMON] unsigned int 
  2800 ;; Registers used:
  2801 ;;		wreg, status,2, status,0
  2802 ;; Tracked objects:
  2803 ;;		On entry : 0/0
  2804 ;;		On exit  : 0/0
  2805 ;;		Unchanged: 0/0
  2806 ;; Data sizes:     COMMON   BANK0   BANK1   BANK3   BANK2
  2807 ;;      Params:         4       0       0       0       0
  2808 ;;      Locals:         0       3       0       0       0
  2809 ;;      Temps:          1       0       0       0       0
  2810 ;;      Totals:         5       3       0       0       0
  2811 ;;Total ram usage:        8 bytes
  2812 ;; Hardware stack levels used:    1
  2813 ;; Hardware stack levels required when called:    1
  2814 ;; This function calls:
  2815 ;;		Nothing
  2816 ;; This function is called by:
  2817 ;;		__doprnt
  2818 ;; This function uses a non-reentrant model
  2819 ;;
  2820                           
  2821                           
  2822                           ;psect for function ___lwdiv
  2823  15BB                     ___lwdiv:
  2824  15BB                     l3219:	
  2825                           ;incstack = 0
  2826                           ; Regs used in ___lwdiv: [wreg+status,2+status,0]
  2827                           
  2828  15BB  1283               	bcf	3,5	;RP0=0, select bank0
  2829  15BC  1303               	bcf	3,6	;RP1=0, select bank0
  2830  15BD  01A1               	clrf	___lwdiv@quotient
  2831  15BE  01A2               	clrf	___lwdiv@quotient+1
  2832  15BF                     l3221:
  2833  15BF  0873               	movf	___lwdiv@divisor,w
  2834  15C0  0474               	iorwf	___lwdiv@divisor+1,w
  2835  15C1  1903               	btfsc	3,2
  2836  15C2  2DC4               	goto	u4351
  2837  15C3  2DC5               	goto	u4350
  2838  15C4                     u4351:
  2839  15C4  2DFC               	goto	l3241
  2840  15C5                     u4350:
  2841  15C5                     l3223:
  2842  15C5  01A0               	clrf	___lwdiv@counter
  2843  15C6  0AA0               	incf	___lwdiv@counter,f
  2844  15C7  2DD3               	goto	l3229
  2845  15C8                     l3225:
  2846  15C8  3001               	movlw	1
  2847  15C9                     u4365:
  2848  15C9  1003               	clrc
  2849  15CA  0DF3               	rlf	___lwdiv@divisor,f
  2850  15CB  0DF4               	rlf	___lwdiv@divisor+1,f
  2851  15CC  3EFF               	addlw	-1
  2852  15CD  1D03               	skipz
  2853  15CE  2DC9               	goto	u4365
  2854  15CF                     l3227:
  2855  15CF  3001               	movlw	1
  2856  15D0  00F7               	movwf	??___lwdiv
  2857  15D1  0877               	movf	??___lwdiv,w
  2858  15D2  07A0               	addwf	___lwdiv@counter,f
  2859  15D3                     l3229:
  2860  15D3  1FF4               	btfss	___lwdiv@divisor+1,7
  2861  15D4  2DD6               	goto	u4371
  2862  15D5  2DD7               	goto	u4370
  2863  15D6                     u4371:
  2864  15D6  2DC8               	goto	l3225
  2865  15D7                     u4370:
  2866  15D7                     l3231:
  2867  15D7  3001               	movlw	1
  2868  15D8                     u4385:
  2869  15D8  1003               	clrc
  2870  15D9  0DA1               	rlf	___lwdiv@quotient,f
  2871  15DA  0DA2               	rlf	___lwdiv@quotient+1,f
  2872  15DB  3EFF               	addlw	-1
  2873  15DC  1D03               	skipz
  2874  15DD  2DD8               	goto	u4385
  2875  15DE  0874               	movf	___lwdiv@divisor+1,w
  2876  15DF  0276               	subwf	___lwdiv@dividend+1,w
  2877  15E0  1D03               	skipz
  2878  15E1  2DE4               	goto	u4395
  2879  15E2  0873               	movf	___lwdiv@divisor,w
  2880  15E3  0275               	subwf	___lwdiv@dividend,w
  2881  15E4                     u4395:
  2882  15E4  1C03               	skipc
  2883  15E5  2DE7               	goto	u4391
  2884  15E6  2DE8               	goto	u4390
  2885  15E7                     u4391:
  2886  15E7  2DEF               	goto	l3237
  2887  15E8                     u4390:
  2888  15E8                     l3233:
  2889  15E8  0873               	movf	___lwdiv@divisor,w
  2890  15E9  02F5               	subwf	___lwdiv@dividend,f
  2891  15EA  0874               	movf	___lwdiv@divisor+1,w
  2892  15EB  1C03               	skipc
  2893  15EC  03F6               	decf	___lwdiv@dividend+1,f
  2894  15ED  02F6               	subwf	___lwdiv@dividend+1,f
  2895  15EE                     l3235:
  2896  15EE  1421               	bsf	___lwdiv@quotient,0
  2897  15EF                     l3237:
  2898  15EF  3001               	movlw	1
  2899  15F0                     u4405:
  2900  15F0  1003               	clrc
  2901  15F1  0CF4               	rrf	___lwdiv@divisor+1,f
  2902  15F2  0CF3               	rrf	___lwdiv@divisor,f
  2903  15F3  3EFF               	addlw	-1
  2904  15F4  1D03               	skipz
  2905  15F5  2DF0               	goto	u4405
  2906  15F6                     l3239:
  2907  15F6  3001               	movlw	1
  2908  15F7  02A0               	subwf	___lwdiv@counter,f
  2909  15F8  1D03               	btfss	3,2
  2910  15F9  2DFB               	goto	u4411
  2911  15FA  2DFC               	goto	u4410
  2912  15FB                     u4411:
  2913  15FB  2DD7               	goto	l3231
  2914  15FC                     u4410:
  2915  15FC                     l3241:
  2916  15FC  0822               	movf	___lwdiv@quotient+1,w
  2917  15FD  00F4               	movwf	?___lwdiv+1
  2918  15FE  0821               	movf	___lwdiv@quotient,w
  2919  15FF  00F3               	movwf	?___lwdiv
  2920  1600                     l580:
  2921  1600  0008               	return
  2922  1601                     __end_of___lwdiv:
  2923                           
  2924                           	psect	text11
  2925  16D9                     __ptext11:	
  2926 ;; *************** function _atoi *****************
  2927 ;; Defined at:
  2928 ;;		line 5 in file "C:\Program Files\Microchip\xc8\v2.31\pic\sources\c90\common\atoi.c"
  2929 ;; Parameters:    Size  Location     Type
  2930 ;;  s               1    wreg     PTR const unsigned char 
  2931 ;;		 -> concatenar@s1(20), 
  2932 ;; Auto vars:     Size  Location     Type
  2933 ;;  s               1   20[BANK0 ] PTR const unsigned char 
  2934 ;;		 -> concatenar@s1(20), 
  2935 ;;  a               2   18[BANK0 ] int 
  2936 ;;  sign            1   17[BANK0 ] unsigned char 
  2937 ;; Return value:  Size  Location     Type
  2938 ;;                  2   13[BANK0 ] int 
  2939 ;; Registers used:
  2940 ;;		wreg, fsr0l, fsr0h, status,2, status,0, pclath, cstack
  2941 ;; Tracked objects:
  2942 ;;		On entry : 0/0
  2943 ;;		On exit  : 0/0
  2944 ;;		Unchanged: 0/0
  2945 ;; Data sizes:     COMMON   BANK0   BANK1   BANK3   BANK2
  2946 ;;      Params:         0       2       0       0       0
  2947 ;;      Locals:         0       4       0       0       0
  2948 ;;      Temps:          0       2       0       0       0
  2949 ;;      Totals:         0       8       0       0       0
  2950 ;;Total ram usage:        8 bytes
  2951 ;; Hardware stack levels used:    1
  2952 ;; Hardware stack levels required when called:    2
  2953 ;; This function calls:
  2954 ;;		___wmul
  2955 ;;		_isdigit
  2956 ;; This function is called by:
  2957 ;;		_concatenar
  2958 ;; This function uses a non-reentrant model
  2959 ;;
  2960                           
  2961                           
  2962                           ;psect for function _atoi
  2963  16D9                     _atoi:
  2964                           
  2965                           ;incstack = 0
  2966                           ; Regs used in _atoi: [wreg-fsr0h+status,2+status,0+pclath+cstack]
  2967                           ;atoi@s stored from wreg
  2968  16D9  1283               	bcf	3,5	;RP0=0, select bank0
  2969  16DA  1303               	bcf	3,6	;RP1=0, select bank0
  2970  16DB  00B4               	movwf	atoi@s
  2971  16DC                     l3351:
  2972  16DC  2EE1               	goto	l3355
  2973  16DD                     l3353:
  2974  16DD  3001               	movlw	1
  2975  16DE  00AF               	movwf	??_atoi
  2976  16DF  082F               	movf	??_atoi,w
  2977  16E0  07B4               	addwf	atoi@s,f
  2978  16E1                     l3355:
  2979  16E1  0834               	movf	atoi@s,w
  2980  16E2  0084               	movwf	4
  2981  16E3  3020               	movlw	32
  2982  16E4  1383               	bcf	3,7	;select IRP bank0
  2983  16E5  0600               	xorwf	0,w
  2984  16E6  1903               	btfsc	3,2
  2985  16E7  2EE9               	goto	u4571
  2986  16E8  2EEA               	goto	u4570
  2987  16E9                     u4571:
  2988  16E9  2EDD               	goto	l3353
  2989  16EA                     u4570:
  2990  16EA                     l3357:
  2991  16EA  0834               	movf	atoi@s,w
  2992  16EB  0084               	movwf	4
  2993  16EC  3009               	movlw	9
  2994  16ED  0600               	xorwf	0,w
  2995  16EE  1903               	btfsc	3,2
  2996  16EF  2EF1               	goto	u4581
  2997  16F0  2EF2               	goto	u4580
  2998  16F1                     u4581:
  2999  16F1  2EDD               	goto	l3353
  3000  16F2                     u4580:
  3001  16F2                     l3359:
  3002  16F2  01B2               	clrf	atoi@a
  3003  16F3  01B3               	clrf	atoi@a+1
  3004  16F4  01B1               	clrf	atoi@sign
  3005  16F5                     l3361:
  3006  16F5  0834               	movf	atoi@s,w
  3007  16F6  0084               	movwf	4
  3008  16F7  302D               	movlw	45
  3009  16F8  0600               	xorwf	0,w
  3010  16F9  1D03               	btfss	3,2
  3011  16FA  2EFC               	goto	u4591
  3012  16FB  2EFD               	goto	u4590
  3013  16FC                     u4591:
  3014  16FC  2F06               	goto	l3365
  3015  16FD                     u4590:
  3016  16FD                     l3363:
  3017  16FD  3001               	movlw	1
  3018  16FE  00AF               	movwf	??_atoi
  3019  16FF  082F               	movf	??_atoi,w
  3020  1700  07B1               	addwf	atoi@sign,f
  3021  1701  3001               	movlw	1
  3022  1702  00AF               	movwf	??_atoi
  3023  1703  082F               	movf	??_atoi,w
  3024  1704  07B4               	addwf	atoi@s,f
  3025  1705  2F38               	goto	l3373
  3026  1706                     l3365:
  3027  1706  0834               	movf	atoi@s,w
  3028  1707  0084               	movwf	4
  3029  1708  302B               	movlw	43
  3030  1709  0600               	xorwf	0,w
  3031  170A  1D03               	btfss	3,2
  3032  170B  2F0D               	goto	u4601
  3033  170C  2F0E               	goto	u4600
  3034  170D                     u4601:
  3035  170D  2F38               	goto	l3373
  3036  170E                     u4600:
  3037  170E                     l3367:
  3038  170E  3001               	movlw	1
  3039  170F  00AF               	movwf	??_atoi
  3040  1710  082F               	movf	??_atoi,w
  3041  1711  07B4               	addwf	atoi@s,f
  3042  1712  2F38               	goto	l3373
  3043  1713                     l3369:
  3044  1713  1283               	bcf	3,5	;RP0=0, select bank0
  3045  1714  1303               	bcf	3,6	;RP1=0, select bank0
  3046  1715  0834               	movf	atoi@s,w
  3047  1716  0084               	movwf	4
  3048  1717  0833               	movf	atoi@a+1,w
  3049  1718  00A8               	movwf	___wmul@multiplier+1
  3050  1719  0832               	movf	atoi@a,w
  3051  171A  00A7               	movwf	___wmul@multiplier
  3052  171B  300A               	movlw	10
  3053  171C  00A9               	movwf	___wmul@multiplicand
  3054  171D  3000               	movlw	0
  3055  171E  00AA               	movwf	___wmul@multiplicand+1
  3056  171F  160A  118A  24AF  160A  118A  	fcall	___wmul
  3057  1724  1383               	bcf	3,7	;select IRP bank0
  3058  1725  0800               	movf	0,w
  3059  1726  1283               	bcf	3,5	;RP0=0, select bank0
  3060  1727  1303               	bcf	3,6	;RP1=0, select bank0
  3061  1728  0727               	addwf	?___wmul,w
  3062  1729  00AF               	movwf	??_atoi
  3063  172A  3000               	movlw	0
  3064  172B  1803               	skipnc
  3065  172C  3001               	movlw	1
  3066  172D  0728               	addwf	?___wmul+1,w
  3067  172E  00B0               	movwf	??_atoi+1
  3068  172F  082F               	movf	??_atoi,w
  3069  1730  3ED0               	addlw	208
  3070  1731  00B2               	movwf	atoi@a
  3071  1732  0830               	movf	??_atoi+1,w
  3072  1733  1803               	skipnc
  3073  1734  3E01               	addlw	1
  3074  1735  3EFF               	addlw	255
  3075  1736  00B3               	movwf	atoi@a+1
  3076  1737  2F0E               	goto	l3367
  3077  1738                     l3373:
  3078  1738  0834               	movf	atoi@s,w
  3079  1739  0084               	movwf	4
  3080  173A  0800               	movf	0,w
  3081  173B  160A  118A  243C  160A  118A  	fcall	_isdigit
  3082  1740  1803               	btfsc	3,0
  3083  1741  2F43               	goto	u4611
  3084  1742  2F44               	goto	u4610
  3085  1743                     u4611:
  3086  1743  2F13               	goto	l3369
  3087  1744                     u4610:
  3088  1744                     l3375:
  3089  1744  1283               	bcf	3,5	;RP0=0, select bank0
  3090  1745  1303               	bcf	3,6	;RP1=0, select bank0
  3091  1746  0831               	movf	atoi@sign,w
  3092  1747  1903               	btfsc	3,2
  3093  1748  2F4A               	goto	u4621
  3094  1749  2F4B               	goto	u4620
  3095  174A                     u4621:
  3096  174A  2F57               	goto	l3381
  3097  174B                     u4620:
  3098  174B                     l3377:
  3099  174B  0932               	comf	atoi@a,w
  3100  174C  00AF               	movwf	??_atoi
  3101  174D  0933               	comf	atoi@a+1,w
  3102  174E  00B0               	movwf	??_atoi+1
  3103  174F  0AAF               	incf	??_atoi,f
  3104  1750  1903               	skipnz
  3105  1751  0AB0               	incf	??_atoi+1,f
  3106  1752  082F               	movf	??_atoi,w
  3107  1753  00AD               	movwf	?_atoi
  3108  1754  0830               	movf	??_atoi+1,w
  3109  1755  00AE               	movwf	?_atoi+1
  3110  1756  2F5B               	goto	l771
  3111  1757                     l3381:
  3112  1757  0833               	movf	atoi@a+1,w
  3113  1758  00AE               	movwf	?_atoi+1
  3114  1759  0832               	movf	atoi@a,w
  3115  175A  00AD               	movwf	?_atoi
  3116  175B                     l771:
  3117  175B  0008               	return
  3118  175C                     __end_of_atoi:
  3119                           
  3120                           	psect	text12
  3121  143C                     __ptext12:	
  3122 ;; *************** function _isdigit *****************
  3123 ;; Defined at:
  3124 ;;		line 8 in file "C:\Program Files\Microchip\xc8\v2.31\pic\sources\c90\common\isdigit.c"
  3125 ;; Parameters:    Size  Location     Type
  3126 ;;  c               1    wreg     unsigned char 
  3127 ;; Auto vars:     Size  Location     Type
  3128 ;;  c               1    4[COMMON] unsigned char 
  3129 ;; Return value:  Size  Location     Type
  3130 ;;		None               void
  3131 ;; Registers used:
  3132 ;;		wreg, status,2, status,0
  3133 ;; Tracked objects:
  3134 ;;		On entry : 0/0
  3135 ;;		On exit  : 0/0
  3136 ;;		Unchanged: 0/0
  3137 ;; Data sizes:     COMMON   BANK0   BANK1   BANK3   BANK2
  3138 ;;      Params:         0       0       0       0       0
  3139 ;;      Locals:         2       0       0       0       0
  3140 ;;      Temps:          0       0       0       0       0
  3141 ;;      Totals:         2       0       0       0       0
  3142 ;;Total ram usage:        2 bytes
  3143 ;; Hardware stack levels used:    1
  3144 ;; Hardware stack levels required when called:    1
  3145 ;; This function calls:
  3146 ;;		Nothing
  3147 ;; This function is called by:
  3148 ;;		_atoi
  3149 ;; This function uses a non-reentrant model
  3150 ;;
  3151                           
  3152                           
  3153                           ;psect for function _isdigit
  3154  143C                     _isdigit:
  3155                           
  3156                           ;incstack = 0
  3157                           ; Regs used in _isdigit: [wreg+status,2+status,0]
  3158                           ;isdigit@c stored from wreg
  3159  143C  00F4               	movwf	isdigit@c
  3160  143D                     l2179:
  3161  143D  01F3               	clrf	_isdigit$1008
  3162  143E                     l2181:
  3163  143E  303A               	movlw	58
  3164  143F  0274               	subwf	isdigit@c,w
  3165  1440  1803               	skipnc
  3166  1441  2C43               	goto	u2371
  3167  1442  2C44               	goto	u2370
  3168  1443                     u2371:
  3169  1443  2C4C               	goto	l2187
  3170  1444                     u2370:
  3171  1444                     l2183:
  3172  1444  3030               	movlw	48
  3173  1445  0274               	subwf	isdigit@c,w
  3174  1446  1C03               	skipc
  3175  1447  2C49               	goto	u2381
  3176  1448  2C4A               	goto	u2380
  3177  1449                     u2381:
  3178  1449  2C4C               	goto	l2187
  3179  144A                     u2380:
  3180  144A                     l2185:
  3181  144A  01F3               	clrf	_isdigit$1008
  3182  144B  0AF3               	incf	_isdigit$1008,f
  3183  144C                     l2187:
  3184  144C  0C73               	rrf	_isdigit$1008,w
  3185  144D                     l776:
  3186  144D  0008               	return
  3187  144E                     __end_of_isdigit:
  3188                           
  3189                           	psect	text13
  3190  002F                     __ptext13:	
  3191 ;; *************** function _convert *****************
  3192 ;; Defined at:
  3193 ;;		line 66 in file "ADC.c"
  3194 ;; Parameters:    Size  Location     Type
  3195 ;;  data            1    wreg     PTR unsigned char 
  3196 ;;		 -> contador_string(10), 
  3197 ;;  a               4   61[BANK0 ] float 
  3198 ;;  place           2   65[BANK0 ] int 
  3199 ;; Auto vars:     Size  Location     Type
  3200 ;;  data            1    4[BANK1 ] PTR unsigned char 
  3201 ;;		 -> contador_string(10), 
  3202 ;;  x               4    5[BANK1 ] float 
  3203 ;;  mu              2   13[BANK1 ] int 
  3204 ;;  digits          2   11[BANK1 ] int 
  3205 ;;  i               2    9[BANK1 ] int 
  3206 ;;  j               2    2[BANK1 ] int 
  3207 ;;  temp            2    0[BANK1 ] int 
  3208 ;; Return value:  Size  Location     Type
  3209 ;;                  1    wreg      void 
  3210 ;; Registers used:
  3211 ;;		wreg, fsr0l, fsr0h, status,2, status,0, btemp+1, pclath, cstack
  3212 ;; Tracked objects:
  3213 ;;		On entry : 0/0
  3214 ;;		On exit  : 0/0
  3215 ;;		Unchanged: 0/0
  3216 ;; Data sizes:     COMMON   BANK0   BANK1   BANK3   BANK2
  3217 ;;      Params:         0       6       0       0       0
  3218 ;;      Locals:         0       0      15       0       0
  3219 ;;      Temps:          0       2       0       0       0
  3220 ;;      Totals:         0       8      15       0       0
  3221 ;;Total ram usage:       23 bytes
  3222 ;; Hardware stack levels used:    1
  3223 ;; Hardware stack levels required when called:    3
  3224 ;; This function calls:
  3225 ;;		___awdiv
  3226 ;;		___fldiv
  3227 ;;		___flge
  3228 ;;		___flmul
  3229 ;;		___flsub
  3230 ;;		___fltol
  3231 ;;		___wmul
  3232 ;;		___xxtofl
  3233 ;; This function is called by:
  3234 ;;		_main
  3235 ;; This function uses a non-reentrant model
  3236 ;;
  3237                           
  3238                           
  3239                           ;psect for function _convert
  3240  002F                     _convert:
  3241                           
  3242                           ;incstack = 0
  3243                           ; Regs used in _convert: [wreg-fsr0h+status,2+status,0+btemp+1+pclath+cstack]
  3244                           ;convert@data stored from wreg
  3245  002F  1683               	bsf	3,5	;RP0=1, select bank1
  3246  0030  1303               	bcf	3,6	;RP1=0, select bank1
  3247  0031  00A4               	movwf	convert@data^(0+128)
  3248  0032                     l4045:
  3249                           
  3250                           ;ADC.c: 66: void convert(char *data,float a, int place);ADC.c: 67: {;ADC.c: 68:      int
      +                           temp=a;
  3251  0032  1283               	bcf	3,5	;RP0=0, select bank0
  3252  0033  1303               	bcf	3,6	;RP1=0, select bank0
  3253  0034  0860               	movf	convert@a+3,w
  3254  0035  00F6               	movwf	___fltol@f1+3
  3255  0036  085F               	movf	convert@a+2,w
  3256  0037  00F5               	movwf	___fltol@f1+2
  3257  0038  085E               	movf	convert@a+1,w
  3258  0039  00F4               	movwf	___fltol@f1+1
  3259  003A  085D               	movf	convert@a,w
  3260  003B  00F3               	movwf	___fltol@f1
  3261  003C  120A  118A  2784  120A  118A  	fcall	___fltol
  3262  0041  0874               	movf	?___fltol+1,w
  3263  0042  1683               	bsf	3,5	;RP0=1, select bank1
  3264  0043  1303               	bcf	3,6	;RP1=0, select bank1
  3265  0044  00A1               	movwf	(convert@temp+1)^(0+128)
  3266  0045  0873               	movf	?___fltol,w
  3267  0046  00A0               	movwf	convert@temp^(0+128)
  3268  0047                     l4047:
  3269  0047                     l4049:
  3270                           
  3271                           ;ADC.c: 70:      int digits=0;
  3272  0047  01AB               	clrf	convert@digits^(0+128)
  3273  0048  01AC               	clrf	(convert@digits+1)^(0+128)
  3274  0049                     l4051:
  3275                           
  3276                           ;ADC.c: 71:      int i=0,mu=1;
  3277  0049  01A9               	clrf	convert@i^(0+128)
  3278  004A  01AA               	clrf	(convert@i+1)^(0+128)
  3279  004B                     l4053:
  3280  004B  3001               	movlw	1
  3281  004C  00AD               	movwf	convert@mu^(0+128)
  3282  004D  3000               	movlw	0
  3283  004E  00AE               	movwf	(convert@mu^(0+128)+1)
  3284  004F                     l4055:
  3285  004F                     l4057:
  3286                           
  3287                           ;ADC.c: 73:      if(a<0)
  3288  004F  1283               	bcf	3,5	;RP0=0, select bank0
  3289  0050  1303               	bcf	3,6	;RP1=0, select bank0
  3290  0051  0860               	movf	convert@a+3,w
  3291  0052  00A3               	movwf	___flge@ff1+3
  3292  0053  085F               	movf	convert@a+2,w
  3293  0054  00A2               	movwf	___flge@ff1+2
  3294  0055  085E               	movf	convert@a+1,w
  3295  0056  00A1               	movwf	___flge@ff1+1
  3296  0057  085D               	movf	convert@a,w
  3297  0058  00A0               	movwf	___flge@ff1
  3298  0059  3000               	movlw	0
  3299  005A  00A7               	movwf	___flge@ff2+3
  3300  005B  3000               	movlw	0
  3301  005C  00A6               	movwf	___flge@ff2+2
  3302  005D  3000               	movlw	0
  3303  005E  00A5               	movwf	___flge@ff2+1
  3304  005F  3000               	movlw	0
  3305  0060  00A4               	movwf	___flge@ff2
  3306  0061  160A  118A  275C  120A  118A  	fcall	___flge
  3307  0066  1803               	btfsc	3,0
  3308  0067  2869               	goto	u6191
  3309  0068  286A               	goto	u6190
  3310  0069                     u6191:
  3311  0069  28B8               	goto	l4069
  3312  006A                     u6190:
  3313  006A                     l4059:
  3314                           
  3315                           ;ADC.c: 74:      {;ADC.c: 75:             a=a*-1;
  3316  006A  30BF               	movlw	191
  3317  006B  1283               	bcf	3,5	;RP0=0, select bank0
  3318  006C  1303               	bcf	3,6	;RP1=0, select bank0
  3319  006D  00C6               	movwf	___flmul@b+3
  3320  006E  3080               	movlw	128
  3321  006F  00C5               	movwf	___flmul@b+2
  3322  0070  3000               	movlw	0
  3323  0071  00C4               	movwf	___flmul@b+1
  3324  0072  3000               	movlw	0
  3325  0073  00C3               	movwf	___flmul@b
  3326  0074  0860               	movf	convert@a+3,w
  3327  0075  00CA               	movwf	___flmul@a+3
  3328  0076  085F               	movf	convert@a+2,w
  3329  0077  00C9               	movwf	___flmul@a+2
  3330  0078  085E               	movf	convert@a+1,w
  3331  0079  00C8               	movwf	___flmul@a+1
  3332  007A  085D               	movf	convert@a,w
  3333  007B  00C7               	movwf	___flmul@a
  3334  007C  120A  118A  2423  120A  118A  	fcall	___flmul
  3335  0081  1283               	bcf	3,5	;RP0=0, select bank0
  3336  0082  1303               	bcf	3,6	;RP1=0, select bank0
  3337  0083  0846               	movf	?___flmul+3,w
  3338  0084  00E0               	movwf	convert@a+3
  3339  0085  0845               	movf	?___flmul+2,w
  3340  0086  00DF               	movwf	convert@a+2
  3341  0087  0844               	movf	?___flmul+1,w
  3342  0088  00DE               	movwf	convert@a+1
  3343  0089  0843               	movf	?___flmul,w
  3344  008A  00DD               	movwf	convert@a
  3345  008B                     l4061:
  3346                           
  3347                           ;ADC.c: 76:             data[i]='-';
  3348  008B  302D               	movlw	45
  3349  008C  00E3               	movwf	??_convert
  3350  008D  1683               	bsf	3,5	;RP0=1, select bank1
  3351  008E  1303               	bcf	3,6	;RP1=0, select bank1
  3352  008F  0824               	movf	convert@data^(0+128),w
  3353  0090  0084               	movwf	4
  3354  0091  1283               	bcf	3,5	;RP0=0, select bank0
  3355  0092  1303               	bcf	3,6	;RP1=0, select bank0
  3356  0093  0863               	movf	??_convert,w
  3357  0094  1383               	bcf	3,7	;select IRP bank0
  3358  0095  0080               	movwf	0
  3359  0096                     l4063:
  3360                           
  3361                           ;ADC.c: 77:             i++;
  3362  0096  3001               	movlw	1
  3363  0097  1683               	bsf	3,5	;RP0=1, select bank1
  3364  0098  1303               	bcf	3,6	;RP1=0, select bank1
  3365  0099  07A9               	addwf	convert@i^(0+128),f
  3366  009A  1803               	skipnc
  3367  009B  0AAA               	incf	(convert@i+1)^(0+128),f
  3368  009C  3000               	movlw	0
  3369  009D  07AA               	addwf	(convert@i+1)^(0+128),f
  3370  009E  28B8               	goto	l4069
  3371  009F                     l4065:
  3372                           
  3373                           ;ADC.c: 81:      {;ADC.c: 82:          temp=temp/10;
  3374  009F  300A               	movlw	10
  3375  00A0  00F3               	movwf	___awdiv@divisor
  3376  00A1  3000               	movlw	0
  3377  00A2  00F4               	movwf	___awdiv@divisor+1
  3378  00A3  0821               	movf	(convert@temp+1)^(0+128),w
  3379  00A4  00F6               	movwf	___awdiv@dividend+1
  3380  00A5  0820               	movf	convert@temp^(0+128),w
  3381  00A6  00F5               	movwf	___awdiv@dividend
  3382  00A7  160A  118A  2601  120A  118A  	fcall	___awdiv
  3383  00AC  0874               	movf	?___awdiv+1,w
  3384  00AD  1683               	bsf	3,5	;RP0=1, select bank1
  3385  00AE  1303               	bcf	3,6	;RP1=0, select bank1
  3386  00AF  00A1               	movwf	(convert@temp+1)^(0+128)
  3387  00B0  0873               	movf	?___awdiv,w
  3388  00B1  00A0               	movwf	convert@temp^(0+128)
  3389  00B2                     l4067:
  3390                           
  3391                           ;ADC.c: 83:          digits++;
  3392  00B2  3001               	movlw	1
  3393  00B3  07AB               	addwf	convert@digits^(0+128),f
  3394  00B4  1803               	skipnc
  3395  00B5  0AAC               	incf	(convert@digits+1)^(0+128),f
  3396  00B6  3000               	movlw	0
  3397  00B7  07AC               	addwf	(convert@digits+1)^(0+128),f
  3398  00B8                     l4069:
  3399                           
  3400                           ;ADC.c: 80:      while(temp!=0)
  3401  00B8  1683               	bsf	3,5	;RP0=1, select bank1
  3402  00B9  1303               	bcf	3,6	;RP1=0, select bank1
  3403  00BA  0820               	movf	convert@temp^(0+128),w
  3404  00BB  0421               	iorwf	(convert@temp+1)^(0+128),w
  3405  00BC  1D03               	btfss	3,2
  3406  00BD  28BF               	goto	u6201
  3407  00BE  28C0               	goto	u6200
  3408  00BF                     u6201:
  3409  00BF  289F               	goto	l4065
  3410  00C0                     u6200:
  3411  00C0  29DC               	goto	l4093
  3412  00C1                     l4071:
  3413                           
  3414                           ;ADC.c: 86:      {;ADC.c: 87:          if(digits==1)mu=1;
  3415  00C1  032B               	decf	convert@digits^(0+128),w
  3416  00C2  042C               	iorwf	(convert@digits+1)^(0+128),w
  3417  00C3  1D03               	btfss	3,2
  3418  00C4  28C6               	goto	u6211
  3419  00C5  28C7               	goto	u6210
  3420  00C6                     u6211:
  3421  00C6  28CC               	goto	l4075
  3422  00C7                     u6210:
  3423  00C7                     l4073:
  3424  00C7  3001               	movlw	1
  3425  00C8  00AD               	movwf	convert@mu^(0+128)
  3426  00C9  3000               	movlw	0
  3427  00CA  00AE               	movwf	(convert@mu^(0+128)+1)
  3428  00CB  290E               	goto	l4083
  3429  00CC                     l4075:
  3430  00CC  3002               	movlw	2
  3431  00CD  00A2               	movwf	convert@j^(0+128)
  3432  00CE  3000               	movlw	0
  3433  00CF  00A3               	movwf	(convert@j^(0+128)+1)
  3434  00D0  28F8               	goto	l4081
  3435  00D1                     l4077:
  3436  00D1  1683               	bsf	3,5	;RP0=1, select bank1
  3437  00D2  1303               	bcf	3,6	;RP1=0, select bank1
  3438  00D3  082E               	movf	(convert@mu+1)^(0+128),w
  3439  00D4  1283               	bcf	3,5	;RP0=0, select bank0
  3440  00D5  1303               	bcf	3,6	;RP1=0, select bank0
  3441  00D6  00A8               	movwf	___wmul@multiplier+1
  3442  00D7  1683               	bsf	3,5	;RP0=1, select bank1
  3443  00D8  1303               	bcf	3,6	;RP1=0, select bank1
  3444  00D9  082D               	movf	convert@mu^(0+128),w
  3445  00DA  1283               	bcf	3,5	;RP0=0, select bank0
  3446  00DB  1303               	bcf	3,6	;RP1=0, select bank0
  3447  00DC  00A7               	movwf	___wmul@multiplier
  3448  00DD  300A               	movlw	10
  3449  00DE  00A9               	movwf	___wmul@multiplicand
  3450  00DF  3000               	movlw	0
  3451  00E0  00AA               	movwf	___wmul@multiplicand+1
  3452  00E1  160A  118A  24AF  120A  118A  	fcall	___wmul
  3453  00E6  1283               	bcf	3,5	;RP0=0, select bank0
  3454  00E7  1303               	bcf	3,6	;RP1=0, select bank0
  3455  00E8  0828               	movf	?___wmul+1,w
  3456  00E9  1683               	bsf	3,5	;RP0=1, select bank1
  3457  00EA  1303               	bcf	3,6	;RP1=0, select bank1
  3458  00EB  00AE               	movwf	(convert@mu+1)^(0+128)
  3459  00EC  1283               	bcf	3,5	;RP0=0, select bank0
  3460  00ED  1303               	bcf	3,6	;RP1=0, select bank0
  3461  00EE  0827               	movf	?___wmul,w
  3462  00EF  1683               	bsf	3,5	;RP0=1, select bank1
  3463  00F0  1303               	bcf	3,6	;RP1=0, select bank1
  3464  00F1  00AD               	movwf	convert@mu^(0+128)
  3465  00F2                     l4079:
  3466  00F2  3001               	movlw	1
  3467  00F3  07A2               	addwf	convert@j^(0+128),f
  3468  00F4  1803               	skipnc
  3469  00F5  0AA3               	incf	(convert@j+1)^(0+128),f
  3470  00F6  3000               	movlw	0
  3471  00F7  07A3               	addwf	(convert@j+1)^(0+128),f
  3472  00F8                     l4081:
  3473  00F8  082C               	movf	(convert@digits+1)^(0+128),w
  3474  00F9  3A80               	xorlw	128
  3475  00FA  1283               	bcf	3,5	;RP0=0, select bank0
  3476  00FB  1303               	bcf	3,6	;RP1=0, select bank0
  3477  00FC  00E3               	movwf	??_convert
  3478  00FD  1683               	bsf	3,5	;RP0=1, select bank1
  3479  00FE  1303               	bcf	3,6	;RP1=0, select bank1
  3480  00FF  0823               	movf	(convert@j+1)^(0+128),w
  3481  0100  3A80               	xorlw	128
  3482  0101  1283               	bcf	3,5	;RP0=0, select bank0
  3483  0102  1303               	bcf	3,6	;RP1=0, select bank0
  3484  0103  0263               	subwf	??_convert,w
  3485  0104  1D03               	skipz
  3486  0105  290A               	goto	u6225
  3487  0106  1683               	bsf	3,5	;RP0=1, select bank1
  3488  0107  1303               	bcf	3,6	;RP1=0, select bank1
  3489  0108  0822               	movf	convert@j^(0+128),w
  3490  0109  022B               	subwf	convert@digits^(0+128),w
  3491  010A                     u6225:
  3492  010A  1803               	skipnc
  3493  010B  290D               	goto	u6221
  3494  010C  290E               	goto	u6220
  3495  010D                     u6221:
  3496  010D  28D1               	goto	l4077
  3497  010E                     u6220:
  3498  010E                     l4083:
  3499                           
  3500                           ;ADC.c: 90:          x=a/mu;
  3501  010E  1683               	bsf	3,5	;RP0=1, select bank1
  3502  010F  1303               	bcf	3,6	;RP1=0, select bank1
  3503  0110  082D               	movf	convert@mu^(0+128),w
  3504  0111  1283               	bcf	3,5	;RP0=0, select bank0
  3505  0112  1303               	bcf	3,6	;RP1=0, select bank0
  3506  0113  00AD               	movwf	___xxtofl@val
  3507  0114  1683               	bsf	3,5	;RP0=1, select bank1
  3508  0115  1303               	bcf	3,6	;RP1=0, select bank1
  3509  0116  082E               	movf	(convert@mu+1)^(0+128),w
  3510  0117  1283               	bcf	3,5	;RP0=0, select bank0
  3511  0118  1303               	bcf	3,6	;RP1=0, select bank0
  3512  0119  00AE               	movwf	___xxtofl@val+1
  3513  011A  3000               	movlw	0
  3514  011B  1BAE               	btfsc	___xxtofl@val+1,7
  3515  011C  30FF               	movlw	255
  3516  011D  00AF               	movwf	___xxtofl@val+2
  3517  011E  00B0               	movwf	___xxtofl@val+3
  3518  011F  3001               	movlw	1
  3519  0120  120A  158A  2044  120A  118A  	fcall	___xxtofl
  3520  0125  1283               	bcf	3,5	;RP0=0, select bank0
  3521  0126  1303               	bcf	3,6	;RP1=0, select bank0
  3522  0127  0830               	movf	?___xxtofl+3,w
  3523  0128  00BE               	movwf	___fldiv@a+3
  3524  0129  082F               	movf	?___xxtofl+2,w
  3525  012A  00BD               	movwf	___fldiv@a+2
  3526  012B  082E               	movf	?___xxtofl+1,w
  3527  012C  00BC               	movwf	___fldiv@a+1
  3528  012D  082D               	movf	?___xxtofl,w
  3529  012E  00BB               	movwf	___fldiv@a
  3530  012F  0860               	movf	convert@a+3,w
  3531  0130  00C2               	movwf	___fldiv@b+3
  3532  0131  085F               	movf	convert@a+2,w
  3533  0132  00C1               	movwf	___fldiv@b+2
  3534  0133  085E               	movf	convert@a+1,w
  3535  0134  00C0               	movwf	___fldiv@b+1
  3536  0135  085D               	movf	convert@a,w
  3537  0136  00BF               	movwf	___fldiv@b
  3538  0137  120A  158A  2393  120A  118A  	fcall	___fldiv
  3539  013C  1283               	bcf	3,5	;RP0=0, select bank0
  3540  013D  1303               	bcf	3,6	;RP1=0, select bank0
  3541  013E  083E               	movf	?___fldiv+3,w
  3542  013F  1683               	bsf	3,5	;RP0=1, select bank1
  3543  0140  1303               	bcf	3,6	;RP1=0, select bank1
  3544  0141  00A8               	movwf	(convert@x+3)^(0+128)
  3545  0142  1283               	bcf	3,5	;RP0=0, select bank0
  3546  0143  1303               	bcf	3,6	;RP1=0, select bank0
  3547  0144  083D               	movf	?___fldiv+2,w
  3548  0145  1683               	bsf	3,5	;RP0=1, select bank1
  3549  0146  1303               	bcf	3,6	;RP1=0, select bank1
  3550  0147  00A7               	movwf	(convert@x+2)^(0+128)
  3551  0148  1283               	bcf	3,5	;RP0=0, select bank0
  3552  0149  1303               	bcf	3,6	;RP1=0, select bank0
  3553  014A  083C               	movf	?___fldiv+1,w
  3554  014B  1683               	bsf	3,5	;RP0=1, select bank1
  3555  014C  1303               	bcf	3,6	;RP1=0, select bank1
  3556  014D  00A6               	movwf	(convert@x+1)^(0+128)
  3557  014E  1283               	bcf	3,5	;RP0=0, select bank0
  3558  014F  1303               	bcf	3,6	;RP1=0, select bank0
  3559  0150  083B               	movf	?___fldiv,w
  3560  0151  1683               	bsf	3,5	;RP0=1, select bank1
  3561  0152  1303               	bcf	3,6	;RP1=0, select bank1
  3562  0153  00A5               	movwf	convert@x^(0+128)
  3563                           
  3564                           ;ADC.c: 91:          a=a-((int)x*mu);
  3565  0154  082E               	movf	(convert@mu+1)^(0+128),w
  3566  0155  1283               	bcf	3,5	;RP0=0, select bank0
  3567  0156  1303               	bcf	3,6	;RP1=0, select bank0
  3568  0157  00AA               	movwf	___wmul@multiplicand+1
  3569  0158  1683               	bsf	3,5	;RP0=1, select bank1
  3570  0159  1303               	bcf	3,6	;RP1=0, select bank1
  3571  015A  082D               	movf	convert@mu^(0+128),w
  3572  015B  1283               	bcf	3,5	;RP0=0, select bank0
  3573  015C  1303               	bcf	3,6	;RP1=0, select bank0
  3574  015D  00A9               	movwf	___wmul@multiplicand
  3575  015E  1683               	bsf	3,5	;RP0=1, select bank1
  3576  015F  1303               	bcf	3,6	;RP1=0, select bank1
  3577  0160  0828               	movf	(convert@x+3)^(0+128),w
  3578  0161  00F6               	movwf	___fltol@f1+3
  3579  0162  0827               	movf	(convert@x+2)^(0+128),w
  3580  0163  00F5               	movwf	___fltol@f1+2
  3581  0164  0826               	movf	(convert@x+1)^(0+128),w
  3582  0165  00F4               	movwf	___fltol@f1+1
  3583  0166  0825               	movf	convert@x^(0+128),w
  3584  0167  00F3               	movwf	___fltol@f1
  3585  0168  120A  118A  2784  120A  118A  	fcall	___fltol
  3586  016D  0874               	movf	?___fltol+1,w
  3587  016E  1283               	bcf	3,5	;RP0=0, select bank0
  3588  016F  1303               	bcf	3,6	;RP1=0, select bank0
  3589  0170  00A8               	movwf	___wmul@multiplier+1
  3590  0171  0873               	movf	?___fltol,w
  3591  0172  00A7               	movwf	___wmul@multiplier
  3592  0173  160A  118A  24AF  120A  118A  	fcall	___wmul
  3593  0178  1283               	bcf	3,5	;RP0=0, select bank0
  3594  0179  1303               	bcf	3,6	;RP1=0, select bank0
  3595  017A  0827               	movf	?___wmul,w
  3596  017B  00AD               	movwf	___xxtofl@val
  3597  017C  0828               	movf	?___wmul+1,w
  3598  017D  00AE               	movwf	___xxtofl@val+1
  3599  017E  3000               	movlw	0
  3600  017F  1BAE               	btfsc	___xxtofl@val+1,7
  3601  0180  30FF               	movlw	255
  3602  0181  00AF               	movwf	___xxtofl@val+2
  3603  0182  00B0               	movwf	___xxtofl@val+3
  3604  0183  3001               	movlw	1
  3605  0184  120A  158A  2044  120A  118A  	fcall	___xxtofl
  3606  0189  1283               	bcf	3,5	;RP0=0, select bank0
  3607  018A  1303               	bcf	3,6	;RP1=0, select bank0
  3608  018B  0830               	movf	?___xxtofl+3,w
  3609  018C  00BE               	movwf	___flsub@a+3
  3610  018D  082F               	movf	?___xxtofl+2,w
  3611  018E  00BD               	movwf	___flsub@a+2
  3612  018F  082E               	movf	?___xxtofl+1,w
  3613  0190  00BC               	movwf	___flsub@a+1
  3614  0191  082D               	movf	?___xxtofl,w
  3615  0192  00BB               	movwf	___flsub@a
  3616  0193  0860               	movf	convert@a+3,w
  3617  0194  00C2               	movwf	___flsub@b+3
  3618  0195  085F               	movf	convert@a+2,w
  3619  0196  00C1               	movwf	___flsub@b+2
  3620  0197  085E               	movf	convert@a+1,w
  3621  0198  00C0               	movwf	___flsub@b+1
  3622  0199  085D               	movf	convert@a,w
  3623  019A  00BF               	movwf	___flsub@b
  3624  019B  160A  118A  248B  120A  118A  	fcall	___flsub
  3625  01A0  1283               	bcf	3,5	;RP0=0, select bank0
  3626  01A1  1303               	bcf	3,6	;RP1=0, select bank0
  3627  01A2  083E               	movf	?___flsub+3,w
  3628  01A3  00E0               	movwf	convert@a+3
  3629  01A4  083D               	movf	?___flsub+2,w
  3630  01A5  00DF               	movwf	convert@a+2
  3631  01A6  083C               	movf	?___flsub+1,w
  3632  01A7  00DE               	movwf	convert@a+1
  3633  01A8  083B               	movf	?___flsub,w
  3634  01A9  00DD               	movwf	convert@a
  3635  01AA                     l4085:
  3636                           
  3637                           ;ADC.c: 92:          data[i]=0x30+((int)x);
  3638  01AA  1683               	bsf	3,5	;RP0=1, select bank1
  3639  01AB  1303               	bcf	3,6	;RP1=0, select bank1
  3640  01AC  0828               	movf	(convert@x+3)^(0+128),w
  3641  01AD  00F6               	movwf	___fltol@f1+3
  3642  01AE  0827               	movf	(convert@x+2)^(0+128),w
  3643  01AF  00F5               	movwf	___fltol@f1+2
  3644  01B0  0826               	movf	(convert@x+1)^(0+128),w
  3645  01B1  00F4               	movwf	___fltol@f1+1
  3646  01B2  0825               	movf	convert@x^(0+128),w
  3647  01B3  00F3               	movwf	___fltol@f1
  3648  01B4  120A  118A  2784  120A  118A  	fcall	___fltol
  3649  01B9  0873               	movf	?___fltol,w
  3650  01BA  3E30               	addlw	48
  3651  01BB  1283               	bcf	3,5	;RP0=0, select bank0
  3652  01BC  1303               	bcf	3,6	;RP1=0, select bank0
  3653  01BD  00E3               	movwf	??_convert
  3654  01BE  1683               	bsf	3,5	;RP0=1, select bank1
  3655  01BF  1303               	bcf	3,6	;RP1=0, select bank1
  3656  01C0  0829               	movf	convert@i^(0+128),w
  3657  01C1  0724               	addwf	convert@data^(0+128),w
  3658  01C2  1283               	bcf	3,5	;RP0=0, select bank0
  3659  01C3  1303               	bcf	3,6	;RP1=0, select bank0
  3660  01C4  00E4               	movwf	??_convert+1
  3661  01C5  0864               	movf	??_convert+1,w
  3662  01C6  0084               	movwf	4
  3663  01C7  0863               	movf	??_convert,w
  3664  01C8  1383               	bcf	3,7	;select IRP bank0
  3665  01C9  0080               	movwf	0
  3666  01CA                     l4087:
  3667                           
  3668                           ;ADC.c: 93:          i++;
  3669  01CA  3001               	movlw	1
  3670  01CB  1683               	bsf	3,5	;RP0=1, select bank1
  3671  01CC  1303               	bcf	3,6	;RP1=0, select bank1
  3672  01CD  07A9               	addwf	convert@i^(0+128),f
  3673  01CE  1803               	skipnc
  3674  01CF  0AAA               	incf	(convert@i+1)^(0+128),f
  3675  01D0  3000               	movlw	0
  3676  01D1  07AA               	addwf	(convert@i+1)^(0+128),f
  3677  01D2                     l4089:
  3678                           
  3679                           ;ADC.c: 94:          digits--;
  3680  01D2  30FF               	movlw	255
  3681  01D3  07AB               	addwf	convert@digits^(0+128),f
  3682  01D4  1803               	skipnc
  3683  01D5  0AAC               	incf	(convert@digits+1)^(0+128),f
  3684  01D6  30FF               	movlw	255
  3685  01D7  07AC               	addwf	(convert@digits+1)^(0+128),f
  3686  01D8                     l4091:
  3687                           
  3688                           ;ADC.c: 95:          mu=1;
  3689  01D8  3001               	movlw	1
  3690  01D9  00AD               	movwf	convert@mu^(0+128)
  3691  01DA  3000               	movlw	0
  3692  01DB  00AE               	movwf	(convert@mu^(0+128)+1)
  3693  01DC                     l4093:
  3694                           
  3695                           ;ADC.c: 85:      while(digits!=0)
  3696  01DC  082B               	movf	convert@digits^(0+128),w
  3697  01DD  042C               	iorwf	(convert@digits+1)^(0+128),w
  3698  01DE  1D03               	btfss	3,2
  3699  01DF  29E1               	goto	u6231
  3700  01E0  29E2               	goto	u6230
  3701  01E1                     u6231:
  3702  01E1  28C1               	goto	l4071
  3703  01E2                     u6230:
  3704  01E2                     l4095:
  3705                           
  3706                           ;ADC.c: 98:      data[i]='.';
  3707  01E2  302E               	movlw	46
  3708  01E3  1283               	bcf	3,5	;RP0=0, select bank0
  3709  01E4  1303               	bcf	3,6	;RP1=0, select bank0
  3710  01E5  00E3               	movwf	??_convert
  3711  01E6  1683               	bsf	3,5	;RP0=1, select bank1
  3712  01E7  1303               	bcf	3,6	;RP1=0, select bank1
  3713  01E8  0829               	movf	convert@i^(0+128),w
  3714  01E9  0724               	addwf	convert@data^(0+128),w
  3715  01EA  1283               	bcf	3,5	;RP0=0, select bank0
  3716  01EB  1303               	bcf	3,6	;RP1=0, select bank0
  3717  01EC  00E4               	movwf	??_convert+1
  3718  01ED  0864               	movf	??_convert+1,w
  3719  01EE  0084               	movwf	4
  3720  01EF  0863               	movf	??_convert,w
  3721  01F0  1383               	bcf	3,7	;select IRP bank0
  3722  01F1  0080               	movwf	0
  3723  01F2                     l4097:
  3724                           
  3725                           ;ADC.c: 99:      i++;
  3726  01F2  3001               	movlw	1
  3727  01F3  1683               	bsf	3,5	;RP0=1, select bank1
  3728  01F4  1303               	bcf	3,6	;RP1=0, select bank1
  3729  01F5  07A9               	addwf	convert@i^(0+128),f
  3730  01F6  1803               	skipnc
  3731  01F7  0AAA               	incf	(convert@i+1)^(0+128),f
  3732  01F8  3000               	movlw	0
  3733  01F9  07AA               	addwf	(convert@i+1)^(0+128),f
  3734  01FA                     l4099:
  3735  01FA                     l4101:
  3736                           
  3737                           ;ADC.c: 101:      for(j=1;j<=place;j++)mu=mu*10;
  3738  01FA  3001               	movlw	1
  3739  01FB  00A2               	movwf	convert@j^(0+128)
  3740  01FC  3000               	movlw	0
  3741  01FD  00A3               	movwf	(convert@j^(0+128)+1)
  3742  01FE  2A26               	goto	l4107
  3743  01FF                     l4103:
  3744  01FF  1683               	bsf	3,5	;RP0=1, select bank1
  3745  0200  1303               	bcf	3,6	;RP1=0, select bank1
  3746  0201  082E               	movf	(convert@mu+1)^(0+128),w
  3747  0202  1283               	bcf	3,5	;RP0=0, select bank0
  3748  0203  1303               	bcf	3,6	;RP1=0, select bank0
  3749  0204  00A8               	movwf	___wmul@multiplier+1
  3750  0205  1683               	bsf	3,5	;RP0=1, select bank1
  3751  0206  1303               	bcf	3,6	;RP1=0, select bank1
  3752  0207  082D               	movf	convert@mu^(0+128),w
  3753  0208  1283               	bcf	3,5	;RP0=0, select bank0
  3754  0209  1303               	bcf	3,6	;RP1=0, select bank0
  3755  020A  00A7               	movwf	___wmul@multiplier
  3756  020B  300A               	movlw	10
  3757  020C  00A9               	movwf	___wmul@multiplicand
  3758  020D  3000               	movlw	0
  3759  020E  00AA               	movwf	___wmul@multiplicand+1
  3760  020F  160A  118A  24AF  120A  118A  	fcall	___wmul
  3761  0214  1283               	bcf	3,5	;RP0=0, select bank0
  3762  0215  1303               	bcf	3,6	;RP1=0, select bank0
  3763  0216  0828               	movf	?___wmul+1,w
  3764  0217  1683               	bsf	3,5	;RP0=1, select bank1
  3765  0218  1303               	bcf	3,6	;RP1=0, select bank1
  3766  0219  00AE               	movwf	(convert@mu+1)^(0+128)
  3767  021A  1283               	bcf	3,5	;RP0=0, select bank0
  3768  021B  1303               	bcf	3,6	;RP1=0, select bank0
  3769  021C  0827               	movf	?___wmul,w
  3770  021D  1683               	bsf	3,5	;RP0=1, select bank1
  3771  021E  1303               	bcf	3,6	;RP1=0, select bank1
  3772  021F  00AD               	movwf	convert@mu^(0+128)
  3773  0220                     l4105:
  3774  0220  3001               	movlw	1
  3775  0221  07A2               	addwf	convert@j^(0+128),f
  3776  0222  1803               	skipnc
  3777  0223  0AA3               	incf	(convert@j+1)^(0+128),f
  3778  0224  3000               	movlw	0
  3779  0225  07A3               	addwf	(convert@j+1)^(0+128),f
  3780  0226                     l4107:
  3781  0226  1283               	bcf	3,5	;RP0=0, select bank0
  3782  0227  1303               	bcf	3,6	;RP1=0, select bank0
  3783  0228  0862               	movf	convert@place+1,w
  3784  0229  3A80               	xorlw	128
  3785  022A  00E3               	movwf	??_convert
  3786  022B  1683               	bsf	3,5	;RP0=1, select bank1
  3787  022C  1303               	bcf	3,6	;RP1=0, select bank1
  3788  022D  0823               	movf	(convert@j+1)^(0+128),w
  3789  022E  3A80               	xorlw	128
  3790  022F  1283               	bcf	3,5	;RP0=0, select bank0
  3791  0230  1303               	bcf	3,6	;RP1=0, select bank0
  3792  0231  0263               	subwf	??_convert,w
  3793  0232  1D03               	skipz
  3794  0233  2A3A               	goto	u6245
  3795  0234  1683               	bsf	3,5	;RP0=1, select bank1
  3796  0235  1303               	bcf	3,6	;RP1=0, select bank1
  3797  0236  0822               	movf	convert@j^(0+128),w
  3798  0237  1283               	bcf	3,5	;RP0=0, select bank0
  3799  0238  1303               	bcf	3,6	;RP1=0, select bank0
  3800  0239  0261               	subwf	convert@place,w
  3801  023A                     u6245:
  3802  023A  1803               	skipnc
  3803  023B  2A3D               	goto	u6241
  3804  023C  2A3E               	goto	u6240
  3805  023D                     u6241:
  3806  023D  29FF               	goto	l4103
  3807  023E                     u6240:
  3808  023E                     l4109:
  3809                           
  3810                           ;ADC.c: 102:      x=(a-(int)a)*mu;
  3811  023E  1683               	bsf	3,5	;RP0=1, select bank1
  3812  023F  1303               	bcf	3,6	;RP1=0, select bank1
  3813  0240  082D               	movf	convert@mu^(0+128),w
  3814  0241  1283               	bcf	3,5	;RP0=0, select bank0
  3815  0242  1303               	bcf	3,6	;RP1=0, select bank0
  3816  0243  00AD               	movwf	___xxtofl@val
  3817  0244  1683               	bsf	3,5	;RP0=1, select bank1
  3818  0245  1303               	bcf	3,6	;RP1=0, select bank1
  3819  0246  082E               	movf	(convert@mu+1)^(0+128),w
  3820  0247  1283               	bcf	3,5	;RP0=0, select bank0
  3821  0248  1303               	bcf	3,6	;RP1=0, select bank0
  3822  0249  00AE               	movwf	___xxtofl@val+1
  3823  024A  3000               	movlw	0
  3824  024B  1BAE               	btfsc	___xxtofl@val+1,7
  3825  024C  30FF               	movlw	255
  3826  024D  00AF               	movwf	___xxtofl@val+2
  3827  024E  00B0               	movwf	___xxtofl@val+3
  3828  024F  3001               	movlw	1
  3829  0250  120A  158A  2044  120A  118A  	fcall	___xxtofl
  3830  0255  1283               	bcf	3,5	;RP0=0, select bank0
  3831  0256  1303               	bcf	3,6	;RP1=0, select bank0
  3832  0257  0830               	movf	?___xxtofl+3,w
  3833  0258  00C6               	movwf	___flmul@b+3
  3834  0259  082F               	movf	?___xxtofl+2,w
  3835  025A  00C5               	movwf	___flmul@b+2
  3836  025B  082E               	movf	?___xxtofl+1,w
  3837  025C  00C4               	movwf	___flmul@b+1
  3838  025D  082D               	movf	?___xxtofl,w
  3839  025E  00C3               	movwf	___flmul@b
  3840  025F  0860               	movf	convert@a+3,w
  3841  0260  00F6               	movwf	___fltol@f1+3
  3842  0261  085F               	movf	convert@a+2,w
  3843  0262  00F5               	movwf	___fltol@f1+2
  3844  0263  085E               	movf	convert@a+1,w
  3845  0264  00F4               	movwf	___fltol@f1+1
  3846  0265  085D               	movf	convert@a,w
  3847  0266  00F3               	movwf	___fltol@f1
  3848  0267  120A  118A  2784  120A  118A  	fcall	___fltol
  3849  026C  0873               	movf	?___fltol,w
  3850  026D  1283               	bcf	3,5	;RP0=0, select bank0
  3851  026E  1303               	bcf	3,6	;RP1=0, select bank0
  3852  026F  00AD               	movwf	___xxtofl@val
  3853  0270  0874               	movf	?___fltol+1,w
  3854  0271  00AE               	movwf	___xxtofl@val+1
  3855  0272  3000               	movlw	0
  3856  0273  1BAE               	btfsc	___xxtofl@val+1,7
  3857  0274  30FF               	movlw	255
  3858  0275  00AF               	movwf	___xxtofl@val+2
  3859  0276  00B0               	movwf	___xxtofl@val+3
  3860  0277  3001               	movlw	1
  3861  0278  120A  158A  2044  120A  118A  	fcall	___xxtofl
  3862  027D  1283               	bcf	3,5	;RP0=0, select bank0
  3863  027E  1303               	bcf	3,6	;RP1=0, select bank0
  3864  027F  0830               	movf	?___xxtofl+3,w
  3865  0280  00BE               	movwf	___flsub@a+3
  3866  0281  082F               	movf	?___xxtofl+2,w
  3867  0282  00BD               	movwf	___flsub@a+2
  3868  0283  082E               	movf	?___xxtofl+1,w
  3869  0284  00BC               	movwf	___flsub@a+1
  3870  0285  082D               	movf	?___xxtofl,w
  3871  0286  00BB               	movwf	___flsub@a
  3872  0287  0860               	movf	convert@a+3,w
  3873  0288  00C2               	movwf	___flsub@b+3
  3874  0289  085F               	movf	convert@a+2,w
  3875  028A  00C1               	movwf	___flsub@b+2
  3876  028B  085E               	movf	convert@a+1,w
  3877  028C  00C0               	movwf	___flsub@b+1
  3878  028D  085D               	movf	convert@a,w
  3879  028E  00BF               	movwf	___flsub@b
  3880  028F  160A  118A  248B  120A  118A  	fcall	___flsub
  3881  0294  1283               	bcf	3,5	;RP0=0, select bank0
  3882  0295  1303               	bcf	3,6	;RP1=0, select bank0
  3883  0296  083E               	movf	?___flsub+3,w
  3884  0297  00CA               	movwf	___flmul@a+3
  3885  0298  083D               	movf	?___flsub+2,w
  3886  0299  00C9               	movwf	___flmul@a+2
  3887  029A  083C               	movf	?___flsub+1,w
  3888  029B  00C8               	movwf	___flmul@a+1
  3889  029C  083B               	movf	?___flsub,w
  3890  029D  00C7               	movwf	___flmul@a
  3891  029E  120A  118A  2423  120A  118A  	fcall	___flmul
  3892  02A3  1283               	bcf	3,5	;RP0=0, select bank0
  3893  02A4  1303               	bcf	3,6	;RP1=0, select bank0
  3894  02A5  0846               	movf	?___flmul+3,w
  3895  02A6  1683               	bsf	3,5	;RP0=1, select bank1
  3896  02A7  1303               	bcf	3,6	;RP1=0, select bank1
  3897  02A8  00A8               	movwf	(convert@x+3)^(0+128)
  3898  02A9  1283               	bcf	3,5	;RP0=0, select bank0
  3899  02AA  1303               	bcf	3,6	;RP1=0, select bank0
  3900  02AB  0845               	movf	?___flmul+2,w
  3901  02AC  1683               	bsf	3,5	;RP0=1, select bank1
  3902  02AD  1303               	bcf	3,6	;RP1=0, select bank1
  3903  02AE  00A7               	movwf	(convert@x+2)^(0+128)
  3904  02AF  1283               	bcf	3,5	;RP0=0, select bank0
  3905  02B0  1303               	bcf	3,6	;RP1=0, select bank0
  3906  02B1  0844               	movf	?___flmul+1,w
  3907  02B2  1683               	bsf	3,5	;RP0=1, select bank1
  3908  02B3  1303               	bcf	3,6	;RP1=0, select bank1
  3909  02B4  00A6               	movwf	(convert@x+1)^(0+128)
  3910  02B5  1283               	bcf	3,5	;RP0=0, select bank0
  3911  02B6  1303               	bcf	3,6	;RP1=0, select bank0
  3912  02B7  0843               	movf	?___flmul,w
  3913  02B8  1683               	bsf	3,5	;RP0=1, select bank1
  3914  02B9  1303               	bcf	3,6	;RP1=0, select bank1
  3915  02BA  00A5               	movwf	convert@x^(0+128)
  3916  02BB                     l4111:
  3917                           
  3918                           ;ADC.c: 103:      a=x;
  3919  02BB  0828               	movf	(convert@x+3)^(0+128),w
  3920  02BC  1283               	bcf	3,5	;RP0=0, select bank0
  3921  02BD  1303               	bcf	3,6	;RP1=0, select bank0
  3922  02BE  00E0               	movwf	convert@a+3
  3923  02BF  1683               	bsf	3,5	;RP0=1, select bank1
  3924  02C0  1303               	bcf	3,6	;RP1=0, select bank1
  3925  02C1  0827               	movf	(convert@x+2)^(0+128),w
  3926  02C2  1283               	bcf	3,5	;RP0=0, select bank0
  3927  02C3  1303               	bcf	3,6	;RP1=0, select bank0
  3928  02C4  00DF               	movwf	convert@a+2
  3929  02C5  1683               	bsf	3,5	;RP0=1, select bank1
  3930  02C6  1303               	bcf	3,6	;RP1=0, select bank1
  3931  02C7  0826               	movf	(convert@x+1)^(0+128),w
  3932  02C8  1283               	bcf	3,5	;RP0=0, select bank0
  3933  02C9  1303               	bcf	3,6	;RP1=0, select bank0
  3934  02CA  00DE               	movwf	convert@a+1
  3935  02CB  1683               	bsf	3,5	;RP0=1, select bank1
  3936  02CC  1303               	bcf	3,6	;RP1=0, select bank1
  3937  02CD  0825               	movf	convert@x^(0+128),w
  3938  02CE  1283               	bcf	3,5	;RP0=0, select bank0
  3939  02CF  1303               	bcf	3,6	;RP1=0, select bank0
  3940  02D0  00DD               	movwf	convert@a
  3941  02D1                     l4113:
  3942  02D1  0860               	movf	convert@a+3,w
  3943  02D2  00F6               	movwf	___fltol@f1+3
  3944  02D3  085F               	movf	convert@a+2,w
  3945  02D4  00F5               	movwf	___fltol@f1+2
  3946  02D5  085E               	movf	convert@a+1,w
  3947  02D6  00F4               	movwf	___fltol@f1+1
  3948  02D7  085D               	movf	convert@a,w
  3949  02D8  00F3               	movwf	___fltol@f1
  3950  02D9  120A  118A  2784  120A  118A  	fcall	___fltol
  3951  02DE                     l4115:
  3952  02DE                     l4117:
  3953                           
  3954                           ;ADC.c: 106:      mu=1;
  3955  02DE  3001               	movlw	1
  3956  02DF  1683               	bsf	3,5	;RP0=1, select bank1
  3957  02E0  1303               	bcf	3,6	;RP1=0, select bank1
  3958  02E1  00AD               	movwf	convert@mu^(0+128)
  3959  02E2  3000               	movlw	0
  3960  02E3  00AE               	movwf	(convert@mu^(0+128)+1)
  3961  02E4                     l4119:
  3962                           
  3963                           ;ADC.c: 107:      digits=place;
  3964  02E4  1283               	bcf	3,5	;RP0=0, select bank0
  3965  02E5  1303               	bcf	3,6	;RP1=0, select bank0
  3966  02E6  0862               	movf	convert@place+1,w
  3967  02E7  1683               	bsf	3,5	;RP0=1, select bank1
  3968  02E8  1303               	bcf	3,6	;RP1=0, select bank1
  3969  02E9  00AC               	movwf	(convert@digits+1)^(0+128)
  3970  02EA  1283               	bcf	3,5	;RP0=0, select bank0
  3971  02EB  1303               	bcf	3,6	;RP1=0, select bank0
  3972  02EC  0861               	movf	convert@place,w
  3973  02ED  1683               	bsf	3,5	;RP0=1, select bank1
  3974  02EE  1303               	bcf	3,6	;RP1=0, select bank1
  3975  02EF  00AB               	movwf	convert@digits^(0+128)
  3976                           
  3977                           ;ADC.c: 108:      while(digits!=0)
  3978  02F0  2C0C               	goto	l4143
  3979  02F1                     l4121:
  3980                           
  3981                           ;ADC.c: 109:      {;ADC.c: 110:          if(digits==1)mu=1;
  3982  02F1  032B               	decf	convert@digits^(0+128),w
  3983  02F2  042C               	iorwf	(convert@digits+1)^(0+128),w
  3984  02F3  1D03               	btfss	3,2
  3985  02F4  2AF6               	goto	u6251
  3986  02F5  2AF7               	goto	u6250
  3987  02F6                     u6251:
  3988  02F6  2AFC               	goto	l4125
  3989  02F7                     u6250:
  3990  02F7                     l4123:
  3991  02F7  3001               	movlw	1
  3992  02F8  00AD               	movwf	convert@mu^(0+128)
  3993  02F9  3000               	movlw	0
  3994  02FA  00AE               	movwf	(convert@mu^(0+128)+1)
  3995  02FB  2B3E               	goto	l4133
  3996  02FC                     l4125:
  3997  02FC  3002               	movlw	2
  3998  02FD  00A2               	movwf	convert@j^(0+128)
  3999  02FE  3000               	movlw	0
  4000  02FF  00A3               	movwf	(convert@j^(0+128)+1)
  4001  0300  2B28               	goto	l4131
  4002  0301                     l4127:
  4003  0301  1683               	bsf	3,5	;RP0=1, select bank1
  4004  0302  1303               	bcf	3,6	;RP1=0, select bank1
  4005  0303  082E               	movf	(convert@mu+1)^(0+128),w
  4006  0304  1283               	bcf	3,5	;RP0=0, select bank0
  4007  0305  1303               	bcf	3,6	;RP1=0, select bank0
  4008  0306  00A8               	movwf	___wmul@multiplier+1
  4009  0307  1683               	bsf	3,5	;RP0=1, select bank1
  4010  0308  1303               	bcf	3,6	;RP1=0, select bank1
  4011  0309  082D               	movf	convert@mu^(0+128),w
  4012  030A  1283               	bcf	3,5	;RP0=0, select bank0
  4013  030B  1303               	bcf	3,6	;RP1=0, select bank0
  4014  030C  00A7               	movwf	___wmul@multiplier
  4015  030D  300A               	movlw	10
  4016  030E  00A9               	movwf	___wmul@multiplicand
  4017  030F  3000               	movlw	0
  4018  0310  00AA               	movwf	___wmul@multiplicand+1
  4019  0311  160A  118A  24AF  120A  118A  	fcall	___wmul
  4020  0316  1283               	bcf	3,5	;RP0=0, select bank0
  4021  0317  1303               	bcf	3,6	;RP1=0, select bank0
  4022  0318  0828               	movf	?___wmul+1,w
  4023  0319  1683               	bsf	3,5	;RP0=1, select bank1
  4024  031A  1303               	bcf	3,6	;RP1=0, select bank1
  4025  031B  00AE               	movwf	(convert@mu+1)^(0+128)
  4026  031C  1283               	bcf	3,5	;RP0=0, select bank0
  4027  031D  1303               	bcf	3,6	;RP1=0, select bank0
  4028  031E  0827               	movf	?___wmul,w
  4029  031F  1683               	bsf	3,5	;RP0=1, select bank1
  4030  0320  1303               	bcf	3,6	;RP1=0, select bank1
  4031  0321  00AD               	movwf	convert@mu^(0+128)
  4032  0322                     l4129:
  4033  0322  3001               	movlw	1
  4034  0323  07A2               	addwf	convert@j^(0+128),f
  4035  0324  1803               	skipnc
  4036  0325  0AA3               	incf	(convert@j+1)^(0+128),f
  4037  0326  3000               	movlw	0
  4038  0327  07A3               	addwf	(convert@j+1)^(0+128),f
  4039  0328                     l4131:
  4040  0328  082C               	movf	(convert@digits+1)^(0+128),w
  4041  0329  3A80               	xorlw	128
  4042  032A  1283               	bcf	3,5	;RP0=0, select bank0
  4043  032B  1303               	bcf	3,6	;RP1=0, select bank0
  4044  032C  00E3               	movwf	??_convert
  4045  032D  1683               	bsf	3,5	;RP0=1, select bank1
  4046  032E  1303               	bcf	3,6	;RP1=0, select bank1
  4047  032F  0823               	movf	(convert@j+1)^(0+128),w
  4048  0330  3A80               	xorlw	128
  4049  0331  1283               	bcf	3,5	;RP0=0, select bank0
  4050  0332  1303               	bcf	3,6	;RP1=0, select bank0
  4051  0333  0263               	subwf	??_convert,w
  4052  0334  1D03               	skipz
  4053  0335  2B3A               	goto	u6265
  4054  0336  1683               	bsf	3,5	;RP0=1, select bank1
  4055  0337  1303               	bcf	3,6	;RP1=0, select bank1
  4056  0338  0822               	movf	convert@j^(0+128),w
  4057  0339  022B               	subwf	convert@digits^(0+128),w
  4058  033A                     u6265:
  4059  033A  1803               	skipnc
  4060  033B  2B3D               	goto	u6261
  4061  033C  2B3E               	goto	u6260
  4062  033D                     u6261:
  4063  033D  2B01               	goto	l4127
  4064  033E                     u6260:
  4065  033E                     l4133:
  4066                           
  4067                           ;ADC.c: 113:          x=a/mu;
  4068  033E  1683               	bsf	3,5	;RP0=1, select bank1
  4069  033F  1303               	bcf	3,6	;RP1=0, select bank1
  4070  0340  082D               	movf	convert@mu^(0+128),w
  4071  0341  1283               	bcf	3,5	;RP0=0, select bank0
  4072  0342  1303               	bcf	3,6	;RP1=0, select bank0
  4073  0343  00AD               	movwf	___xxtofl@val
  4074  0344  1683               	bsf	3,5	;RP0=1, select bank1
  4075  0345  1303               	bcf	3,6	;RP1=0, select bank1
  4076  0346  082E               	movf	(convert@mu+1)^(0+128),w
  4077  0347  1283               	bcf	3,5	;RP0=0, select bank0
  4078  0348  1303               	bcf	3,6	;RP1=0, select bank0
  4079  0349  00AE               	movwf	___xxtofl@val+1
  4080  034A  3000               	movlw	0
  4081  034B  1BAE               	btfsc	___xxtofl@val+1,7
  4082  034C  30FF               	movlw	255
  4083  034D  00AF               	movwf	___xxtofl@val+2
  4084  034E  00B0               	movwf	___xxtofl@val+3
  4085  034F  3001               	movlw	1
  4086  0350  120A  158A  2044  120A  118A  	fcall	___xxtofl
  4087  0355  1283               	bcf	3,5	;RP0=0, select bank0
  4088  0356  1303               	bcf	3,6	;RP1=0, select bank0
  4089  0357  0830               	movf	?___xxtofl+3,w
  4090  0358  00BE               	movwf	___fldiv@a+3
  4091  0359  082F               	movf	?___xxtofl+2,w
  4092  035A  00BD               	movwf	___fldiv@a+2
  4093  035B  082E               	movf	?___xxtofl+1,w
  4094  035C  00BC               	movwf	___fldiv@a+1
  4095  035D  082D               	movf	?___xxtofl,w
  4096  035E  00BB               	movwf	___fldiv@a
  4097  035F  0860               	movf	convert@a+3,w
  4098  0360  00C2               	movwf	___fldiv@b+3
  4099  0361  085F               	movf	convert@a+2,w
  4100  0362  00C1               	movwf	___fldiv@b+2
  4101  0363  085E               	movf	convert@a+1,w
  4102  0364  00C0               	movwf	___fldiv@b+1
  4103  0365  085D               	movf	convert@a,w
  4104  0366  00BF               	movwf	___fldiv@b
  4105  0367  120A  158A  2393  120A  118A  	fcall	___fldiv
  4106  036C  1283               	bcf	3,5	;RP0=0, select bank0
  4107  036D  1303               	bcf	3,6	;RP1=0, select bank0
  4108  036E  083E               	movf	?___fldiv+3,w
  4109  036F  1683               	bsf	3,5	;RP0=1, select bank1
  4110  0370  1303               	bcf	3,6	;RP1=0, select bank1
  4111  0371  00A8               	movwf	(convert@x+3)^(0+128)
  4112  0372  1283               	bcf	3,5	;RP0=0, select bank0
  4113  0373  1303               	bcf	3,6	;RP1=0, select bank0
  4114  0374  083D               	movf	?___fldiv+2,w
  4115  0375  1683               	bsf	3,5	;RP0=1, select bank1
  4116  0376  1303               	bcf	3,6	;RP1=0, select bank1
  4117  0377  00A7               	movwf	(convert@x+2)^(0+128)
  4118  0378  1283               	bcf	3,5	;RP0=0, select bank0
  4119  0379  1303               	bcf	3,6	;RP1=0, select bank0
  4120  037A  083C               	movf	?___fldiv+1,w
  4121  037B  1683               	bsf	3,5	;RP0=1, select bank1
  4122  037C  1303               	bcf	3,6	;RP1=0, select bank1
  4123  037D  00A6               	movwf	(convert@x+1)^(0+128)
  4124  037E  1283               	bcf	3,5	;RP0=0, select bank0
  4125  037F  1303               	bcf	3,6	;RP1=0, select bank0
  4126  0380  083B               	movf	?___fldiv,w
  4127  0381  1683               	bsf	3,5	;RP0=1, select bank1
  4128  0382  1303               	bcf	3,6	;RP1=0, select bank1
  4129  0383  00A5               	movwf	convert@x^(0+128)
  4130                           
  4131                           ;ADC.c: 114:          a=a-((int)x*mu);
  4132  0384  082E               	movf	(convert@mu+1)^(0+128),w
  4133  0385  1283               	bcf	3,5	;RP0=0, select bank0
  4134  0386  1303               	bcf	3,6	;RP1=0, select bank0
  4135  0387  00AA               	movwf	___wmul@multiplicand+1
  4136  0388  1683               	bsf	3,5	;RP0=1, select bank1
  4137  0389  1303               	bcf	3,6	;RP1=0, select bank1
  4138  038A  082D               	movf	convert@mu^(0+128),w
  4139  038B  1283               	bcf	3,5	;RP0=0, select bank0
  4140  038C  1303               	bcf	3,6	;RP1=0, select bank0
  4141  038D  00A9               	movwf	___wmul@multiplicand
  4142  038E  1683               	bsf	3,5	;RP0=1, select bank1
  4143  038F  1303               	bcf	3,6	;RP1=0, select bank1
  4144  0390  0828               	movf	(convert@x+3)^(0+128),w
  4145  0391  00F6               	movwf	___fltol@f1+3
  4146  0392  0827               	movf	(convert@x+2)^(0+128),w
  4147  0393  00F5               	movwf	___fltol@f1+2
  4148  0394  0826               	movf	(convert@x+1)^(0+128),w
  4149  0395  00F4               	movwf	___fltol@f1+1
  4150  0396  0825               	movf	convert@x^(0+128),w
  4151  0397  00F3               	movwf	___fltol@f1
  4152  0398  120A  118A  2784  120A  118A  	fcall	___fltol
  4153  039D  0874               	movf	?___fltol+1,w
  4154  039E  1283               	bcf	3,5	;RP0=0, select bank0
  4155  039F  1303               	bcf	3,6	;RP1=0, select bank0
  4156  03A0  00A8               	movwf	___wmul@multiplier+1
  4157  03A1  0873               	movf	?___fltol,w
  4158  03A2  00A7               	movwf	___wmul@multiplier
  4159  03A3  160A  118A  24AF  120A  118A  	fcall	___wmul
  4160  03A8  1283               	bcf	3,5	;RP0=0, select bank0
  4161  03A9  1303               	bcf	3,6	;RP1=0, select bank0
  4162  03AA  0827               	movf	?___wmul,w
  4163  03AB  00AD               	movwf	___xxtofl@val
  4164  03AC  0828               	movf	?___wmul+1,w
  4165  03AD  00AE               	movwf	___xxtofl@val+1
  4166  03AE  3000               	movlw	0
  4167  03AF  1BAE               	btfsc	___xxtofl@val+1,7
  4168  03B0  30FF               	movlw	255
  4169  03B1  00AF               	movwf	___xxtofl@val+2
  4170  03B2  00B0               	movwf	___xxtofl@val+3
  4171  03B3  3001               	movlw	1
  4172  03B4  120A  158A  2044  120A  118A  	fcall	___xxtofl
  4173  03B9  1283               	bcf	3,5	;RP0=0, select bank0
  4174  03BA  1303               	bcf	3,6	;RP1=0, select bank0
  4175  03BB  0830               	movf	?___xxtofl+3,w
  4176  03BC  00BE               	movwf	___flsub@a+3
  4177  03BD  082F               	movf	?___xxtofl+2,w
  4178  03BE  00BD               	movwf	___flsub@a+2
  4179  03BF  082E               	movf	?___xxtofl+1,w
  4180  03C0  00BC               	movwf	___flsub@a+1
  4181  03C1  082D               	movf	?___xxtofl,w
  4182  03C2  00BB               	movwf	___flsub@a
  4183  03C3  0860               	movf	convert@a+3,w
  4184  03C4  00C2               	movwf	___flsub@b+3
  4185  03C5  085F               	movf	convert@a+2,w
  4186  03C6  00C1               	movwf	___flsub@b+2
  4187  03C7  085E               	movf	convert@a+1,w
  4188  03C8  00C0               	movwf	___flsub@b+1
  4189  03C9  085D               	movf	convert@a,w
  4190  03CA  00BF               	movwf	___flsub@b
  4191  03CB  160A  118A  248B  120A  118A  	fcall	___flsub
  4192  03D0  1283               	bcf	3,5	;RP0=0, select bank0
  4193  03D1  1303               	bcf	3,6	;RP1=0, select bank0
  4194  03D2  083E               	movf	?___flsub+3,w
  4195  03D3  00E0               	movwf	convert@a+3
  4196  03D4  083D               	movf	?___flsub+2,w
  4197  03D5  00DF               	movwf	convert@a+2
  4198  03D6  083C               	movf	?___flsub+1,w
  4199  03D7  00DE               	movwf	convert@a+1
  4200  03D8  083B               	movf	?___flsub,w
  4201  03D9  00DD               	movwf	convert@a
  4202  03DA                     l4135:
  4203                           
  4204                           ;ADC.c: 115:          data[i]=0x30+((int)x);
  4205  03DA  1683               	bsf	3,5	;RP0=1, select bank1
  4206  03DB  1303               	bcf	3,6	;RP1=0, select bank1
  4207  03DC  0828               	movf	(convert@x+3)^(0+128),w
  4208  03DD  00F6               	movwf	___fltol@f1+3
  4209  03DE  0827               	movf	(convert@x+2)^(0+128),w
  4210  03DF  00F5               	movwf	___fltol@f1+2
  4211  03E0  0826               	movf	(convert@x+1)^(0+128),w
  4212  03E1  00F4               	movwf	___fltol@f1+1
  4213  03E2  0825               	movf	convert@x^(0+128),w
  4214  03E3  00F3               	movwf	___fltol@f1
  4215  03E4  120A  118A  2784  120A  118A  	fcall	___fltol
  4216  03E9  0873               	movf	?___fltol,w
  4217  03EA  3E30               	addlw	48
  4218  03EB  1283               	bcf	3,5	;RP0=0, select bank0
  4219  03EC  1303               	bcf	3,6	;RP1=0, select bank0
  4220  03ED  00E3               	movwf	??_convert
  4221  03EE  1683               	bsf	3,5	;RP0=1, select bank1
  4222  03EF  1303               	bcf	3,6	;RP1=0, select bank1
  4223  03F0  0829               	movf	convert@i^(0+128),w
  4224  03F1  0724               	addwf	convert@data^(0+128),w
  4225  03F2  1283               	bcf	3,5	;RP0=0, select bank0
  4226  03F3  1303               	bcf	3,6	;RP1=0, select bank0
  4227  03F4  00E4               	movwf	??_convert+1
  4228  03F5  0864               	movf	??_convert+1,w
  4229  03F6  0084               	movwf	4
  4230  03F7  0863               	movf	??_convert,w
  4231  03F8  1383               	bcf	3,7	;select IRP bank0
  4232  03F9  0080               	movwf	0
  4233  03FA                     l4137:
  4234                           
  4235                           ;ADC.c: 116:          i++;
  4236  03FA  3001               	movlw	1
  4237  03FB  1683               	bsf	3,5	;RP0=1, select bank1
  4238  03FC  1303               	bcf	3,6	;RP1=0, select bank1
  4239  03FD  07A9               	addwf	convert@i^(0+128),f
  4240  03FE  1803               	skipnc
  4241  03FF  0AAA               	incf	(convert@i+1)^(0+128),f
  4242  0400  3000               	movlw	0
  4243  0401  07AA               	addwf	(convert@i+1)^(0+128),f
  4244  0402                     l4139:
  4245                           
  4246                           ;ADC.c: 117:          digits--;
  4247  0402  30FF               	movlw	255
  4248  0403  07AB               	addwf	convert@digits^(0+128),f
  4249  0404  1803               	skipnc
  4250  0405  0AAC               	incf	(convert@digits+1)^(0+128),f
  4251  0406  30FF               	movlw	255
  4252  0407  07AC               	addwf	(convert@digits+1)^(0+128),f
  4253  0408                     l4141:
  4254                           
  4255                           ;ADC.c: 118:          mu=1;
  4256  0408  3001               	movlw	1
  4257  0409  00AD               	movwf	convert@mu^(0+128)
  4258  040A  3000               	movlw	0
  4259  040B  00AE               	movwf	(convert@mu^(0+128)+1)
  4260  040C                     l4143:
  4261                           
  4262                           ;ADC.c: 108:      while(digits!=0)
  4263  040C  082B               	movf	convert@digits^(0+128),w
  4264  040D  042C               	iorwf	(convert@digits+1)^(0+128),w
  4265  040E  1D03               	btfss	3,2
  4266  040F  2C11               	goto	u6271
  4267  0410  2C12               	goto	u6270
  4268  0411                     u6271:
  4269  0411  2AF1               	goto	l4121
  4270  0412                     u6270:
  4271  0412                     l4145:
  4272                           
  4273                           ;ADC.c: 121:     data[i]='\n';
  4274  0412  300A               	movlw	10
  4275  0413  1283               	bcf	3,5	;RP0=0, select bank0
  4276  0414  1303               	bcf	3,6	;RP1=0, select bank0
  4277  0415  00E3               	movwf	??_convert
  4278  0416  1683               	bsf	3,5	;RP0=1, select bank1
  4279  0417  1303               	bcf	3,6	;RP1=0, select bank1
  4280  0418  0829               	movf	convert@i^(0+128),w
  4281  0419  0724               	addwf	convert@data^(0+128),w
  4282  041A  1283               	bcf	3,5	;RP0=0, select bank0
  4283  041B  1303               	bcf	3,6	;RP1=0, select bank0
  4284  041C  00E4               	movwf	??_convert+1
  4285  041D  0864               	movf	??_convert+1,w
  4286  041E  0084               	movwf	4
  4287  041F  0863               	movf	??_convert,w
  4288  0420  1383               	bcf	3,7	;select IRP bank0
  4289  0421  0080               	movwf	0
  4290  0422                     l58:
  4291  0422  0008               	return
  4292  0423                     __end_of_convert:
  4293                           
  4294                           	psect	text14
  4295  0844                     __ptext14:	
  4296 ;; *************** function ___xxtofl *****************
  4297 ;; Defined at:
  4298 ;;		line 10 in file "C:\Program Files\Microchip\xc8\v2.31\pic\sources\c90\common\xxtofl.c"
  4299 ;; Parameters:    Size  Location     Type
  4300 ;;  sign            1    wreg     unsigned char 
  4301 ;;  val             4   13[BANK0 ] long 
  4302 ;; Auto vars:     Size  Location     Type
  4303 ;;  sign            1   21[BANK0 ] unsigned char 
  4304 ;;  arg             4   23[BANK0 ] unsigned long 
  4305 ;;  exp             1   22[BANK0 ] unsigned char 
  4306 ;; Return value:  Size  Location     Type
  4307 ;;                  4   13[BANK0 ] unsigned char 
  4308 ;; Registers used:
  4309 ;;		wreg, status,2, status,0
  4310 ;; Tracked objects:
  4311 ;;		On entry : 0/0
  4312 ;;		On exit  : 0/0
  4313 ;;		Unchanged: 0/0
  4314 ;; Data sizes:     COMMON   BANK0   BANK1   BANK3   BANK2
  4315 ;;      Params:         0       4       0       0       0
  4316 ;;      Locals:         0       6       0       0       0
  4317 ;;      Temps:          0       4       0       0       0
  4318 ;;      Totals:         0      14       0       0       0
  4319 ;;Total ram usage:       14 bytes
  4320 ;; Hardware stack levels used:    1
  4321 ;; Hardware stack levels required when called:    1
  4322 ;; This function calls:
  4323 ;;		Nothing
  4324 ;; This function is called by:
  4325 ;;		_convert
  4326 ;;		_main
  4327 ;; This function uses a non-reentrant model
  4328 ;;
  4329                           
  4330                           
  4331                           ;psect for function ___xxtofl
  4332  0844                     ___xxtofl:
  4333                           
  4334                           ;incstack = 0
  4335                           ; Regs used in ___xxtofl: [wreg+status,2+status,0]
  4336                           ;___xxtofl@sign stored from wreg
  4337  0844  1283               	bcf	3,5	;RP0=0, select bank0
  4338  0845  1303               	bcf	3,6	;RP1=0, select bank0
  4339  0846  00B5               	movwf	___xxtofl@sign
  4340  0847                     l4001:
  4341  0847  0835               	movf	___xxtofl@sign,w
  4342  0848  1903               	btfsc	3,2
  4343  0849  284B               	goto	u6051
  4344  084A  284C               	goto	u6050
  4345  084B                     u6051:
  4346  084B  2860               	goto	l4007
  4347  084C                     u6050:
  4348  084C                     l4003:
  4349  084C  1FB0               	btfss	___xxtofl@val+3,7
  4350  084D  284F               	goto	u6061
  4351  084E  2850               	goto	u6060
  4352  084F                     u6061:
  4353  084F  2860               	goto	l4007
  4354  0850                     u6060:
  4355  0850                     l4005:
  4356  0850  092D               	comf	___xxtofl@val,w
  4357  0851  00B7               	movwf	___xxtofl@arg
  4358  0852  092E               	comf	___xxtofl@val+1,w
  4359  0853  00B8               	movwf	___xxtofl@arg+1
  4360  0854  092F               	comf	___xxtofl@val+2,w
  4361  0855  00B9               	movwf	___xxtofl@arg+2
  4362  0856  0930               	comf	___xxtofl@val+3,w
  4363  0857  00BA               	movwf	___xxtofl@arg+3
  4364  0858  0AB7               	incf	___xxtofl@arg,f
  4365  0859  1903               	skipnz
  4366  085A  0AB8               	incf	___xxtofl@arg+1,f
  4367  085B  1903               	skipnz
  4368  085C  0AB9               	incf	___xxtofl@arg+2,f
  4369  085D  1903               	skipnz
  4370  085E  0ABA               	incf	___xxtofl@arg+3,f
  4371  085F  2868               	goto	l741
  4372  0860                     l4007:
  4373  0860  0830               	movf	___xxtofl@val+3,w
  4374  0861  00BA               	movwf	___xxtofl@arg+3
  4375  0862  082F               	movf	___xxtofl@val+2,w
  4376  0863  00B9               	movwf	___xxtofl@arg+2
  4377  0864  082E               	movf	___xxtofl@val+1,w
  4378  0865  00B8               	movwf	___xxtofl@arg+1
  4379  0866  082D               	movf	___xxtofl@val,w
  4380  0867  00B7               	movwf	___xxtofl@arg
  4381  0868                     l741:
  4382  0868  0830               	movf	___xxtofl@val+3,w
  4383  0869  042F               	iorwf	___xxtofl@val+2,w
  4384  086A  042E               	iorwf	___xxtofl@val+1,w
  4385  086B  042D               	iorwf	___xxtofl@val,w
  4386  086C  1D03               	skipz
  4387  086D  286F               	goto	u6071
  4388  086E  2870               	goto	u6070
  4389  086F                     u6071:
  4390  086F  2879               	goto	l4013
  4391  0870                     u6070:
  4392  0870                     l4009:
  4393  0870  3000               	movlw	0
  4394  0871  00B0               	movwf	?___xxtofl+3
  4395  0872  3000               	movlw	0
  4396  0873  00AF               	movwf	?___xxtofl+2
  4397  0874  3000               	movlw	0
  4398  0875  00AE               	movwf	?___xxtofl+1
  4399  0876  3000               	movlw	0
  4400  0877  00AD               	movwf	?___xxtofl
  4401  0878  28FF               	goto	l743
  4402  0879                     l4013:
  4403  0879  3096               	movlw	150
  4404  087A  00B1               	movwf	??___xxtofl
  4405  087B  0831               	movf	??___xxtofl,w
  4406  087C  00B6               	movwf	___xxtofl@exp
  4407  087D  288B               	goto	l4017
  4408  087E                     l4015:
  4409  087E  3001               	movlw	1
  4410  087F  00B1               	movwf	??___xxtofl
  4411  0880  0831               	movf	??___xxtofl,w
  4412  0881  07B6               	addwf	___xxtofl@exp,f
  4413  0882  3001               	movlw	1
  4414  0883                     u6085:
  4415  0883  1003               	clrc
  4416  0884  0CBA               	rrf	___xxtofl@arg+3,f
  4417  0885  0CB9               	rrf	___xxtofl@arg+2,f
  4418  0886  0CB8               	rrf	___xxtofl@arg+1,f
  4419  0887  0CB7               	rrf	___xxtofl@arg,f
  4420  0888  3EFF               	addlw	-1
  4421  0889  1D03               	skipz
  4422  088A  2883               	goto	u6085
  4423  088B                     l4017:
  4424  088B  30FE               	movlw	254
  4425  088C  053A               	andwf	___xxtofl@arg+3,w
  4426  088D  1D03               	btfss	3,2
  4427  088E  2890               	goto	u6091
  4428  088F  2891               	goto	u6090
  4429  0890                     u6091:
  4430  0890  287E               	goto	l4015
  4431  0891                     u6090:
  4432  0891  28AD               	goto	l747
  4433  0892                     l4019:
  4434  0892  3001               	movlw	1
  4435  0893  00B1               	movwf	??___xxtofl
  4436  0894  0831               	movf	??___xxtofl,w
  4437  0895  07B6               	addwf	___xxtofl@exp,f
  4438  0896                     l4021:
  4439  0896  3001               	movlw	1
  4440  0897  07B7               	addwf	___xxtofl@arg,f
  4441  0898  3000               	movlw	0
  4442  0899  1803               	skipnc
  4443  089A  3001               	movlw	1
  4444  089B  07B8               	addwf	___xxtofl@arg+1,f
  4445  089C  3000               	movlw	0
  4446  089D  1803               	skipnc
  4447  089E  3001               	movlw	1
  4448  089F  07B9               	addwf	___xxtofl@arg+2,f
  4449  08A0  3000               	movlw	0
  4450  08A1  1803               	skipnc
  4451  08A2  3001               	movlw	1
  4452  08A3  07BA               	addwf	___xxtofl@arg+3,f
  4453  08A4                     l4023:
  4454  08A4  3001               	movlw	1
  4455  08A5                     u6105:
  4456  08A5  1003               	clrc
  4457  08A6  0CBA               	rrf	___xxtofl@arg+3,f
  4458  08A7  0CB9               	rrf	___xxtofl@arg+2,f
  4459  08A8  0CB8               	rrf	___xxtofl@arg+1,f
  4460  08A9  0CB7               	rrf	___xxtofl@arg,f
  4461  08AA  3EFF               	addlw	-1
  4462  08AB  1D03               	skipz
  4463  08AC  28A5               	goto	u6105
  4464  08AD                     l747:
  4465  08AD  30FF               	movlw	255
  4466  08AE  053A               	andwf	___xxtofl@arg+3,w
  4467  08AF  1D03               	btfss	3,2
  4468  08B0  28B2               	goto	u6111
  4469  08B1  28B3               	goto	u6110
  4470  08B2                     u6111:
  4471  08B2  2892               	goto	l4019
  4472  08B3                     u6110:
  4473  08B3  28BF               	goto	l4027
  4474  08B4                     l4025:
  4475  08B4  3001               	movlw	1
  4476  08B5  02B6               	subwf	___xxtofl@exp,f
  4477  08B6  3001               	movlw	1
  4478  08B7  00B1               	movwf	??___xxtofl
  4479  08B8                     u6125:
  4480  08B8  1003               	clrc
  4481  08B9  0DB7               	rlf	___xxtofl@arg,f
  4482  08BA  0DB8               	rlf	___xxtofl@arg+1,f
  4483  08BB  0DB9               	rlf	___xxtofl@arg+2,f
  4484  08BC  0DBA               	rlf	___xxtofl@arg+3,f
  4485  08BD  0BB1               	decfsz	??___xxtofl,f
  4486  08BE  28B8               	goto	u6125
  4487  08BF                     l4027:
  4488  08BF  1BB9               	btfsc	___xxtofl@arg+2,7
  4489  08C0  28C2               	goto	u6131
  4490  08C1  28C3               	goto	u6130
  4491  08C2                     u6131:
  4492  08C2  28C9               	goto	l754
  4493  08C3                     u6130:
  4494  08C3                     l4029:
  4495  08C3  3002               	movlw	2
  4496  08C4  0236               	subwf	___xxtofl@exp,w
  4497  08C5  1803               	skipnc
  4498  08C6  28C8               	goto	u6141
  4499  08C7  28C9               	goto	u6140
  4500  08C8                     u6141:
  4501  08C8  28B4               	goto	l4025
  4502  08C9                     u6140:
  4503  08C9                     l754:
  4504  08C9  1836               	btfsc	___xxtofl@exp,0
  4505  08CA  28CC               	goto	u6151
  4506  08CB  28CD               	goto	u6150
  4507  08CC                     u6151:
  4508  08CC  28D5               	goto	l755
  4509  08CD                     u6150:
  4510  08CD                     l4031:
  4511  08CD  30FF               	movlw	255
  4512  08CE  05B7               	andwf	___xxtofl@arg,f
  4513  08CF  30FF               	movlw	255
  4514  08D0  05B8               	andwf	___xxtofl@arg+1,f
  4515  08D1  307F               	movlw	127
  4516  08D2  05B9               	andwf	___xxtofl@arg+2,f
  4517  08D3  30FF               	movlw	255
  4518  08D4  05BA               	andwf	___xxtofl@arg+3,f
  4519  08D5                     l755:
  4520  08D5  1003               	clrc
  4521  08D6  0CB6               	rrf	___xxtofl@exp,f
  4522  08D7                     l4033:
  4523  08D7  0836               	movf	___xxtofl@exp,w
  4524  08D8  00B1               	movwf	??___xxtofl
  4525  08D9  01B2               	clrf	??___xxtofl+1
  4526  08DA  01B3               	clrf	??___xxtofl+2
  4527  08DB  01B4               	clrf	??___xxtofl+3
  4528  08DC  3018               	movlw	24
  4529  08DD                     u6165:
  4530  08DD  1003               	clrc
  4531  08DE  0DB1               	rlf	??___xxtofl,f
  4532  08DF  0DB2               	rlf	??___xxtofl+1,f
  4533  08E0  0DB3               	rlf	??___xxtofl+2,f
  4534  08E1  0DB4               	rlf	??___xxtofl+3,f
  4535  08E2                     u6160:
  4536  08E2  3EFF               	addlw	-1
  4537  08E3  1D03               	skipz
  4538  08E4  28DD               	goto	u6165
  4539  08E5  0831               	movf	??___xxtofl,w
  4540  08E6  04B7               	iorwf	___xxtofl@arg,f
  4541  08E7  0832               	movf	??___xxtofl+1,w
  4542  08E8  04B8               	iorwf	___xxtofl@arg+1,f
  4543  08E9  0833               	movf	??___xxtofl+2,w
  4544  08EA  04B9               	iorwf	___xxtofl@arg+2,f
  4545  08EB  0834               	movf	??___xxtofl+3,w
  4546  08EC  04BA               	iorwf	___xxtofl@arg+3,f
  4547  08ED                     l4035:
  4548  08ED  0835               	movf	___xxtofl@sign,w
  4549  08EE  1903               	btfsc	3,2
  4550  08EF  28F1               	goto	u6171
  4551  08F0  28F2               	goto	u6170
  4552  08F1                     u6171:
  4553  08F1  28F7               	goto	l4041
  4554  08F2                     u6170:
  4555  08F2                     l4037:
  4556  08F2  1FB0               	btfss	___xxtofl@val+3,7
  4557  08F3  28F5               	goto	u6181
  4558  08F4  28F6               	goto	u6180
  4559  08F5                     u6181:
  4560  08F5  28F7               	goto	l4041
  4561  08F6                     u6180:
  4562  08F6                     l4039:
  4563  08F6  17BA               	bsf	___xxtofl@arg+3,7
  4564  08F7                     l4041:
  4565  08F7  083A               	movf	___xxtofl@arg+3,w
  4566  08F8  00B0               	movwf	?___xxtofl+3
  4567  08F9  0839               	movf	___xxtofl@arg+2,w
  4568  08FA  00AF               	movwf	?___xxtofl+2
  4569  08FB  0838               	movf	___xxtofl@arg+1,w
  4570  08FC  00AE               	movwf	?___xxtofl+1
  4571  08FD  0837               	movf	___xxtofl@arg,w
  4572  08FE  00AD               	movwf	?___xxtofl
  4573  08FF                     l743:
  4574  08FF  0008               	return
  4575  0900                     __end_of___xxtofl:
  4576                           
  4577                           	psect	text15
  4578  14AF                     __ptext15:	
  4579 ;; *************** function ___wmul *****************
  4580 ;; Defined at:
  4581 ;;		line 15 in file "C:\Program Files\Microchip\xc8\v2.31\pic\sources\c90\common\Umul16.c"
  4582 ;; Parameters:    Size  Location     Type
  4583 ;;  multiplier      2    7[BANK0 ] unsigned int 
  4584 ;;  multiplicand    2    9[BANK0 ] unsigned int 
  4585 ;; Auto vars:     Size  Location     Type
  4586 ;;  product         2   11[BANK0 ] unsigned int 
  4587 ;; Return value:  Size  Location     Type
  4588 ;;                  2    7[BANK0 ] unsigned int 
  4589 ;; Registers used:
  4590 ;;		wreg, status,2, status,0
  4591 ;; Tracked objects:
  4592 ;;		On entry : 0/0
  4593 ;;		On exit  : 0/0
  4594 ;;		Unchanged: 0/0
  4595 ;; Data sizes:     COMMON   BANK0   BANK1   BANK3   BANK2
  4596 ;;      Params:         0       4       0       0       0
  4597 ;;      Locals:         0       2       0       0       0
  4598 ;;      Temps:          0       0       0       0       0
  4599 ;;      Totals:         0       6       0       0       0
  4600 ;;Total ram usage:        6 bytes
  4601 ;; Hardware stack levels used:    1
  4602 ;; Hardware stack levels required when called:    1
  4603 ;; This function calls:
  4604 ;;		Nothing
  4605 ;; This function is called by:
  4606 ;;		_convert
  4607 ;;		_atoi
  4608 ;; This function uses a non-reentrant model
  4609 ;;
  4610                           
  4611                           
  4612                           ;psect for function ___wmul
  4613  14AF                     ___wmul:
  4614  14AF                     l3245:	
  4615                           ;incstack = 0
  4616                           ; Regs used in ___wmul: [wreg+status,2+status,0]
  4617                           
  4618  14AF  1283               	bcf	3,5	;RP0=0, select bank0
  4619  14B0  1303               	bcf	3,6	;RP1=0, select bank0
  4620  14B1  01AB               	clrf	___wmul@product
  4621  14B2  01AC               	clrf	___wmul@product+1
  4622  14B3                     l3247:
  4623  14B3  1C27               	btfss	___wmul@multiplier,0
  4624  14B4  2CB6               	goto	u4421
  4625  14B5  2CB7               	goto	u4420
  4626  14B6                     u4421:
  4627  14B6  2CBD               	goto	l308
  4628  14B7                     u4420:
  4629  14B7                     l3249:
  4630  14B7  0829               	movf	___wmul@multiplicand,w
  4631  14B8  07AB               	addwf	___wmul@product,f
  4632  14B9  1803               	skipnc
  4633  14BA  0AAC               	incf	___wmul@product+1,f
  4634  14BB  082A               	movf	___wmul@multiplicand+1,w
  4635  14BC  07AC               	addwf	___wmul@product+1,f
  4636  14BD                     l308:
  4637  14BD  3001               	movlw	1
  4638  14BE                     u4435:
  4639  14BE  1003               	clrc
  4640  14BF  0DA9               	rlf	___wmul@multiplicand,f
  4641  14C0  0DAA               	rlf	___wmul@multiplicand+1,f
  4642  14C1  3EFF               	addlw	-1
  4643  14C2  1D03               	skipz
  4644  14C3  2CBE               	goto	u4435
  4645  14C4                     l3251:
  4646  14C4  3001               	movlw	1
  4647  14C5                     u4445:
  4648  14C5  1003               	clrc
  4649  14C6  0CA8               	rrf	___wmul@multiplier+1,f
  4650  14C7  0CA7               	rrf	___wmul@multiplier,f
  4651  14C8  3EFF               	addlw	-1
  4652  14C9  1D03               	skipz
  4653  14CA  2CC5               	goto	u4445
  4654  14CB                     l3253:
  4655  14CB  0827               	movf	___wmul@multiplier,w
  4656  14CC  0428               	iorwf	___wmul@multiplier+1,w
  4657  14CD  1D03               	btfss	3,2
  4658  14CE  2CD0               	goto	u4451
  4659  14CF  2CD1               	goto	u4450
  4660  14D0                     u4451:
  4661  14D0  2CB3               	goto	l3247
  4662  14D1                     u4450:
  4663  14D1                     l3255:
  4664  14D1  082C               	movf	___wmul@product+1,w
  4665  14D2  00A8               	movwf	?___wmul+1
  4666  14D3  082B               	movf	___wmul@product,w
  4667  14D4  00A7               	movwf	?___wmul
  4668  14D5                     l310:
  4669  14D5  0008               	return
  4670  14D6                     __end_of___wmul:
  4671                           
  4672                           	psect	text16
  4673  0784                     __ptext16:	
  4674 ;; *************** function ___fltol *****************
  4675 ;; Defined at:
  4676 ;;		line 43 in file "C:\Program Files\Microchip\xc8\v2.31\pic\sources\c90\common\fltol.c"
  4677 ;; Parameters:    Size  Location     Type
  4678 ;;  f1              4    3[COMMON] unsigned int 
  4679 ;; Auto vars:     Size  Location     Type
  4680 ;;  exp1            1    6[BANK0 ] unsigned char 
  4681 ;;  sign1           1    5[BANK0 ] unsigned char 
  4682 ;; Return value:  Size  Location     Type
  4683 ;;                  4    3[COMMON] long 
  4684 ;; Registers used:
  4685 ;;		wreg, status,2, status,0
  4686 ;; Tracked objects:
  4687 ;;		On entry : 0/0
  4688 ;;		On exit  : 0/0
  4689 ;;		Unchanged: 0/0
  4690 ;; Data sizes:     COMMON   BANK0   BANK1   BANK3   BANK2
  4691 ;;      Params:         4       0       0       0       0
  4692 ;;      Locals:         0       2       0       0       0
  4693 ;;      Temps:          0       5       0       0       0
  4694 ;;      Totals:         4       7       0       0       0
  4695 ;;Total ram usage:       11 bytes
  4696 ;; Hardware stack levels used:    1
  4697 ;; Hardware stack levels required when called:    1
  4698 ;; This function calls:
  4699 ;;		Nothing
  4700 ;; This function is called by:
  4701 ;;		_convert
  4702 ;; This function uses a non-reentrant model
  4703 ;;
  4704                           
  4705                           
  4706                           ;psect for function ___fltol
  4707  0784                     ___fltol:
  4708  0784                     l3677:	
  4709                           ;incstack = 0
  4710                           ; Regs used in ___fltol: [wreg+status,2+status,0]
  4711                           
  4712  0784  1003               	clrc
  4713  0785  0D75               	rlf	___fltol@f1+2,w
  4714  0786  0D76               	rlf	___fltol@f1+3,w
  4715  0787  1283               	bcf	3,5	;RP0=0, select bank0
  4716  0788  1303               	bcf	3,6	;RP1=0, select bank0
  4717  0789  00A0               	movwf	??___fltol
  4718  078A  0820               	movf	??___fltol,w
  4719  078B  00A6               	movwf	___fltol@exp1
  4720  078C  0826               	movf	___fltol@exp1,w
  4721  078D  1D03               	btfss	3,2
  4722  078E  2F90               	goto	u5291
  4723  078F  2F91               	goto	u5290
  4724  0790                     u5291:
  4725  0790  2F9A               	goto	l3683
  4726  0791                     u5290:
  4727  0791                     l3679:
  4728  0791  3000               	movlw	0
  4729  0792  00F6               	movwf	?___fltol+3
  4730  0793  3000               	movlw	0
  4731  0794  00F5               	movwf	?___fltol+2
  4732  0795  3000               	movlw	0
  4733  0796  00F4               	movwf	?___fltol+1
  4734  0797  3000               	movlw	0
  4735  0798  00F3               	movwf	?___fltol
  4736  0799  2FFF               	goto	l494
  4737  079A                     l3683:
  4738  079A  0873               	movf	___fltol@f1,w
  4739  079B  00A0               	movwf	??___fltol
  4740  079C  0874               	movf	___fltol@f1+1,w
  4741  079D  00A1               	movwf	??___fltol+1
  4742  079E  0875               	movf	___fltol@f1+2,w
  4743  079F  00A2               	movwf	??___fltol+2
  4744  07A0  0876               	movf	___fltol@f1+3,w
  4745  07A1  00A3               	movwf	??___fltol+3
  4746  07A2  301F               	movlw	31
  4747  07A3                     u5305:
  4748  07A3  1003               	clrc
  4749  07A4  0CA3               	rrf	??___fltol+3,f
  4750  07A5  0CA2               	rrf	??___fltol+2,f
  4751  07A6  0CA1               	rrf	??___fltol+1,f
  4752  07A7  0CA0               	rrf	??___fltol,f
  4753  07A8                     u5300:
  4754  07A8  3EFF               	addlw	-1
  4755  07A9  1D03               	skipz
  4756  07AA  2FA3               	goto	u5305
  4757  07AB  0820               	movf	??___fltol,w
  4758  07AC  00A4               	movwf	??___fltol+4
  4759  07AD  0824               	movf	??___fltol+4,w
  4760  07AE  00A5               	movwf	___fltol@sign1
  4761  07AF                     l3685:
  4762  07AF  17F5               	bsf	___fltol@f1+2,7
  4763  07B0                     l3687:
  4764  07B0  30FF               	movlw	255
  4765  07B1  05F3               	andwf	___fltol@f1,f
  4766  07B2  30FF               	movlw	255
  4767  07B3  05F4               	andwf	___fltol@f1+1,f
  4768  07B4  30FF               	movlw	255
  4769  07B5  05F5               	andwf	___fltol@f1+2,f
  4770  07B6  3000               	movlw	0
  4771  07B7  05F6               	andwf	___fltol@f1+3,f
  4772  07B8                     l3689:
  4773  07B8  3096               	movlw	150
  4774  07B9  02A6               	subwf	___fltol@exp1,f
  4775  07BA                     l3691:
  4776  07BA  1FA6               	btfss	___fltol@exp1,7
  4777  07BB  2FBD               	goto	u5311
  4778  07BC  2FBE               	goto	u5310
  4779  07BD                     u5311:
  4780  07BD  2FD8               	goto	l3701
  4781  07BE                     u5310:
  4782  07BE                     l3693:
  4783  07BE  0826               	movf	___fltol@exp1,w
  4784  07BF  3A80               	xorlw	128
  4785  07C0  3E97               	addlw	151
  4786  07C1  1803               	skipnc
  4787  07C2  2FC4               	goto	u5321
  4788  07C3  2FC5               	goto	u5320
  4789  07C4                     u5321:
  4790  07C4  2FC6               	goto	l3699
  4791  07C5                     u5320:
  4792  07C5  2F91               	goto	l3679
  4793  07C6                     l3699:
  4794  07C6  3001               	movlw	1
  4795  07C7                     u5335:
  4796  07C7  1003               	clrc
  4797  07C8  0CF6               	rrf	___fltol@f1+3,f
  4798  07C9  0CF5               	rrf	___fltol@f1+2,f
  4799  07CA  0CF4               	rrf	___fltol@f1+1,f
  4800  07CB  0CF3               	rrf	___fltol@f1,f
  4801  07CC  3EFF               	addlw	-1
  4802  07CD  1D03               	skipz
  4803  07CE  2FC7               	goto	u5335
  4804  07CF  3001               	movlw	1
  4805  07D0  00A0               	movwf	??___fltol
  4806  07D1  0820               	movf	??___fltol,w
  4807  07D2  07A6               	addwf	___fltol@exp1,f
  4808  07D3  1D03               	btfss	3,2
  4809  07D4  2FD6               	goto	u5341
  4810  07D5  2FD7               	goto	u5340
  4811  07D6                     u5341:
  4812  07D6  2FC6               	goto	l3699
  4813  07D7                     u5340:
  4814  07D7  2FEF               	goto	l3709
  4815  07D8                     l3701:
  4816  07D8  3020               	movlw	32
  4817  07D9  0226               	subwf	___fltol@exp1,w
  4818  07DA  1C03               	skipc
  4819  07DB  2FDD               	goto	u5351
  4820  07DC  2FDE               	goto	u5350
  4821  07DD                     u5351:
  4822  07DD  2FEA               	goto	l501
  4823  07DE                     u5350:
  4824  07DE  2F91               	goto	l3679
  4825  07DF                     l3707:
  4826  07DF  3001               	movlw	1
  4827  07E0  00A0               	movwf	??___fltol
  4828  07E1                     u5365:
  4829  07E1  1003               	clrc
  4830  07E2  0DF3               	rlf	___fltol@f1,f
  4831  07E3  0DF4               	rlf	___fltol@f1+1,f
  4832  07E4  0DF5               	rlf	___fltol@f1+2,f
  4833  07E5  0DF6               	rlf	___fltol@f1+3,f
  4834  07E6  0BA0               	decfsz	??___fltol,f
  4835  07E7  2FE1               	goto	u5365
  4836  07E8  3001               	movlw	1
  4837  07E9  02A6               	subwf	___fltol@exp1,f
  4838  07EA                     l501:
  4839  07EA  0826               	movf	___fltol@exp1,w
  4840  07EB  1D03               	btfss	3,2
  4841  07EC  2FEE               	goto	u5371
  4842  07ED  2FEF               	goto	u5370
  4843  07EE                     u5371:
  4844  07EE  2FDF               	goto	l3707
  4845  07EF                     u5370:
  4846  07EF                     l3709:
  4847  07EF  0825               	movf	___fltol@sign1,w
  4848  07F0  1903               	btfsc	3,2
  4849  07F1  2FF3               	goto	u5381
  4850  07F2  2FF4               	goto	u5380
  4851  07F3                     u5381:
  4852  07F3  2FFF               	goto	l504
  4853  07F4                     u5380:
  4854  07F4                     l3711:
  4855  07F4  09F3               	comf	___fltol@f1,f
  4856  07F5  09F4               	comf	___fltol@f1+1,f
  4857  07F6  09F5               	comf	___fltol@f1+2,f
  4858  07F7  09F6               	comf	___fltol@f1+3,f
  4859  07F8  0AF3               	incf	___fltol@f1,f
  4860  07F9  1903               	skipnz
  4861  07FA  0AF4               	incf	___fltol@f1+1,f
  4862  07FB  1903               	skipnz
  4863  07FC  0AF5               	incf	___fltol@f1+2,f
  4864  07FD  1903               	skipnz
  4865  07FE  0AF6               	incf	___fltol@f1+3,f
  4866  07FF                     l504:
  4867  07FF                     l494:
  4868  07FF  0008               	return
  4869  0800                     __end_of___fltol:
  4870                           
  4871                           	psect	text17
  4872  148B                     __ptext17:	
  4873 ;; *************** function ___flsub *****************
  4874 ;; Defined at:
  4875 ;;		line 242 in file "C:\Program Files\Microchip\xc8\v2.31\pic\sources\c90\common\sprcadd.c"
  4876 ;; Parameters:    Size  Location     Type
  4877 ;;  a               4   27[BANK0 ] long 
  4878 ;;  b               4   31[BANK0 ] long 
  4879 ;; Auto vars:     Size  Location     Type
  4880 ;;		None
  4881 ;; Return value:  Size  Location     Type
  4882 ;;                  4   27[BANK0 ] long 
  4883 ;; Registers used:
  4884 ;;		wreg, status,2, status,0, btemp+1, pclath, cstack
  4885 ;; Tracked objects:
  4886 ;;		On entry : 0/0
  4887 ;;		On exit  : 0/0
  4888 ;;		Unchanged: 0/0
  4889 ;; Data sizes:     COMMON   BANK0   BANK1   BANK3   BANK2
  4890 ;;      Params:         0       8       0       0       0
  4891 ;;      Locals:         0       0       0       0       0
  4892 ;;      Temps:          0       0       0       0       0
  4893 ;;      Totals:         0       8       0       0       0
  4894 ;;Total ram usage:        8 bytes
  4895 ;; Hardware stack levels used:    1
  4896 ;; Hardware stack levels required when called:    2
  4897 ;; This function calls:
  4898 ;;		___fladd
  4899 ;; This function is called by:
  4900 ;;		_convert
  4901 ;; This function uses a non-reentrant model
  4902 ;;
  4903                           
  4904                           
  4905                           ;psect for function ___flsub
  4906  148B                     ___flsub:
  4907  148B                     l3713:	
  4908                           ;incstack = 0
  4909                           ; Regs used in ___flsub: [wreg+status,2+status,0+btemp+1+pclath+cstack]
  4910                           
  4911  148B  3080               	movlw	128
  4912  148C  1283               	bcf	3,5	;RP0=0, select bank0
  4913  148D  1303               	bcf	3,6	;RP1=0, select bank0
  4914  148E  06BE               	xorwf	___flsub@a+3,f
  4915  148F                     l3715:
  4916  148F  0842               	movf	___flsub@b+3,w
  4917  1490  00A3               	movwf	___fladd@b+3
  4918  1491  0841               	movf	___flsub@b+2,w
  4919  1492  00A2               	movwf	___fladd@b+2
  4920  1493  0840               	movf	___flsub@b+1,w
  4921  1494  00A1               	movwf	___fladd@b+1
  4922  1495  083F               	movf	___flsub@b,w
  4923  1496  00A0               	movwf	___fladd@b
  4924  1497  083E               	movf	___flsub@a+3,w
  4925  1498  00A7               	movwf	___fladd@a+3
  4926  1499  083D               	movf	___flsub@a+2,w
  4927  149A  00A6               	movwf	___fladd@a+2
  4928  149B  083C               	movf	___flsub@a+1,w
  4929  149C  00A5               	movwf	___fladd@a+1
  4930  149D  083B               	movf	___flsub@a,w
  4931  149E  00A4               	movwf	___fladd@a
  4932  149F  120A  158A  2570  160A  118A  	fcall	___fladd
  4933  14A4  1283               	bcf	3,5	;RP0=0, select bank0
  4934  14A5  1303               	bcf	3,6	;RP1=0, select bank0
  4935  14A6  0823               	movf	?___fladd+3,w
  4936  14A7  00BE               	movwf	?___flsub+3
  4937  14A8  0822               	movf	?___fladd+2,w
  4938  14A9  00BD               	movwf	?___flsub+2
  4939  14AA  0821               	movf	?___fladd+1,w
  4940  14AB  00BC               	movwf	?___flsub+1
  4941  14AC  0820               	movf	?___fladd,w
  4942  14AD  00BB               	movwf	?___flsub
  4943  14AE                     l647:
  4944  14AE  0008               	return
  4945  14AF                     __end_of___flsub:
  4946                           
  4947                           	psect	text18
  4948  0D70                     __ptext18:	
  4949 ;; *************** function ___fladd *****************
  4950 ;; Defined at:
  4951 ;;		line 10 in file "C:\Program Files\Microchip\xc8\v2.31\pic\sources\c90\common\sprcadd.c"
  4952 ;; Parameters:    Size  Location     Type
  4953 ;;  b               4    0[BANK0 ] long 
  4954 ;;  a               4    4[BANK0 ] long 
  4955 ;; Auto vars:     Size  Location     Type
  4956 ;;  grs             1    6[COMMON] unsigned char 
  4957 ;;  bexp            1    5[COMMON] unsigned char 
  4958 ;;  aexp            1    4[COMMON] unsigned char 
  4959 ;;  signs           1    3[COMMON] unsigned char 
  4960 ;; Return value:  Size  Location     Type
  4961 ;;                  4    0[BANK0 ] unsigned char 
  4962 ;; Registers used:
  4963 ;;		wreg, status,2, status,0, btemp+1
  4964 ;; Tracked objects:
  4965 ;;		On entry : 0/0
  4966 ;;		On exit  : 0/0
  4967 ;;		Unchanged: 0/0
  4968 ;; Data sizes:     COMMON   BANK0   BANK1   BANK3   BANK2
  4969 ;;      Params:         0       8       0       0       0
  4970 ;;      Locals:         4       0       0       0       0
  4971 ;;      Temps:          0       8       0       0       0
  4972 ;;      Totals:         4      16       0       0       0
  4973 ;;Total ram usage:       20 bytes
  4974 ;; Hardware stack levels used:    1
  4975 ;; Hardware stack levels required when called:    1
  4976 ;; This function calls:
  4977 ;;		Nothing
  4978 ;; This function is called by:
  4979 ;;		___flsub
  4980 ;; This function uses a non-reentrant model
  4981 ;;
  4982                           
  4983                           
  4984                           ;psect for function ___fladd
  4985  0D70                     ___fladd:
  4986  0D70                     l3385:	
  4987                           ;incstack = 0
  4988                           ; Regs used in ___fladd: [wreg+status,2+status,0+btemp+1]
  4989                           
  4990  0D70  1283               	bcf	3,5	;RP0=0, select bank0
  4991  0D71  1303               	bcf	3,6	;RP1=0, select bank0
  4992  0D72  0823               	movf	___fladd@b+3,w
  4993  0D73  3980               	andlw	128
  4994  0D74  00A8               	movwf	??___fladd
  4995  0D75  0828               	movf	??___fladd,w
  4996  0D76  00F3               	movwf	___fladd@signs
  4997  0D77                     l3387:
  4998  0D77  0823               	movf	___fladd@b+3,w
  4999  0D78  00A8               	movwf	??___fladd
  5000  0D79  0728               	addwf	??___fladd,w
  5001  0D7A  00A9               	movwf	??___fladd+1
  5002  0D7B  0829               	movf	??___fladd+1,w
  5003  0D7C  00F5               	movwf	___fladd@bexp
  5004  0D7D                     l3389:
  5005  0D7D  1FA2               	btfss	___fladd@b+2,7
  5006  0D7E  2D80               	goto	u4631
  5007  0D7F  2D81               	goto	u4630
  5008  0D80                     u4631:
  5009  0D80  2D82               	goto	l3393
  5010  0D81                     u4630:
  5011  0D81                     l3391:
  5012  0D81  1475               	bsf	___fladd@bexp,0
  5013  0D82                     l3393:
  5014  0D82  0875               	movf	___fladd@bexp,w
  5015  0D83  1903               	btfsc	3,2
  5016  0D84  2D86               	goto	u4641
  5017  0D85  2D87               	goto	u4640
  5018  0D86                     u4641:
  5019  0D86  2D97               	goto	l3403
  5020  0D87                     u4640:
  5021  0D87                     l3395:
  5022  0D87  0A75               	incf	___fladd@bexp,w
  5023  0D88  1D03               	btfss	3,2
  5024  0D89  2D8B               	goto	u4651
  5025  0D8A  2D8C               	goto	u4650
  5026  0D8B                     u4651:
  5027  0D8B  2D94               	goto	l3399
  5028  0D8C                     u4650:
  5029  0D8C                     l3397:
  5030  0D8C  3000               	movlw	0
  5031  0D8D  00A3               	movwf	___fladd@b+3
  5032  0D8E  3000               	movlw	0
  5033  0D8F  00A2               	movwf	___fladd@b+2
  5034  0D90  3000               	movlw	0
  5035  0D91  00A1               	movwf	___fladd@b+1
  5036  0D92  3000               	movlw	0
  5037  0D93  00A0               	movwf	___fladd@b
  5038  0D94                     l3399:
  5039  0D94  17A2               	bsf	___fladd@b+2,7
  5040  0D95                     l3401:
  5041  0D95  01A3               	clrf	___fladd@b+3
  5042  0D96  2D9F               	goto	l3405
  5043  0D97                     l3403:
  5044  0D97  3000               	movlw	0
  5045  0D98  00A3               	movwf	___fladd@b+3
  5046  0D99  3000               	movlw	0
  5047  0D9A  00A2               	movwf	___fladd@b+2
  5048  0D9B  3000               	movlw	0
  5049  0D9C  00A1               	movwf	___fladd@b+1
  5050  0D9D  3000               	movlw	0
  5051  0D9E  00A0               	movwf	___fladd@b
  5052  0D9F                     l3405:
  5053  0D9F  0827               	movf	___fladd@a+3,w
  5054  0DA0  3980               	andlw	128
  5055  0DA1  00A8               	movwf	??___fladd
  5056  0DA2  0828               	movf	??___fladd,w
  5057  0DA3  00F4               	movwf	___fladd@aexp
  5058  0DA4                     l3407:
  5059  0DA4  0874               	movf	___fladd@aexp,w
  5060  0DA5  0673               	xorwf	___fladd@signs,w
  5061  0DA6  1903               	skipnz
  5062  0DA7  2DA9               	goto	u4661
  5063  0DA8  2DAA               	goto	u4660
  5064  0DA9                     u4661:
  5065  0DA9  2DAB               	goto	l3411
  5066  0DAA                     u4660:
  5067  0DAA                     l3409:
  5068  0DAA  1773               	bsf	___fladd@signs,6
  5069  0DAB                     l3411:
  5070  0DAB  0827               	movf	___fladd@a+3,w
  5071  0DAC  00A8               	movwf	??___fladd
  5072  0DAD  0728               	addwf	??___fladd,w
  5073  0DAE  00A9               	movwf	??___fladd+1
  5074  0DAF  0829               	movf	??___fladd+1,w
  5075  0DB0  00F4               	movwf	___fladd@aexp
  5076  0DB1                     l3413:
  5077  0DB1  1FA6               	btfss	___fladd@a+2,7
  5078  0DB2  2DB4               	goto	u4671
  5079  0DB3  2DB5               	goto	u4670
  5080  0DB4                     u4671:
  5081  0DB4  2DB6               	goto	l3417
  5082  0DB5                     u4670:
  5083  0DB5                     l3415:
  5084  0DB5  1474               	bsf	___fladd@aexp,0
  5085  0DB6                     l3417:
  5086  0DB6  0874               	movf	___fladd@aexp,w
  5087  0DB7  1903               	btfsc	3,2
  5088  0DB8  2DBA               	goto	u4681
  5089  0DB9  2DBB               	goto	u4680
  5090  0DBA                     u4681:
  5091  0DBA  2DCB               	goto	l3427
  5092  0DBB                     u4680:
  5093  0DBB                     l3419:
  5094  0DBB  0A74               	incf	___fladd@aexp,w
  5095  0DBC  1D03               	btfss	3,2
  5096  0DBD  2DBF               	goto	u4691
  5097  0DBE  2DC0               	goto	u4690
  5098  0DBF                     u4691:
  5099  0DBF  2DC8               	goto	l3423
  5100  0DC0                     u4690:
  5101  0DC0                     l3421:
  5102  0DC0  3000               	movlw	0
  5103  0DC1  00A7               	movwf	___fladd@a+3
  5104  0DC2  3000               	movlw	0
  5105  0DC3  00A6               	movwf	___fladd@a+2
  5106  0DC4  3000               	movlw	0
  5107  0DC5  00A5               	movwf	___fladd@a+1
  5108  0DC6  3000               	movlw	0
  5109  0DC7  00A4               	movwf	___fladd@a
  5110  0DC8                     l3423:
  5111  0DC8  17A6               	bsf	___fladd@a+2,7
  5112  0DC9                     l3425:
  5113  0DC9  01A7               	clrf	___fladd@a+3
  5114  0DCA  2DD3               	goto	l601
  5115  0DCB                     l3427:
  5116  0DCB  3000               	movlw	0
  5117  0DCC  00A7               	movwf	___fladd@a+3
  5118  0DCD  3000               	movlw	0
  5119  0DCE  00A6               	movwf	___fladd@a+2
  5120  0DCF  3000               	movlw	0
  5121  0DD0  00A5               	movwf	___fladd@a+1
  5122  0DD1  3000               	movlw	0
  5123  0DD2  00A4               	movwf	___fladd@a
  5124  0DD3                     l601:
  5125  0DD3  0875               	movf	___fladd@bexp,w
  5126  0DD4  0274               	subwf	___fladd@aexp,w
  5127  0DD5  1803               	skipnc
  5128  0DD6  2DD8               	goto	u4701
  5129  0DD7  2DD9               	goto	u4700
  5130  0DD8                     u4701:
  5131  0DD8  2E1D               	goto	l3463
  5132  0DD9                     u4700:
  5133  0DD9                     l3429:
  5134  0DD9  1F73               	btfss	___fladd@signs,6
  5135  0DDA  2DDC               	goto	u4711
  5136  0DDB  2DDD               	goto	u4710
  5137  0DDC                     u4711:
  5138  0DDC  2DE1               	goto	l3433
  5139  0DDD                     u4710:
  5140  0DDD                     l3431:
  5141  0DDD  3080               	movlw	128
  5142  0DDE  00A8               	movwf	??___fladd
  5143  0DDF  0828               	movf	??___fladd,w
  5144  0DE0  06F3               	xorwf	___fladd@signs,f
  5145  0DE1                     l3433:
  5146  0DE1  0875               	movf	___fladd@bexp,w
  5147  0DE2  00A8               	movwf	??___fladd
  5148  0DE3  0828               	movf	??___fladd,w
  5149  0DE4  00F6               	movwf	___fladd@grs
  5150  0DE5                     l3435:
  5151  0DE5  0874               	movf	___fladd@aexp,w
  5152  0DE6  00A8               	movwf	??___fladd
  5153  0DE7  0828               	movf	??___fladd,w
  5154  0DE8  00F5               	movwf	___fladd@bexp
  5155  0DE9                     l3437:
  5156  0DE9  0876               	movf	___fladd@grs,w
  5157  0DEA  00A8               	movwf	??___fladd
  5158  0DEB  0828               	movf	??___fladd,w
  5159  0DEC  00F4               	movwf	___fladd@aexp
  5160  0DED                     l3439:
  5161  0DED  0820               	movf	___fladd@b,w
  5162  0DEE  00A8               	movwf	??___fladd
  5163  0DEF  0828               	movf	??___fladd,w
  5164  0DF0  00F6               	movwf	___fladd@grs
  5165  0DF1                     l3441:
  5166  0DF1  0824               	movf	___fladd@a,w
  5167  0DF2  00A8               	movwf	??___fladd
  5168  0DF3  0828               	movf	??___fladd,w
  5169  0DF4  00A0               	movwf	___fladd@b
  5170  0DF5                     l3443:
  5171  0DF5  0876               	movf	___fladd@grs,w
  5172  0DF6  00A8               	movwf	??___fladd
  5173  0DF7  0828               	movf	??___fladd,w
  5174  0DF8  00A4               	movwf	___fladd@a
  5175  0DF9                     l3445:
  5176  0DF9  0821               	movf	___fladd@b+1,w
  5177  0DFA  00A8               	movwf	??___fladd
  5178  0DFB  0828               	movf	??___fladd,w
  5179  0DFC  00F6               	movwf	___fladd@grs
  5180  0DFD                     l3447:
  5181  0DFD  0825               	movf	___fladd@a+1,w
  5182  0DFE  00A8               	movwf	??___fladd
  5183  0DFF  0828               	movf	??___fladd,w
  5184  0E00  00A1               	movwf	___fladd@b+1
  5185  0E01                     l3449:
  5186  0E01  0876               	movf	___fladd@grs,w
  5187  0E02  00A8               	movwf	??___fladd
  5188  0E03  0828               	movf	??___fladd,w
  5189  0E04  00A5               	movwf	___fladd@a+1
  5190  0E05                     l3451:
  5191  0E05  0822               	movf	___fladd@b+2,w
  5192  0E06  00A8               	movwf	??___fladd
  5193  0E07  0828               	movf	??___fladd,w
  5194  0E08  00F6               	movwf	___fladd@grs
  5195  0E09                     l3453:
  5196  0E09  0826               	movf	___fladd@a+2,w
  5197  0E0A  00A8               	movwf	??___fladd
  5198  0E0B  0828               	movf	??___fladd,w
  5199  0E0C  00A2               	movwf	___fladd@b+2
  5200  0E0D                     l3455:
  5201  0E0D  0876               	movf	___fladd@grs,w
  5202  0E0E  00A8               	movwf	??___fladd
  5203  0E0F  0828               	movf	??___fladd,w
  5204  0E10  00A6               	movwf	___fladd@a+2
  5205  0E11                     l3457:
  5206  0E11  0823               	movf	___fladd@b+3,w
  5207  0E12  00A8               	movwf	??___fladd
  5208  0E13  0828               	movf	??___fladd,w
  5209  0E14  00F6               	movwf	___fladd@grs
  5210  0E15                     l3459:
  5211  0E15  0827               	movf	___fladd@a+3,w
  5212  0E16  00A8               	movwf	??___fladd
  5213  0E17  0828               	movf	??___fladd,w
  5214  0E18  00A3               	movwf	___fladd@b+3
  5215  0E19                     l3461:
  5216  0E19  0876               	movf	___fladd@grs,w
  5217  0E1A  00A8               	movwf	??___fladd
  5218  0E1B  0828               	movf	??___fladd,w
  5219  0E1C  00A7               	movwf	___fladd@a+3
  5220  0E1D                     l3463:
  5221  0E1D  01F6               	clrf	___fladd@grs
  5222  0E1E                     l3465:
  5223  0E1E  0874               	movf	___fladd@aexp,w
  5224  0E1F  00A8               	movwf	??___fladd
  5225  0E20  01A9               	clrf	??___fladd+1
  5226  0E21  0829               	movf	??___fladd+1,w
  5227  0E22  00AB               	movwf	??___fladd+3
  5228  0E23  0875               	movf	___fladd@bexp,w
  5229  0E24  0228               	subwf	??___fladd,w
  5230  0E25  00AA               	movwf	??___fladd+2
  5231  0E26  1C03               	skipc
  5232  0E27  03AB               	decf	??___fladd+3,f
  5233  0E28  082B               	movf	??___fladd+3,w
  5234  0E29  3A80               	xorlw	128
  5235  0E2A  00FF               	movwf	btemp+1
  5236  0E2B  3080               	movlw	128
  5237  0E2C  027F               	subwf	btemp+1,w
  5238  0E2D  1D03               	skipz
  5239  0E2E  2E31               	goto	u4725
  5240  0E2F  301A               	movlw	26
  5241  0E30  022A               	subwf	??___fladd+2,w
  5242  0E31                     u4725:
  5243  0E31  1C03               	skipc
  5244  0E32  2E34               	goto	u4721
  5245  0E33  2E35               	goto	u4720
  5246  0E34                     u4721:
  5247  0E34  2E76               	goto	l3481
  5248  0E35                     u4720:
  5249  0E35                     l3467:
  5250  0E35  1283               	bcf	3,5	;RP0=0, select bank0
  5251  0E36  1303               	bcf	3,6	;RP1=0, select bank0
  5252  0E37  0823               	movf	___fladd@b+3,w
  5253  0E38  0422               	iorwf	___fladd@b+2,w
  5254  0E39  0421               	iorwf	___fladd@b+1,w
  5255  0E3A  0420               	iorwf	___fladd@b,w
  5256  0E3B  1D03               	skipz
  5257  0E3C  2E3E               	goto	u4731
  5258  0E3D  2E40               	goto	u4730
  5259  0E3E                     u4731:
  5260  0E3E  3001               	movlw	1
  5261  0E3F  2E41               	goto	u4740
  5262  0E40                     u4730:
  5263  0E40  3000               	movlw	0
  5264  0E41                     u4740:
  5265  0E41  00A8               	movwf	??___fladd
  5266  0E42  0828               	movf	??___fladd,w
  5267  0E43  00F6               	movwf	___fladd@grs
  5268  0E44  3000               	movlw	0
  5269  0E45  00A3               	movwf	___fladd@b+3
  5270  0E46  3000               	movlw	0
  5271  0E47  00A2               	movwf	___fladd@b+2
  5272  0E48  3000               	movlw	0
  5273  0E49  00A1               	movwf	___fladd@b+1
  5274  0E4A  3000               	movlw	0
  5275  0E4B  00A0               	movwf	___fladd@b
  5276  0E4C  0874               	movf	___fladd@aexp,w
  5277  0E4D  00A8               	movwf	??___fladd
  5278  0E4E  0828               	movf	??___fladd,w
  5279  0E4F  00F5               	movwf	___fladd@bexp
  5280  0E50  2E7C               	goto	l605
  5281  0E51                     l607:
  5282  0E51  1C76               	btfss	___fladd@grs,0
  5283  0E52  2E54               	goto	u4751
  5284  0E53  2E55               	goto	u4750
  5285  0E54                     u4751:
  5286  0E54  2E60               	goto	l3471
  5287  0E55                     u4750:
  5288  0E55                     l3469:
  5289  0E55  0876               	movf	___fladd@grs,w
  5290  0E56  1283               	bcf	3,5	;RP0=0, select bank0
  5291  0E57  1303               	bcf	3,6	;RP1=0, select bank0
  5292  0E58  00A8               	movwf	??___fladd
  5293  0E59  1003               	clrc
  5294  0E5A  0C28               	rrf	??___fladd,w
  5295  0E5B  3801               	iorlw	1
  5296  0E5C  00A9               	movwf	??___fladd+1
  5297  0E5D  0829               	movf	??___fladd+1,w
  5298  0E5E  00F6               	movwf	___fladd@grs
  5299  0E5F  2E62               	goto	l3473
  5300  0E60                     l3471:
  5301  0E60  1003               	clrc
  5302  0E61  0CF6               	rrf	___fladd@grs,f
  5303  0E62                     l3473:
  5304  0E62  1283               	bcf	3,5	;RP0=0, select bank0
  5305  0E63  1303               	bcf	3,6	;RP1=0, select bank0
  5306  0E64  1C20               	btfss	___fladd@b,0
  5307  0E65  2E67               	goto	u4761
  5308  0E66  2E68               	goto	u4760
  5309  0E67                     u4761:
  5310  0E67  2E69               	goto	l3477
  5311  0E68                     u4760:
  5312  0E68                     l3475:
  5313  0E68  17F6               	bsf	___fladd@grs,7
  5314  0E69                     l3477:
  5315  0E69  3001               	movlw	1
  5316  0E6A  00A8               	movwf	??___fladd
  5317  0E6B                     u4775:
  5318  0E6B  0D23               	rlf	___fladd@b+3,w
  5319  0E6C  0CA3               	rrf	___fladd@b+3,f
  5320  0E6D  0CA2               	rrf	___fladd@b+2,f
  5321  0E6E  0CA1               	rrf	___fladd@b+1,f
  5322  0E6F  0CA0               	rrf	___fladd@b,f
  5323  0E70  0BA8               	decfsz	??___fladd& (0+127),f
  5324  0E71  2E6B               	goto	u4775
  5325  0E72                     l3479:
  5326  0E72  3001               	movlw	1
  5327  0E73  00A8               	movwf	??___fladd
  5328  0E74  0828               	movf	??___fladd,w
  5329  0E75  07F5               	addwf	___fladd@bexp,f
  5330  0E76                     l3481:
  5331  0E76  0874               	movf	___fladd@aexp,w
  5332  0E77  0275               	subwf	___fladd@bexp,w
  5333  0E78  1C03               	skipc
  5334  0E79  2E7B               	goto	u4781
  5335  0E7A  2E7C               	goto	u4780
  5336  0E7B                     u4781:
  5337  0E7B  2E51               	goto	l607
  5338  0E7C                     u4780:
  5339  0E7C                     l605:
  5340  0E7C  1B73               	btfsc	___fladd@signs,6
  5341  0E7D  2E7F               	goto	u4791
  5342  0E7E  2E80               	goto	u4790
  5343  0E7F                     u4791:
  5344  0E7F  2ECF               	goto	l3507
  5345  0E80                     u4790:
  5346  0E80                     l3483:
  5347  0E80  0875               	movf	___fladd@bexp,w
  5348  0E81  1D03               	btfss	3,2
  5349  0E82  2E84               	goto	u4801
  5350  0E83  2E85               	goto	u4800
  5351  0E84                     u4801:
  5352  0E84  2E90               	goto	l3489
  5353  0E85                     u4800:
  5354  0E85                     l3485:
  5355  0E85  3000               	movlw	0
  5356  0E86  1283               	bcf	3,5	;RP0=0, select bank0
  5357  0E87  1303               	bcf	3,6	;RP1=0, select bank0
  5358  0E88  00A3               	movwf	?___fladd+3
  5359  0E89  3000               	movlw	0
  5360  0E8A  00A2               	movwf	?___fladd+2
  5361  0E8B  3000               	movlw	0
  5362  0E8C  00A1               	movwf	?___fladd+1
  5363  0E8D  3000               	movlw	0
  5364  0E8E  00A0               	movwf	?___fladd
  5365  0E8F  2FFF               	goto	l614
  5366  0E90                     l3489:
  5367  0E90  1283               	bcf	3,5	;RP0=0, select bank0
  5368  0E91  1303               	bcf	3,6	;RP1=0, select bank0
  5369  0E92  0824               	movf	___fladd@a,w
  5370  0E93  07A0               	addwf	___fladd@b,f
  5371  0E94  0825               	movf	___fladd@a+1,w
  5372  0E95  1103               	clrz
  5373  0E96  1803               	skipnc
  5374  0E97  3E01               	addlw	1
  5375  0E98  1903               	skipnz
  5376  0E99  2E9B               	goto	u4811
  5377  0E9A  07A1               	addwf	___fladd@b+1,f
  5378  0E9B                     u4811:
  5379  0E9B  0826               	movf	___fladd@a+2,w
  5380  0E9C  1103               	clrz
  5381  0E9D  1803               	skipnc
  5382  0E9E  3E01               	addlw	1
  5383  0E9F  1903               	skipnz
  5384  0EA0  2EA2               	goto	u4812
  5385  0EA1  07A2               	addwf	___fladd@b+2,f
  5386  0EA2                     u4812:
  5387  0EA2  0827               	movf	___fladd@a+3,w
  5388  0EA3  1103               	clrz
  5389  0EA4  1803               	skipnc
  5390  0EA5  3E01               	addlw	1
  5391  0EA6  1903               	skipnz
  5392  0EA7  2EA9               	goto	u4813
  5393  0EA8  07A3               	addwf	___fladd@b+3,f
  5394  0EA9                     u4813:
  5395  0EA9                     l3491:
  5396  0EA9  1C23               	btfss	___fladd@b+3,0
  5397  0EAA  2EAC               	goto	u4821
  5398  0EAB  2EAD               	goto	u4820
  5399  0EAC                     u4821:
  5400  0EAC  2F85               	goto	l3541
  5401  0EAD                     u4820:
  5402  0EAD                     l3493:
  5403  0EAD  1C76               	btfss	___fladd@grs,0
  5404  0EAE  2EB0               	goto	u4831
  5405  0EAF  2EB1               	goto	u4830
  5406  0EB0                     u4831:
  5407  0EB0  2EBA               	goto	l3497
  5408  0EB1                     u4830:
  5409  0EB1                     l3495:
  5410  0EB1  0876               	movf	___fladd@grs,w
  5411  0EB2  00A8               	movwf	??___fladd
  5412  0EB3  1003               	clrc
  5413  0EB4  0C28               	rrf	??___fladd,w
  5414  0EB5  3801               	iorlw	1
  5415  0EB6  00A9               	movwf	??___fladd+1
  5416  0EB7  0829               	movf	??___fladd+1,w
  5417  0EB8  00F6               	movwf	___fladd@grs
  5418  0EB9  2EBC               	goto	l3499
  5419  0EBA                     l3497:
  5420  0EBA  1003               	clrc
  5421  0EBB  0CF6               	rrf	___fladd@grs,f
  5422  0EBC                     l3499:
  5423  0EBC  1C20               	btfss	___fladd@b,0
  5424  0EBD  2EBF               	goto	u4841
  5425  0EBE  2EC0               	goto	u4840
  5426  0EBF                     u4841:
  5427  0EBF  2EC1               	goto	l3503
  5428  0EC0                     u4840:
  5429  0EC0                     l3501:
  5430  0EC0  17F6               	bsf	___fladd@grs,7
  5431  0EC1                     l3503:
  5432  0EC1  3001               	movlw	1
  5433  0EC2  00A8               	movwf	??___fladd
  5434  0EC3                     u4855:
  5435  0EC3  0D23               	rlf	___fladd@b+3,w
  5436  0EC4  0CA3               	rrf	___fladd@b+3,f
  5437  0EC5  0CA2               	rrf	___fladd@b+2,f
  5438  0EC6  0CA1               	rrf	___fladd@b+1,f
  5439  0EC7  0CA0               	rrf	___fladd@b,f
  5440  0EC8  0BA8               	decfsz	??___fladd& (0+127),f
  5441  0EC9  2EC3               	goto	u4855
  5442  0ECA                     l3505:
  5443  0ECA  3001               	movlw	1
  5444  0ECB  00A8               	movwf	??___fladd
  5445  0ECC  0828               	movf	??___fladd,w
  5446  0ECD  07F5               	addwf	___fladd@bexp,f
  5447  0ECE  2F85               	goto	l3541
  5448  0ECF                     l3507:
  5449  0ECF  1283               	bcf	3,5	;RP0=0, select bank0
  5450  0ED0  1303               	bcf	3,6	;RP1=0, select bank0
  5451  0ED1  0823               	movf	___fladd@b+3,w
  5452  0ED2  3A80               	xorlw	128
  5453  0ED3  00FF               	movwf	btemp+1
  5454  0ED4  0827               	movf	___fladd@a+3,w
  5455  0ED5  3A80               	xorlw	128
  5456  0ED6  027F               	subwf	btemp+1,w
  5457  0ED7  1D03               	skipz
  5458  0ED8  2EE3               	goto	u4863
  5459  0ED9  0826               	movf	___fladd@a+2,w
  5460  0EDA  0222               	subwf	___fladd@b+2,w
  5461  0EDB  1D03               	skipz
  5462  0EDC  2EE3               	goto	u4863
  5463  0EDD  0825               	movf	___fladd@a+1,w
  5464  0EDE  0221               	subwf	___fladd@b+1,w
  5465  0EDF  1D03               	skipz
  5466  0EE0  2EE3               	goto	u4863
  5467  0EE1  0824               	movf	___fladd@a,w
  5468  0EE2  0220               	subwf	___fladd@b,w
  5469  0EE3                     u4863:
  5470  0EE3  1803               	skipnc
  5471  0EE4  2EE6               	goto	u4861
  5472  0EE5  2EE7               	goto	u4860
  5473  0EE6                     u4861:
  5474  0EE6  2F3F               	goto	l3517
  5475  0EE7                     u4860:
  5476  0EE7                     l3509:
  5477  0EE7  30FF               	movlw	255
  5478  0EE8  00A8               	movwf	??___fladd
  5479  0EE9  30FF               	movlw	255
  5480  0EEA  00A9               	movwf	??___fladd+1
  5481  0EEB  30FF               	movlw	255
  5482  0EEC  00AA               	movwf	??___fladd+2
  5483  0EED  30FF               	movlw	255
  5484  0EEE  00AB               	movwf	??___fladd+3
  5485  0EEF  0824               	movf	___fladd@a,w
  5486  0EF0  00AC               	movwf	??___fladd+4
  5487  0EF1  0825               	movf	___fladd@a+1,w
  5488  0EF2  00AD               	movwf	??___fladd+5
  5489  0EF3  0826               	movf	___fladd@a+2,w
  5490  0EF4  00AE               	movwf	??___fladd+6
  5491  0EF5  0827               	movf	___fladd@a+3,w
  5492  0EF6  00AF               	movwf	??___fladd+7
  5493  0EF7  0820               	movf	___fladd@b,w
  5494  0EF8  02AC               	subwf	??___fladd+4,f
  5495  0EF9  0821               	movf	___fladd@b+1,w
  5496  0EFA  1C03               	skipc
  5497  0EFB  0F21               	incfsz	___fladd@b+1,w
  5498  0EFC  2EFE               	goto	u4871
  5499  0EFD  2EFF               	goto	u4872
  5500  0EFE                     u4871:
  5501  0EFE  02AD               	subwf	??___fladd+5,f
  5502  0EFF                     u4872:
  5503  0EFF  0822               	movf	___fladd@b+2,w
  5504  0F00  1C03               	skipc
  5505  0F01  0F22               	incfsz	___fladd@b+2,w
  5506  0F02  2F04               	goto	u4873
  5507  0F03  2F05               	goto	u4874
  5508  0F04                     u4873:
  5509  0F04  02AE               	subwf	??___fladd+6,f
  5510  0F05                     u4874:
  5511  0F05  0823               	movf	___fladd@b+3,w
  5512  0F06  1C03               	skipc
  5513  0F07  0F23               	incfsz	___fladd@b+3,w
  5514  0F08  2F0A               	goto	u4875
  5515  0F09  2F0B               	goto	u4876
  5516  0F0A                     u4875:
  5517  0F0A  02AF               	subwf	??___fladd+7,f
  5518  0F0B                     u4876:
  5519  0F0B  082C               	movf	??___fladd+4,w
  5520  0F0C  07A8               	addwf	??___fladd,f
  5521  0F0D  082D               	movf	??___fladd+5,w
  5522  0F0E  1803               	skipnc
  5523  0F0F  0F2D               	incfsz	??___fladd+5,w
  5524  0F10  2F12               	goto	u4880
  5525  0F11  2F13               	goto	u4881
  5526  0F12                     u4880:
  5527  0F12  07A9               	addwf	??___fladd+1,f
  5528  0F13                     u4881:
  5529  0F13  082E               	movf	??___fladd+6,w
  5530  0F14  1803               	skipnc
  5531  0F15  0F2E               	incfsz	??___fladd+6,w
  5532  0F16  2F18               	goto	u4882
  5533  0F17  2F19               	goto	u4883
  5534  0F18                     u4882:
  5535  0F18  07AA               	addwf	??___fladd+2,f
  5536  0F19                     u4883:
  5537  0F19  082F               	movf	??___fladd+7,w
  5538  0F1A  1803               	skipnc
  5539  0F1B  0A2F               	incf	??___fladd+7,w
  5540  0F1C  07AB               	addwf	??___fladd+3,f
  5541  0F1D  082B               	movf	??___fladd+3,w
  5542  0F1E  00A3               	movwf	___fladd@b+3
  5543  0F1F  082A               	movf	??___fladd+2,w
  5544  0F20  00A2               	movwf	___fladd@b+2
  5545  0F21  0829               	movf	??___fladd+1,w
  5546  0F22  00A1               	movwf	___fladd@b+1
  5547  0F23  0828               	movf	??___fladd,w
  5548  0F24  00A0               	movwf	___fladd@b
  5549  0F25                     l3511:
  5550  0F25  3080               	movlw	128
  5551  0F26  00A8               	movwf	??___fladd
  5552  0F27  0828               	movf	??___fladd,w
  5553  0F28  06F3               	xorwf	___fladd@signs,f
  5554  0F29  09F6               	comf	___fladd@grs,f
  5555  0F2A  0AF6               	incf	___fladd@grs,f
  5556  0F2B                     l3513:
  5557  0F2B  0876               	movf	___fladd@grs,w
  5558  0F2C  1D03               	btfss	3,2
  5559  0F2D  2F2F               	goto	u4891
  5560  0F2E  2F30               	goto	u4890
  5561  0F2F                     u4891:
  5562  0F2F  2F4D               	goto	l622
  5563  0F30                     u4890:
  5564  0F30                     l3515:
  5565  0F30  3001               	movlw	1
  5566  0F31  07A0               	addwf	___fladd@b,f
  5567  0F32  3000               	movlw	0
  5568  0F33  1803               	skipnc
  5569  0F34  3001               	movlw	1
  5570  0F35  07A1               	addwf	___fladd@b+1,f
  5571  0F36  3000               	movlw	0
  5572  0F37  1803               	skipnc
  5573  0F38  3001               	movlw	1
  5574  0F39  07A2               	addwf	___fladd@b+2,f
  5575  0F3A  3000               	movlw	0
  5576  0F3B  1803               	skipnc
  5577  0F3C  3001               	movlw	1
  5578  0F3D  07A3               	addwf	___fladd@b+3,f
  5579  0F3E  2F4D               	goto	l622
  5580  0F3F                     l3517:
  5581  0F3F  0824               	movf	___fladd@a,w
  5582  0F40  02A0               	subwf	___fladd@b,f
  5583  0F41  0825               	movf	___fladd@a+1,w
  5584  0F42  1C03               	skipc
  5585  0F43  0F25               	incfsz	___fladd@a+1,w
  5586  0F44  02A1               	subwf	___fladd@b+1,f
  5587  0F45  0826               	movf	___fladd@a+2,w
  5588  0F46  1C03               	skipc
  5589  0F47  0F26               	incfsz	___fladd@a+2,w
  5590  0F48  02A2               	subwf	___fladd@b+2,f
  5591  0F49  0827               	movf	___fladd@a+3,w
  5592  0F4A  1C03               	skipc
  5593  0F4B  0F27               	incfsz	___fladd@a+3,w
  5594  0F4C  02A3               	subwf	___fladd@b+3,f
  5595  0F4D                     l622:
  5596  0F4D  0823               	movf	___fladd@b+3,w
  5597  0F4E  0422               	iorwf	___fladd@b+2,w
  5598  0F4F  0421               	iorwf	___fladd@b+1,w
  5599  0F50  0420               	iorwf	___fladd@b,w
  5600  0F51  1D03               	skipz
  5601  0F52  2F54               	goto	u4901
  5602  0F53  2F55               	goto	u4900
  5603  0F54                     u4901:
  5604  0F54  2F81               	goto	l3539
  5605  0F55                     u4900:
  5606  0F55                     l3519:
  5607  0F55  0876               	movf	___fladd@grs,w
  5608  0F56  1D03               	btfss	3,2
  5609  0F57  2F59               	goto	u4911
  5610  0F58  2F5A               	goto	u4910
  5611  0F59                     u4911:
  5612  0F59  2F81               	goto	l3539
  5613  0F5A                     u4910:
  5614  0F5A                     l3521:
  5615  0F5A  3000               	movlw	0
  5616  0F5B  00A3               	movwf	?___fladd+3
  5617  0F5C  3000               	movlw	0
  5618  0F5D  00A2               	movwf	?___fladd+2
  5619  0F5E  3000               	movlw	0
  5620  0F5F  00A1               	movwf	?___fladd+1
  5621  0F60  3000               	movlw	0
  5622  0F61  00A0               	movwf	?___fladd
  5623  0F62  2FFF               	goto	l614
  5624  0F63                     l3525:
  5625  0F63  3001               	movlw	1
  5626  0F64  00A8               	movwf	??___fladd
  5627  0F65                     u4925:
  5628  0F65  1003               	clrc
  5629  0F66  0DA0               	rlf	___fladd@b,f
  5630  0F67  0DA1               	rlf	___fladd@b+1,f
  5631  0F68  0DA2               	rlf	___fladd@b+2,f
  5632  0F69  0DA3               	rlf	___fladd@b+3,f
  5633  0F6A  0BA8               	decfsz	??___fladd,f
  5634  0F6B  2F65               	goto	u4925
  5635  0F6C                     l3527:
  5636  0F6C  1FF6               	btfss	___fladd@grs,7
  5637  0F6D  2F6F               	goto	u4931
  5638  0F6E  2F70               	goto	u4930
  5639  0F6F                     u4931:
  5640  0F6F  2F71               	goto	l626
  5641  0F70                     u4930:
  5642  0F70                     l3529:
  5643  0F70  1420               	bsf	___fladd@b,0
  5644  0F71                     l626:
  5645  0F71  1C76               	btfss	___fladd@grs,0
  5646  0F72  2F74               	goto	u4941
  5647  0F73  2F75               	goto	u4940
  5648  0F74                     u4941:
  5649  0F74  2F78               	goto	l3533
  5650  0F75                     u4940:
  5651  0F75                     l3531:
  5652  0F75  1403               	setc
  5653  0F76  0DF6               	rlf	___fladd@grs,f
  5654  0F77  2F7A               	goto	l3535
  5655  0F78                     l3533:
  5656  0F78  1003               	clrc
  5657  0F79  0DF6               	rlf	___fladd@grs,f
  5658  0F7A                     l3535:
  5659  0F7A  0875               	movf	___fladd@bexp,w
  5660  0F7B  1903               	btfsc	3,2
  5661  0F7C  2F7E               	goto	u4951
  5662  0F7D  2F7F               	goto	u4950
  5663  0F7E                     u4951:
  5664  0F7E  2F81               	goto	l3539
  5665  0F7F                     u4950:
  5666  0F7F                     l3537:
  5667  0F7F  3001               	movlw	1
  5668  0F80  02F5               	subwf	___fladd@bexp,f
  5669  0F81                     l3539:
  5670  0F81  1FA2               	btfss	___fladd@b+2,7
  5671  0F82  2F84               	goto	u4961
  5672  0F83  2F85               	goto	u4960
  5673  0F84                     u4961:
  5674  0F84  2F63               	goto	l3525
  5675  0F85                     u4960:
  5676  0F85                     l3541:
  5677  0F85  01F4               	clrf	___fladd@aexp
  5678  0F86                     l3543:
  5679  0F86  1FF6               	btfss	___fladd@grs,7
  5680  0F87  2F89               	goto	u4971
  5681  0F88  2F8A               	goto	u4970
  5682  0F89                     u4971:
  5683  0F89  2F98               	goto	l3551
  5684  0F8A                     u4970:
  5685  0F8A                     l3545:
  5686  0F8A  0876               	movf	___fladd@grs,w
  5687  0F8B  397F               	andlw	127
  5688  0F8C  1903               	btfsc	3,2
  5689  0F8D  2F8F               	goto	u4981
  5690  0F8E  2F90               	goto	u4980
  5691  0F8F                     u4981:
  5692  0F8F  2F93               	goto	l632
  5693  0F90                     u4980:
  5694  0F90                     l3547:
  5695  0F90  01F4               	clrf	___fladd@aexp
  5696  0F91  0AF4               	incf	___fladd@aexp,f
  5697  0F92  2F98               	goto	l3551
  5698  0F93                     l632:
  5699  0F93  1C20               	btfss	___fladd@b,0
  5700  0F94  2F96               	goto	u4991
  5701  0F95  2F97               	goto	u4990
  5702  0F96                     u4991:
  5703  0F96  2F98               	goto	l3551
  5704  0F97                     u4990:
  5705  0F97  2F90               	goto	l3547
  5706  0F98                     l3551:
  5707  0F98  0874               	movf	___fladd@aexp,w
  5708  0F99  1903               	btfsc	3,2
  5709  0F9A  2F9C               	goto	u5001
  5710  0F9B  2F9D               	goto	u5000
  5711  0F9C                     u5001:
  5712  0F9C  2FD1               	goto	l635
  5713  0F9D                     u5000:
  5714  0F9D                     l3553:
  5715  0F9D  3001               	movlw	1
  5716  0F9E  07A0               	addwf	___fladd@b,f
  5717  0F9F  3000               	movlw	0
  5718  0FA0  1803               	skipnc
  5719  0FA1  3001               	movlw	1
  5720  0FA2  07A1               	addwf	___fladd@b+1,f
  5721  0FA3  3000               	movlw	0
  5722  0FA4  1803               	skipnc
  5723  0FA5  3001               	movlw	1
  5724  0FA6  07A2               	addwf	___fladd@b+2,f
  5725  0FA7  3000               	movlw	0
  5726  0FA8  1803               	skipnc
  5727  0FA9  3001               	movlw	1
  5728  0FAA  07A3               	addwf	___fladd@b+3,f
  5729  0FAB                     l3555:
  5730  0FAB  1C23               	btfss	___fladd@b+3,0
  5731  0FAC  2FAE               	goto	u5011
  5732  0FAD  2FAF               	goto	u5010
  5733  0FAE                     u5011:
  5734  0FAE  2FD1               	goto	l635
  5735  0FAF                     u5010:
  5736  0FAF                     l3557:
  5737  0FAF  0820               	movf	___fladd@b,w
  5738  0FB0  00A8               	movwf	??___fladd
  5739  0FB1  0821               	movf	___fladd@b+1,w
  5740  0FB2  00A9               	movwf	??___fladd+1
  5741  0FB3  0822               	movf	___fladd@b+2,w
  5742  0FB4  00AA               	movwf	??___fladd+2
  5743  0FB5  0823               	movf	___fladd@b+3,w
  5744  0FB6  00AB               	movwf	??___fladd+3
  5745  0FB7  3001               	movlw	1
  5746  0FB8  00AC               	movwf	??___fladd+4
  5747  0FB9                     u5025:
  5748  0FB9  0D2B               	rlf	??___fladd+3,w
  5749  0FBA  0CAB               	rrf	??___fladd+3,f
  5750  0FBB  0CAA               	rrf	??___fladd+2,f
  5751  0FBC  0CA9               	rrf	??___fladd+1,f
  5752  0FBD  0CA8               	rrf	??___fladd,f
  5753  0FBE                     u5020:
  5754  0FBE  0BAC               	decfsz	??___fladd+4,f
  5755  0FBF  2FB9               	goto	u5025
  5756  0FC0  082B               	movf	??___fladd+3,w
  5757  0FC1  00A3               	movwf	___fladd@b+3
  5758  0FC2  082A               	movf	??___fladd+2,w
  5759  0FC3  00A2               	movwf	___fladd@b+2
  5760  0FC4  0829               	movf	??___fladd+1,w
  5761  0FC5  00A1               	movwf	___fladd@b+1
  5762  0FC6  0828               	movf	??___fladd,w
  5763  0FC7  00A0               	movwf	___fladd@b
  5764  0FC8  0A75               	incf	___fladd@bexp,w
  5765  0FC9  1903               	btfsc	3,2
  5766  0FCA  2FCC               	goto	u5031
  5767  0FCB  2FCD               	goto	u5030
  5768  0FCC                     u5031:
  5769  0FCC  2FD1               	goto	l635
  5770  0FCD                     u5030:
  5771  0FCD                     l3559:
  5772  0FCD  3001               	movlw	1
  5773  0FCE  00A8               	movwf	??___fladd
  5774  0FCF  0828               	movf	??___fladd,w
  5775  0FD0  07F5               	addwf	___fladd@bexp,f
  5776  0FD1                     l635:
  5777  0FD1  0A75               	incf	___fladd@bexp,w
  5778  0FD2  1903               	btfsc	3,2
  5779  0FD3  2FD5               	goto	u5041
  5780  0FD4  2FD6               	goto	u5040
  5781  0FD5                     u5041:
  5782  0FD5  2FDB               	goto	l3563
  5783  0FD6                     u5040:
  5784  0FD6                     l3561:
  5785  0FD6  0875               	movf	___fladd@bexp,w
  5786  0FD7  1D03               	btfss	3,2
  5787  0FD8  2FDA               	goto	u5051
  5788  0FD9  2FDB               	goto	u5050
  5789  0FDA                     u5051:
  5790  0FDA  2FE9               	goto	l3569
  5791  0FDB                     u5050:
  5792  0FDB                     l3563:
  5793  0FDB  3000               	movlw	0
  5794  0FDC  00A3               	movwf	___fladd@b+3
  5795  0FDD  3000               	movlw	0
  5796  0FDE  00A2               	movwf	___fladd@b+2
  5797  0FDF  3000               	movlw	0
  5798  0FE0  00A1               	movwf	___fladd@b+1
  5799  0FE1  3000               	movlw	0
  5800  0FE2  00A0               	movwf	___fladd@b
  5801  0FE3                     l3565:
  5802  0FE3  0875               	movf	___fladd@bexp,w
  5803  0FE4  1D03               	btfss	3,2
  5804  0FE5  2FE7               	goto	u5061
  5805  0FE6  2FE8               	goto	u5060
  5806  0FE7                     u5061:
  5807  0FE7  2FE9               	goto	l3569
  5808  0FE8                     u5060:
  5809  0FE8                     l3567:
  5810  0FE8  01F3               	clrf	___fladd@signs
  5811  0FE9                     l3569:
  5812  0FE9  1C75               	btfss	___fladd@bexp,0
  5813  0FEA  2FEC               	goto	u5071
  5814  0FEB  2FED               	goto	u5070
  5815  0FEC                     u5071:
  5816  0FEC  2FEF               	goto	l3573
  5817  0FED                     u5070:
  5818  0FED                     l3571:
  5819  0FED  17A2               	bsf	___fladd@b+2,7
  5820  0FEE  2FF3               	goto	l643
  5821  0FEF                     l3573:
  5822  0FEF  307F               	movlw	127
  5823  0FF0  00A8               	movwf	??___fladd
  5824  0FF1  0828               	movf	??___fladd,w
  5825  0FF2  05A2               	andwf	___fladd@b+2,f
  5826  0FF3                     l643:
  5827  0FF3  0875               	movf	___fladd@bexp,w
  5828  0FF4  00A8               	movwf	??___fladd
  5829  0FF5  1003               	clrc
  5830  0FF6  0C28               	rrf	??___fladd,w
  5831  0FF7  00A9               	movwf	??___fladd+1
  5832  0FF8  0829               	movf	??___fladd+1,w
  5833  0FF9  00A3               	movwf	___fladd@b+3
  5834  0FFA                     l3575:
  5835  0FFA  1FF3               	btfss	___fladd@signs,7
  5836  0FFB  2FFD               	goto	u5081
  5837  0FFC  2FFE               	goto	u5080
  5838  0FFD                     u5081:
  5839  0FFD  2FFF               	goto	l644
  5840  0FFE                     u5080:
  5841  0FFE                     l3577:
  5842  0FFE  17A3               	bsf	___fladd@b+3,7
  5843  0FFF                     l644:
  5844  0FFF                     l614:
  5845  0FFF  0008               	return
  5846  1000                     __end_of___fladd:
  5847                           
  5848                           	psect	text19
  5849  0423                     __ptext19:	
  5850 ;; *************** function ___flmul *****************
  5851 ;; Defined at:
  5852 ;;		line 8 in file "C:\Program Files\Microchip\xc8\v2.31\pic\sources\c90\common\sprcmul.c"
  5853 ;; Parameters:    Size  Location     Type
  5854 ;;  b               4   35[BANK0 ] unsigned char 
  5855 ;;  a               4   39[BANK0 ] unsigned char 
  5856 ;; Auto vars:     Size  Location     Type
  5857 ;;  prod            4   55[BANK0 ] struct .
  5858 ;;  grs             4   50[BANK0 ] unsigned long 
  5859 ;;  temp            2   59[BANK0 ] struct .
  5860 ;;  bexp            1   54[BANK0 ] unsigned char 
  5861 ;;  aexp            1   49[BANK0 ] unsigned char 
  5862 ;;  sign            1   48[BANK0 ] unsigned char 
  5863 ;; Return value:  Size  Location     Type
  5864 ;;                  4   35[BANK0 ] unsigned char 
  5865 ;; Registers used:
  5866 ;;		wreg, status,2, status,0, btemp+1, pclath, cstack
  5867 ;; Tracked objects:
  5868 ;;		On entry : 0/0
  5869 ;;		On exit  : 0/0
  5870 ;;		Unchanged: 0/0
  5871 ;; Data sizes:     COMMON   BANK0   BANK1   BANK3   BANK2
  5872 ;;      Params:         0       8       0       0       0
  5873 ;;      Locals:         0      13       0       0       0
  5874 ;;      Temps:          0       5       0       0       0
  5875 ;;      Totals:         0      26       0       0       0
  5876 ;;Total ram usage:       26 bytes
  5877 ;; Hardware stack levels used:    1
  5878 ;; Hardware stack levels required when called:    2
  5879 ;; This function calls:
  5880 ;;		__Umul8_16
  5881 ;; This function is called by:
  5882 ;;		_convert
  5883 ;; This function uses a non-reentrant model
  5884 ;;
  5885                           
  5886                           
  5887                           ;psect for function ___flmul
  5888  0423                     ___flmul:
  5889  0423                     l3861:	
  5890                           ;incstack = 0
  5891                           ; Regs used in ___flmul: [wreg+status,2+status,0+btemp+1+pclath+cstack]
  5892                           
  5893  0423  1283               	bcf	3,5	;RP0=0, select bank0
  5894  0424  1303               	bcf	3,6	;RP1=0, select bank0
  5895  0425  0846               	movf	___flmul@b+3,w
  5896  0426  3980               	andlw	128
  5897  0427  00CB               	movwf	??___flmul
  5898  0428  084B               	movf	??___flmul,w
  5899  0429  00D0               	movwf	___flmul@sign
  5900  042A                     l3863:
  5901  042A  0846               	movf	___flmul@b+3,w
  5902  042B  00CB               	movwf	??___flmul
  5903  042C  074B               	addwf	??___flmul,w
  5904  042D  00CC               	movwf	??___flmul+1
  5905  042E  084C               	movf	??___flmul+1,w
  5906  042F  00D6               	movwf	___flmul@bexp
  5907  0430                     l3865:
  5908  0430  1FC5               	btfss	___flmul@b+2,7
  5909  0431  2C33               	goto	u5681
  5910  0432  2C34               	goto	u5680
  5911  0433                     u5681:
  5912  0433  2C35               	goto	l3869
  5913  0434                     u5680:
  5914  0434                     l3867:
  5915  0434  1456               	bsf	___flmul@bexp,0
  5916  0435                     l3869:
  5917  0435  0856               	movf	___flmul@bexp,w
  5918  0436  1903               	btfsc	3,2
  5919  0437  2C39               	goto	u5691
  5920  0438  2C3A               	goto	u5690
  5921  0439                     u5691:
  5922  0439  2C49               	goto	l3877
  5923  043A                     u5690:
  5924  043A                     l3871:
  5925  043A  0A56               	incf	___flmul@bexp,w
  5926  043B  1D03               	btfss	3,2
  5927  043C  2C3E               	goto	u5701
  5928  043D  2C3F               	goto	u5700
  5929  043E                     u5701:
  5930  043E  2C47               	goto	l3875
  5931  043F                     u5700:
  5932  043F                     l3873:
  5933  043F  3000               	movlw	0
  5934  0440  00C6               	movwf	___flmul@b+3
  5935  0441  3000               	movlw	0
  5936  0442  00C5               	movwf	___flmul@b+2
  5937  0443  3000               	movlw	0
  5938  0444  00C4               	movwf	___flmul@b+1
  5939  0445  3000               	movlw	0
  5940  0446  00C3               	movwf	___flmul@b
  5941  0447                     l3875:
  5942  0447  17C5               	bsf	___flmul@b+2,7
  5943  0448  2C51               	goto	l3879
  5944  0449                     l3877:
  5945  0449  3000               	movlw	0
  5946  044A  00C6               	movwf	___flmul@b+3
  5947  044B  3000               	movlw	0
  5948  044C  00C5               	movwf	___flmul@b+2
  5949  044D  3000               	movlw	0
  5950  044E  00C4               	movwf	___flmul@b+1
  5951  044F  3000               	movlw	0
  5952  0450  00C3               	movwf	___flmul@b
  5953  0451                     l3879:
  5954  0451  084A               	movf	___flmul@a+3,w
  5955  0452  3980               	andlw	128
  5956  0453  00CB               	movwf	??___flmul
  5957  0454  084B               	movf	??___flmul,w
  5958  0455  06D0               	xorwf	___flmul@sign,f
  5959  0456                     l3881:
  5960  0456  084A               	movf	___flmul@a+3,w
  5961  0457  00CB               	movwf	??___flmul
  5962  0458  074B               	addwf	??___flmul,w
  5963  0459  00CC               	movwf	??___flmul+1
  5964  045A  084C               	movf	??___flmul+1,w
  5965  045B  00D1               	movwf	___flmul@aexp
  5966  045C                     l3883:
  5967  045C  1FC9               	btfss	___flmul@a+2,7
  5968  045D  2C5F               	goto	u5711
  5969  045E  2C60               	goto	u5710
  5970  045F                     u5711:
  5971  045F  2C61               	goto	l3887
  5972  0460                     u5710:
  5973  0460                     l3885:
  5974  0460  1451               	bsf	___flmul@aexp,0
  5975  0461                     l3887:
  5976  0461  0851               	movf	___flmul@aexp,w
  5977  0462  1903               	btfsc	3,2
  5978  0463  2C65               	goto	u5721
  5979  0464  2C66               	goto	u5720
  5980  0465                     u5721:
  5981  0465  2C75               	goto	l3895
  5982  0466                     u5720:
  5983  0466                     l3889:
  5984  0466  0A51               	incf	___flmul@aexp,w
  5985  0467  1D03               	btfss	3,2
  5986  0468  2C6A               	goto	u5731
  5987  0469  2C6B               	goto	u5730
  5988  046A                     u5731:
  5989  046A  2C73               	goto	l3893
  5990  046B                     u5730:
  5991  046B                     l3891:
  5992  046B  3000               	movlw	0
  5993  046C  00CA               	movwf	___flmul@a+3
  5994  046D  3000               	movlw	0
  5995  046E  00C9               	movwf	___flmul@a+2
  5996  046F  3000               	movlw	0
  5997  0470  00C8               	movwf	___flmul@a+1
  5998  0471  3000               	movlw	0
  5999  0472  00C7               	movwf	___flmul@a
  6000  0473                     l3893:
  6001  0473  17C9               	bsf	___flmul@a+2,7
  6002  0474  2C7D               	goto	l3897
  6003  0475                     l3895:
  6004  0475  3000               	movlw	0
  6005  0476  00CA               	movwf	___flmul@a+3
  6006  0477  3000               	movlw	0
  6007  0478  00C9               	movwf	___flmul@a+2
  6008  0479  3000               	movlw	0
  6009  047A  00C8               	movwf	___flmul@a+1
  6010  047B  3000               	movlw	0
  6011  047C  00C7               	movwf	___flmul@a
  6012  047D                     l3897:
  6013  047D  0851               	movf	___flmul@aexp,w
  6014  047E  1903               	btfsc	3,2
  6015  047F  2C81               	goto	u5741
  6016  0480  2C82               	goto	u5740
  6017  0481                     u5741:
  6018  0481  2C87               	goto	l3901
  6019  0482                     u5740:
  6020  0482                     l3899:
  6021  0482  0856               	movf	___flmul@bexp,w
  6022  0483  1D03               	btfss	3,2
  6023  0484  2C86               	goto	u5751
  6024  0485  2C87               	goto	u5750
  6025  0486                     u5751:
  6026  0486  2C90               	goto	l3905
  6027  0487                     u5750:
  6028  0487                     l3901:
  6029  0487  3000               	movlw	0
  6030  0488  00C6               	movwf	?___flmul+3
  6031  0489  3000               	movlw	0
  6032  048A  00C5               	movwf	?___flmul+2
  6033  048B  3000               	movlw	0
  6034  048C  00C4               	movwf	?___flmul+1
  6035  048D  3000               	movlw	0
  6036  048E  00C3               	movwf	?___flmul
  6037  048F  2F83               	goto	l697
  6038  0490                     l3905:
  6039  0490  0843               	movf	___flmul@b,w
  6040  0491  00CB               	movwf	??___flmul
  6041  0492  084B               	movf	??___flmul,w
  6042  0493  00F3               	movwf	__Umul8_16@multiplicand
  6043  0494  0849               	movf	___flmul@a+2,w
  6044  0495  160A  118A  24D6  120A  118A  	fcall	__Umul8_16
  6045  049A  0874               	movf	?__Umul8_16+1,w
  6046  049B  1283               	bcf	3,5	;RP0=0, select bank0
  6047  049C  1303               	bcf	3,6	;RP1=0, select bank0
  6048  049D  00DC               	movwf	___flmul@temp+1
  6049  049E  0873               	movf	?__Umul8_16,w
  6050  049F  00DB               	movwf	___flmul@temp
  6051  04A0                     l3907:
  6052  04A0  085B               	movf	___flmul@temp,w
  6053  04A1  00CB               	movwf	??___flmul
  6054  04A2  01CC               	clrf	??___flmul+1
  6055  04A3  01CD               	clrf	??___flmul+2
  6056  04A4  01CE               	clrf	??___flmul+3
  6057  04A5  084E               	movf	??___flmul+3,w
  6058  04A6  00D5               	movwf	___flmul@grs+3
  6059  04A7  084D               	movf	??___flmul+2,w
  6060  04A8  00D4               	movwf	___flmul@grs+2
  6061  04A9  084C               	movf	??___flmul+1,w
  6062  04AA  00D3               	movwf	___flmul@grs+1
  6063  04AB  084B               	movf	??___flmul,w
  6064  04AC  00D2               	movwf	___flmul@grs
  6065  04AD                     l3909:
  6066  04AD  085C               	movf	___flmul@temp+1,w
  6067  04AE  00CB               	movwf	??___flmul
  6068  04AF  01CC               	clrf	??___flmul+1
  6069  04B0  01CD               	clrf	??___flmul+2
  6070  04B1  01CE               	clrf	??___flmul+3
  6071  04B2  084E               	movf	??___flmul+3,w
  6072  04B3  00DA               	movwf	___flmul@prod+3
  6073  04B4  084D               	movf	??___flmul+2,w
  6074  04B5  00D9               	movwf	___flmul@prod+2
  6075  04B6  084C               	movf	??___flmul+1,w
  6076  04B7  00D8               	movwf	___flmul@prod+1
  6077  04B8  084B               	movf	??___flmul,w
  6078  04B9  00D7               	movwf	___flmul@prod
  6079  04BA  0844               	movf	___flmul@b+1,w
  6080  04BB  00CB               	movwf	??___flmul
  6081  04BC  084B               	movf	??___flmul,w
  6082  04BD  00F3               	movwf	__Umul8_16@multiplicand
  6083  04BE  0848               	movf	___flmul@a+1,w
  6084  04BF  160A  118A  24D6  120A  118A  	fcall	__Umul8_16
  6085  04C4  0874               	movf	?__Umul8_16+1,w
  6086  04C5  1283               	bcf	3,5	;RP0=0, select bank0
  6087  04C6  1303               	bcf	3,6	;RP1=0, select bank0
  6088  04C7  00DC               	movwf	___flmul@temp+1
  6089  04C8  0873               	movf	?__Umul8_16,w
  6090  04C9  00DB               	movwf	___flmul@temp
  6091  04CA                     l3911:
  6092  04CA  085B               	movf	___flmul@temp,w
  6093  04CB  00CB               	movwf	??___flmul
  6094  04CC  01CC               	clrf	??___flmul+1
  6095  04CD  01CD               	clrf	??___flmul+2
  6096  04CE  01CE               	clrf	??___flmul+3
  6097  04CF  084B               	movf	??___flmul,w
  6098  04D0  07D2               	addwf	___flmul@grs,f
  6099  04D1  084C               	movf	??___flmul+1,w
  6100  04D2  1103               	clrz
  6101  04D3  1803               	skipnc
  6102  04D4  3E01               	addlw	1
  6103  04D5  1903               	skipnz
  6104  04D6  2CD8               	goto	u5761
  6105  04D7  07D3               	addwf	___flmul@grs+1,f
  6106  04D8                     u5761:
  6107  04D8  084D               	movf	??___flmul+2,w
  6108  04D9  1103               	clrz
  6109  04DA  1803               	skipnc
  6110  04DB  3E01               	addlw	1
  6111  04DC  1903               	skipnz
  6112  04DD  2CDF               	goto	u5762
  6113  04DE  07D4               	addwf	___flmul@grs+2,f
  6114  04DF                     u5762:
  6115  04DF  084E               	movf	??___flmul+3,w
  6116  04E0  1103               	clrz
  6117  04E1  1803               	skipnc
  6118  04E2  3E01               	addlw	1
  6119  04E3  1903               	skipnz
  6120  04E4  2CE6               	goto	u5763
  6121  04E5  07D5               	addwf	___flmul@grs+3,f
  6122  04E6                     u5763:
  6123  04E6                     l3913:
  6124  04E6  085C               	movf	___flmul@temp+1,w
  6125  04E7  00CB               	movwf	??___flmul
  6126  04E8  01CC               	clrf	??___flmul+1
  6127  04E9  01CD               	clrf	??___flmul+2
  6128  04EA  01CE               	clrf	??___flmul+3
  6129  04EB  084B               	movf	??___flmul,w
  6130  04EC  07D7               	addwf	___flmul@prod,f
  6131  04ED  084C               	movf	??___flmul+1,w
  6132  04EE  1103               	clrz
  6133  04EF  1803               	skipnc
  6134  04F0  3E01               	addlw	1
  6135  04F1  1903               	skipnz
  6136  04F2  2CF4               	goto	u5771
  6137  04F3  07D8               	addwf	___flmul@prod+1,f
  6138  04F4                     u5771:
  6139  04F4  084D               	movf	??___flmul+2,w
  6140  04F5  1103               	clrz
  6141  04F6  1803               	skipnc
  6142  04F7  3E01               	addlw	1
  6143  04F8  1903               	skipnz
  6144  04F9  2CFB               	goto	u5772
  6145  04FA  07D9               	addwf	___flmul@prod+2,f
  6146  04FB                     u5772:
  6147  04FB  084E               	movf	??___flmul+3,w
  6148  04FC  1103               	clrz
  6149  04FD  1803               	skipnc
  6150  04FE  3E01               	addlw	1
  6151  04FF  1903               	skipnz
  6152  0500  2D02               	goto	u5773
  6153  0501  07DA               	addwf	___flmul@prod+3,f
  6154  0502                     u5773:
  6155  0502  0845               	movf	___flmul@b+2,w
  6156  0503  00CB               	movwf	??___flmul
  6157  0504  084B               	movf	??___flmul,w
  6158  0505  00F3               	movwf	__Umul8_16@multiplicand
  6159  0506  0847               	movf	___flmul@a,w
  6160  0507  160A  118A  24D6  120A  118A  	fcall	__Umul8_16
  6161  050C  0874               	movf	?__Umul8_16+1,w
  6162  050D  1283               	bcf	3,5	;RP0=0, select bank0
  6163  050E  1303               	bcf	3,6	;RP1=0, select bank0
  6164  050F  00DC               	movwf	___flmul@temp+1
  6165  0510  0873               	movf	?__Umul8_16,w
  6166  0511  00DB               	movwf	___flmul@temp
  6167  0512                     l3915:
  6168  0512  085B               	movf	___flmul@temp,w
  6169  0513  00CB               	movwf	??___flmul
  6170  0514  01CC               	clrf	??___flmul+1
  6171  0515  01CD               	clrf	??___flmul+2
  6172  0516  01CE               	clrf	??___flmul+3
  6173  0517  084B               	movf	??___flmul,w
  6174  0518  07D2               	addwf	___flmul@grs,f
  6175  0519  084C               	movf	??___flmul+1,w
  6176  051A  1103               	clrz
  6177  051B  1803               	skipnc
  6178  051C  3E01               	addlw	1
  6179  051D  1903               	skipnz
  6180  051E  2D20               	goto	u5781
  6181  051F  07D3               	addwf	___flmul@grs+1,f
  6182  0520                     u5781:
  6183  0520  084D               	movf	??___flmul+2,w
  6184  0521  1103               	clrz
  6185  0522  1803               	skipnc
  6186  0523  3E01               	addlw	1
  6187  0524  1903               	skipnz
  6188  0525  2D27               	goto	u5782
  6189  0526  07D4               	addwf	___flmul@grs+2,f
  6190  0527                     u5782:
  6191  0527  084E               	movf	??___flmul+3,w
  6192  0528  1103               	clrz
  6193  0529  1803               	skipnc
  6194  052A  3E01               	addlw	1
  6195  052B  1903               	skipnz
  6196  052C  2D2E               	goto	u5783
  6197  052D  07D5               	addwf	___flmul@grs+3,f
  6198  052E                     u5783:
  6199  052E                     l3917:
  6200  052E  085C               	movf	___flmul@temp+1,w
  6201  052F  00CB               	movwf	??___flmul
  6202  0530  01CC               	clrf	??___flmul+1
  6203  0531  01CD               	clrf	??___flmul+2
  6204  0532  01CE               	clrf	??___flmul+3
  6205  0533  084B               	movf	??___flmul,w
  6206  0534  07D7               	addwf	___flmul@prod,f
  6207  0535  084C               	movf	??___flmul+1,w
  6208  0536  1103               	clrz
  6209  0537  1803               	skipnc
  6210  0538  3E01               	addlw	1
  6211  0539  1903               	skipnz
  6212  053A  2D3C               	goto	u5791
  6213  053B  07D8               	addwf	___flmul@prod+1,f
  6214  053C                     u5791:
  6215  053C  084D               	movf	??___flmul+2,w
  6216  053D  1103               	clrz
  6217  053E  1803               	skipnc
  6218  053F  3E01               	addlw	1
  6219  0540  1903               	skipnz
  6220  0541  2D43               	goto	u5792
  6221  0542  07D9               	addwf	___flmul@prod+2,f
  6222  0543                     u5792:
  6223  0543  084E               	movf	??___flmul+3,w
  6224  0544  1103               	clrz
  6225  0545  1803               	skipnc
  6226  0546  3E01               	addlw	1
  6227  0547  1903               	skipnz
  6228  0548  2D4A               	goto	u5793
  6229  0549  07DA               	addwf	___flmul@prod+3,f
  6230  054A                     u5793:
  6231  054A                     l3919:
  6232  054A  3008               	movlw	8
  6233  054B  00CB               	movwf	??___flmul
  6234  054C                     u5805:
  6235  054C  1003               	clrc
  6236  054D  0DD2               	rlf	___flmul@grs,f
  6237  054E  0DD3               	rlf	___flmul@grs+1,f
  6238  054F  0DD4               	rlf	___flmul@grs+2,f
  6239  0550  0DD5               	rlf	___flmul@grs+3,f
  6240  0551  0BCB               	decfsz	??___flmul,f
  6241  0552  2D4C               	goto	u5805
  6242  0553                     l3921:
  6243  0553  0844               	movf	___flmul@b+1,w
  6244  0554  00CB               	movwf	??___flmul
  6245  0555  084B               	movf	??___flmul,w
  6246  0556  00F3               	movwf	__Umul8_16@multiplicand
  6247  0557  0847               	movf	___flmul@a,w
  6248  0558  160A  118A  24D6  120A  118A  	fcall	__Umul8_16
  6249  055D  0874               	movf	?__Umul8_16+1,w
  6250  055E  1283               	bcf	3,5	;RP0=0, select bank0
  6251  055F  1303               	bcf	3,6	;RP1=0, select bank0
  6252  0560  00DC               	movwf	___flmul@temp+1
  6253  0561  0873               	movf	?__Umul8_16,w
  6254  0562  00DB               	movwf	___flmul@temp
  6255  0563                     l3923:
  6256  0563  085B               	movf	___flmul@temp,w
  6257  0564  00CB               	movwf	??___flmul
  6258  0565  085C               	movf	___flmul@temp+1,w
  6259  0566  00CC               	movwf	??___flmul+1
  6260  0567  01CD               	clrf	??___flmul+2
  6261  0568  01CE               	clrf	??___flmul+3
  6262  0569  084B               	movf	??___flmul,w
  6263  056A  07D2               	addwf	___flmul@grs,f
  6264  056B  084C               	movf	??___flmul+1,w
  6265  056C  1103               	clrz
  6266  056D  1803               	skipnc
  6267  056E  3E01               	addlw	1
  6268  056F  1903               	skipnz
  6269  0570  2D72               	goto	u5811
  6270  0571  07D3               	addwf	___flmul@grs+1,f
  6271  0572                     u5811:
  6272  0572  084D               	movf	??___flmul+2,w
  6273  0573  1103               	clrz
  6274  0574  1803               	skipnc
  6275  0575  3E01               	addlw	1
  6276  0576  1903               	skipnz
  6277  0577  2D79               	goto	u5812
  6278  0578  07D4               	addwf	___flmul@grs+2,f
  6279  0579                     u5812:
  6280  0579  084E               	movf	??___flmul+3,w
  6281  057A  1103               	clrz
  6282  057B  1803               	skipnc
  6283  057C  3E01               	addlw	1
  6284  057D  1903               	skipnz
  6285  057E  2D80               	goto	u5813
  6286  057F  07D5               	addwf	___flmul@grs+3,f
  6287  0580                     u5813:
  6288  0580                     l3925:
  6289  0580  0843               	movf	___flmul@b,w
  6290  0581  00CB               	movwf	??___flmul
  6291  0582  084B               	movf	??___flmul,w
  6292  0583  00F3               	movwf	__Umul8_16@multiplicand
  6293  0584  0848               	movf	___flmul@a+1,w
  6294  0585  160A  118A  24D6  120A  118A  	fcall	__Umul8_16
  6295  058A  0874               	movf	?__Umul8_16+1,w
  6296  058B  1283               	bcf	3,5	;RP0=0, select bank0
  6297  058C  1303               	bcf	3,6	;RP1=0, select bank0
  6298  058D  00DC               	movwf	___flmul@temp+1
  6299  058E  0873               	movf	?__Umul8_16,w
  6300  058F  00DB               	movwf	___flmul@temp
  6301  0590                     l3927:
  6302  0590  085B               	movf	___flmul@temp,w
  6303  0591  00CB               	movwf	??___flmul
  6304  0592  085C               	movf	___flmul@temp+1,w
  6305  0593  00CC               	movwf	??___flmul+1
  6306  0594  01CD               	clrf	??___flmul+2
  6307  0595  01CE               	clrf	??___flmul+3
  6308  0596  084B               	movf	??___flmul,w
  6309  0597  07D2               	addwf	___flmul@grs,f
  6310  0598  084C               	movf	??___flmul+1,w
  6311  0599  1103               	clrz
  6312  059A  1803               	skipnc
  6313  059B  3E01               	addlw	1
  6314  059C  1903               	skipnz
  6315  059D  2D9F               	goto	u5821
  6316  059E  07D3               	addwf	___flmul@grs+1,f
  6317  059F                     u5821:
  6318  059F  084D               	movf	??___flmul+2,w
  6319  05A0  1103               	clrz
  6320  05A1  1803               	skipnc
  6321  05A2  3E01               	addlw	1
  6322  05A3  1903               	skipnz
  6323  05A4  2DA6               	goto	u5822
  6324  05A5  07D4               	addwf	___flmul@grs+2,f
  6325  05A6                     u5822:
  6326  05A6  084E               	movf	??___flmul+3,w
  6327  05A7  1103               	clrz
  6328  05A8  1803               	skipnc
  6329  05A9  3E01               	addlw	1
  6330  05AA  1903               	skipnz
  6331  05AB  2DAD               	goto	u5823
  6332  05AC  07D5               	addwf	___flmul@grs+3,f
  6333  05AD                     u5823:
  6334  05AD                     l3929:
  6335  05AD  3008               	movlw	8
  6336  05AE  00CB               	movwf	??___flmul
  6337  05AF                     u5835:
  6338  05AF  1003               	clrc
  6339  05B0  0DD2               	rlf	___flmul@grs,f
  6340  05B1  0DD3               	rlf	___flmul@grs+1,f
  6341  05B2  0DD4               	rlf	___flmul@grs+2,f
  6342  05B3  0DD5               	rlf	___flmul@grs+3,f
  6343  05B4  0BCB               	decfsz	??___flmul,f
  6344  05B5  2DAF               	goto	u5835
  6345  05B6  0843               	movf	___flmul@b,w
  6346  05B7  00CB               	movwf	??___flmul
  6347  05B8  084B               	movf	??___flmul,w
  6348  05B9  00F3               	movwf	__Umul8_16@multiplicand
  6349  05BA  0847               	movf	___flmul@a,w
  6350  05BB  160A  118A  24D6  120A  118A  	fcall	__Umul8_16
  6351  05C0  0874               	movf	?__Umul8_16+1,w
  6352  05C1  1283               	bcf	3,5	;RP0=0, select bank0
  6353  05C2  1303               	bcf	3,6	;RP1=0, select bank0
  6354  05C3  00DC               	movwf	___flmul@temp+1
  6355  05C4  0873               	movf	?__Umul8_16,w
  6356  05C5  00DB               	movwf	___flmul@temp
  6357  05C6                     l3931:
  6358  05C6  085B               	movf	___flmul@temp,w
  6359  05C7  00CB               	movwf	??___flmul
  6360  05C8  085C               	movf	___flmul@temp+1,w
  6361  05C9  00CC               	movwf	??___flmul+1
  6362  05CA  01CD               	clrf	??___flmul+2
  6363  05CB  01CE               	clrf	??___flmul+3
  6364  05CC  084B               	movf	??___flmul,w
  6365  05CD  07D2               	addwf	___flmul@grs,f
  6366  05CE  084C               	movf	??___flmul+1,w
  6367  05CF  1103               	clrz
  6368  05D0  1803               	skipnc
  6369  05D1  3E01               	addlw	1
  6370  05D2  1903               	skipnz
  6371  05D3  2DD5               	goto	u5841
  6372  05D4  07D3               	addwf	___flmul@grs+1,f
  6373  05D5                     u5841:
  6374  05D5  084D               	movf	??___flmul+2,w
  6375  05D6  1103               	clrz
  6376  05D7  1803               	skipnc
  6377  05D8  3E01               	addlw	1
  6378  05D9  1903               	skipnz
  6379  05DA  2DDC               	goto	u5842
  6380  05DB  07D4               	addwf	___flmul@grs+2,f
  6381  05DC                     u5842:
  6382  05DC  084E               	movf	??___flmul+3,w
  6383  05DD  1103               	clrz
  6384  05DE  1803               	skipnc
  6385  05DF  3E01               	addlw	1
  6386  05E0  1903               	skipnz
  6387  05E1  2DE3               	goto	u5843
  6388  05E2  07D5               	addwf	___flmul@grs+3,f
  6389  05E3                     u5843:
  6390  05E3                     l3933:
  6391  05E3  0844               	movf	___flmul@b+1,w
  6392  05E4  00CB               	movwf	??___flmul
  6393  05E5  084B               	movf	??___flmul,w
  6394  05E6  00F3               	movwf	__Umul8_16@multiplicand
  6395  05E7  0849               	movf	___flmul@a+2,w
  6396  05E8  160A  118A  24D6  120A  118A  	fcall	__Umul8_16
  6397  05ED  0874               	movf	?__Umul8_16+1,w
  6398  05EE  1283               	bcf	3,5	;RP0=0, select bank0
  6399  05EF  1303               	bcf	3,6	;RP1=0, select bank0
  6400  05F0  00DC               	movwf	___flmul@temp+1
  6401  05F1  0873               	movf	?__Umul8_16,w
  6402  05F2  00DB               	movwf	___flmul@temp
  6403  05F3  085B               	movf	___flmul@temp,w
  6404  05F4  00CB               	movwf	??___flmul
  6405  05F5  085C               	movf	___flmul@temp+1,w
  6406  05F6  00CC               	movwf	??___flmul+1
  6407  05F7  01CD               	clrf	??___flmul+2
  6408  05F8  01CE               	clrf	??___flmul+3
  6409  05F9  084B               	movf	??___flmul,w
  6410  05FA  07D7               	addwf	___flmul@prod,f
  6411  05FB  084C               	movf	??___flmul+1,w
  6412  05FC  1103               	clrz
  6413  05FD  1803               	skipnc
  6414  05FE  3E01               	addlw	1
  6415  05FF  1903               	skipnz
  6416  0600  2E02               	goto	u5851
  6417  0601  07D8               	addwf	___flmul@prod+1,f
  6418  0602                     u5851:
  6419  0602  084D               	movf	??___flmul+2,w
  6420  0603  1103               	clrz
  6421  0604  1803               	skipnc
  6422  0605  3E01               	addlw	1
  6423  0606  1903               	skipnz
  6424  0607  2E09               	goto	u5852
  6425  0608  07D9               	addwf	___flmul@prod+2,f
  6426  0609                     u5852:
  6427  0609  084E               	movf	??___flmul+3,w
  6428  060A  1103               	clrz
  6429  060B  1803               	skipnc
  6430  060C  3E01               	addlw	1
  6431  060D  1903               	skipnz
  6432  060E  2E10               	goto	u5853
  6433  060F  07DA               	addwf	___flmul@prod+3,f
  6434  0610                     u5853:
  6435  0610                     l3935:
  6436  0610  0845               	movf	___flmul@b+2,w
  6437  0611  00CB               	movwf	??___flmul
  6438  0612  084B               	movf	??___flmul,w
  6439  0613  00F3               	movwf	__Umul8_16@multiplicand
  6440  0614  0848               	movf	___flmul@a+1,w
  6441  0615  160A  118A  24D6  120A  118A  	fcall	__Umul8_16
  6442  061A  0874               	movf	?__Umul8_16+1,w
  6443  061B  1283               	bcf	3,5	;RP0=0, select bank0
  6444  061C  1303               	bcf	3,6	;RP1=0, select bank0
  6445  061D  00DC               	movwf	___flmul@temp+1
  6446  061E  0873               	movf	?__Umul8_16,w
  6447  061F  00DB               	movwf	___flmul@temp
  6448  0620                     l3937:
  6449  0620  085B               	movf	___flmul@temp,w
  6450  0621  00CB               	movwf	??___flmul
  6451  0622  085C               	movf	___flmul@temp+1,w
  6452  0623  00CC               	movwf	??___flmul+1
  6453  0624  01CD               	clrf	??___flmul+2
  6454  0625  01CE               	clrf	??___flmul+3
  6455  0626  084B               	movf	??___flmul,w
  6456  0627  07D7               	addwf	___flmul@prod,f
  6457  0628  084C               	movf	??___flmul+1,w
  6458  0629  1103               	clrz
  6459  062A  1803               	skipnc
  6460  062B  3E01               	addlw	1
  6461  062C  1903               	skipnz
  6462  062D  2E2F               	goto	u5861
  6463  062E  07D8               	addwf	___flmul@prod+1,f
  6464  062F                     u5861:
  6465  062F  084D               	movf	??___flmul+2,w
  6466  0630  1103               	clrz
  6467  0631  1803               	skipnc
  6468  0632  3E01               	addlw	1
  6469  0633  1903               	skipnz
  6470  0634  2E36               	goto	u5862
  6471  0635  07D9               	addwf	___flmul@prod+2,f
  6472  0636                     u5862:
  6473  0636  084E               	movf	??___flmul+3,w
  6474  0637  1103               	clrz
  6475  0638  1803               	skipnc
  6476  0639  3E01               	addlw	1
  6477  063A  1903               	skipnz
  6478  063B  2E3D               	goto	u5863
  6479  063C  07DA               	addwf	___flmul@prod+3,f
  6480  063D                     u5863:
  6481  063D  0845               	movf	___flmul@b+2,w
  6482  063E  00CB               	movwf	??___flmul
  6483  063F  084B               	movf	??___flmul,w
  6484  0640  00F3               	movwf	__Umul8_16@multiplicand
  6485  0641  0849               	movf	___flmul@a+2,w
  6486  0642  160A  118A  24D6  120A  118A  	fcall	__Umul8_16
  6487  0647  0874               	movf	?__Umul8_16+1,w
  6488  0648  1283               	bcf	3,5	;RP0=0, select bank0
  6489  0649  1303               	bcf	3,6	;RP1=0, select bank0
  6490  064A  00DC               	movwf	___flmul@temp+1
  6491  064B  0873               	movf	?__Umul8_16,w
  6492  064C  00DB               	movwf	___flmul@temp
  6493  064D                     l3939:
  6494  064D  085B               	movf	___flmul@temp,w
  6495  064E  00CB               	movwf	??___flmul
  6496  064F  085C               	movf	___flmul@temp+1,w
  6497  0650  00CC               	movwf	??___flmul+1
  6498  0651  01CD               	clrf	??___flmul+2
  6499  0652  01CE               	clrf	??___flmul+3
  6500  0653  3008               	movlw	8
  6501  0654                     u5875:
  6502  0654  1003               	clrc
  6503  0655  0DCB               	rlf	??___flmul,f
  6504  0656  0DCC               	rlf	??___flmul+1,f
  6505  0657  0DCD               	rlf	??___flmul+2,f
  6506  0658  0DCE               	rlf	??___flmul+3,f
  6507  0659                     u5870:
  6508  0659  3EFF               	addlw	-1
  6509  065A  1D03               	skipz
  6510  065B  2E54               	goto	u5875
  6511  065C  084B               	movf	??___flmul,w
  6512  065D  07D7               	addwf	___flmul@prod,f
  6513  065E  084C               	movf	??___flmul+1,w
  6514  065F  1103               	clrz
  6515  0660  1803               	skipnc
  6516  0661  3E01               	addlw	1
  6517  0662  1903               	skipnz
  6518  0663  2E65               	goto	u5881
  6519  0664  07D8               	addwf	___flmul@prod+1,f
  6520  0665                     u5881:
  6521  0665  084D               	movf	??___flmul+2,w
  6522  0666  1103               	clrz
  6523  0667  1803               	skipnc
  6524  0668  3E01               	addlw	1
  6525  0669  1903               	skipnz
  6526  066A  2E6C               	goto	u5882
  6527  066B  07D9               	addwf	___flmul@prod+2,f
  6528  066C                     u5882:
  6529  066C  084E               	movf	??___flmul+3,w
  6530  066D  1103               	clrz
  6531  066E  1803               	skipnc
  6532  066F  3E01               	addlw	1
  6533  0670  1903               	skipnz
  6534  0671  2E73               	goto	u5883
  6535  0672  07DA               	addwf	___flmul@prod+3,f
  6536  0673                     u5883:
  6537  0673                     l3941:
  6538  0673  0852               	movf	___flmul@grs,w
  6539  0674  00CB               	movwf	??___flmul
  6540  0675  0853               	movf	___flmul@grs+1,w
  6541  0676  00CC               	movwf	??___flmul+1
  6542  0677  0854               	movf	___flmul@grs+2,w
  6543  0678  00CD               	movwf	??___flmul+2
  6544  0679  0855               	movf	___flmul@grs+3,w
  6545  067A  00CE               	movwf	??___flmul+3
  6546  067B  3018               	movlw	24
  6547  067C                     u5895:
  6548  067C  1003               	clrc
  6549  067D  0CCE               	rrf	??___flmul+3,f
  6550  067E  0CCD               	rrf	??___flmul+2,f
  6551  067F  0CCC               	rrf	??___flmul+1,f
  6552  0680  0CCB               	rrf	??___flmul,f
  6553  0681                     u5890:
  6554  0681  3EFF               	addlw	-1
  6555  0682  1D03               	skipz
  6556  0683  2E7C               	goto	u5895
  6557  0684  084B               	movf	??___flmul,w
  6558  0685  07D7               	addwf	___flmul@prod,f
  6559  0686  084C               	movf	??___flmul+1,w
  6560  0687  1103               	clrz
  6561  0688  1803               	skipnc
  6562  0689  3E01               	addlw	1
  6563  068A  1903               	skipnz
  6564  068B  2E8D               	goto	u5901
  6565  068C  07D8               	addwf	___flmul@prod+1,f
  6566  068D                     u5901:
  6567  068D  084D               	movf	??___flmul+2,w
  6568  068E  1103               	clrz
  6569  068F  1803               	skipnc
  6570  0690  3E01               	addlw	1
  6571  0691  1903               	skipnz
  6572  0692  2E94               	goto	u5902
  6573  0693  07D9               	addwf	___flmul@prod+2,f
  6574  0694                     u5902:
  6575  0694  084E               	movf	??___flmul+3,w
  6576  0695  1103               	clrz
  6577  0696  1803               	skipnc
  6578  0697  3E01               	addlw	1
  6579  0698  1903               	skipnz
  6580  0699  2E9B               	goto	u5903
  6581  069A  07DA               	addwf	___flmul@prod+3,f
  6582  069B                     u5903:
  6583  069B                     l3943:
  6584  069B  3008               	movlw	8
  6585  069C  00CB               	movwf	??___flmul
  6586  069D                     u5915:
  6587  069D  1003               	clrc
  6588  069E  0DD2               	rlf	___flmul@grs,f
  6589  069F  0DD3               	rlf	___flmul@grs+1,f
  6590  06A0  0DD4               	rlf	___flmul@grs+2,f
  6591  06A1  0DD5               	rlf	___flmul@grs+3,f
  6592  06A2  0BCB               	decfsz	??___flmul,f
  6593  06A3  2E9D               	goto	u5915
  6594  06A4                     l3945:
  6595  06A4  0856               	movf	___flmul@bexp,w
  6596  06A5  0751               	addwf	___flmul@aexp,w
  6597  06A6  00CB               	movwf	??___flmul
  6598  06A7  01CC               	clrf	??___flmul+1
  6599  06A8  0DCC               	rlf	??___flmul+1,f
  6600  06A9  084B               	movf	??___flmul,w
  6601  06AA  3E82               	addlw	130
  6602  06AB  00DB               	movwf	___flmul@temp
  6603  06AC  084C               	movf	??___flmul+1,w
  6604  06AD  1803               	skipnc
  6605  06AE  3E01               	addlw	1
  6606  06AF  3EFF               	addlw	255
  6607  06B0  00DC               	movwf	___flmul@temp+1
  6608  06B1  2ECF               	goto	l3957
  6609  06B2                     l3947:
  6610  06B2  3001               	movlw	1
  6611  06B3  00CB               	movwf	??___flmul
  6612  06B4                     u5925:
  6613  06B4  1003               	clrc
  6614  06B5  0DD7               	rlf	___flmul@prod,f
  6615  06B6  0DD8               	rlf	___flmul@prod+1,f
  6616  06B7  0DD9               	rlf	___flmul@prod+2,f
  6617  06B8  0DDA               	rlf	___flmul@prod+3,f
  6618  06B9  0BCB               	decfsz	??___flmul,f
  6619  06BA  2EB4               	goto	u5925
  6620  06BB                     l3949:
  6621  06BB  1FD5               	btfss	___flmul@grs+3,7
  6622  06BC  2EBE               	goto	u5931
  6623  06BD  2EBF               	goto	u5930
  6624  06BE                     u5931:
  6625  06BE  2EC0               	goto	l3953
  6626  06BF                     u5930:
  6627  06BF                     l3951:
  6628  06BF  1457               	bsf	___flmul@prod,0
  6629  06C0                     l3953:
  6630  06C0  3001               	movlw	1
  6631  06C1  00CB               	movwf	??___flmul
  6632  06C2                     u5945:
  6633  06C2  1003               	clrc
  6634  06C3  0DD2               	rlf	___flmul@grs,f
  6635  06C4  0DD3               	rlf	___flmul@grs+1,f
  6636  06C5  0DD4               	rlf	___flmul@grs+2,f
  6637  06C6  0DD5               	rlf	___flmul@grs+3,f
  6638  06C7  0BCB               	decfsz	??___flmul,f
  6639  06C8  2EC2               	goto	u5945
  6640  06C9                     l3955:
  6641  06C9  30FF               	movlw	255
  6642  06CA  07DB               	addwf	___flmul@temp,f
  6643  06CB  1803               	skipnc
  6644  06CC  0ADC               	incf	___flmul@temp+1,f
  6645  06CD  30FF               	movlw	255
  6646  06CE  07DC               	addwf	___flmul@temp+1,f
  6647  06CF                     l3957:
  6648  06CF  1FD9               	btfss	___flmul@prod+2,7
  6649  06D0  2ED2               	goto	u5951
  6650  06D1  2ED3               	goto	u5950
  6651  06D2                     u5951:
  6652  06D2  2EB2               	goto	l3947
  6653  06D3                     u5950:
  6654  06D3                     l3959:
  6655  06D3  01D1               	clrf	___flmul@aexp
  6656  06D4                     l3961:
  6657  06D4  1FD5               	btfss	___flmul@grs+3,7
  6658  06D5  2ED7               	goto	u5961
  6659  06D6  2ED8               	goto	u5960
  6660  06D7                     u5961:
  6661  06D7  2EF4               	goto	l3969
  6662  06D8                     u5960:
  6663  06D8                     l3963:
  6664  06D8  30FF               	movlw	255
  6665  06D9  0552               	andwf	___flmul@grs,w
  6666  06DA  00CB               	movwf	??___flmul
  6667  06DB  30FF               	movlw	255
  6668  06DC  0553               	andwf	___flmul@grs+1,w
  6669  06DD  00CC               	movwf	??___flmul+1
  6670  06DE  30FF               	movlw	255
  6671  06DF  0554               	andwf	___flmul@grs+2,w
  6672  06E0  00CD               	movwf	??___flmul+2
  6673  06E1  307F               	movlw	127
  6674  06E2  0555               	andwf	___flmul@grs+3,w
  6675  06E3  00CE               	movwf	??___flmul+3
  6676  06E4  084E               	movf	??___flmul+3,w
  6677  06E5  044D               	iorwf	??___flmul+2,w
  6678  06E6  044C               	iorwf	??___flmul+1,w
  6679  06E7  044B               	iorwf	??___flmul,w
  6680  06E8  1903               	skipnz
  6681  06E9  2EEB               	goto	u5971
  6682  06EA  2EEC               	goto	u5970
  6683  06EB                     u5971:
  6684  06EB  2EEF               	goto	l703
  6685  06EC                     u5970:
  6686  06EC                     l3965:
  6687  06EC  01D1               	clrf	___flmul@aexp
  6688  06ED  0AD1               	incf	___flmul@aexp,f
  6689  06EE  2EF4               	goto	l3969
  6690  06EF                     l703:
  6691  06EF  1C57               	btfss	___flmul@prod,0
  6692  06F0  2EF2               	goto	u5981
  6693  06F1  2EF3               	goto	u5980
  6694  06F2                     u5981:
  6695  06F2  2EF4               	goto	l3969
  6696  06F3                     u5980:
  6697  06F3  2EEC               	goto	l3965
  6698  06F4                     l3969:
  6699  06F4  0851               	movf	___flmul@aexp,w
  6700  06F5  1903               	btfsc	3,2
  6701  06F6  2EF8               	goto	u5991
  6702  06F7  2EF9               	goto	u5990
  6703  06F8                     u5991:
  6704  06F8  2F2A               	goto	l3979
  6705  06F9                     u5990:
  6706  06F9                     l3971:
  6707  06F9  3001               	movlw	1
  6708  06FA  07D7               	addwf	___flmul@prod,f
  6709  06FB  3000               	movlw	0
  6710  06FC  1803               	skipnc
  6711  06FD  3001               	movlw	1
  6712  06FE  07D8               	addwf	___flmul@prod+1,f
  6713  06FF  3000               	movlw	0
  6714  0700  1803               	skipnc
  6715  0701  3001               	movlw	1
  6716  0702  07D9               	addwf	___flmul@prod+2,f
  6717  0703  3000               	movlw	0
  6718  0704  1803               	skipnc
  6719  0705  3001               	movlw	1
  6720  0706  07DA               	addwf	___flmul@prod+3,f
  6721  0707                     l3973:
  6722  0707  1C5A               	btfss	___flmul@prod+3,0
  6723  0708  2F0A               	goto	u6001
  6724  0709  2F0B               	goto	u6000
  6725  070A                     u6001:
  6726  070A  2F2A               	goto	l3979
  6727  070B                     u6000:
  6728  070B                     l3975:
  6729  070B  0857               	movf	___flmul@prod,w
  6730  070C  00CB               	movwf	??___flmul
  6731  070D  0858               	movf	___flmul@prod+1,w
  6732  070E  00CC               	movwf	??___flmul+1
  6733  070F  0859               	movf	___flmul@prod+2,w
  6734  0710  00CD               	movwf	??___flmul+2
  6735  0711  085A               	movf	___flmul@prod+3,w
  6736  0712  00CE               	movwf	??___flmul+3
  6737  0713  3001               	movlw	1
  6738  0714  00CF               	movwf	??___flmul+4
  6739  0715                     u6015:
  6740  0715  0D4E               	rlf	??___flmul+3,w
  6741  0716  0CCE               	rrf	??___flmul+3,f
  6742  0717  0CCD               	rrf	??___flmul+2,f
  6743  0718  0CCC               	rrf	??___flmul+1,f
  6744  0719  0CCB               	rrf	??___flmul,f
  6745  071A                     u6010:
  6746  071A  0BCF               	decfsz	??___flmul+4,f
  6747  071B  2F15               	goto	u6015
  6748  071C  084E               	movf	??___flmul+3,w
  6749  071D  00DA               	movwf	___flmul@prod+3
  6750  071E  084D               	movf	??___flmul+2,w
  6751  071F  00D9               	movwf	___flmul@prod+2
  6752  0720  084C               	movf	??___flmul+1,w
  6753  0721  00D8               	movwf	___flmul@prod+1
  6754  0722  084B               	movf	??___flmul,w
  6755  0723  00D7               	movwf	___flmul@prod
  6756  0724                     l3977:
  6757  0724  3001               	movlw	1
  6758  0725  07DB               	addwf	___flmul@temp,f
  6759  0726  1803               	skipnc
  6760  0727  0ADC               	incf	___flmul@temp+1,f
  6761  0728  3000               	movlw	0
  6762  0729  07DC               	addwf	___flmul@temp+1,f
  6763  072A                     l3979:
  6764  072A  085C               	movf	___flmul@temp+1,w
  6765  072B  3A80               	xorlw	128
  6766  072C  00FF               	movwf	btemp+1
  6767  072D  3080               	movlw	128
  6768  072E  027F               	subwf	btemp+1,w
  6769  072F  1D03               	skipz
  6770  0730  2F33               	goto	u6025
  6771  0731  30FF               	movlw	255
  6772  0732  025B               	subwf	___flmul@temp,w
  6773  0733                     u6025:
  6774  0733  1C03               	skipc
  6775  0734  2F36               	goto	u6021
  6776  0735  2F37               	goto	u6020
  6777  0736                     u6021:
  6778  0736  2F42               	goto	l3983
  6779  0737                     u6020:
  6780  0737                     l3981:
  6781  0737  307F               	movlw	127
  6782  0738  1283               	bcf	3,5	;RP0=0, select bank0
  6783  0739  1303               	bcf	3,6	;RP1=0, select bank0
  6784  073A  00DA               	movwf	___flmul@prod+3
  6785  073B  3080               	movlw	128
  6786  073C  00D9               	movwf	___flmul@prod+2
  6787  073D  3000               	movlw	0
  6788  073E  00D8               	movwf	___flmul@prod+1
  6789  073F  3000               	movlw	0
  6790  0740  00D7               	movwf	___flmul@prod
  6791  0741  2F77               	goto	l709
  6792  0742                     l3983:
  6793  0742  1283               	bcf	3,5	;RP0=0, select bank0
  6794  0743  1303               	bcf	3,6	;RP1=0, select bank0
  6795  0744  085C               	movf	___flmul@temp+1,w
  6796  0745  3A80               	xorlw	128
  6797  0746  00FF               	movwf	btemp+1
  6798  0747  3080               	movlw	128
  6799  0748  027F               	subwf	btemp+1,w
  6800  0749  1D03               	skipz
  6801  074A  2F4D               	goto	u6035
  6802  074B  3001               	movlw	1
  6803  074C  025B               	subwf	___flmul@temp,w
  6804  074D                     u6035:
  6805  074D  1803               	skipnc
  6806  074E  2F50               	goto	u6031
  6807  074F  2F51               	goto	u6030
  6808  0750                     u6031:
  6809  0750  2F5D               	goto	l3989
  6810  0751                     u6030:
  6811  0751                     l3985:
  6812  0751  3000               	movlw	0
  6813  0752  1283               	bcf	3,5	;RP0=0, select bank0
  6814  0753  1303               	bcf	3,6	;RP1=0, select bank0
  6815  0754  00DA               	movwf	___flmul@prod+3
  6816  0755  3000               	movlw	0
  6817  0756  00D9               	movwf	___flmul@prod+2
  6818  0757  3000               	movlw	0
  6819  0758  00D8               	movwf	___flmul@prod+1
  6820  0759  3000               	movlw	0
  6821  075A  00D7               	movwf	___flmul@prod
  6822  075B                     l3987:
  6823  075B  01D0               	clrf	___flmul@sign
  6824  075C  2F77               	goto	l709
  6825  075D                     l3989:
  6826  075D  1283               	bcf	3,5	;RP0=0, select bank0
  6827  075E  1303               	bcf	3,6	;RP1=0, select bank0
  6828  075F  085B               	movf	___flmul@temp,w
  6829  0760  00CB               	movwf	??___flmul
  6830  0761  084B               	movf	??___flmul,w
  6831  0762  00D6               	movwf	___flmul@bexp
  6832  0763  30FF               	movlw	255
  6833  0764  05D7               	andwf	___flmul@prod,f
  6834  0765  30FF               	movlw	255
  6835  0766  05D8               	andwf	___flmul@prod+1,f
  6836  0767  307F               	movlw	127
  6837  0768  05D9               	andwf	___flmul@prod+2,f
  6838  0769  3000               	movlw	0
  6839  076A  05DA               	andwf	___flmul@prod+3,f
  6840  076B                     l3991:
  6841  076B  1C56               	btfss	___flmul@bexp,0
  6842  076C  2F6E               	goto	u6041
  6843  076D  2F6F               	goto	u6040
  6844  076E                     u6041:
  6845  076E  2F70               	goto	l3995
  6846  076F                     u6040:
  6847  076F                     l3993:
  6848  076F  17D9               	bsf	___flmul@prod+2,7
  6849  0770                     l3995:
  6850  0770  0856               	movf	___flmul@bexp,w
  6851  0771  00CB               	movwf	??___flmul
  6852  0772  1003               	clrc
  6853  0773  0C4B               	rrf	??___flmul,w
  6854  0774  00CC               	movwf	??___flmul+1
  6855  0775  084C               	movf	??___flmul+1,w
  6856  0776  00DA               	movwf	___flmul@prod+3
  6857  0777                     l709:
  6858  0777  0850               	movf	___flmul@sign,w
  6859  0778  00CB               	movwf	??___flmul
  6860  0779  084B               	movf	??___flmul,w
  6861  077A  04DA               	iorwf	___flmul@prod+3,f
  6862  077B                     l3997:
  6863  077B  085A               	movf	___flmul@prod+3,w
  6864  077C  00C6               	movwf	?___flmul+3
  6865  077D  0859               	movf	___flmul@prod+2,w
  6866  077E  00C5               	movwf	?___flmul+2
  6867  077F  0858               	movf	___flmul@prod+1,w
  6868  0780  00C4               	movwf	?___flmul+1
  6869  0781  0857               	movf	___flmul@prod,w
  6870  0782  00C3               	movwf	?___flmul
  6871  0783                     l697:
  6872  0783  0008               	return
  6873  0784                     __end_of___flmul:
  6874                           
  6875                           	psect	text20
  6876  14D6                     __ptext20:	
  6877 ;; *************** function __Umul8_16 *****************
  6878 ;; Defined at:
  6879 ;;		line 4 in file "C:\Program Files\Microchip\xc8\v2.31\pic\sources\c90\common\Umul8_16.c"
  6880 ;; Parameters:    Size  Location     Type
  6881 ;;  multiplier      1    wreg     unsigned char 
  6882 ;;  multiplicand    1    3[COMMON] unsigned char 
  6883 ;; Auto vars:     Size  Location     Type
  6884 ;;  multiplier      1    4[BANK0 ] unsigned char 
  6885 ;;  word_mpld       2    2[BANK0 ] unsigned int 
  6886 ;;  product         2    0[BANK0 ] unsigned int 
  6887 ;; Return value:  Size  Location     Type
  6888 ;;                  2    3[COMMON] unsigned int 
  6889 ;; Registers used:
  6890 ;;		wreg, status,2, status,0
  6891 ;; Tracked objects:
  6892 ;;		On entry : 0/0
  6893 ;;		On exit  : 0/0
  6894 ;;		Unchanged: 0/0
  6895 ;; Data sizes:     COMMON   BANK0   BANK1   BANK3   BANK2
  6896 ;;      Params:         2       0       0       0       0
  6897 ;;      Locals:         0       5       0       0       0
  6898 ;;      Temps:          2       0       0       0       0
  6899 ;;      Totals:         4       5       0       0       0
  6900 ;;Total ram usage:        9 bytes
  6901 ;; Hardware stack levels used:    1
  6902 ;; Hardware stack levels required when called:    1
  6903 ;; This function calls:
  6904 ;;		Nothing
  6905 ;; This function is called by:
  6906 ;;		___flmul
  6907 ;; This function uses a non-reentrant model
  6908 ;;
  6909                           
  6910                           
  6911                           ;psect for function __Umul8_16
  6912  14D6                     __Umul8_16:
  6913                           
  6914                           ;incstack = 0
  6915                           ; Regs used in __Umul8_16: [wreg+status,2+status,0]
  6916                           ;__Umul8_16@multiplier stored from wreg
  6917  14D6  1283               	bcf	3,5	;RP0=0, select bank0
  6918  14D7  1303               	bcf	3,6	;RP1=0, select bank0
  6919  14D8  00A4               	movwf	__Umul8_16@multiplier
  6920  14D9                     l3579:
  6921  14D9  01A0               	clrf	__Umul8_16@product
  6922  14DA  01A1               	clrf	__Umul8_16@product+1
  6923  14DB                     l3581:
  6924  14DB  0873               	movf	__Umul8_16@multiplicand,w
  6925  14DC  00F5               	movwf	??__Umul8_16
  6926  14DD  01F6               	clrf	??__Umul8_16+1
  6927  14DE  0875               	movf	??__Umul8_16,w
  6928  14DF  00A2               	movwf	__Umul8_16@word_mpld
  6929  14E0  0876               	movf	??__Umul8_16+1,w
  6930  14E1  00A3               	movwf	__Umul8_16@word_mpld+1
  6931  14E2                     l3583:
  6932  14E2  1C24               	btfss	__Umul8_16@multiplier,0
  6933  14E3  2CE5               	goto	u5091
  6934  14E4  2CE6               	goto	u5090
  6935  14E5                     u5091:
  6936  14E5  2CEC               	goto	l716
  6937  14E6                     u5090:
  6938  14E6                     l3585:
  6939  14E6  0822               	movf	__Umul8_16@word_mpld,w
  6940  14E7  07A0               	addwf	__Umul8_16@product,f
  6941  14E8  1803               	skipnc
  6942  14E9  0AA1               	incf	__Umul8_16@product+1,f
  6943  14EA  0823               	movf	__Umul8_16@word_mpld+1,w
  6944  14EB  07A1               	addwf	__Umul8_16@product+1,f
  6945  14EC                     l716:
  6946  14EC  3001               	movlw	1
  6947  14ED                     u5105:
  6948  14ED  1003               	clrc
  6949  14EE  0DA2               	rlf	__Umul8_16@word_mpld,f
  6950  14EF  0DA3               	rlf	__Umul8_16@word_mpld+1,f
  6951  14F0  3EFF               	addlw	-1
  6952  14F1  1D03               	skipz
  6953  14F2  2CED               	goto	u5105
  6954  14F3  1003               	clrc
  6955  14F4  0CA4               	rrf	__Umul8_16@multiplier,f
  6956  14F5                     l3587:
  6957  14F5  0824               	movf	__Umul8_16@multiplier,w
  6958  14F6  1D03               	btfss	3,2
  6959  14F7  2CF9               	goto	u5111
  6960  14F8  2CFA               	goto	u5110
  6961  14F9                     u5111:
  6962  14F9  2CE2               	goto	l3583
  6963  14FA                     u5110:
  6964  14FA                     l3589:
  6965  14FA  0821               	movf	__Umul8_16@product+1,w
  6966  14FB  00F4               	movwf	?__Umul8_16+1
  6967  14FC  0820               	movf	__Umul8_16@product,w
  6968  14FD  00F3               	movwf	?__Umul8_16
  6969  14FE                     l718:
  6970  14FE  0008               	return
  6971  14FF                     __end_of__Umul8_16:
  6972                           
  6973                           	psect	text21
  6974  175C                     __ptext21:	
  6975 ;; *************** function ___flge *****************
  6976 ;; Defined at:
  6977 ;;		line 4 in file "C:\Program Files\Microchip\xc8\v2.31\pic\sources\c90\common\flge.c"
  6978 ;; Parameters:    Size  Location     Type
  6979 ;;  ff1             4    0[BANK0 ] unsigned int 
  6980 ;;  ff2             4    4[BANK0 ] unsigned int 
  6981 ;; Auto vars:     Size  Location     Type
  6982 ;;		None
  6983 ;; Return value:  Size  Location     Type
  6984 ;;		None               void
  6985 ;; Registers used:
  6986 ;;		wreg, status,2, status,0
  6987 ;; Tracked objects:
  6988 ;;		On entry : 0/0
  6989 ;;		On exit  : 0/0
  6990 ;;		Unchanged: 0/0
  6991 ;; Data sizes:     COMMON   BANK0   BANK1   BANK3   BANK2
  6992 ;;      Params:         0       8       0       0       0
  6993 ;;      Locals:         0       0       0       0       0
  6994 ;;      Temps:          4       0       0       0       0
  6995 ;;      Totals:         4       8       0       0       0
  6996 ;;Total ram usage:       12 bytes
  6997 ;; Hardware stack levels used:    1
  6998 ;; Hardware stack levels required when called:    1
  6999 ;; This function calls:
  7000 ;;		Nothing
  7001 ;; This function is called by:
  7002 ;;		_convert
  7003 ;; This function uses a non-reentrant model
  7004 ;;
  7005                           
  7006                           
  7007                           ;psect for function ___flge
  7008  175C                     ___flge:
  7009  175C                     l3657:	
  7010                           ;incstack = 0
  7011                           ; Regs used in ___flge: [wreg+status,2+status,0]
  7012                           
  7013  175C  3000               	movlw	0
  7014  175D  1283               	bcf	3,5	;RP0=0, select bank0
  7015  175E  1303               	bcf	3,6	;RP1=0, select bank0
  7016  175F  0520               	andwf	___flge@ff1,w
  7017  1760  00F3               	movwf	??___flge
  7018  1761  3000               	movlw	0
  7019  1762  0521               	andwf	___flge@ff1+1,w
  7020  1763  00F4               	movwf	??___flge+1
  7021  1764  3080               	movlw	128
  7022  1765  0522               	andwf	___flge@ff1+2,w
  7023  1766  00F5               	movwf	??___flge+2
  7024  1767  307F               	movlw	127
  7025  1768  0523               	andwf	___flge@ff1+3,w
  7026  1769  00F6               	movwf	??___flge+3
  7027  176A  0876               	movf	??___flge+3,w
  7028  176B  0475               	iorwf	??___flge+2,w
  7029  176C  0474               	iorwf	??___flge+1,w
  7030  176D  0473               	iorwf	??___flge,w
  7031  176E  1D03               	skipz
  7032  176F  2F71               	goto	u5221
  7033  1770  2F72               	goto	u5220
  7034  1771                     u5221:
  7035  1771  2F7A               	goto	l482
  7036  1772                     u5220:
  7037  1772                     l3659:
  7038  1772  3000               	movlw	0
  7039  1773  00A3               	movwf	___flge@ff1+3
  7040  1774  3000               	movlw	0
  7041  1775  00A2               	movwf	___flge@ff1+2
  7042  1776  3000               	movlw	0
  7043  1777  00A1               	movwf	___flge@ff1+1
  7044  1778  3000               	movlw	0
  7045  1779  00A0               	movwf	___flge@ff1
  7046  177A                     l482:
  7047  177A  3000               	movlw	0
  7048  177B  0524               	andwf	___flge@ff2,w
  7049  177C  00F3               	movwf	??___flge
  7050  177D  3000               	movlw	0
  7051  177E  0525               	andwf	___flge@ff2+1,w
  7052  177F  00F4               	movwf	??___flge+1
  7053  1780  3080               	movlw	128
  7054  1781  0526               	andwf	___flge@ff2+2,w
  7055  1782  00F5               	movwf	??___flge+2
  7056  1783  307F               	movlw	127
  7057  1784  0527               	andwf	___flge@ff2+3,w
  7058  1785  00F6               	movwf	??___flge+3
  7059  1786  0876               	movf	??___flge+3,w
  7060  1787  0475               	iorwf	??___flge+2,w
  7061  1788  0474               	iorwf	??___flge+1,w
  7062  1789  0473               	iorwf	??___flge,w
  7063  178A  1D03               	skipz
  7064  178B  2F8D               	goto	u5231
  7065  178C  2F8E               	goto	u5230
  7066  178D                     u5231:
  7067  178D  2F96               	goto	l3663
  7068  178E                     u5230:
  7069  178E                     l3661:
  7070  178E  3000               	movlw	0
  7071  178F  00A7               	movwf	___flge@ff2+3
  7072  1790  3000               	movlw	0
  7073  1791  00A6               	movwf	___flge@ff2+2
  7074  1792  3000               	movlw	0
  7075  1793  00A5               	movwf	___flge@ff2+1
  7076  1794  3000               	movlw	0
  7077  1795  00A4               	movwf	___flge@ff2
  7078  1796                     l3663:
  7079  1796  1FA3               	btfss	___flge@ff1+3,7
  7080  1797  2F99               	goto	u5241
  7081  1798  2F9A               	goto	u5240
  7082  1799                     u5241:
  7083  1799  2FBE               	goto	l3667
  7084  179A                     u5240:
  7085  179A                     l3665:
  7086  179A  3000               	movlw	0
  7087  179B  00F3               	movwf	??___flge
  7088  179C  3000               	movlw	0
  7089  179D  00F4               	movwf	??___flge+1
  7090  179E  3000               	movlw	0
  7091  179F  00F5               	movwf	??___flge+2
  7092  17A0  3080               	movlw	128
  7093  17A1  00F6               	movwf	??___flge+3
  7094  17A2  0820               	movf	___flge@ff1,w
  7095  17A3  02F3               	subwf	??___flge,f
  7096  17A4  0821               	movf	___flge@ff1+1,w
  7097  17A5  1C03               	skipc
  7098  17A6  0F21               	incfsz	___flge@ff1+1,w
  7099  17A7  2FA9               	goto	u5251
  7100  17A8  2FAA               	goto	u5252
  7101  17A9                     u5251:
  7102  17A9  02F4               	subwf	??___flge+1,f
  7103  17AA                     u5252:
  7104  17AA  0822               	movf	___flge@ff1+2,w
  7105  17AB  1C03               	skipc
  7106  17AC  0F22               	incfsz	___flge@ff1+2,w
  7107  17AD  2FAF               	goto	u5253
  7108  17AE  2FB0               	goto	u5254
  7109  17AF                     u5253:
  7110  17AF  02F5               	subwf	??___flge+2,f
  7111  17B0                     u5254:
  7112  17B0  0823               	movf	___flge@ff1+3,w
  7113  17B1  1C03               	skipc
  7114  17B2  0F23               	incfsz	___flge@ff1+3,w
  7115  17B3  2FB5               	goto	u5255
  7116  17B4  2FB6               	goto	u5256
  7117  17B5                     u5255:
  7118  17B5  02F6               	subwf	??___flge+3,f
  7119  17B6                     u5256:
  7120  17B6  0876               	movf	??___flge+3,w
  7121  17B7  00A3               	movwf	___flge@ff1+3
  7122  17B8  0875               	movf	??___flge+2,w
  7123  17B9  00A2               	movwf	___flge@ff1+2
  7124  17BA  0874               	movf	??___flge+1,w
  7125  17BB  00A1               	movwf	___flge@ff1+1
  7126  17BC  0873               	movf	??___flge,w
  7127  17BD  00A0               	movwf	___flge@ff1
  7128  17BE                     l3667:
  7129  17BE  1FA7               	btfss	___flge@ff2+3,7
  7130  17BF  2FC1               	goto	u5261
  7131  17C0  2FC2               	goto	u5260
  7132  17C1                     u5261:
  7133  17C1  2FE6               	goto	l485
  7134  17C2                     u5260:
  7135  17C2                     l3669:
  7136  17C2  3000               	movlw	0
  7137  17C3  00F3               	movwf	??___flge
  7138  17C4  3000               	movlw	0
  7139  17C5  00F4               	movwf	??___flge+1
  7140  17C6  3000               	movlw	0
  7141  17C7  00F5               	movwf	??___flge+2
  7142  17C8  3080               	movlw	128
  7143  17C9  00F6               	movwf	??___flge+3
  7144  17CA  0824               	movf	___flge@ff2,w
  7145  17CB  02F3               	subwf	??___flge,f
  7146  17CC  0825               	movf	___flge@ff2+1,w
  7147  17CD  1C03               	skipc
  7148  17CE  0F25               	incfsz	___flge@ff2+1,w
  7149  17CF  2FD1               	goto	u5271
  7150  17D0  2FD2               	goto	u5272
  7151  17D1                     u5271:
  7152  17D1  02F4               	subwf	??___flge+1,f
  7153  17D2                     u5272:
  7154  17D2  0826               	movf	___flge@ff2+2,w
  7155  17D3  1C03               	skipc
  7156  17D4  0F26               	incfsz	___flge@ff2+2,w
  7157  17D5  2FD7               	goto	u5273
  7158  17D6  2FD8               	goto	u5274
  7159  17D7                     u5273:
  7160  17D7  02F5               	subwf	??___flge+2,f
  7161  17D8                     u5274:
  7162  17D8  0827               	movf	___flge@ff2+3,w
  7163  17D9  1C03               	skipc
  7164  17DA  0F27               	incfsz	___flge@ff2+3,w
  7165  17DB  2FDD               	goto	u5275
  7166  17DC  2FDE               	goto	u5276
  7167  17DD                     u5275:
  7168  17DD  02F6               	subwf	??___flge+3,f
  7169  17DE                     u5276:
  7170  17DE  0876               	movf	??___flge+3,w
  7171  17DF  00A7               	movwf	___flge@ff2+3
  7172  17E0  0875               	movf	??___flge+2,w
  7173  17E1  00A6               	movwf	___flge@ff2+2
  7174  17E2  0874               	movf	??___flge+1,w
  7175  17E3  00A5               	movwf	___flge@ff2+1
  7176  17E4  0873               	movf	??___flge,w
  7177  17E5  00A4               	movwf	___flge@ff2
  7178  17E6                     l485:
  7179  17E6  3080               	movlw	128
  7180  17E7  06A3               	xorwf	___flge@ff1+3,f
  7181  17E8  3080               	movlw	128
  7182  17E9  06A7               	xorwf	___flge@ff2+3,f
  7183  17EA  0827               	movf	___flge@ff2+3,w
  7184  17EB  0223               	subwf	___flge@ff1+3,w
  7185  17EC  1D03               	skipz
  7186  17ED  2FF8               	goto	u5285
  7187  17EE  0826               	movf	___flge@ff2+2,w
  7188  17EF  0222               	subwf	___flge@ff1+2,w
  7189  17F0  1D03               	skipz
  7190  17F1  2FF8               	goto	u5285
  7191  17F2  0825               	movf	___flge@ff2+1,w
  7192  17F3  0221               	subwf	___flge@ff1+1,w
  7193  17F4  1D03               	skipz
  7194  17F5  2FF8               	goto	u5285
  7195  17F6  0824               	movf	___flge@ff2,w
  7196  17F7  0220               	subwf	___flge@ff1,w
  7197  17F8                     u5285:
  7198  17F8  1803               	skipnc
  7199  17F9  2FFB               	goto	u5281
  7200  17FA  2FFC               	goto	u5280
  7201  17FB                     u5281:
  7202  17FB  2FFE               	goto	l3673
  7203  17FC                     u5280:
  7204  17FC                     l3671:
  7205  17FC  1003               	clrc
  7206  17FD  2FFF               	goto	l486
  7207  17FE                     l3673:
  7208  17FE  1403               	setc
  7209  17FF                     l486:
  7210  17FF  0008               	return
  7211  1800                     __end_of___flge:
  7212                           
  7213                           	psect	text22
  7214  0B93                     __ptext22:	
  7215 ;; *************** function ___fldiv *****************
  7216 ;; Defined at:
  7217 ;;		line 8 in file "C:\Program Files\Microchip\xc8\v2.31\pic\sources\c90\common\sprcdiv.c"
  7218 ;; Parameters:    Size  Location     Type
  7219 ;;  a               4   27[BANK0 ] unsigned int 
  7220 ;;  b               4   31[BANK0 ] unsigned int 
  7221 ;; Auto vars:     Size  Location     Type
  7222 ;;  grs             4   47[BANK0 ] unsigned long 
  7223 ;;  rem             4   40[BANK0 ] unsigned long 
  7224 ;;  new_exp         2   45[BANK0 ] int 
  7225 ;;  aexp            1   52[BANK0 ] unsigned char 
  7226 ;;  bexp            1   51[BANK0 ] unsigned char 
  7227 ;;  sign            1   44[BANK0 ] unsigned char 
  7228 ;; Return value:  Size  Location     Type
  7229 ;;                  4   27[BANK0 ] unsigned char 
  7230 ;; Registers used:
  7231 ;;		wreg, status,2, status,0, btemp+1
  7232 ;; Tracked objects:
  7233 ;;		On entry : 0/0
  7234 ;;		On exit  : 0/0
  7235 ;;		Unchanged: 0/0
  7236 ;; Data sizes:     COMMON   BANK0   BANK1   BANK3   BANK2
  7237 ;;      Params:         0       8       0       0       0
  7238 ;;      Locals:         0      13       0       0       0
  7239 ;;      Temps:          0       5       0       0       0
  7240 ;;      Totals:         0      26       0       0       0
  7241 ;;Total ram usage:       26 bytes
  7242 ;; Hardware stack levels used:    1
  7243 ;; Hardware stack levels required when called:    1
  7244 ;; This function calls:
  7245 ;;		Nothing
  7246 ;; This function is called by:
  7247 ;;		_convert
  7248 ;; This function uses a non-reentrant model
  7249 ;;
  7250                           
  7251                           
  7252                           ;psect for function ___fldiv
  7253  0B93                     ___fldiv:
  7254  0B93                     l3719:	
  7255                           ;incstack = 0
  7256                           ; Regs used in ___fldiv: [wreg+status,2+status,0+btemp+1]
  7257                           
  7258  0B93  1283               	bcf	3,5	;RP0=0, select bank0
  7259  0B94  1303               	bcf	3,6	;RP1=0, select bank0
  7260  0B95  0842               	movf	___fldiv@b+3,w
  7261  0B96  3980               	andlw	128
  7262  0B97  00C3               	movwf	??___fldiv
  7263  0B98  0843               	movf	??___fldiv,w
  7264  0B99  00CC               	movwf	___fldiv@sign
  7265  0B9A                     l3721:
  7266  0B9A  0842               	movf	___fldiv@b+3,w
  7267  0B9B  00C3               	movwf	??___fldiv
  7268  0B9C  0743               	addwf	??___fldiv,w
  7269  0B9D  00C4               	movwf	??___fldiv+1
  7270  0B9E  0844               	movf	??___fldiv+1,w
  7271  0B9F  00D3               	movwf	___fldiv@bexp
  7272  0BA0                     l3723:
  7273  0BA0  1FC1               	btfss	___fldiv@b+2,7
  7274  0BA1  2BA3               	goto	u5391
  7275  0BA2  2BA4               	goto	u5390
  7276  0BA3                     u5391:
  7277  0BA3  2BA5               	goto	l3727
  7278  0BA4                     u5390:
  7279  0BA4                     l3725:
  7280  0BA4  1453               	bsf	___fldiv@bexp,0
  7281  0BA5                     l3727:
  7282  0BA5  0853               	movf	___fldiv@bexp,w
  7283  0BA6  1903               	btfsc	3,2
  7284  0BA7  2BA9               	goto	u5401
  7285  0BA8  2BAA               	goto	u5400
  7286  0BA9                     u5401:
  7287  0BA9  2BBA               	goto	l3737
  7288  0BAA                     u5400:
  7289  0BAA                     l3729:
  7290  0BAA  0A53               	incf	___fldiv@bexp,w
  7291  0BAB  1D03               	btfss	3,2
  7292  0BAC  2BAE               	goto	u5411
  7293  0BAD  2BAF               	goto	u5410
  7294  0BAE                     u5411:
  7295  0BAE  2BB7               	goto	l3733
  7296  0BAF                     u5410:
  7297  0BAF                     l3731:
  7298  0BAF  3000               	movlw	0
  7299  0BB0  00C2               	movwf	___fldiv@b+3
  7300  0BB1  3000               	movlw	0
  7301  0BB2  00C1               	movwf	___fldiv@b+2
  7302  0BB3  3000               	movlw	0
  7303  0BB4  00C0               	movwf	___fldiv@b+1
  7304  0BB5  3000               	movlw	0
  7305  0BB6  00BF               	movwf	___fldiv@b
  7306  0BB7                     l3733:
  7307  0BB7  17C1               	bsf	___fldiv@b+2,7
  7308  0BB8                     l3735:
  7309  0BB8  01C2               	clrf	___fldiv@b+3
  7310  0BB9  2BC2               	goto	l3739
  7311  0BBA                     l3737:
  7312  0BBA  3000               	movlw	0
  7313  0BBB  00C2               	movwf	___fldiv@b+3
  7314  0BBC  3000               	movlw	0
  7315  0BBD  00C1               	movwf	___fldiv@b+2
  7316  0BBE  3000               	movlw	0
  7317  0BBF  00C0               	movwf	___fldiv@b+1
  7318  0BC0  3000               	movlw	0
  7319  0BC1  00BF               	movwf	___fldiv@b
  7320  0BC2                     l3739:
  7321  0BC2  083E               	movf	___fldiv@a+3,w
  7322  0BC3  3980               	andlw	128
  7323  0BC4  00C3               	movwf	??___fldiv
  7324  0BC5  0843               	movf	??___fldiv,w
  7325  0BC6  06CC               	xorwf	___fldiv@sign,f
  7326  0BC7                     l3741:
  7327  0BC7  083E               	movf	___fldiv@a+3,w
  7328  0BC8  00C3               	movwf	??___fldiv
  7329  0BC9  0743               	addwf	??___fldiv,w
  7330  0BCA  00C4               	movwf	??___fldiv+1
  7331  0BCB  0844               	movf	??___fldiv+1,w
  7332  0BCC  00D4               	movwf	___fldiv@aexp
  7333  0BCD                     l3743:
  7334  0BCD  1FBD               	btfss	___fldiv@a+2,7
  7335  0BCE  2BD0               	goto	u5421
  7336  0BCF  2BD1               	goto	u5420
  7337  0BD0                     u5421:
  7338  0BD0  2BD2               	goto	l3747
  7339  0BD1                     u5420:
  7340  0BD1                     l3745:
  7341  0BD1  1454               	bsf	___fldiv@aexp,0
  7342  0BD2                     l3747:
  7343  0BD2  0854               	movf	___fldiv@aexp,w
  7344  0BD3  1903               	btfsc	3,2
  7345  0BD4  2BD6               	goto	u5431
  7346  0BD5  2BD7               	goto	u5430
  7347  0BD6                     u5431:
  7348  0BD6  2BE7               	goto	l3757
  7349  0BD7                     u5430:
  7350  0BD7                     l3749:
  7351  0BD7  0A54               	incf	___fldiv@aexp,w
  7352  0BD8  1D03               	btfss	3,2
  7353  0BD9  2BDB               	goto	u5441
  7354  0BDA  2BDC               	goto	u5440
  7355  0BDB                     u5441:
  7356  0BDB  2BE4               	goto	l3753
  7357  0BDC                     u5440:
  7358  0BDC                     l3751:
  7359  0BDC  3000               	movlw	0
  7360  0BDD  00BE               	movwf	___fldiv@a+3
  7361  0BDE  3000               	movlw	0
  7362  0BDF  00BD               	movwf	___fldiv@a+2
  7363  0BE0  3000               	movlw	0
  7364  0BE1  00BC               	movwf	___fldiv@a+1
  7365  0BE2  3000               	movlw	0
  7366  0BE3  00BB               	movwf	___fldiv@a
  7367  0BE4                     l3753:
  7368  0BE4  17BD               	bsf	___fldiv@a+2,7
  7369  0BE5                     l3755:
  7370  0BE5  01BE               	clrf	___fldiv@a+3
  7371  0BE6  2BEF               	goto	l657
  7372  0BE7                     l3757:
  7373  0BE7  3000               	movlw	0
  7374  0BE8  00BE               	movwf	___fldiv@a+3
  7375  0BE9  3000               	movlw	0
  7376  0BEA  00BD               	movwf	___fldiv@a+2
  7377  0BEB  3000               	movlw	0
  7378  0BEC  00BC               	movwf	___fldiv@a+1
  7379  0BED  3000               	movlw	0
  7380  0BEE  00BB               	movwf	___fldiv@a
  7381  0BEF                     l657:
  7382  0BEF  083E               	movf	___fldiv@a+3,w
  7383  0BF0  043D               	iorwf	___fldiv@a+2,w
  7384  0BF1  043C               	iorwf	___fldiv@a+1,w
  7385  0BF2  043B               	iorwf	___fldiv@a,w
  7386  0BF3  1D03               	skipz
  7387  0BF4  2BF6               	goto	u5451
  7388  0BF5  2BF7               	goto	u5450
  7389  0BF6                     u5451:
  7390  0BF6  2C10               	goto	l3767
  7391  0BF7                     u5450:
  7392  0BF7                     l3759:
  7393  0BF7  3000               	movlw	0
  7394  0BF8  00C2               	movwf	___fldiv@b+3
  7395  0BF9  3000               	movlw	0
  7396  0BFA  00C1               	movwf	___fldiv@b+2
  7397  0BFB  3000               	movlw	0
  7398  0BFC  00C0               	movwf	___fldiv@b+1
  7399  0BFD  3000               	movlw	0
  7400  0BFE  00BF               	movwf	___fldiv@b
  7401  0BFF  3080               	movlw	128
  7402  0C00  04C1               	iorwf	___fldiv@b+2,f
  7403  0C01  307F               	movlw	127
  7404  0C02  04C2               	iorwf	___fldiv@b+3,f
  7405  0C03                     l3761:
  7406  0C03  084C               	movf	___fldiv@sign,w
  7407  0C04  00C3               	movwf	??___fldiv
  7408  0C05  0843               	movf	??___fldiv,w
  7409  0C06  04C2               	iorwf	___fldiv@b+3,f
  7410  0C07                     l3763:
  7411  0C07  0842               	movf	___fldiv@b+3,w
  7412  0C08  00BE               	movwf	?___fldiv+3
  7413  0C09  0841               	movf	___fldiv@b+2,w
  7414  0C0A  00BD               	movwf	?___fldiv+2
  7415  0C0B  0840               	movf	___fldiv@b+1,w
  7416  0C0C  00BC               	movwf	?___fldiv+1
  7417  0C0D  083F               	movf	___fldiv@b,w
  7418  0C0E  00BB               	movwf	?___fldiv
  7419  0C0F  2D6F               	goto	l659
  7420  0C10                     l3767:
  7421  0C10  0853               	movf	___fldiv@bexp,w
  7422  0C11  1D03               	btfss	3,2
  7423  0C12  2C14               	goto	u5461
  7424  0C13  2C15               	goto	u5460
  7425  0C14                     u5461:
  7426  0C14  2C1E               	goto	l3773
  7427  0C15                     u5460:
  7428  0C15                     l3769:
  7429  0C15  3000               	movlw	0
  7430  0C16  00BE               	movwf	?___fldiv+3
  7431  0C17  3000               	movlw	0
  7432  0C18  00BD               	movwf	?___fldiv+2
  7433  0C19  3000               	movlw	0
  7434  0C1A  00BC               	movwf	?___fldiv+1
  7435  0C1B  3000               	movlw	0
  7436  0C1C  00BB               	movwf	?___fldiv
  7437  0C1D  2D6F               	goto	l659
  7438  0C1E                     l3773:
  7439  0C1E  0853               	movf	___fldiv@bexp,w
  7440  0C1F  00C3               	movwf	??___fldiv
  7441  0C20  01C4               	clrf	??___fldiv+1
  7442  0C21  0844               	movf	??___fldiv+1,w
  7443  0C22  00C6               	movwf	??___fldiv+3
  7444  0C23  0854               	movf	___fldiv@aexp,w
  7445  0C24  0243               	subwf	??___fldiv,w
  7446  0C25  00C5               	movwf	??___fldiv+2
  7447  0C26  1C03               	skipc
  7448  0C27  03C6               	decf	??___fldiv+3,f
  7449  0C28  0845               	movf	??___fldiv+2,w
  7450  0C29  3E7F               	addlw	127
  7451  0C2A  00CD               	movwf	___fldiv@new_exp
  7452  0C2B  0846               	movf	??___fldiv+3,w
  7453  0C2C  1803               	skipnc
  7454  0C2D  3E01               	addlw	1
  7455  0C2E  3E00               	addlw	0
  7456  0C2F  00CE               	movwf	___fldiv@new_exp+1
  7457  0C30                     l3775:
  7458  0C30  0842               	movf	___fldiv@b+3,w
  7459  0C31  00CB               	movwf	___fldiv@rem+3
  7460  0C32  0841               	movf	___fldiv@b+2,w
  7461  0C33  00CA               	movwf	___fldiv@rem+2
  7462  0C34  0840               	movf	___fldiv@b+1,w
  7463  0C35  00C9               	movwf	___fldiv@rem+1
  7464  0C36  083F               	movf	___fldiv@b,w
  7465  0C37  00C8               	movwf	___fldiv@rem
  7466  0C38                     l3777:
  7467  0C38  3000               	movlw	0
  7468  0C39  00C2               	movwf	___fldiv@b+3
  7469  0C3A  3000               	movlw	0
  7470  0C3B  00C1               	movwf	___fldiv@b+2
  7471  0C3C  3000               	movlw	0
  7472  0C3D  00C0               	movwf	___fldiv@b+1
  7473  0C3E  3000               	movlw	0
  7474  0C3F  00BF               	movwf	___fldiv@b
  7475  0C40                     l3779:
  7476  0C40  3000               	movlw	0
  7477  0C41  00D2               	movwf	___fldiv@grs+3
  7478  0C42  3000               	movlw	0
  7479  0C43  00D1               	movwf	___fldiv@grs+2
  7480  0C44  3000               	movlw	0
  7481  0C45  00D0               	movwf	___fldiv@grs+1
  7482  0C46  3000               	movlw	0
  7483  0C47  00CF               	movwf	___fldiv@grs
  7484  0C48                     l3781:
  7485  0C48  01D4               	clrf	___fldiv@aexp
  7486  0C49  2C94               	goto	l3801
  7487  0C4A                     l3783:
  7488  0C4A  0854               	movf	___fldiv@aexp,w
  7489  0C4B  1903               	btfsc	3,2
  7490  0C4C  2C4E               	goto	u5471
  7491  0C4D  2C4F               	goto	u5470
  7492  0C4E                     u5471:
  7493  0C4E  2C6F               	goto	l3793
  7494  0C4F                     u5470:
  7495  0C4F                     l3785:
  7496  0C4F  3001               	movlw	1
  7497  0C50  00C3               	movwf	??___fldiv
  7498  0C51                     u5485:
  7499  0C51  1003               	clrc
  7500  0C52  0DC8               	rlf	___fldiv@rem,f
  7501  0C53  0DC9               	rlf	___fldiv@rem+1,f
  7502  0C54  0DCA               	rlf	___fldiv@rem+2,f
  7503  0C55  0DCB               	rlf	___fldiv@rem+3,f
  7504  0C56  0BC3               	decfsz	??___fldiv,f
  7505  0C57  2C51               	goto	u5485
  7506  0C58  3001               	movlw	1
  7507  0C59  00C3               	movwf	??___fldiv
  7508  0C5A                     u5495:
  7509  0C5A  1003               	clrc
  7510  0C5B  0DBF               	rlf	___fldiv@b,f
  7511  0C5C  0DC0               	rlf	___fldiv@b+1,f
  7512  0C5D  0DC1               	rlf	___fldiv@b+2,f
  7513  0C5E  0DC2               	rlf	___fldiv@b+3,f
  7514  0C5F  0BC3               	decfsz	??___fldiv,f
  7515  0C60  2C5A               	goto	u5495
  7516  0C61                     l3787:
  7517  0C61  1FD2               	btfss	___fldiv@grs+3,7
  7518  0C62  2C64               	goto	u5501
  7519  0C63  2C65               	goto	u5500
  7520  0C64                     u5501:
  7521  0C64  2C66               	goto	l3791
  7522  0C65                     u5500:
  7523  0C65                     l3789:
  7524  0C65  143F               	bsf	___fldiv@b,0
  7525  0C66                     l3791:
  7526  0C66  3001               	movlw	1
  7527  0C67  00C3               	movwf	??___fldiv
  7528  0C68                     u5515:
  7529  0C68  1003               	clrc
  7530  0C69  0DCF               	rlf	___fldiv@grs,f
  7531  0C6A  0DD0               	rlf	___fldiv@grs+1,f
  7532  0C6B  0DD1               	rlf	___fldiv@grs+2,f
  7533  0C6C  0DD2               	rlf	___fldiv@grs+3,f
  7534  0C6D  0BC3               	decfsz	??___fldiv,f
  7535  0C6E  2C68               	goto	u5515
  7536  0C6F                     l3793:
  7537  0C6F  083E               	movf	___fldiv@a+3,w
  7538  0C70  024B               	subwf	___fldiv@rem+3,w
  7539  0C71  1D03               	skipz
  7540  0C72  2C7D               	goto	u5525
  7541  0C73  083D               	movf	___fldiv@a+2,w
  7542  0C74  024A               	subwf	___fldiv@rem+2,w
  7543  0C75  1D03               	skipz
  7544  0C76  2C7D               	goto	u5525
  7545  0C77  083C               	movf	___fldiv@a+1,w
  7546  0C78  0249               	subwf	___fldiv@rem+1,w
  7547  0C79  1D03               	skipz
  7548  0C7A  2C7D               	goto	u5525
  7549  0C7B  083B               	movf	___fldiv@a,w
  7550  0C7C  0248               	subwf	___fldiv@rem,w
  7551  0C7D                     u5525:
  7552  0C7D  1C03               	skipc
  7553  0C7E  2C80               	goto	u5521
  7554  0C7F  2C81               	goto	u5520
  7555  0C80                     u5521:
  7556  0C80  2C90               	goto	l3799
  7557  0C81                     u5520:
  7558  0C81                     l3795:
  7559  0C81  1752               	bsf	___fldiv@grs+3,6
  7560  0C82                     l3797:
  7561  0C82  083B               	movf	___fldiv@a,w
  7562  0C83  02C8               	subwf	___fldiv@rem,f
  7563  0C84  083C               	movf	___fldiv@a+1,w
  7564  0C85  1C03               	skipc
  7565  0C86  0F3C               	incfsz	___fldiv@a+1,w
  7566  0C87  02C9               	subwf	___fldiv@rem+1,f
  7567  0C88  083D               	movf	___fldiv@a+2,w
  7568  0C89  1C03               	skipc
  7569  0C8A  0F3D               	incfsz	___fldiv@a+2,w
  7570  0C8B  02CA               	subwf	___fldiv@rem+2,f
  7571  0C8C  083E               	movf	___fldiv@a+3,w
  7572  0C8D  1C03               	skipc
  7573  0C8E  0F3E               	incfsz	___fldiv@a+3,w
  7574  0C8F  02CB               	subwf	___fldiv@rem+3,f
  7575  0C90                     l3799:
  7576  0C90  3001               	movlw	1
  7577  0C91  00C3               	movwf	??___fldiv
  7578  0C92  0843               	movf	??___fldiv,w
  7579  0C93  07D4               	addwf	___fldiv@aexp,f
  7580  0C94                     l3801:
  7581  0C94  301A               	movlw	26
  7582  0C95  0254               	subwf	___fldiv@aexp,w
  7583  0C96  1C03               	skipc
  7584  0C97  2C99               	goto	u5531
  7585  0C98  2C9A               	goto	u5530
  7586  0C99                     u5531:
  7587  0C99  2C4A               	goto	l3783
  7588  0C9A                     u5530:
  7589  0C9A                     l3803:
  7590  0C9A  084B               	movf	___fldiv@rem+3,w
  7591  0C9B  044A               	iorwf	___fldiv@rem+2,w
  7592  0C9C  0449               	iorwf	___fldiv@rem+1,w
  7593  0C9D  0448               	iorwf	___fldiv@rem,w
  7594  0C9E  1903               	skipnz
  7595  0C9F  2CA1               	goto	u5541
  7596  0CA0  2CA2               	goto	u5540
  7597  0CA1                     u5541:
  7598  0CA1  2CC1               	goto	l3817
  7599  0CA2                     u5540:
  7600  0CA2                     l3805:
  7601  0CA2  144F               	bsf	___fldiv@grs,0
  7602  0CA3  2CC1               	goto	l3817
  7603  0CA4                     l3807:
  7604  0CA4  3001               	movlw	1
  7605  0CA5  00C3               	movwf	??___fldiv
  7606  0CA6                     u5555:
  7607  0CA6  1003               	clrc
  7608  0CA7  0DBF               	rlf	___fldiv@b,f
  7609  0CA8  0DC0               	rlf	___fldiv@b+1,f
  7610  0CA9  0DC1               	rlf	___fldiv@b+2,f
  7611  0CAA  0DC2               	rlf	___fldiv@b+3,f
  7612  0CAB  0BC3               	decfsz	??___fldiv,f
  7613  0CAC  2CA6               	goto	u5555
  7614  0CAD                     l3809:
  7615  0CAD  1FD2               	btfss	___fldiv@grs+3,7
  7616  0CAE  2CB0               	goto	u5561
  7617  0CAF  2CB1               	goto	u5560
  7618  0CB0                     u5561:
  7619  0CB0  2CB2               	goto	l3813
  7620  0CB1                     u5560:
  7621  0CB1                     l3811:
  7622  0CB1  143F               	bsf	___fldiv@b,0
  7623  0CB2                     l3813:
  7624  0CB2  3001               	movlw	1
  7625  0CB3  00C3               	movwf	??___fldiv
  7626  0CB4                     u5575:
  7627  0CB4  1003               	clrc
  7628  0CB5  0DCF               	rlf	___fldiv@grs,f
  7629  0CB6  0DD0               	rlf	___fldiv@grs+1,f
  7630  0CB7  0DD1               	rlf	___fldiv@grs+2,f
  7631  0CB8  0DD2               	rlf	___fldiv@grs+3,f
  7632  0CB9  0BC3               	decfsz	??___fldiv,f
  7633  0CBA  2CB4               	goto	u5575
  7634  0CBB                     l3815:
  7635  0CBB  30FF               	movlw	255
  7636  0CBC  07CD               	addwf	___fldiv@new_exp,f
  7637  0CBD  1803               	skipnc
  7638  0CBE  0ACE               	incf	___fldiv@new_exp+1,f
  7639  0CBF  30FF               	movlw	255
  7640  0CC0  07CE               	addwf	___fldiv@new_exp+1,f
  7641  0CC1                     l3817:
  7642  0CC1  1FC1               	btfss	___fldiv@b+2,7
  7643  0CC2  2CC4               	goto	u5581
  7644  0CC3  2CC5               	goto	u5580
  7645  0CC4                     u5581:
  7646  0CC4  2CA4               	goto	l3807
  7647  0CC5                     u5580:
  7648  0CC5                     l3819:
  7649  0CC5  01D4               	clrf	___fldiv@aexp
  7650  0CC6                     l3821:
  7651  0CC6  1FD2               	btfss	___fldiv@grs+3,7
  7652  0CC7  2CC9               	goto	u5591
  7653  0CC8  2CCA               	goto	u5590
  7654  0CC9                     u5591:
  7655  0CC9  2CE6               	goto	l3829
  7656  0CCA                     u5590:
  7657  0CCA                     l3823:
  7658  0CCA  30FF               	movlw	255
  7659  0CCB  054F               	andwf	___fldiv@grs,w
  7660  0CCC  00C3               	movwf	??___fldiv
  7661  0CCD  30FF               	movlw	255
  7662  0CCE  0550               	andwf	___fldiv@grs+1,w
  7663  0CCF  00C4               	movwf	??___fldiv+1
  7664  0CD0  30FF               	movlw	255
  7665  0CD1  0551               	andwf	___fldiv@grs+2,w
  7666  0CD2  00C5               	movwf	??___fldiv+2
  7667  0CD3  307F               	movlw	127
  7668  0CD4  0552               	andwf	___fldiv@grs+3,w
  7669  0CD5  00C6               	movwf	??___fldiv+3
  7670  0CD6  0846               	movf	??___fldiv+3,w
  7671  0CD7  0445               	iorwf	??___fldiv+2,w
  7672  0CD8  0444               	iorwf	??___fldiv+1,w
  7673  0CD9  0443               	iorwf	??___fldiv,w
  7674  0CDA  1903               	skipnz
  7675  0CDB  2CDD               	goto	u5601
  7676  0CDC  2CDE               	goto	u5600
  7677  0CDD                     u5601:
  7678  0CDD  2CE1               	goto	l673
  7679  0CDE                     u5600:
  7680  0CDE                     l3825:
  7681  0CDE  01D4               	clrf	___fldiv@aexp
  7682  0CDF  0AD4               	incf	___fldiv@aexp,f
  7683  0CE0  2CE6               	goto	l3829
  7684  0CE1                     l673:
  7685  0CE1  1C3F               	btfss	___fldiv@b,0
  7686  0CE2  2CE4               	goto	u5611
  7687  0CE3  2CE5               	goto	u5610
  7688  0CE4                     u5611:
  7689  0CE4  2CE6               	goto	l3829
  7690  0CE5                     u5610:
  7691  0CE5  2CDE               	goto	l3825
  7692  0CE6                     l3829:
  7693  0CE6  0854               	movf	___fldiv@aexp,w
  7694  0CE7  1903               	btfsc	3,2
  7695  0CE8  2CEA               	goto	u5621
  7696  0CE9  2CEB               	goto	u5620
  7697  0CEA                     u5621:
  7698  0CEA  2D1C               	goto	l3839
  7699  0CEB                     u5620:
  7700  0CEB                     l3831:
  7701  0CEB  3001               	movlw	1
  7702  0CEC  07BF               	addwf	___fldiv@b,f
  7703  0CED  3000               	movlw	0
  7704  0CEE  1803               	skipnc
  7705  0CEF  3001               	movlw	1
  7706  0CF0  07C0               	addwf	___fldiv@b+1,f
  7707  0CF1  3000               	movlw	0
  7708  0CF2  1803               	skipnc
  7709  0CF3  3001               	movlw	1
  7710  0CF4  07C1               	addwf	___fldiv@b+2,f
  7711  0CF5  3000               	movlw	0
  7712  0CF6  1803               	skipnc
  7713  0CF7  3001               	movlw	1
  7714  0CF8  07C2               	addwf	___fldiv@b+3,f
  7715  0CF9                     l3833:
  7716  0CF9  1C42               	btfss	___fldiv@b+3,0
  7717  0CFA  2CFC               	goto	u5631
  7718  0CFB  2CFD               	goto	u5630
  7719  0CFC                     u5631:
  7720  0CFC  2D1C               	goto	l3839
  7721  0CFD                     u5630:
  7722  0CFD                     l3835:
  7723  0CFD  083F               	movf	___fldiv@b,w
  7724  0CFE  00C3               	movwf	??___fldiv
  7725  0CFF  0840               	movf	___fldiv@b+1,w
  7726  0D00  00C4               	movwf	??___fldiv+1
  7727  0D01  0841               	movf	___fldiv@b+2,w
  7728  0D02  00C5               	movwf	??___fldiv+2
  7729  0D03  0842               	movf	___fldiv@b+3,w
  7730  0D04  00C6               	movwf	??___fldiv+3
  7731  0D05  3001               	movlw	1
  7732  0D06  00C7               	movwf	??___fldiv+4
  7733  0D07                     u5645:
  7734  0D07  0D46               	rlf	??___fldiv+3,w
  7735  0D08  0CC6               	rrf	??___fldiv+3,f
  7736  0D09  0CC5               	rrf	??___fldiv+2,f
  7737  0D0A  0CC4               	rrf	??___fldiv+1,f
  7738  0D0B  0CC3               	rrf	??___fldiv,f
  7739  0D0C                     u5640:
  7740  0D0C  0BC7               	decfsz	??___fldiv+4,f
  7741  0D0D  2D07               	goto	u5645
  7742  0D0E  0846               	movf	??___fldiv+3,w
  7743  0D0F  00C2               	movwf	___fldiv@b+3
  7744  0D10  0845               	movf	??___fldiv+2,w
  7745  0D11  00C1               	movwf	___fldiv@b+2
  7746  0D12  0844               	movf	??___fldiv+1,w
  7747  0D13  00C0               	movwf	___fldiv@b+1
  7748  0D14  0843               	movf	??___fldiv,w
  7749  0D15  00BF               	movwf	___fldiv@b
  7750  0D16                     l3837:
  7751  0D16  3001               	movlw	1
  7752  0D17  07CD               	addwf	___fldiv@new_exp,f
  7753  0D18  1803               	skipnc
  7754  0D19  0ACE               	incf	___fldiv@new_exp+1,f
  7755  0D1A  3000               	movlw	0
  7756  0D1B  07CE               	addwf	___fldiv@new_exp+1,f
  7757  0D1C                     l3839:
  7758  0D1C  084E               	movf	___fldiv@new_exp+1,w
  7759  0D1D  3A80               	xorlw	128
  7760  0D1E  00FF               	movwf	btemp+1
  7761  0D1F  3080               	movlw	128
  7762  0D20  027F               	subwf	btemp+1,w
  7763  0D21  1D03               	skipz
  7764  0D22  2D25               	goto	u5655
  7765  0D23  30FF               	movlw	255
  7766  0D24  024D               	subwf	___fldiv@new_exp,w
  7767  0D25                     u5655:
  7768  0D25  1C03               	skipc
  7769  0D26  2D28               	goto	u5651
  7770  0D27  2D29               	goto	u5650
  7771  0D28                     u5651:
  7772  0D28  2D37               	goto	l3843
  7773  0D29                     u5650:
  7774  0D29                     l3841:
  7775  0D29  30FF               	movlw	255
  7776  0D2A  1283               	bcf	3,5	;RP0=0, select bank0
  7777  0D2B  1303               	bcf	3,6	;RP1=0, select bank0
  7778  0D2C  00CD               	movwf	___fldiv@new_exp
  7779  0D2D  3000               	movlw	0
  7780  0D2E  00CE               	movwf	___fldiv@new_exp+1
  7781  0D2F  3000               	movlw	0
  7782  0D30  00C2               	movwf	___fldiv@b+3
  7783  0D31  3000               	movlw	0
  7784  0D32  00C1               	movwf	___fldiv@b+2
  7785  0D33  3000               	movlw	0
  7786  0D34  00C0               	movwf	___fldiv@b+1
  7787  0D35  3000               	movlw	0
  7788  0D36  00BF               	movwf	___fldiv@b
  7789  0D37                     l3843:
  7790  0D37  1283               	bcf	3,5	;RP0=0, select bank0
  7791  0D38  1303               	bcf	3,6	;RP1=0, select bank0
  7792  0D39  084E               	movf	___fldiv@new_exp+1,w
  7793  0D3A  3A80               	xorlw	128
  7794  0D3B  00FF               	movwf	btemp+1
  7795  0D3C  3080               	movlw	128
  7796  0D3D  027F               	subwf	btemp+1,w
  7797  0D3E  1D03               	skipz
  7798  0D3F  2D42               	goto	u5665
  7799  0D40  3001               	movlw	1
  7800  0D41  024D               	subwf	___fldiv@new_exp,w
  7801  0D42                     u5665:
  7802  0D42  1803               	skipnc
  7803  0D43  2D45               	goto	u5661
  7804  0D44  2D46               	goto	u5660
  7805  0D45                     u5661:
  7806  0D45  2D53               	goto	l679
  7807  0D46                     u5660:
  7808  0D46                     l3845:
  7809  0D46  1283               	bcf	3,5	;RP0=0, select bank0
  7810  0D47  1303               	bcf	3,6	;RP1=0, select bank0
  7811  0D48  01CD               	clrf	___fldiv@new_exp
  7812  0D49  01CE               	clrf	___fldiv@new_exp+1
  7813  0D4A                     l3847:
  7814  0D4A  3000               	movlw	0
  7815  0D4B  00C2               	movwf	___fldiv@b+3
  7816  0D4C  3000               	movlw	0
  7817  0D4D  00C1               	movwf	___fldiv@b+2
  7818  0D4E  3000               	movlw	0
  7819  0D4F  00C0               	movwf	___fldiv@b+1
  7820  0D50  3000               	movlw	0
  7821  0D51  00BF               	movwf	___fldiv@b
  7822  0D52                     l3849:
  7823  0D52  01CC               	clrf	___fldiv@sign
  7824  0D53                     l679:
  7825  0D53  1283               	bcf	3,5	;RP0=0, select bank0
  7826  0D54  1303               	bcf	3,6	;RP1=0, select bank0
  7827  0D55  084D               	movf	___fldiv@new_exp,w
  7828  0D56  00C3               	movwf	??___fldiv
  7829  0D57  0843               	movf	??___fldiv,w
  7830  0D58  00D3               	movwf	___fldiv@bexp
  7831  0D59                     l3851:
  7832  0D59  1C53               	btfss	___fldiv@bexp,0
  7833  0D5A  2D5C               	goto	u5671
  7834  0D5B  2D5D               	goto	u5670
  7835  0D5C                     u5671:
  7836  0D5C  2D5F               	goto	l3855
  7837  0D5D                     u5670:
  7838  0D5D                     l3853:
  7839  0D5D  17C1               	bsf	___fldiv@b+2,7
  7840  0D5E  2D63               	goto	l681
  7841  0D5F                     l3855:
  7842  0D5F  307F               	movlw	127
  7843  0D60  00C3               	movwf	??___fldiv
  7844  0D61  0843               	movf	??___fldiv,w
  7845  0D62  05C1               	andwf	___fldiv@b+2,f
  7846  0D63                     l681:
  7847  0D63  0853               	movf	___fldiv@bexp,w
  7848  0D64  00C3               	movwf	??___fldiv
  7849  0D65  1003               	clrc
  7850  0D66  0C43               	rrf	??___fldiv,w
  7851  0D67  00C4               	movwf	??___fldiv+1
  7852  0D68  0844               	movf	??___fldiv+1,w
  7853  0D69  00C2               	movwf	___fldiv@b+3
  7854  0D6A  084C               	movf	___fldiv@sign,w
  7855  0D6B  00C3               	movwf	??___fldiv
  7856  0D6C  0843               	movf	??___fldiv,w
  7857  0D6D  04C2               	iorwf	___fldiv@b+3,f
  7858  0D6E  2C07               	goto	l3763
  7859  0D6F                     l659:
  7860  0D6F  0008               	return
  7861  0D70                     __end_of___fldiv:
  7862                           
  7863                           	psect	text23
  7864  1601                     __ptext23:	
  7865 ;; *************** function ___awdiv *****************
  7866 ;; Defined at:
  7867 ;;		line 5 in file "C:\Program Files\Microchip\xc8\v2.31\pic\sources\c90\common\awdiv.c"
  7868 ;; Parameters:    Size  Location     Type
  7869 ;;  divisor         2    3[COMMON] int 
  7870 ;;  dividend        2    5[COMMON] int 
  7871 ;; Auto vars:     Size  Location     Type
  7872 ;;  quotient        2    2[BANK0 ] int 
  7873 ;;  sign            1    1[BANK0 ] unsigned char 
  7874 ;;  counter         1    0[BANK0 ] unsigned char 
  7875 ;; Return value:  Size  Location     Type
  7876 ;;                  2    3[COMMON] int 
  7877 ;; Registers used:
  7878 ;;		wreg, status,2, status,0
  7879 ;; Tracked objects:
  7880 ;;		On entry : 0/0
  7881 ;;		On exit  : 0/0
  7882 ;;		Unchanged: 0/0
  7883 ;; Data sizes:     COMMON   BANK0   BANK1   BANK3   BANK2
  7884 ;;      Params:         4       0       0       0       0
  7885 ;;      Locals:         0       4       0       0       0
  7886 ;;      Temps:          1       0       0       0       0
  7887 ;;      Totals:         5       4       0       0       0
  7888 ;;Total ram usage:        9 bytes
  7889 ;; Hardware stack levels used:    1
  7890 ;; Hardware stack levels required when called:    1
  7891 ;; This function calls:
  7892 ;;		Nothing
  7893 ;; This function is called by:
  7894 ;;		_convert
  7895 ;; This function uses a non-reentrant model
  7896 ;;
  7897                           
  7898                           
  7899                           ;psect for function ___awdiv
  7900  1601                     ___awdiv:
  7901  1601                     l3613:	
  7902                           ;incstack = 0
  7903                           ; Regs used in ___awdiv: [wreg+status,2+status,0]
  7904                           
  7905  1601  1283               	bcf	3,5	;RP0=0, select bank0
  7906  1602  1303               	bcf	3,6	;RP1=0, select bank0
  7907  1603  01A1               	clrf	___awdiv@sign
  7908  1604                     l3615:
  7909  1604  1FF4               	btfss	___awdiv@divisor+1,7
  7910  1605  2E07               	goto	u5121
  7911  1606  2E08               	goto	u5120
  7912  1607                     u5121:
  7913  1607  2E0F               	goto	l3621
  7914  1608                     u5120:
  7915  1608                     l3617:
  7916  1608  09F3               	comf	___awdiv@divisor,f
  7917  1609  09F4               	comf	___awdiv@divisor+1,f
  7918  160A  0AF3               	incf	___awdiv@divisor,f
  7919  160B  1903               	skipnz
  7920  160C  0AF4               	incf	___awdiv@divisor+1,f
  7921  160D                     l3619:
  7922  160D  01A1               	clrf	___awdiv@sign
  7923  160E  0AA1               	incf	___awdiv@sign,f
  7924  160F                     l3621:
  7925  160F  1FF6               	btfss	___awdiv@dividend+1,7
  7926  1610  2E12               	goto	u5131
  7927  1611  2E13               	goto	u5130
  7928  1612                     u5131:
  7929  1612  2E1C               	goto	l3627
  7930  1613                     u5130:
  7931  1613                     l3623:
  7932  1613  09F5               	comf	___awdiv@dividend,f
  7933  1614  09F6               	comf	___awdiv@dividend+1,f
  7934  1615  0AF5               	incf	___awdiv@dividend,f
  7935  1616  1903               	skipnz
  7936  1617  0AF6               	incf	___awdiv@dividend+1,f
  7937  1618                     l3625:
  7938  1618  3001               	movlw	1
  7939  1619  00F7               	movwf	??___awdiv
  7940  161A  0877               	movf	??___awdiv,w
  7941  161B  06A1               	xorwf	___awdiv@sign,f
  7942  161C                     l3627:
  7943  161C  01A2               	clrf	___awdiv@quotient
  7944  161D  01A3               	clrf	___awdiv@quotient+1
  7945  161E                     l3629:
  7946  161E  0873               	movf	___awdiv@divisor,w
  7947  161F  0474               	iorwf	___awdiv@divisor+1,w
  7948  1620  1903               	btfsc	3,2
  7949  1621  2E23               	goto	u5141
  7950  1622  2E24               	goto	u5140
  7951  1623                     u5141:
  7952  1623  2E5B               	goto	l3649
  7953  1624                     u5140:
  7954  1624                     l3631:
  7955  1624  01A0               	clrf	___awdiv@counter
  7956  1625  0AA0               	incf	___awdiv@counter,f
  7957  1626  2E32               	goto	l3637
  7958  1627                     l3633:
  7959  1627  3001               	movlw	1
  7960  1628                     u5155:
  7961  1628  1003               	clrc
  7962  1629  0DF3               	rlf	___awdiv@divisor,f
  7963  162A  0DF4               	rlf	___awdiv@divisor+1,f
  7964  162B  3EFF               	addlw	-1
  7965  162C  1D03               	skipz
  7966  162D  2E28               	goto	u5155
  7967  162E                     l3635:
  7968  162E  3001               	movlw	1
  7969  162F  00F7               	movwf	??___awdiv
  7970  1630  0877               	movf	??___awdiv,w
  7971  1631  07A0               	addwf	___awdiv@counter,f
  7972  1632                     l3637:
  7973  1632  1FF4               	btfss	___awdiv@divisor+1,7
  7974  1633  2E35               	goto	u5161
  7975  1634  2E36               	goto	u5160
  7976  1635                     u5161:
  7977  1635  2E27               	goto	l3633
  7978  1636                     u5160:
  7979  1636                     l3639:
  7980  1636  3001               	movlw	1
  7981  1637                     u5175:
  7982  1637  1003               	clrc
  7983  1638  0DA2               	rlf	___awdiv@quotient,f
  7984  1639  0DA3               	rlf	___awdiv@quotient+1,f
  7985  163A  3EFF               	addlw	-1
  7986  163B  1D03               	skipz
  7987  163C  2E37               	goto	u5175
  7988  163D  0874               	movf	___awdiv@divisor+1,w
  7989  163E  0276               	subwf	___awdiv@dividend+1,w
  7990  163F  1D03               	skipz
  7991  1640  2E43               	goto	u5185
  7992  1641  0873               	movf	___awdiv@divisor,w
  7993  1642  0275               	subwf	___awdiv@dividend,w
  7994  1643                     u5185:
  7995  1643  1C03               	skipc
  7996  1644  2E46               	goto	u5181
  7997  1645  2E47               	goto	u5180
  7998  1646                     u5181:
  7999  1646  2E4E               	goto	l3645
  8000  1647                     u5180:
  8001  1647                     l3641:
  8002  1647  0873               	movf	___awdiv@divisor,w
  8003  1648  02F5               	subwf	___awdiv@dividend,f
  8004  1649  0874               	movf	___awdiv@divisor+1,w
  8005  164A  1C03               	skipc
  8006  164B  03F6               	decf	___awdiv@dividend+1,f
  8007  164C  02F6               	subwf	___awdiv@dividend+1,f
  8008  164D                     l3643:
  8009  164D  1422               	bsf	___awdiv@quotient,0
  8010  164E                     l3645:
  8011  164E  3001               	movlw	1
  8012  164F                     u5195:
  8013  164F  1003               	clrc
  8014  1650  0CF4               	rrf	___awdiv@divisor+1,f
  8015  1651  0CF3               	rrf	___awdiv@divisor,f
  8016  1652  3EFF               	addlw	-1
  8017  1653  1D03               	skipz
  8018  1654  2E4F               	goto	u5195
  8019  1655                     l3647:
  8020  1655  3001               	movlw	1
  8021  1656  02A0               	subwf	___awdiv@counter,f
  8022  1657  1D03               	btfss	3,2
  8023  1658  2E5A               	goto	u5201
  8024  1659  2E5B               	goto	u5200
  8025  165A                     u5201:
  8026  165A  2E36               	goto	l3639
  8027  165B                     u5200:
  8028  165B                     l3649:
  8029  165B  0821               	movf	___awdiv@sign,w
  8030  165C  1903               	btfsc	3,2
  8031  165D  2E5F               	goto	u5211
  8032  165E  2E60               	goto	u5210
  8033  165F                     u5211:
  8034  165F  2E65               	goto	l3653
  8035  1660                     u5210:
  8036  1660                     l3651:
  8037  1660  09A2               	comf	___awdiv@quotient,f
  8038  1661  09A3               	comf	___awdiv@quotient+1,f
  8039  1662  0AA2               	incf	___awdiv@quotient,f
  8040  1663  1903               	skipnz
  8041  1664  0AA3               	incf	___awdiv@quotient+1,f
  8042  1665                     l3653:
  8043  1665  0823               	movf	___awdiv@quotient+1,w
  8044  1666  00F4               	movwf	?___awdiv+1
  8045  1667  0822               	movf	___awdiv@quotient,w
  8046  1668  00F3               	movwf	?___awdiv
  8047  1669                     l461:
  8048  1669  0008               	return
  8049  166A                     __end_of___awdiv:
  8050                           
  8051                           	psect	text24
  8052  1528                     __ptext24:	
  8053 ;; *************** function _isr *****************
  8054 ;; Defined at:
  8055 ;;		line 52 in file "Lab05.c"
  8056 ;; Parameters:    Size  Location     Type
  8057 ;;		None
  8058 ;; Auto vars:     Size  Location     Type
  8059 ;;		None
  8060 ;; Return value:  Size  Location     Type
  8061 ;;                  1    wreg      void 
  8062 ;; Registers used:
  8063 ;;		wreg, status,2, status,0
  8064 ;; Tracked objects:
  8065 ;;		On entry : 0/0
  8066 ;;		On exit  : 0/0
  8067 ;;		Unchanged: 0/0
  8068 ;; Data sizes:     COMMON   BANK0   BANK1   BANK3   BANK2
  8069 ;;      Params:         0       0       0       0       0
  8070 ;;      Locals:         0       0       0       0       0
  8071 ;;      Temps:          3       0       0       0       0
  8072 ;;      Totals:         3       0       0       0       0
  8073 ;;Total ram usage:        3 bytes
  8074 ;; Hardware stack levels used:    1
  8075 ;; This function calls:
  8076 ;;		Nothing
  8077 ;; This function is called by:
  8078 ;;		Interrupt level 1
  8079 ;; This function uses a non-reentrant model
  8080 ;;
  8081                           
  8082                           
  8083                           ;psect for function _isr
  8084  1528                     _isr:
  8085  1528                     i1l3169:
  8086                           
  8087                           ;Lab05.c: 54:    if (INTCONbits.RBIF == 1){
  8088  1528  1C0B               	btfss	11,0	;volatile
  8089  1529  2D2B               	goto	u432_21
  8090  152A  2D2C               	goto	u432_20
  8091  152B                     u432_21:
  8092  152B  2D4C               	goto	i1l176
  8093  152C                     u432_20:
  8094  152C                     i1l3171:
  8095                           
  8096                           ;Lab05.c: 56:        if(PORTBbits.RB0 == 1){
  8097  152C  1283               	bcf	3,5	;RP0=0, select bank0
  8098  152D  1303               	bcf	3,6	;RP1=0, select bank0
  8099  152E  1C06               	btfss	6,0	;volatile
  8100  152F  2D31               	goto	u433_21
  8101  1530  2D32               	goto	u433_20
  8102  1531                     u433_21:
  8103  1531  2D3D               	goto	i1l3177
  8104  1532                     u433_20:
  8105  1532                     i1l3173:
  8106                           
  8107                           ;Lab05.c: 57:            contador++;
  8108  1532  3001               	movlw	1
  8109  1533  00F0               	movwf	??_isr
  8110  1534  0870               	movf	??_isr,w
  8111  1535  1683               	bsf	3,5	;RP0=1, select bank1
  8112  1536  1303               	bcf	3,6	;RP1=0, select bank1
  8113  1537  07BA               	addwf	_contador^(0+128),f
  8114  1538                     i1l3175:
  8115                           
  8116                           ;Lab05.c: 58:            contador = contador & 0x0f;
  8117  1538  083A               	movf	_contador^(0+128),w
  8118  1539  390F               	andlw	15
  8119  153A  00F0               	movwf	??_isr
  8120  153B  0870               	movf	??_isr,w
  8121  153C  00BA               	movwf	_contador^(0+128)
  8122  153D                     i1l3177:
  8123                           
  8124                           ;Lab05.c: 60:        if(PORTBbits.RB1 == 1){
  8125  153D  1283               	bcf	3,5	;RP0=0, select bank0
  8126  153E  1C86               	btfss	6,1	;volatile
  8127  153F  2D41               	goto	u434_21
  8128  1540  2D42               	goto	u434_20
  8129  1541                     u434_21:
  8130  1541  2D4B               	goto	i1l3183
  8131  1542                     u434_20:
  8132  1542                     i1l3179:
  8133                           
  8134                           ;Lab05.c: 61:            contador--;
  8135  1542  3001               	movlw	1
  8136  1543  1683               	bsf	3,5	;RP0=1, select bank1
  8137  1544  1303               	bcf	3,6	;RP1=0, select bank1
  8138  1545  02BA               	subwf	_contador^(0+128),f
  8139  1546                     i1l3181:
  8140                           
  8141                           ;Lab05.c: 62:            contador = contador & 0x0f;
  8142  1546  083A               	movf	_contador^(0+128),w
  8143  1547  390F               	andlw	15
  8144  1548  00F0               	movwf	??_isr
  8145  1549  0870               	movf	??_isr,w
  8146  154A  00BA               	movwf	_contador^(0+128)
  8147  154B                     i1l3183:
  8148                           
  8149                           ;Lab05.c: 64:        INTCONbits.RBIF = 0;
  8150  154B  100B               	bcf	11,0	;volatile
  8151  154C                     i1l176:
  8152  154C  0872               	movf	??_isr+2,w
  8153  154D  008A               	movwf	10
  8154  154E  0E71               	swapf	??_isr+1,w
  8155  154F  0083               	movwf	3
  8156  1550  0EFE               	swapf	btemp,f
  8157  1551  0E7E               	swapf	btemp,w
  8158  1552  0009               	retfie
  8159  1553                     __end_of_isr:
  8160  0002                     
  8161                           	psect	intentry
  8162  0004                     __pintentry:	
  8163                           ;incstack = 0
  8164                           ; Regs used in _isr: [wreg+status,2+status,0]
  8165                           
  8166  0004                     interrupt_function:
  8167  007E                     saved_w	set	btemp
  8168  0004  00FE               	movwf	btemp
  8169  0005  0E03               	swapf	3,w
  8170  0006  00F1               	movwf	??_isr+1
  8171  0007  080A               	movf	10,w
  8172  0008  00F2               	movwf	??_isr+2
  8173  0009  160A  118A  2D28   	ljmp	_isr
  8174                           
  8175                           	psect	functab
  8176  0026                     __pfunctab:
  8177  0026                     __fptable:
  8178  0026                     fptable:
  8179  0026  00FF               	movwf	(btemp+1)& (0+127)
  8180  0027  3000               	movlw	high fptable
  8181  0028  008A               	movwf	10
  8182  0029  087F               	movf	(btemp+1)& (0+127),w
  8183  002A  0782               	addwf	2,f
  8184  002B                     fpbase:
  8185  002B  282B               	goto	fpbase	; Call via a null pointer and you will get stuck here.
  8186  002C                     fp__putch:
  8187  002C  160A  118A  2C33   	ljmp	_putch
  8188  002F                     __end_of__fptable:
  8189  007E                     btemp	set	126	;btemp
  8190  007E                     wtemp0	set	126
  8191                           
  8192                           	psect	config
  8193                           
  8194                           ;Config register CONFIG1 @ 0x2007
  8195                           ;	Oscillator Selection bits
  8196                           ;	FOSC = INTRC_NOCLKOUT, INTOSCIO oscillator: I/O function on RA6/OSC2/CLKOUT pin, I/O f
      +                          unction on RA7/OSC1/CLKIN
  8197                           ;	Watchdog Timer Enable bit
  8198                           ;	WDTE = OFF, WDT disabled and can be enabled by SWDTEN bit of the WDTCON register
  8199                           ;	Power-up Timer Enable bit
  8200                           ;	PWRTE = ON, PWRT enabled
  8201                           ;	RE3/MCLR pin function select bit
  8202                           ;	MCLRE = OFF, RE3/MCLR pin function is digital input, MCLR internally tied to VDD
  8203                           ;	Code Protection bit
  8204                           ;	CP = OFF, Program memory code protection is disabled
  8205                           ;	Data Code Protection bit
  8206                           ;	CPD = OFF, Data memory code protection is disabled
  8207                           ;	Brown Out Reset Selection bits
  8208                           ;	BOREN = OFF, BOR disabled
  8209                           ;	Internal External Switchover bit
  8210                           ;	IESO = OFF, Internal/External Switchover mode is disabled
  8211                           ;	Fail-Safe Clock Monitor Enabled bit
  8212                           ;	FCMEN = OFF, Fail-Safe Clock Monitor is disabled
  8213                           ;	Low Voltage Programming Enable bit
  8214                           ;	LVP = OFF, RB3 pin has digital I/O, HV on MCLR must be used for programming
  8215                           ;	In-Circuit Debugger Mode bit
  8216                           ;	DEBUG = 0x1, unprogrammed default
  8217  2007                     	org	8199
  8218  2007  20C4               	dw	8388
  8219                           
  8220                           ;Config register CONFIG2 @ 0x2008
  8221                           ;	Brown-out Reset Selection bit
  8222                           ;	BOR4V = BOR40V, Brown-out Reset set to 4.0V
  8223                           ;	Flash Program Memory Self Write Enable bits
  8224                           ;	WRT = OFF, Write protection off
  8225  2008                     	org	8200
  8226  2008  3FFF               	dw	16383

Data Sizes:
    Strings     138
    Constant    10
    Data        0
    BSS         17
    Persistent  0
    Stack       0

Auto Spaces:
    Space          Size  Autos    Used
    COMMON           14      8      11
    BANK0            80     77      77
    BANK1            80     23      37
    BANK3            96      0       0
    BANK2            96      0       0

Pointer List with Targets:

    strcat@from	PTR const unsigned char  size(1) Largest target is 20
		 -> concatenar@s2(BANK0[20]), 

    strcat@to	PTR unsigned char  size(1) Largest target is 20
		 -> concatenar@s1(BANK0[20]), 

    strcat@cp	PTR unsigned char  size(1) Largest target is 20
		 -> concatenar@s1(BANK0[20]), 

    sprintf@f	PTR const unsigned char  size(1) Largest target is 3
		 -> STR_8(CODE[3]), STR_7(CODE[3]), 

    sprintf@ap	PTR void [1] size(1) Largest target is 2
		 -> ?_sprintf(BANK0[2]), ?_printf(BANK0[2]), 

    sprintf@wh	PTR unsigned char  size(1) Largest target is 20
		 -> concatenar@s2(BANK0[20]), concatenar@s1(BANK0[20]), 

    pb.func	PTR FTN(unsigned char ,)void  size(1) Largest target is 1
		 -> Absolute function(), putch(), 

    pb.ptr	PTR unsigned char  size(1) Largest target is 20
		 -> NULL(NULL[0]), concatenar@s2(BANK0[20]), concatenar@s1(BANK0[20]), 

    _doprnt@ap	PTR PTR void  size(1) Largest target is 1
		 -> sprintf@ap(BANK0[1]), printf@ap(BANK0[1]), 

    _doprnt@f	PTR const unsigned char  size(2) Largest target is 30
		 -> STR_8(CODE[3]), STR_7(CODE[3]), STR_6(CODE[25]), STR_5(CODE[21]), 
		 -> STR_4(CODE[20]), STR_3(CODE[30]), STR_2(CODE[18]), STR_1(CODE[24]), 
		 -> contador_string(BANK1[10]), 

    _doprnt@pb.func	PTR FTN(unsigned char ,)void  size(1) Largest target is 1
		 -> Absolute function(), putch(), 

    _doprnt@pb.ptr	PTR unsigned char  size(1) Largest target is 20
		 -> NULL(NULL[0]), concatenar@s2(BANK0[20]), concatenar@s1(BANK0[20]), 

    _doprnt@pb	PTR struct __prbuf size(1) Largest target is 3
		 -> sprintf@pb(BANK0[2]), printf@pb(BANK0[2]), 

    printf@f	PTR const unsigned char  size(2) Largest target is 30
		 -> STR_6(CODE[25]), STR_5(CODE[21]), STR_4(CODE[20]), STR_3(CODE[30]), 
		 -> STR_2(CODE[18]), STR_1(CODE[24]), contador_string(BANK1[10]), 

    printf@ap	PTR void [1] size(1) Largest target is 2
		 -> ?_sprintf(BANK0[2]), ?_printf(BANK0[2]), 

    S1010__prbuf$func	PTR FTN(unsigned char ,)void  size(1) Largest target is 1
		 -> Absolute function(), putch(), 

    pb.func	PTR FTN(unsigned char ,)void  size(1) Largest target is 1
		 -> Absolute function(), putch(), 

    S1010__prbuf$ptr	PTR unsigned char  size(1) Largest target is 20
		 -> NULL(NULL[0]), concatenar@s2(BANK0[20]), concatenar@s1(BANK0[20]), 

    pb.ptr	PTR unsigned char  size(1) Largest target is 20
		 -> NULL(NULL[0]), concatenar@s2(BANK0[20]), concatenar@s1(BANK0[20]), 

    atoi@s	PTR const unsigned char  size(1) Largest target is 20
		 -> concatenar@s1(BANK0[20]), 

    sp__strcat	PTR unsigned char  size(1) Largest target is 20
		 -> concatenar@s1(BANK0[20]), 

    convert@data	PTR unsigned char  size(1) Largest target is 10
		 -> contador_string(BANK1[10]), 


Critical Paths under _main in COMMON

    __doprnt->___lwdiv
    ___lwmod->___lwdiv
    _convert->___awdiv
    ___xxtofl->___fltol
    ___wmul->___fltol
    ___flsub->___fladd
    ___flsub->___fltol
    ___flmul->__Umul8_16
    ___flmul->___fltol

Critical Paths under _isr in COMMON

    None.

Critical Paths under _main in BANK0

    _mensaje->_concatenar
    _printf->__doprnt
    _concatenar->_sprintf
    _sprintf->__doprnt
    __doprnt->___lwmod
    ___lwmod->___lwdiv
    _atoi->___wmul
    _convert->___flmul
    ___xxtofl->___wmul
    ___wmul->___fltol
    ___flsub->___xxtofl
    ___flmul->___flsub
    ___fldiv->___xxtofl

Critical Paths under _isr in BANK0

    None.

Critical Paths under _main in BANK1

    _main->_convert

Critical Paths under _isr in BANK1

    None.

Critical Paths under _main in BANK3

    None.

Critical Paths under _isr in BANK3

    None.

Critical Paths under _main in BANK2

    None.

Critical Paths under _isr in BANK2

    None.

Call Graph Tables:

 ---------------------------------------------------------------------------------
 (Depth) Function   	        Calls       Base Space   Used Autos Params    Refs
 ---------------------------------------------------------------------------------
 (0) _main                                                 8     8      0   25636
                                             15 BANK1      8     8      0
                           ___xxtofl
                            _convert
                            _mensaje
                              _setup
 ---------------------------------------------------------------------------------
 (1) _setup                                                0     0      0       0
 ---------------------------------------------------------------------------------
 (1) _mensaje                                              5     5      0    9074
                                              0 BANK1      5     5      0
                         _concatenar
                             _printf
 ---------------------------------------------------------------------------------
 (2) _printf                                               8     4      4    3407
                                             22 BANK0      8     4      4
                            __doprnt
 ---------------------------------------------------------------------------------
 (2) _concatenar                                          47    43      4    5667
                                             30 BANK0     47    43      4
                               _atoi
                            _sprintf
                             _strcat
 ---------------------------------------------------------------------------------
 (3) _strcat                                               4     3      1     207
                                              3 COMMON     4     3      1
 ---------------------------------------------------------------------------------
 (3) _sprintf                                              8     5      3    3105
                                             22 BANK0      8     5      3
                            __doprnt
 ---------------------------------------------------------------------------------
 (3) __doprnt                                             21    18      3    2575
                                              9 BANK0     13    10      3
                   Absolute function *
                            ___lwdiv
                            ___lwmod
                              _putch *
 ---------------------------------------------------------------------------------
 (4) _putch                                                1     0      1     234
                                              3 COMMON     1     0      1
 ---------------------------------------------------------------------------------
 (4) ___lwmod                                              6     2      4     311
                                              3 BANK0      6     2      4
                            ___lwdiv (ARG)
 ---------------------------------------------------------------------------------
 (4) ___lwdiv                                              8     4      4     421
                                              3 COMMON     5     1      4
                                              0 BANK0      3     3      0
 ---------------------------------------------------------------------------------
 (4) Absolute function(Fake)                               1     0      1       0
 ---------------------------------------------------------------------------------
 (3) _atoi                                                 8     6      2    1654
                                             13 BANK0      8     6      2
                             ___wmul
                            _isdigit
 ---------------------------------------------------------------------------------
 (4) _isdigit                                              2     2      0      68
                                              3 COMMON     2     2      0
 ---------------------------------------------------------------------------------
 (1) _convert                                             23    17      6   15422
                                             61 BANK0      8     2      6
                                              0 BANK1     15    15      0
                            ___awdiv
                            ___fldiv
                             ___flge
                            ___flmul
                            ___flsub
                            ___fltol
                             ___wmul
                           ___xxtofl
 ---------------------------------------------------------------------------------
 (2) ___xxtofl                                            14    10      4    1106
                                             13 BANK0     14    10      4
                            ___fltol (ARG)
                             ___wmul (ARG)
 ---------------------------------------------------------------------------------
 (4) ___wmul                                               6     2      4    1216
                                              7 BANK0      6     2      4
                            ___fltol (ARG)
 ---------------------------------------------------------------------------------
 (2) ___fltol                                             11     7      4     967
                                              3 COMMON     4     0      4
                                              0 BANK0      7     7      0
 ---------------------------------------------------------------------------------
 (2) ___flsub                                              8     0      8    3727
                                             27 BANK0      8     0      8
                            ___fladd
                            ___fltol (ARG)
                             ___wmul (ARG)
                           ___xxtofl (ARG)
 ---------------------------------------------------------------------------------
 (3) ___fladd                                             20    12      8    3122
                                              3 COMMON     4     4      0
                                              0 BANK0     16     8      8
 ---------------------------------------------------------------------------------
 (2) ___flmul                                             26    18      8    3533
                                             35 BANK0     26    18      8
                          __Umul8_16
                            ___flsub (ARG)
                            ___fltol (ARG)
                           ___xxtofl (ARG)
 ---------------------------------------------------------------------------------
 (3) __Umul8_16                                            9     7      2     980
                                              3 COMMON     4     2      2
                                              0 BANK0      5     5      0
 ---------------------------------------------------------------------------------
 (2) ___flge                                              12     4      8     446
                                              3 COMMON     4     4      0
                                              0 BANK0      8     0      8
 ---------------------------------------------------------------------------------
 (2) ___fldiv                                             26    18      8    2043
                                             27 BANK0     26    18      8
                           ___xxtofl (ARG)
 ---------------------------------------------------------------------------------
 (2) ___awdiv                                              9     5      4     625
                                              3 COMMON     5     1      4
                                              0 BANK0      4     4      0
 ---------------------------------------------------------------------------------
 Estimated maximum stack depth 4
 ---------------------------------------------------------------------------------
 (Depth) Function   	        Calls       Base Space   Used Autos Params    Refs
 ---------------------------------------------------------------------------------
 (6) _isr                                                  3     3      0       0
                                              0 COMMON     3     3      0
 ---------------------------------------------------------------------------------
 Estimated maximum stack depth 6
 ---------------------------------------------------------------------------------

 Call Graph Graphs:

 _main (ROOT)
   ___xxtofl
     ___fltol (ARG)
     ___wmul (ARG)
       ___fltol (ARG)
   _convert
     ___awdiv
     ___fldiv
       ___xxtofl (ARG)
         ___fltol (ARG)
         ___wmul (ARG)
           ___fltol (ARG)
     ___flge
     ___flmul
       __Umul8_16
       ___flsub (ARG)
         ___fladd
         ___fltol (ARG)
         ___wmul (ARG)
           ___fltol (ARG)
         ___xxtofl (ARG)
           ___fltol (ARG)
           ___wmul (ARG)
             ___fltol (ARG)
       ___fltol (ARG)
       ___xxtofl (ARG)
         ___fltol (ARG)
         ___wmul (ARG)
           ___fltol (ARG)
     ___flsub
       ___fladd
       ___fltol (ARG)
       ___wmul (ARG)
         ___fltol (ARG)
       ___xxtofl (ARG)
         ___fltol (ARG)
         ___wmul (ARG)
           ___fltol (ARG)
     ___fltol
     ___wmul
       ___fltol (ARG)
     ___xxtofl
       ___fltol (ARG)
       ___wmul (ARG)
         ___fltol (ARG)
   _mensaje
     _concatenar
       _atoi
         ___wmul
           ___fltol (ARG)
         _isdigit
       _sprintf
         __doprnt
           Absolute function(Fake) *
           ___lwdiv *
           ___lwmod *
             ___lwdiv (ARG)
           _putch *
       _strcat
     _printf
       __doprnt
         Absolute function(Fake) *
         ___lwdiv *
         ___lwmod *
           ___lwdiv (ARG)
         _putch *
   _setup

 _isr (ROOT)

 Address spaces:
Name               Size   Autos  Total    Cost      Usage
BITCOMMON            E      0       0       0        0.0%
EEDATA             100      0       0       0        0.0%
NULL                 0      0       0       0        0.0%
CODE                 0      0       0       0        0.0%
COMMON               E      8       B       1       78.6%
BITSFR0              0      0       0       1        0.0%
SFR0                 0      0       0       1        0.0%
BITSFR1              0      0       0       2        0.0%
SFR1                 0      0       0       2        0.0%
STACK                0      0       0       2        0.0%
ABS                  0      0      7D       3        0.0%
BITBANK0            50      0       0       4        0.0%
BITSFR3              0      0       0       4        0.0%
SFR3                 0      0       0       4        0.0%
BANK0               50     4D      4D       5       96.2%
BITSFR2              0      0       0       5        0.0%
SFR2                 0      0       0       5        0.0%
BITBANK1            50      0       0       6        0.0%
BANK1               50     17      25       7       46.2%
BITBANK3            60      0       0       8        0.0%
BANK3               60      0       0       9        0.0%
BITBANK2            60      0       0      10        0.0%
BANK2               60      0       0      11        0.0%
DATA                 0      0      7D      12        0.0%


Microchip Technology PIC Macro Assembler V2.31 build 20201012212115 
Symbol Table                                                                                   Sun Aug 15 23:10:35 2021

           ___fldiv@aexp 0054             ___fldiv@bexp 0053                        pc 0002  
           ___fldiv@sign 004C                       l58 0422             ___awdiv@sign 0021  
                     fsr 0004      ___wmul@multiplicand 0029              concatenar@a 003E  
            concatenar@b 0040              concatenar@c 006B      __Umul8_16@word_mpld 0022  
                    l210 0A29                      l203 098B                      l213 0843  
                    l310 14D5                      l222 157E                      l216 1433  
                    l219 143B                      l308 14BD                      l501 07EA  
                    l504 07FF                      l601 0DD3                      l195 0966  
                    l188 0948                      l461 1669                      l605 0E7C  
                    l622 0F4D                      l614 0FFF                      l703 06EF  
                    l607 0E51                      l632 0F93                      l482 177A  
                    l626 0F71                      l643 0FF3                      l635 0FD1  
                    l716 14EC                      l644 0FFF                      l580 1600  
                    l485 17E6                      l709 0777                      l741 0868  
                    l486 17FF                      l718 14FE                      l494 07FF  
                    l590 15BA                      l647 14AE                      l743 08FF  
                    l681 0D63                      l673 0CE1                      l657 0BEF  
                    l754 08C9                      l834 148A                      l659 0D6F  
                    l755 08D5                      l747 08AD                      l771 175B  
                    l827 0B92                      l843 1527                      l679 0D53  
                    l776 144D                      l697 0783                      l785 1467  
                    _isr 1528                      fsr0 0004                      indf 0000  
           ___flmul@aexp 0051             ___flmul@bexp 0056             concatenar@s1 0057  
           concatenar@s2 0043             ___flmul@sign 0050             ___flmul@temp 005B  
           ___flmul@prod 0057             ___fltol@exp1 0026                     l2111 1433  
                   l2113 1439                     l3101 1564                     l2151 1595  
                   l2143 157F                     l3111 156B                     l3103 1565  
                   l4001 0847                     l2153 1599                     l2145 1587  
                   l2161 15B6                     l3121 1578                     l3113 1570  
                   l3105 1566                     l4003 084C                     l2155 15A3  
                   l2147 158A                     l3131 157D                     l3123 1579  
                   l3115 1573                     l3107 1567                     l4021 0896  
                   l4013 0879                     l4005 0850                     l4101 01FA  
                   l2181 143E                     l3221 15BF                     l2157 15A9  
                   l2149 1591                     l3125 157A                     l3117 1574  
                   l3109 1568                     l4031 08CD                     l4023 08A4  
                   l4015 087E                     l4007 0860                     l4111 02BB  
                   l4103 01FF                     l2183 1444                     l3231 15D7  
                   l3223 15C5                     l2159 15B0                     l3311 0B03  
                   l3303 0ADE                     l3127 157B                     l3119 1575  
                   l3401 0D95                     l4041 08F7                     l4033 08D7  
                   l4025 08B4                     l4017 088B                     l4009 0870  
                   l4121 02F1                     l4113 02D1                     l4105 0220  
                   l2185 144A                     l3233 15E8                     l3225 15C8  
                   l3241 15FC                     l3321 0B50                     l3313 0B0B  
                   l3305 0AE8                     l3129 157C                     l3411 0DAB  
                   l3403 0D97                     l3251 14C4                     l4035 08ED  
                   l4027 08BF                     l4019 0892                     l4131 0328  
                   l4123 02F7                     l4115 02DE                     l4107 0226  
                   l4051 0049                     l2187 144C                     l2179 143D  
                   l3235 15EE                     l3227 15CF                     l3219 15BB  
                   l3323 0B5D                     l3307 0AEE                     l3315 0B11  
                   l3331 0B90                     l2291 151A                     l2283 1500  
                   l3091 155A                     l3501 0EC0                     l3421 0DC0  
                   l3413 0DB1                     l3405 0D9F                     l3253 14CB  
                   l3245 14AF                     l4037 08F2                     l4029 08C3  
                   l4141 0408                     l4133 033E                     l4125 02FC  
                   l4117 02DE                     l4109 023E                     l4061 008B  
                   l4053 004B                     l4045 0032                     l3237 15EF  
                   l3229 15D3                     l3325 0B65                     l3317 0B18  
                   l3309 0AF6                     l4213 0A9A                     l3261 0A2E  
                   l3341 146F                     l2285 1505                     l3093 155C  
                   l3511 0F25                     l3503 0EC1                     l3431 0DDD  
                   l3423 0DC8                     l3415 0DB5                     l3407 0DA4  
                   l3255 14D1                     l3247 14B3                     l4039 08F6  
                   l4135 03DA                     l4127 0301                     l4143 040C  
                   l4119 02E4                     l4071 00C1                     l4063 0096  
                   l4055 004F                     l4047 0047                     l3351 16DC  
                   l3239 15F6                     l3319 0B48                     l3327 0B6B  
                   l3263 0A34                     l3271 0A5A                     l3343 1470  
                   l2287 1509                     l4151 0919                     l3095 155F  
                   l3521 0F5A                     l3513 0F2B                     l3505 0ECA  
                   l3441 0DF1                     l3433 0DE1                     l3425 0DC9  
                   l3417 0DB6                     l3409 0DAA                     l3249 14B7  
                   l4145 0412                     l4137 03FA                     l4129 0322  
                   l4081 00F8                     l4073 00C7                     l4065 009F  
                   l4057 004F                     l4049 0047                     l3361 16F5  
                   l3353 16DD                     l3273 0A5C                     l3265 0A3C  
                   l3329 0B76                     l3345 1474                     l2289 1512  
                   l4153 094E                     l3097 1560                     l3089 1553  
                   l3531 0F75                     l3515 0F30                     l3507 0ECF  
                   l3451 0E05                     l3443 0DF5                     l3435 0DE5  
                   l3419 0DBB                     l3427 0DCB                     l4139 0402  
                   l4091 01D8                     l4083 010E                     l4075 00CC  
                   l4067 00B2                     l4059 006A                     l3363 16FD  
                   l3355 16E1                     l3291 0ABB                     l3275 0A64  
                   l3283 0A82                     l3267 0A4B                     l3259 0A2D  
                   l3347 1484                     l3339 146B                     l3603 0807  
                   l4163 0979                     l4155 0955                     l4147 0900  
                   l3099 1563                     l3621 160F                     l3613 1601  
                   l3533 0F78                     l3525 0F63                     l3509 0EE7  
                   l3517 0F3F                     l3541 0F85                     l3461 0E19  
                   l3453 0E09                     l3445 0DF9                     l3437 0DE9  
                   l3429 0DD9                     l3701 07D8                     l4085 01AA  
                   l4077 00D1                     l4093 01DC                     l4069 00B8  
                   l3381 1757                     l3373 1738                     l3365 1706  
                   l3357 16EA                     l3293 0AC0                     l3285 0AA5  
                   l3277 0A73                     l3269 0A53                     l3605 0827  
                   l4173 09A4                     l4165 0981                     l4157 095D  
                   l4149 090E                     l3631 1624                     l3623 1613  
                   l3615 1604                     l3551 0F98                     l3543 0F86  
                   l3535 0F7A                     l3527 0F6C                     l3519 0F55  
                   l3471 0E60                     l3455 0E0D                     l3447 0DFD  
                   l3439 0DED                     l3463 0E1D                     l3391 0D81  
                   l3711 07F4                     l4095 01E2                     l4087 01CA  
                   l4079 00F2                     l3375 1744                     l3367 170E  
                   l3359 16F2                     l3287 0AB3                     l3279 0A7B  
                   l3607 0833                     l4175 09AC                     l4167 0991  
                   l4159 096C                     l4191 16B5                     l4183 166A  
                   l3641 1647                     l3633 1627                     l3625 1618  
                   l3617 1608                     l3801 0C94                     l3721 0B9A  
                   l3561 0FD6                     l3553 0F9D                     l3545 0F8A  
                   l3537 0F7F                     l3529 0F70                     l3473 0E62  
                   l3481 0E76                     l3465 0E1E                     l3457 0E11  
                   l3449 0E01                     l3393 0D82                     l3385 0D70  
                   l3713 148B                     l4097 01F2                     l4089 01D2  
                   l3377 174B                     l3369 1713                     l3289 0AB7  
                   l3609 083F                     l4177 0A04                     l4169 099E  
                   l4185 166F                     l3651 1660                     l3643 164D  
                   l3635 162E                     l3627 161C                     l3619 160D  
                   l3811 0CB1                     l3803 0C9A                     l3731 0BAF  
                   l3723 0BA0                     l3571 0FED                     l3563 0FDB  
                   l3555 0FAB                     l3547 0F90                     l3539 0F81  
                   l3491 0EA9                     l3483 0E80                     l3475 0E68  
                   l3467 0E35                     l3459 0E15                     l3395 0D87  
                   l3387 0D77                     l3715 148F                     l3707 07DF  
                   l4099 01FA                     l3299 0AC2                     l4179 0A12  
                   l4187 1674                     l3653 1665                     l3645 164E  
                   l3637 1632                     l3629 161E                     l3821 0CC6  
                   l3813 0CB2                     l3805 0CA2                     l3741 0BC7  
                   l3733 0BB7                     l3725 0BA4                     l3661 178E  
                   l3581 14DB                     l3901 0487                     l3573 0FEF  
                   l3565 0FE3                     l3557 0FAF                     l3493 0EAD  
                   l3485 0E85                     l3477 0E69                     l3469 0E55  
                   l3397 0D8C                     l3389 0D7D                     l3709 07EF  
                   l4189 167A                     l3647 1655                     l3639 1636  
                   l3831 0CEB                     l3823 0CCA                     l3815 0CBB  
                   l3807 0CA4                     l3751 0BDC                     l3743 0BCD  
                   l3735 0BB8                     l3727 0BA5                     l3719 0B93  
                   l3671 17FC                     l3663 1796                     l3583 14E2  
                   l3911 04CA                     l3575 0FFA                     l3567 0FE8  
                   l3559 0FCD                     l3495 0EB1                     l3479 0E72  
                   l3399 0D94                     l3649 165B                     l3841 0D29  
                   l3833 0CF9                     l3825 0CDE                     l3809 0CAD  
                   l3817 0CC1                     l3761 0C03                     l3753 0BE4  
                   l3745 0BD1                     l3729 0BAA                     l3737 0BBA  
                   l3673 17FE                     l3665 179A                     l3657 175C  
                   l3585 14E6                     l3921 0553                     l3913 04E6  
                   l3905 0490                     l3577 0FFE                     l3569 0FE9  
                   l3497 0EBA                     l3489 0E90                     l3593 144E  
                   l3851 0D59                     l3843 0D37                     l3835 0CFD  
                   l3819 0CC5                     l3763 0C07                     l3755 0BE5  
                   l3747 0BD2                     l3739 0BC2                     l3667 17BE  
                   l3659 1772                     l3587 14F5                     l3579 14D9  
                   l3931 05C6                     l3923 0563                     l3915 0512  
                   l3907 04A0                     l3499 0EBC                     l3691 07BA  
                   l3683 079A                     l3595 1451                     l3853 0D5D  
                   l3845 0D46                     l3837 0D16                     l3829 0CE6  
                   l3781 0C48                     l3773 0C1E                     l3749 0BD7  
                   l3757 0BE7                     l3669 17C2                     l3589 14FA  
                   l3941 0673                     l3933 05E3                     l3925 0580  
                   l3917 052E                     l3909 04AD                     l3861 0423  
                   l3693 07BE                     l3685 07AF                     l3677 0784  
                   l3597 1455                     l3855 0D5F                     l3847 0D4A  
                   l3839 0D1C                     l3791 0C66                     l3783 0C4A  
                   l3775 0C30                     l3759 0BF7                     l3767 0C10  
                   l3951 06BF                     l3943 069B                     l3935 0610  
                   l3927 0590                     l3919 054A                     l3871 043A  
                   l3863 042A                     l3687 07B0                     l3679 0791  
                   l3599 1459                     l3849 0D52                     l3785 0C4F  
                   l3793 0C6F                     l3777 0C38                     l3769 0C15  
                   l3961 06D4                     l3953 06C0                     l3945 06A4  
                   l3937 0620                     l3929 05AD                     l3881 0456  
                   l3873 043F                     l3865 0430                     l3689 07B8  
                   l3795 0C81                     l3787 0C61                     l3779 0C40  
                   l3971 06F9                     l3963 06D8                     l3955 06C9  
                   l3947 06B2                     l3939 064D                     l3891 046B  
                   l3883 045C                     l3875 0447                     l3867 0434  
                   l3699 07C6                     l3797 0C82                     l3789 0C65  
                   l3981 0737                     l3973 0707                     l3965 06EC  
                   l3949 06BB                     l3957 06CF                     l3893 0473  
                   l3885 0460                     l3877 0449                     l3869 0435  
                   l3799 0C90                     l3991 076B                     l3983 0742  
                   l3975 070B                     l3959 06D3                     l3895 0475  
                   l3887 0461                     l3879 0451                     l3993 076F  
                   l3985 0751                     l3977 0724                     l3969 06F4  
                   l3897 047D                     l3889 0466                     l3995 0770  
                   l3987 075B                     l3979 072A                     l3899 0482  
                   ?_isr 0070                     l3997 077B                     l3989 075D  
                   STR_1 1051                     STR_2 1092                     STR_3 101A  
                   STR_4 107E                     STR_5 1069                     STR_6 1038  
                   STR_7 104E                     STR_8 104E                     u2300 15A3  
                   u2301 15A2                     u2320 15B6                     u2321 15B5  
                   u2305 159F                     u2315 15AA                     u2500 1511  
                   u2501 1510                     u2270 1587                     u2190 1439  
                   u2510 1527                     u2271 1586                     u2191 1438  
                   u2511 1526                     u5000 0F9D                     u5001 0F9C  
                   u5010 0FAF                     u2370 1444                     u2290 1599  
                   u5011 0FAE                     u2371 1443                     u2291 1598  
                   u5020 0FBE                     u2380 144A                     u2381 1449  
                   u2285 158B                     u5110 14FA                     u5030 0FCD  
                   u5111 14F9                     u5031 0FCC                     u5200 165B  
                   u5120 1608                     u6000 070B                     u5040 0FD6  
                   u5201 165A                     u5121 1607                     u5105 14ED  
                   u6001 070A                     u5041 0FD5                     u5025 0FB9  
                   u5210 1660                     u5130 1613                     u6010 071A  
                   u5050 0FDB                     u4410 15FC                     u5211 165F  
                   u5131 1612                     u5051 0FDA                     u4411 15FB  
                   u5140 1624                     u5220 1772                     u6020 0737  
                   u5060 0FE8                     u5300 07A8                     u4420 14B7  
                   u4500 0ADD                     u5141 1623                     u5221 1771  
                   u6021 0736                     u5061 0FE7                     u4421 14B6  
                   u4405 15F0                     u4501 0ADC                     u5230 178E  
                   u6030 0751                     u5070 0FED                     u5310 07BE  
                   u6110 08B3                     u4350 15C5                     u4510 0AE8  
                   u5231 178D                     u6031 0750                     u6015 0715  
                   u5071 0FEC                     u5311 07BD                     u6111 08B2  
                   u4351 15C4                     u4511 0AE7                     u5160 1636  
                   u5400 0BAA                     u5240 179A                     u6040 076F  
                   u5080 0FFE                     u5320 07C5                     u6200 00C0  
                   u4600 170E                     u4520 0AEE                     u5161 1635  
                   u5401 0BA9                     u5241 1799                     u6041 076E  
                   u6025 0733                     u5081 0FFD                     u5321 07C4  
                   u5305 07A3                     u6105 08A5                     u6201 00BF  
                   u4601 170D                     u4521 0AED                     u4505 0AD9  
                   u5410 0BAF                     u5090 14E6                     u4450 14D1  
                   u6130 08C3                     u6050 084C                     u6210 00C7  
                   u4610 1744                     u4370 15D7                     u4530 0AF6  
                   u5155 1628                     u5411 0BAE                     u5251 17A9  
                   u5091 14E5                     u6035 074D                     u4451 14D0  
                   u4435 14BE                     u6131 08C2                     u6051 084B  
                   u6211 00C6                     u4611 1743                     u4371 15D6  
                   u4531 0AF5                     u5180 1647                     u5500 0C65  
                   u5420 0BD1                     u5260 17C2                     u5252 17AA  
                   u4700 0DD9                     u5340 07D7                     u6140 08C9  
                   u6060 0850                     u6220 010E                     u4620 174B  
                   u4540 0B50                     u4460 0A34                     u6300 096C  
                   u5181 1646                     u5501 0C64                     u5421 0BD0  
                   u5261 17C1                     u5253 17AF                     u4701 0DD8  
                   u5341 07D6                     u4445 14C5                     u6141 08C8  
                   u6125 08B8                     u6061 084F                     u6221 010D  
                   u4621 174A                     u4365 15C9                     u4541 0B4F  
                   u4461 0A33                     u6301 096B                     u5430 0BD7  
                   u5254 17B0                     u4710 0DDD                     u4630 0D81  
                   u5350 07DE                     u6150 08CD                     u6070 0870  
                   u6230 01E2                     u4390 15E8                     u4550 0B76  
                   u4470 0A3C                     u6310 0979                     u5175 1637  
                   u5431 0BD6                     u5271 17D1                     u5255 17B5  
                   u4711 0DDC                     u4631 0D80                     u5351 07DD  
                   u5335 07C7                     u6151 08CC                     u6071 086F  
                   u6231 01E1                     u4391 15E7                     u4551 0B75  
                   u4471 0A3B                     u6311 0978                     u5600 0CDE  
                   u5520 0C81                     u5440 0BDC                     u5280 17FC  
                   u5272 17D2                     u5256 17B6                     u4800 0E85  
                   u4720 0E35                     u4640 0D87                     u6160 08E2  
                   u6240 023E                     u4560 0B90                     u4480 0A64  
                   u6320 0981                     u5185 1643                     u5601 0CDD  
                   u5521 0C80                     u5441 0BDB                     u5281 17FB  
                   u5273 17D7                     u4801 0E84                     u4721 0E34  
                   u4641 0D86                     u6241 023D                     u6225 010A  
                   u4385 15D8                     u4561 0B8F                     u4481 0A63  
                   u6321 0980                     u5610 0CE5                     u5530 0C9A  
                   u5450 0BF7                     u5274 17D8                     u4730 0E40  
                   u4650 0D8C                     u5370 07EF                     u5290 0791  
                   u6170 08F2                     u6090 0891                     u6250 02F7  
                   u4570 16EA                     u4490 0AB7                     u6330 0991  
                   u5195 164F                     u5611 0CE4                     u5531 0C99  
                   u5515 0C68                     u5451 0BF6                     u5275 17DD  
                   u4811 0E9B                     u4731 0E3E                     u4651 0D8B  
                   u5371 07EE                     u5291 0790                     u6171 08F1  
                   u6091 0890                     u6251 02F6                     u4571 16E9  
                   u4395 15E4                     u4491 0AB6                     u6331 0990  
                   u5620 0CEB                     u5540 0CA2                     u5460 0C15  
                   u5276 17DE                     u5700 043F                     u4900 0F55  
                   u4820 0EAD                     u4812 0EA2                     u4740 0E41  
                   u4660 0DAA                     u5380 07F4                     u6180 08F6  
                   u6260 033E                     u4580 16F2                     u6340 099E  
                   _RCIF 0065                     u5621 0CEA                     u5541 0CA1  
                   u5525 0C7D                     u5461 0C14                     u5285 17F8  
                   u5701 043E                     u4901 0F54                     u4821 0EAC  
                   u4813 0EA9                     u4725 0E31                     u4661 0DA9  
                   u5381 07F3                     u5365 07E1                     u6181 08F5  
                   u6165 08DD                     u6085 0883                     u6261 033D  
                   u6245 023A                     u4581 16F1                     u6341 099D  
                   u5630 0CFD                     u5470 0C4F                     u5390 0BA4  
                   u5710 0460                     u4910 0F5A                     u4830 0EB1  
                   u4750 0E55                     u4670 0DB5                     u6270 0412  
                   u6190 006A                     u4590 16FD                     u6350 09A4  
                   u5631 0CFC                     u5471 0C4E                     u5391 0BA3  
                   u5711 045F                     u4911 0F59                     u4831 0EB0  
                   u4751 0E54                     u4671 0DB4                     u6271 0411  
                   u6191 0069                     u4591 16FC                     u6351 09A3  
                   u5640 0D0C                     u5560 0CB1                     u5720 0466  
                   u4840 0EC0                     u4760 0E68                     u4680 0DBB  
                   u6360 09AC                     u6280 094E                     u5561 0CB0  
                   u5721 0465                     u4841 0EBF                     u4761 0E67  
                   u4681 0DBA                     u6265 033A                     u6361 09AB  
                   u6281 094D                     u5650 0D29                     u5730 046B  
                   u4930 0F70                     u4690 0DC0                     u6290 095D  
                   u5651 0D28                     u5555 0CA6                     u5811 0572  
                   u5731 046A                     u4931 0F6F                     u4691 0DBF  
                   u6291 095C                     u5660 0D46                     u5580 0CC5  
                   u5812 0579                     u5740 0482                     u4940 0F75  
                   u4860 0EE7                     u4780 0E7C                     u5661 0D45  
                   u5645 0D07                     u5581 0CC4                     u5485 0C51  
                   u5901 068D                     u5821 059F                     u5813 0580  
                   u5805 054C                     u5741 0481                     u4941 0F74  
                   u4925 0F65                     u4861 0EE6                     u4781 0E7B  
                   u5670 0D5D                     u5590 0CCA                     u5902 0694  
                   u5822 05A6                     u5750 0487                     u4950 0F7F  
                   u4790 0E80                     u5671 0D5C                     u5655 0D25  
                   u5591 0CC9                     u5575 0CB4                     u5495 0C5A  
                   u5903 069B                     u5823 05AD                     u5751 0486  
                   u4951 0F7E                     u4871 0EFE                     u4863 0EE3  
                   u4855 0EC3                     u4791 0E7F                     u4775 0E6B  
                   u5680 0434                     u4960 0F85                     u4880 0F12  
                   u4872 0EFF                     u5665 0D42                     u5841 05D5  
                   u5761 04D8                     u5681 0433                     u4961 0F84  
                   u4881 0F13                     u4873 0F04                     u6377 0908  
                   u5930 06BF                     u5842 05DC                     u5762 04DF  
                   u5690 043A                     u4970 0F8A                     u4890 0F30  
                   u4882 0F18                     u4874 0F05                     u5931 06BE  
                   u5915 069D                     u5851 0602                     u5843 05E3  
                   u5835 05AF                     u5771 04F4                     u5763 04E6  
                   u5691 0439                     u4971 0F89                     u4891 0F2F  
                   u4883 0F19                     u4875 0F0A                     u6387 0921  
                   u5852 0609                     u5772 04FB                     u4980 0F90  
                   u4876 0F0B                     u5925 06B4                     u5861 062F  
                   u5853 0610                     u5781 0520                     u5773 0502  
                   u4981 0F8F                     u6397 0A0C                     u5950 06D3  
                   u5870 0659                     u5862 0636                     u5782 0527  
                   u4990 0F97                     u5951 06D2                     u5863 063D  
                   u5791 053C                     u5783 052E                     u4991 0F96  
                   u5960 06D8                     u5792 0543                     u5961 06D7  
                   u5945 06C2                     u5881 0665                     u5793 054A  
                   u5970 06EC                     u5890 0681                     u5882 066C  
                   u5971 06EB                     u5883 0673                     u5875 0654  
                   u5980 06F3                     u5981 06F2                     u5990 06F9  
                   u5991 06F8                     u5895 067C                     _TXIF 0064  
                   _atoi 16D9                     _main 166A                     _full 00B7  
                   btemp 007E                     start 000C          ___fldiv@new_exp 004D  
                  ??_isr 0070            ___fltol@sign1 0025                    ?_atoi 002D  
        __end_of___fladd 1000                    ?_main 0070          __end_of___fldiv 0D70  
        __end_of___awdiv 166A          __end_of___flmul 0784          __end_of___flsub 14AF  
        __end_of___fltol 0800                    _ANSEL 0188          ___awdiv@divisor 0073  
        __end_of___lwdiv 1601                    i1l176 154C          __end_of___lwmod 15BB  
        ___awdiv@counter 0020                    _RCREG 001A                    _SPBRG 0099  
                  _PORTA 0005                    _PORTB 0006          __end_of__doprnt 0B93  
                  _TRISA 0085                    _TRISB 0086                    _TXREG 0019  
            convert@data 00A4          _contador_string 00BB              convert@temp 00A0  
        __end_of_convert 0423          __end_of_dpowers 101A          __end_of_isdigit 144E  
        __end_of_mensaje 0A2A                    atoi@a 0032                    _setup 1553  
                  atoi@s 0034                    _putch 1433                    fpbase 002B  
                  pclath 000A                    status 0003                    wtemp0 007E  
        __end_of_sprintf 148B          __initialization 000F             __end_of_atoi 175C  
           __end_of_main 16D9                   ??_atoi 002F                   ??_main 00AF  
       ___awdiv@dividend 0075                   ?_setup 0070                   ?_putch 0073  
                 _ANSELH 0189                   i1l3171 152C                   i1l3181 1546  
                 i1l3173 1532                   i1l3183 154B                   i1l3175 1538  
                 i1l3177 153D                   i1l3169 1528                   i1l3179 1542  
                 u432_20 152C                   u432_21 152B                   u433_20 1532  
                 u433_21 1531                   u434_20 1542                   u434_21 1541  
                 _SPBRGH 009A         __end_of__fptable 002F         __end_of___xxtofl 0900  
                 ___flge 175C             convert@place 0061                ??___fladd 0028  
                 ___wmul 14AF                ??___fldiv 0043                ??___awdiv 0077  
                 _decena 0079                ??___flmul 004B                ??___flsub 0077  
              ??___fltol 0020                ??___lwdiv 0077                ??___lwmod 0027  
              ??__doprnt 002C         ___awdiv@quotient 0022             __doprnt@flag 0030  
                 _printf 144E                   _unidad 007A             __doprnt@prec 0031  
                 _strcat 14FF                ??_convert 0063                   fptable 0026  
                 fptotal 0002                ??_isdigit 0073                ??_mensaje 00A0  
     __size_of__Umul8_16 0029                   saved_w 007E                ??_sprintf 0039  
             ___flge@ff1 0020               ___flge@ff2 0024             ___xxtofl@arg 0037  
           ___xxtofl@exp 0036             ___xxtofl@val 002D  __end_of__initialization 0022  
             ___fltol@f1 0073           __pcstackCOMMON 0070            __end_of_setup 157F  
          __end_of_putch 143C               __doprnt@ap 002B               __doprnt@pb 0035  
                ??_setup 0073                  ??_putch 0074               __pbssBANK1 00B7  
      __end_of__Umul8_16 14FF               __pmaintext 166A                  ?___flge 0020  
                ?___wmul 0027               __pintentry 0004                  ?_printf 0036  
                ?_strcat 0073                ?___xxtofl 002D               _concatenar 0807  
             __stringtab 1000            convert@digits 00AB          __size_of___flge 00A4  
                ___fladd 0D70                  ___fldiv 0B93                  ___awdiv 1601  
                ___flmul 0423                  ___flsub 148B                  ___fltol 0784  
        __size_of___wmul 0027                  ___lwdiv 15BB                  ___lwmod 157F  
                __doprnt 0A2A                _ANSELbits 0188                  _centena 0078  
                __ptext1 1553                  __ptext2 0900                  __ptext3 144E  
                __ptext4 0807                  __ptext5 14FF                  __ptext6 1468  
                __ptext7 0A2A                  __ptext8 1433                  __ptext9 157F  
        __size_of_printf 001A          __size_of_strcat 0029                  _convert 002F  
                _dpowers 1010                  _isdigit 143C             __size_of_isr 002B  
                _mensaje 0900               ??___xxtofl 0031                  _sprintf 1468  
   end_of_initialization 0022                _RCSTAbits 0018                  printf@f 0036  
              _PORTBbits 0006              ___fladd@grs 0076              ?_concatenar 003E  
          ___xxtofl@sign 0035              ___fldiv@grs 004F              ___fldiv@rem 0048  
            ___flmul@grs 0052                _TXSTAbits 0098           __end_of___flge 1800  
         __end_of___wmul 14D6              _BAUDCTLbits 0187           __end_of_printf 1468  
         __end_of_strcat 1528      start_initialization 000F              __end_of_isr 1553  
    __size_of_concatenar 003D                 ??___flge 0073                 ??___wmul 0077  
              __Umul8_16 14D6              __doprnt@val 0032                 ??_printf 003A  
               ??_strcat 0074                ___fladd@a 0024                ___fladd@b 0020  
              ___fldiv@a 003B                ___fldiv@b 003F                ___flmul@a 0047  
              ___flmul@b 0043              __pbssCOMMON 0078                ___flsub@a 003B  
              ___flsub@b 003F                ___latbits 0002            __pcstackBANK0 0020  
          __pcstackBANK1 00A0        __size_of__fptable 0009        __size_of___xxtofl 00BC  
           _isdigit$1008 0073                __doprnt@c 0034                __doprnt@f 0029  
              _main$1275 00B3         ___lwdiv@dividend 0075                __pfunctab 0026  
               ?___fladd 0020                 ?___fldiv 003B                 ?___awdiv 0073  
               ?___flmul 0043                 ?___flsub 003B                 ?___fltol 0073  
             ?__Umul8_16 0073                 ?___lwdiv 0073                 ?___lwmod 0023  
               ?__doprnt 0029                __pstrings 1000                 ?_convert 005D  
               ?_isdigit 0070                 ?_mensaje 0070         ___lwdiv@quotient 0021  
               ?_sprintf 0036           __size_of_setup 002C           __size_of_putch 0009  
      interrupt_function 0004           ___wmul@product 002B                 _IOCBbits 0096  
            _concatenado 00B9                 _PIE1bits 008C                 _PIR1bits 000C  
             _ADCON0bits 001F              __stringbase 100F               _ADCON1bits 009F  
      ___wmul@multiplier 0027             ??_concatenar 0042                convert@mu 00AD  
     __end_of_concatenar 0844              ??__Umul8_16 0075         __size_of___fladd 0290  
       __size_of___fldiv 01DD         __size_of___awdiv 0069         __size_of___flmul 0361  
       __size_of___flsub 0024         __size_of___fltol 007C         __size_of___lwdiv 0046  
       __size_of___lwmod 003C         __size_of__doprnt 0169       __end_of__stringtab 1010  
             _ANSELHbits 0189                 __fptable 0026         __size_of_convert 03F4  
               ___xxtofl 0844               strcat@from 0073         __size_of_isdigit 0012  
       __size_of_mensaje 012A          ___lwdiv@divisor 0073          ___lwdiv@counter 0020  
               __ptext10 15BB                 __ptext11 16D9                 __ptext20 14D6  
               __ptext12 143C                 __ptext21 175C                 __ptext13 002F  
               __ptext22 0B93                 __ptext14 0844                 __ptext23 1601  
               __ptext15 14AF                 __ptext24 1528                 __ptext16 0784  
               __ptext17 148B                 __ptext18 0D70                 __ptext19 0423  
               _contador 00BA         __size_of_sprintf 0023            __size_of_atoi 0083  
          __size_of_main 006F                 atoi@sign 0031                 fp__putch 002C  
               convert@a 005D                 convert@i 00A9                 convert@j 00A2  
               convert@x 00A5                putch@dato 0073               _INTCONbits 000B  
               isdigit@c 0074                 intlevel1 0026                sprintf@ap 003B  
              sprintf@pb 003C                sprintf@wh 003A         ___lwmod@dividend 0025  
              stringcode 100A               _OSCCONbits 008F                 printf@ap 003B  
               printf@pb 003C   __Umul8_16@multiplicand 0073                 sprintf@f 0036  
               strcat@cp 0076                 strcat@to 0075          ___lwmod@divisor 0023  
        ___lwmod@counter 0028                 stringdir 100A                 stringtab 1000  
          ___fladd@signs 0073             ___fladd@aexp 0074             ___fladd@bexp 0075  
   __Umul8_16@multiplier 0024        __Umul8_16@product 0020  
